ARM GAS  C:\Users\yvesk\AppData\Local\Temp\cchyx8pA.s 			page 1


   1              		.cpu cortex-m4
   2              		.eabi_attribute 27, 1
   3              		.eabi_attribute 28, 1
   4              		.eabi_attribute 20, 1
   5              		.eabi_attribute 21, 1
   6              		.eabi_attribute 23, 3
   7              		.eabi_attribute 24, 1
   8              		.eabi_attribute 25, 1
   9              		.eabi_attribute 26, 1
  10              		.eabi_attribute 30, 1
  11              		.eabi_attribute 34, 1
  12              		.eabi_attribute 18, 4
  13              		.file	"alp.c"
  14              		.text
  15              	.Ltext0:
  16              		.cfi_sections	.debug_frame
  17              		.section	.text.parse_op_return_tag,"ax",%progbits
  18              		.align	1
  19              		.arch armv7e-m
  20              		.syntax unified
  21              		.thumb
  22              		.thumb_func
  23              		.fpu fpv4-sp-d16
  25              	parse_op_return_tag:
  26              	.LVL0:
  27              	.LFB15:
  28              		.file 1 "../../shields/Murata-dualstack/src/alp.c"
   1:../../shields/Murata-dualstack/src/alp.c **** /*! \file alp.c
   2:../../shields/Murata-dualstack/src/alp.c ****  *
   3:../../shields/Murata-dualstack/src/alp.c **** 
   4:../../shields/Murata-dualstack/src/alp.c ****  *  \copyright (C) Copyright 2015 University of Antwerp and others (http://oss-7.cosys.be)
   5:../../shields/Murata-dualstack/src/alp.c ****  *
   6:../../shields/Murata-dualstack/src/alp.c ****  * Licensed under the Apache License, Version 2.0 (the "License");
   7:../../shields/Murata-dualstack/src/alp.c ****  * you may not use this file except in compliance with the License.
   8:../../shields/Murata-dualstack/src/alp.c ****  * You may obtain a copy of the License at
   9:../../shields/Murata-dualstack/src/alp.c ****  *
  10:../../shields/Murata-dualstack/src/alp.c ****  *     http://www.apache.org/licenses/LICENSE-2.0
  11:../../shields/Murata-dualstack/src/alp.c ****  *
  12:../../shields/Murata-dualstack/src/alp.c ****  * Unless required by applicable law or agreed to in writing, software
  13:../../shields/Murata-dualstack/src/alp.c ****  * distributed under the License is distributed on an "AS IS" BASIS,
  14:../../shields/Murata-dualstack/src/alp.c ****  * WITHOUT WARRANTIES OR CONDITIONS OF ANY KIND, either express or implied.
  15:../../shields/Murata-dualstack/src/alp.c ****  * See the License for the specific language governing permissions and
  16:../../shields/Murata-dualstack/src/alp.c ****  * limitations under the License.
  17:../../shields/Murata-dualstack/src/alp.c ****  *
  18:../../shields/Murata-dualstack/src/alp.c ****  *  \author glenn.ergeerts@uantwerpen.be
  19:../../shields/Murata-dualstack/src/alp.c ****  *  \author maarten.weyn@uantwerpen.be
  20:../../shields/Murata-dualstack/src/alp.c ****  *
  21:../../shields/Murata-dualstack/src/alp.c ****  */
  22:../../shields/Murata-dualstack/src/alp.c **** 
  23:../../shields/Murata-dualstack/src/alp.c **** #include "stdlib.h"
  24:../../shields/Murata-dualstack/src/alp.c **** //#include "debug.h"
  25:../../shields/Murata-dualstack/src/alp.c **** #include "errors.h"
  26:../../shields/Murata-dualstack/src/alp.c **** 
  27:../../shields/Murata-dualstack/src/alp.c **** #include "alp.h"
  28:../../shields/Murata-dualstack/src/alp.c **** #include "dae.h"
  29:../../shields/Murata-dualstack/src/alp.c **** #include "fifo.h"
  30:../../shields/Murata-dualstack/src/alp.c **** #include "d7ap.h"
ARM GAS  C:\Users\yvesk\AppData\Local\Temp\cchyx8pA.s 			page 2


  31:../../shields/Murata-dualstack/src/alp.c **** //#include "log.h"
  32:../../shields/Murata-dualstack/src/alp.c **** #include "lorawan_stack.h"
  33:../../shields/Murata-dualstack/src/alp.c **** 
  34:../../shields/Murata-dualstack/src/alp.c **** #if defined(FRAMEWORK_LOG_ENABLED) && defined(FRAMEWORK_ALP_LOG_ENABLED)
  35:../../shields/Murata-dualstack/src/alp.c ****   #define DPRINT(...) log_print_stack_string(LOG_STACK_ALP, __VA_ARGS__)
  36:../../shields/Murata-dualstack/src/alp.c **** #else
  37:../../shields/Murata-dualstack/src/alp.c ****   #define DPRINT(...)
  38:../../shields/Murata-dualstack/src/alp.c **** #endif
  39:../../shields/Murata-dualstack/src/alp.c **** 
  40:../../shields/Murata-dualstack/src/alp.c **** 
  41:../../shields/Murata-dualstack/src/alp.c **** alp_operation_t alp_get_operation(uint8_t* alp_command)
  42:../../shields/Murata-dualstack/src/alp.c **** {
  43:../../shields/Murata-dualstack/src/alp.c ****     alp_control_t alp_ctrl;
  44:../../shields/Murata-dualstack/src/alp.c ****     alp_ctrl.raw = (*alp_command);
  45:../../shields/Murata-dualstack/src/alp.c ****     return alp_ctrl.operation;
  46:../../shields/Murata-dualstack/src/alp.c **** }
  47:../../shields/Murata-dualstack/src/alp.c **** 
  48:../../shields/Murata-dualstack/src/alp.c **** uint32_t alp_parse_length_operand(fifo_t* cmd_fifo) {
  49:../../shields/Murata-dualstack/src/alp.c ****   uint8_t len = 0;
  50:../../shields/Murata-dualstack/src/alp.c ****   fifo_pop(cmd_fifo, (uint8_t*)&len, 1);
  51:../../shields/Murata-dualstack/src/alp.c ****   uint8_t field_len = len >> 6;
  52:../../shields/Murata-dualstack/src/alp.c ****   if(field_len == 0)
  53:../../shields/Murata-dualstack/src/alp.c ****     return (uint32_t)len;
  54:../../shields/Murata-dualstack/src/alp.c **** 
  55:../../shields/Murata-dualstack/src/alp.c ****   uint32_t full_length = (len & 0x3F) << ( 8 * field_len); // mask field length specificier bits an
  56:../../shields/Murata-dualstack/src/alp.c ****   fifo_pop(cmd_fifo, (uint8_t*)&full_length, field_len);
  57:../../shields/Murata-dualstack/src/alp.c ****   return full_length;
  58:../../shields/Murata-dualstack/src/alp.c **** }
  59:../../shields/Murata-dualstack/src/alp.c **** 
  60:../../shields/Murata-dualstack/src/alp.c **** void alp_append_length_operand(fifo_t* fifo, uint32_t length) {
  61:../../shields/Murata-dualstack/src/alp.c ****   if(length < 64) {
  62:../../shields/Murata-dualstack/src/alp.c ****     // can be coded in one byte
  63:../../shields/Murata-dualstack/src/alp.c ****     assert(fifo_put(fifo, (uint8_t*)&length, 1) == oss7SUCCESS);
  64:../../shields/Murata-dualstack/src/alp.c ****     return;
  65:../../shields/Murata-dualstack/src/alp.c ****   }
  66:../../shields/Murata-dualstack/src/alp.c **** 
  67:../../shields/Murata-dualstack/src/alp.c ****   uint8_t size = 1;
  68:../../shields/Murata-dualstack/src/alp.c ****   if(length > 0x3FFF)
  69:../../shields/Murata-dualstack/src/alp.c ****     size = 2;
  70:../../shields/Murata-dualstack/src/alp.c ****   if(length > 0x3FFFFF)
  71:../../shields/Murata-dualstack/src/alp.c ****     size = 3;
  72:../../shields/Murata-dualstack/src/alp.c **** 
  73:../../shields/Murata-dualstack/src/alp.c ****   uint8_t byte = 0;
  74:../../shields/Murata-dualstack/src/alp.c ****   byte += (size << 6); // length specifier bits
  75:../../shields/Murata-dualstack/src/alp.c ****   byte += ((uint8_t*)(&length))[size];
  76:../../shields/Murata-dualstack/src/alp.c ****   assert(fifo_put(fifo, &byte, 1) == oss7SUCCESS);
  77:../../shields/Murata-dualstack/src/alp.c ****   do {
  78:../../shields/Murata-dualstack/src/alp.c ****     size--;
  79:../../shields/Murata-dualstack/src/alp.c ****     assert(fifo_put(fifo, (uint8_t*)&length + size, 1) == oss7SUCCESS);
  80:../../shields/Murata-dualstack/src/alp.c ****   } while(size > 0);
  81:../../shields/Murata-dualstack/src/alp.c **** }
  82:../../shields/Murata-dualstack/src/alp.c **** 
  83:../../shields/Murata-dualstack/src/alp.c **** alp_operand_file_offset_t alp_parse_file_offset_operand(fifo_t* cmd_fifo) {
  84:../../shields/Murata-dualstack/src/alp.c ****   alp_operand_file_offset_t operand;
  85:../../shields/Murata-dualstack/src/alp.c ****   error_t err = fifo_pop(cmd_fifo, &operand.file_id, 1); assert(err == oss7SUCCESS);
  86:../../shields/Murata-dualstack/src/alp.c ****   operand.offset = alp_parse_length_operand(cmd_fifo);
  87:../../shields/Murata-dualstack/src/alp.c ****   return operand;
ARM GAS  C:\Users\yvesk\AppData\Local\Temp\cchyx8pA.s 			page 3


  88:../../shields/Murata-dualstack/src/alp.c **** }
  89:../../shields/Murata-dualstack/src/alp.c **** 
  90:../../shields/Murata-dualstack/src/alp.c **** alp_operand_file_header_t alp_parse_file_header_operand(fifo_t* cmd_fifo) {
  91:../../shields/Murata-dualstack/src/alp.c ****   alp_operand_file_header_t operand;
  92:../../shields/Murata-dualstack/src/alp.c ****   error_t err = fifo_pop(cmd_fifo, &operand.file_id, 1); assert(err == oss7SUCCESS);
  93:../../shields/Murata-dualstack/src/alp.c ****   err = fifo_pop(cmd_fifo, (uint8_t*)&operand.file_header, sizeof(d7ap_fs_file_header_t)); assert(e
  94:../../shields/Murata-dualstack/src/alp.c **** 
  95:../../shields/Murata-dualstack/src/alp.c ****   // convert to little endian (native)
  96:../../shields/Murata-dualstack/src/alp.c ****   operand.file_header.length = __builtin_bswap32(operand.file_header.length);
  97:../../shields/Murata-dualstack/src/alp.c ****   operand.file_header.allocated_length = __builtin_bswap32(operand.file_header.allocated_length);
  98:../../shields/Murata-dualstack/src/alp.c ****   return operand;
  99:../../shields/Murata-dualstack/src/alp.c **** }
 100:../../shields/Murata-dualstack/src/alp.c **** 
 101:../../shields/Murata-dualstack/src/alp.c **** void alp_append_file_offset_operand(fifo_t* fifo, uint8_t file_id, uint32_t offset) {
 102:../../shields/Murata-dualstack/src/alp.c ****   assert(fifo_put_byte(fifo, file_id) == oss7SUCCESS);
 103:../../shields/Murata-dualstack/src/alp.c ****   alp_append_length_operand(fifo, offset);
 104:../../shields/Murata-dualstack/src/alp.c **** }
 105:../../shields/Murata-dualstack/src/alp.c **** 
 106:../../shields/Murata-dualstack/src/alp.c **** void alp_append_indirect_forward_action(fifo_t* fifo, uint8_t file_id, bool overload, uint8_t *over
 107:../../shields/Murata-dualstack/src/alp.c ****   assert(fifo_put_byte(fifo, ALP_OP_INDIRECT_FORWARD | (overload << 7)) == oss7SUCCESS);
 108:../../shields/Murata-dualstack/src/alp.c ****   assert(fifo_put_byte(fifo, file_id) == oss7SUCCESS);
 109:../../shields/Murata-dualstack/src/alp.c **** 
 110:../../shields/Murata-dualstack/src/alp.c ****   if (overload) {
 111:../../shields/Murata-dualstack/src/alp.c ****     assert(fifo_put(fifo, overload_config, overload_config_len) == oss7SUCCESS);
 112:../../shields/Murata-dualstack/src/alp.c ****   }
 113:../../shields/Murata-dualstack/src/alp.c **** 
 114:../../shields/Murata-dualstack/src/alp.c ****   DPRINT("INDIRECT FORWARD");
 115:../../shields/Murata-dualstack/src/alp.c **** }
 116:../../shields/Murata-dualstack/src/alp.c **** 
 117:../../shields/Murata-dualstack/src/alp.c **** void alp_append_forward_action(fifo_t* fifo, uint8_t itf_id, uint8_t *config, uint8_t config_len) {
 118:../../shields/Murata-dualstack/src/alp.c ****   assert(config!=NULL);
 119:../../shields/Murata-dualstack/src/alp.c ****   assert(fifo_put_byte(fifo, ALP_OP_FORWARD) == oss7SUCCESS);
 120:../../shields/Murata-dualstack/src/alp.c ****   assert(fifo_put_byte(fifo, itf_id) == oss7SUCCESS);
 121:../../shields/Murata-dualstack/src/alp.c **** 
 122:../../shields/Murata-dualstack/src/alp.c ****   if (itf_id == ALP_ITF_ID_D7ASP)
 123:../../shields/Murata-dualstack/src/alp.c ****   {
 124:../../shields/Murata-dualstack/src/alp.c ****     assert(fifo_put_byte(fifo, ((d7ap_session_config_t*)config)->qos.raw) == oss7SUCCESS);
 125:../../shields/Murata-dualstack/src/alp.c ****     assert(fifo_put_byte(fifo, ((d7ap_session_config_t*)config)->dormant_timeout) == oss7SUCCESS);
 126:../../shields/Murata-dualstack/src/alp.c ****     assert(fifo_put_byte(fifo, ((d7ap_session_config_t*)config)->addressee.ctrl.raw) == oss7SUCCESS
 127:../../shields/Murata-dualstack/src/alp.c ****     uint8_t id_length = d7ap_addressee_id_length(((d7ap_session_config_t*)config)->addressee.ctrl.i
 128:../../shields/Murata-dualstack/src/alp.c ****     assert(fifo_put_byte(fifo, ((d7ap_session_config_t*)config)->addressee.access_class) == oss7SUC
 129:../../shields/Murata-dualstack/src/alp.c ****     assert(fifo_put(fifo, ((d7ap_session_config_t*)config)->addressee.id, id_length) == oss7SUCCESS
 130:../../shields/Murata-dualstack/src/alp.c ****   }
 131:../../shields/Murata-dualstack/src/alp.c ****   else if(itf_id == ALP_ITF_ID_LORAWAN_ABP)
 132:../../shields/Murata-dualstack/src/alp.c ****   {
 133:../../shields/Murata-dualstack/src/alp.c ****     uint8_t control_byte = ((lorawan_session_config_abp_t*)config)->request_ack << 1;
 134:../../shields/Murata-dualstack/src/alp.c ****     control_byte += ((lorawan_session_config_abp_t*)config)->adr_enabled << 2;
 135:../../shields/Murata-dualstack/src/alp.c ****     assert(fifo_put_byte(fifo, control_byte) == oss7SUCCESS);
 136:../../shields/Murata-dualstack/src/alp.c ****     assert(fifo_put_byte(fifo, ((lorawan_session_config_abp_t*)config)->application_port) == oss7SU
 137:../../shields/Murata-dualstack/src/alp.c ****     assert(fifo_put_byte(fifo, ((lorawan_session_config_abp_t*)config)->data_rate) == oss7SUCCESS);
 138:../../shields/Murata-dualstack/src/alp.c ****     assert(fifo_put(fifo, ((lorawan_session_config_abp_t*)config)->nwkSKey, 16) == oss7SUCCESS);
 139:../../shields/Murata-dualstack/src/alp.c ****     assert(fifo_put(fifo, ((lorawan_session_config_abp_t*)config)->appSKey, 16) == oss7SUCCESS);
 140:../../shields/Murata-dualstack/src/alp.c ****     uint32_t dev_addr = __builtin_bswap32(((lorawan_session_config_abp_t*)config)->devAddr);
 141:../../shields/Murata-dualstack/src/alp.c ****     assert(fifo_put(fifo, (uint8_t*)&dev_addr, 4) == oss7SUCCESS);
 142:../../shields/Murata-dualstack/src/alp.c ****     uint32_t network_id = __builtin_bswap32(((lorawan_session_config_abp_t*)config)->network_id);
 143:../../shields/Murata-dualstack/src/alp.c **** 
 144:../../shields/Murata-dualstack/src/alp.c ****     assert(fifo_put(fifo, (uint8_t*)&network_id, 4) == oss7SUCCESS);
ARM GAS  C:\Users\yvesk\AppData\Local\Temp\cchyx8pA.s 			page 4


 145:../../shields/Murata-dualstack/src/alp.c ****   }
 146:../../shields/Murata-dualstack/src/alp.c ****   else if(itf_id == ALP_ITF_ID_LORAWAN_OTAA)
 147:../../shields/Murata-dualstack/src/alp.c ****   {
 148:../../shields/Murata-dualstack/src/alp.c ****     uint8_t control_byte = ((lorawan_session_config_otaa_t*)config)->request_ack << 1;
 149:../../shields/Murata-dualstack/src/alp.c ****     control_byte += ((lorawan_session_config_otaa_t*)config)->adr_enabled << 2;
 150:../../shields/Murata-dualstack/src/alp.c ****     assert(fifo_put_byte(fifo, control_byte) == oss7SUCCESS);
 151:../../shields/Murata-dualstack/src/alp.c ****     assert(fifo_put_byte(fifo, ((lorawan_session_config_otaa_t*)config)->application_port) == oss7S
 152:../../shields/Murata-dualstack/src/alp.c ****     assert(fifo_put_byte(fifo, ((lorawan_session_config_otaa_t*)config)->data_rate) == oss7SUCCESS)
 153:../../shields/Murata-dualstack/src/alp.c ****     assert(fifo_put(fifo, ((lorawan_session_config_otaa_t*)config)->devEUI, 8) == oss7SUCCESS);
 154:../../shields/Murata-dualstack/src/alp.c ****     assert(fifo_put(fifo, ((lorawan_session_config_otaa_t*)config)->appEUI, 8) == oss7SUCCESS);
 155:../../shields/Murata-dualstack/src/alp.c ****     assert(fifo_put(fifo, ((lorawan_session_config_otaa_t*)config)->appKey, 16) == oss7SUCCESS);
 156:../../shields/Murata-dualstack/src/alp.c ****   }
 157:../../shields/Murata-dualstack/src/alp.c ****   else
 158:../../shields/Murata-dualstack/src/alp.c ****   {
 159:../../shields/Murata-dualstack/src/alp.c ****     assert(fifo_put(fifo, config, config_len) == oss7SUCCESS);
 160:../../shields/Murata-dualstack/src/alp.c ****   }
 161:../../shields/Murata-dualstack/src/alp.c **** 
 162:../../shields/Murata-dualstack/src/alp.c ****   DPRINT("FORWARD");
 163:../../shields/Murata-dualstack/src/alp.c **** }
 164:../../shields/Murata-dualstack/src/alp.c **** 
 165:../../shields/Murata-dualstack/src/alp.c **** void alp_append_return_file_data_action(fifo_t* fifo, uint8_t file_id, uint32_t offset, uint32_t le
 166:../../shields/Murata-dualstack/src/alp.c ****   assert(fifo_put_byte(fifo, ALP_OP_RETURN_FILE_DATA) == oss7SUCCESS);
 167:../../shields/Murata-dualstack/src/alp.c ****   assert(fifo_put_byte(fifo, file_id) == oss7SUCCESS);
 168:../../shields/Murata-dualstack/src/alp.c ****   alp_append_length_operand(fifo, offset);
 169:../../shields/Murata-dualstack/src/alp.c ****   alp_append_length_operand(fifo, length);
 170:../../shields/Murata-dualstack/src/alp.c ****   assert(fifo_put(fifo, data, length) == oss7SUCCESS);
 171:../../shields/Murata-dualstack/src/alp.c **** }
 172:../../shields/Murata-dualstack/src/alp.c **** 
 173:../../shields/Murata-dualstack/src/alp.c **** static void append_tag_response(fifo_t* fifo, uint8_t tag_id, bool eop, bool error) {
 174:../../shields/Murata-dualstack/src/alp.c ****   // fill response with tag response
 175:../../shields/Murata-dualstack/src/alp.c ****   uint8_t op_return_tag = ALP_OP_RETURN_TAG | (eop << 7);
 176:../../shields/Murata-dualstack/src/alp.c ****   op_return_tag |= (error << 6);
 177:../../shields/Murata-dualstack/src/alp.c ****   error_t err = fifo_put_byte(fifo, op_return_tag); assert(err == oss7SUCCESS);
 178:../../shields/Murata-dualstack/src/alp.c ****   err = fifo_put_byte(fifo, tag_id); assert(err == oss7SUCCESS);
 179:../../shields/Murata-dualstack/src/alp.c **** }
 180:../../shields/Murata-dualstack/src/alp.c **** 
 181:../../shields/Murata-dualstack/src/alp.c **** 
 182:../../shields/Murata-dualstack/src/alp.c **** static void add_interface_status_action(fifo_t* alp_response_fifo, uint8_t itf_id, uint8_t *status,
 183:../../shields/Murata-dualstack/src/alp.c ****   if (itf_id == ALP_ITF_ID_D7ASP)
 184:../../shields/Murata-dualstack/src/alp.c ****   {
 185:../../shields/Murata-dualstack/src/alp.c ****     fifo_put_byte(alp_response_fifo, ALP_OP_RETURN_STATUS + (1 << 6));
 186:../../shields/Murata-dualstack/src/alp.c ****     fifo_put_byte(alp_response_fifo, ALP_ITF_ID_D7ASP);
 187:../../shields/Murata-dualstack/src/alp.c ****     //TODO insert status len
 188:../../shields/Murata-dualstack/src/alp.c ****     fifo_put_byte(alp_response_fifo, ((d7ap_session_result_t*)status)->channel.channel_header);
 189:../../shields/Murata-dualstack/src/alp.c ****     uint16_t center_freq_index_be = __builtin_bswap16(((d7ap_session_result_t*)status)->channel.cen
 190:../../shields/Murata-dualstack/src/alp.c ****     fifo_put(alp_response_fifo, (uint8_t*)&center_freq_index_be, 2);
 191:../../shields/Murata-dualstack/src/alp.c ****     fifo_put_byte(alp_response_fifo, ((d7ap_session_result_t*)status)->rx_level);
 192:../../shields/Murata-dualstack/src/alp.c ****     fifo_put_byte(alp_response_fifo, ((d7ap_session_result_t*)status)->link_budget);
 193:../../shields/Murata-dualstack/src/alp.c ****     fifo_put_byte(alp_response_fifo, ((d7ap_session_result_t*)status)->target_rx_level);
 194:../../shields/Murata-dualstack/src/alp.c ****     fifo_put_byte(alp_response_fifo, ((d7ap_session_result_t*)status)->status.raw);
 195:../../shields/Murata-dualstack/src/alp.c ****     fifo_put_byte(alp_response_fifo, ((d7ap_session_result_t*)status)->fifo_token);
 196:../../shields/Murata-dualstack/src/alp.c ****     fifo_put_byte(alp_response_fifo, ((d7ap_session_result_t*)status)->seqnr);
 197:../../shields/Murata-dualstack/src/alp.c ****     fifo_put_byte(alp_response_fifo, ((d7ap_session_result_t*)status)->response_to);
 198:../../shields/Murata-dualstack/src/alp.c ****     fifo_put_byte(alp_response_fifo, ((d7ap_session_result_t*)status)->addressee.ctrl.raw);
 199:../../shields/Murata-dualstack/src/alp.c ****     fifo_put_byte(alp_response_fifo, ((d7ap_session_result_t*)status)->addressee.access_class);
 200:../../shields/Murata-dualstack/src/alp.c ****     uint8_t address_len = d7ap_addressee_id_length(((d7ap_session_result_t*)status)->addressee.ctrl
 201:../../shields/Murata-dualstack/src/alp.c ****     fifo_put(alp_response_fifo, ((d7ap_session_result_t*)status)->addressee.id, address_len);
ARM GAS  C:\Users\yvesk\AppData\Local\Temp\cchyx8pA.s 			page 5


 202:../../shields/Murata-dualstack/src/alp.c ****   }
 203:../../shields/Murata-dualstack/src/alp.c **** }
 204:../../shields/Murata-dualstack/src/alp.c **** 
 205:../../shields/Murata-dualstack/src/alp.c **** 
 206:../../shields/Murata-dualstack/src/alp.c **** static void parse_operand_file_data(fifo_t* fifo, alp_action_t* action) {
 207:../../shields/Murata-dualstack/src/alp.c ****   action->file_data_operand.file_offset = alp_parse_file_offset_operand(fifo);
 208:../../shields/Murata-dualstack/src/alp.c ****   action->file_data_operand.provided_data_length = alp_parse_length_operand(fifo);
 209:../../shields/Murata-dualstack/src/alp.c ****   assert(action->file_data_operand.provided_data_length <= sizeof(action->file_data_operand.data));
 210:../../shields/Murata-dualstack/src/alp.c ****   fifo_pop(fifo, action->file_data_operand.data, action->file_data_operand.provided_data_length);
 211:../../shields/Murata-dualstack/src/alp.c **** }
 212:../../shields/Murata-dualstack/src/alp.c **** 
 213:../../shields/Murata-dualstack/src/alp.c **** static void parse_op_write_file_data(fifo_t* fifo, alp_action_t* action) {
 214:../../shields/Murata-dualstack/src/alp.c ****   parse_operand_file_data(fifo, action);
 215:../../shields/Murata-dualstack/src/alp.c ****   DPRINT("parsed write file data file %i, len %i", action->file_data_operand.file_offset.file_id, a
 216:../../shields/Murata-dualstack/src/alp.c **** }
 217:../../shields/Murata-dualstack/src/alp.c **** 
 218:../../shields/Murata-dualstack/src/alp.c **** 
 219:../../shields/Murata-dualstack/src/alp.c **** static void parse_op_return_file_data(fifo_t* fifo, alp_action_t* action) {
 220:../../shields/Murata-dualstack/src/alp.c ****   parse_operand_file_data(fifo, action);
 221:../../shields/Murata-dualstack/src/alp.c ****   DPRINT("parsed return file data file %i, len %i", action->file_data_operand.file_offset.file_id, 
 222:../../shields/Murata-dualstack/src/alp.c **** }
 223:../../shields/Murata-dualstack/src/alp.c **** 
 224:../../shields/Murata-dualstack/src/alp.c **** static void parse_op_return_tag(fifo_t* fifo, alp_action_t* action, bool b6, bool b7) {
  29              		.loc 1 224 87 view -0
  30              		.cfi_startproc
  31              		@ args = 0, pretend = 0, frame = 0
  32              		@ frame_needed = 0, uses_anonymous_args = 0
  33              		.loc 1 224 87 is_stmt 0 view .LVU1
  34 0000 08B5     		push	{r3, lr}
  35              	.LCFI0:
  36              		.cfi_def_cfa_offset 8
  37              		.cfi_offset 3, -8
  38              		.cfi_offset 14, -4
 225:../../shields/Murata-dualstack/src/alp.c ****   action->tag_response.completed = b7;
  39              		.loc 1 225 3 is_stmt 1 view .LVU2
  40              		.loc 1 225 34 is_stmt 0 view .LVU3
  41 0002 0B71     		strb	r3, [r1, #4]
 226:../../shields/Murata-dualstack/src/alp.c ****   action->tag_response.error = b6;
  42              		.loc 1 226 3 is_stmt 1 view .LVU4
  43              		.loc 1 226 30 is_stmt 0 view .LVU5
  44 0004 4A71     		strb	r2, [r1, #5]
 227:../../shields/Murata-dualstack/src/alp.c ****   assert(fifo_pop(fifo, &action->tag_response.tag_id, 1) == oss7SUCCESS);
  45              		.loc 1 227 3 is_stmt 1 view .LVU6
  46 0006 0122     		movs	r2, #1
  47              	.LVL1:
  48              		.loc 1 227 3 is_stmt 0 view .LVU7
  49 0008 0631     		adds	r1, r1, #6
  50              	.LVL2:
  51              		.loc 1 227 3 view .LVU8
  52 000a FFF7FEFF 		bl	fifo_pop
  53              	.LVL3:
  54              		.loc 1 227 3 view .LVU9
  55 000e 00B9     		cbnz	r0, .L4
 228:../../shields/Murata-dualstack/src/alp.c ****   DPRINT("parsed return tag %i, eop %i, err %i", action->tag_response.tag_id, action->tag_response.
 229:../../shields/Murata-dualstack/src/alp.c **** }
  56              		.loc 1 229 1 view .LVU10
  57 0010 08BD     		pop	{r3, pc}
ARM GAS  C:\Users\yvesk\AppData\Local\Temp\cchyx8pA.s 			page 6


  58              	.L4:
 227:../../shields/Murata-dualstack/src/alp.c ****   assert(fifo_pop(fifo, &action->tag_response.tag_id, 1) == oss7SUCCESS);
  59              		.loc 1 227 3 discriminator 1 view .LVU11
  60 0012 034B     		ldr	r3, .L5
  61 0014 034A     		ldr	r2, .L5+4
  62 0016 E321     		movs	r1, #227
  63 0018 0348     		ldr	r0, .L5+8
  64 001a FFF7FEFF 		bl	__assert_func
  65              	.LVL4:
  66              	.L6:
  67 001e 00BF     		.align	2
  68              	.L5:
  69 0020 00000000 		.word	.LC0
  70 0024 00000000 		.word	.LANCHOR0
  71 0028 40000000 		.word	.LC1
  72              		.cfi_endproc
  73              	.LFE15:
  75              		.section	.text.parse_op_return_status,"ax",%progbits
  76              		.align	1
  77              		.syntax unified
  78              		.thumb
  79              		.thumb_func
  80              		.fpu fpv4-sp-d16
  82              	parse_op_return_status:
  83              	.LVL5:
  84              	.LFB16:
 230:../../shields/Murata-dualstack/src/alp.c **** 
 231:../../shields/Murata-dualstack/src/alp.c **** static void parse_op_return_status(fifo_t* fifo, alp_action_t* action, bool b6, bool b7) {
  85              		.loc 1 231 90 is_stmt 1 view -0
  86              		.cfi_startproc
  87              		@ args = 0, pretend = 0, frame = 8
  88              		@ frame_needed = 0, uses_anonymous_args = 0
  89              		.loc 1 231 90 is_stmt 0 view .LVU13
  90 0000 70B5     		push	{r4, r5, r6, lr}
  91              	.LCFI1:
  92              		.cfi_def_cfa_offset 16
  93              		.cfi_offset 4, -16
  94              		.cfi_offset 5, -12
  95              		.cfi_offset 6, -8
  96              		.cfi_offset 14, -4
  97 0002 82B0     		sub	sp, sp, #8
  98              	.LCFI2:
  99              		.cfi_def_cfa_offset 24
 232:../../shields/Murata-dualstack/src/alp.c ****   assert(b6 && !b7); // TODO implement action status
 100              		.loc 1 232 3 is_stmt 1 view .LVU14
 101 0004 A2B1     		cbz	r2, .L8
 102 0006 0546     		mov	r5, r0
 103 0008 0C46     		mov	r4, r1
 104              		.loc 1 232 3 is_stmt 0 discriminator 2 view .LVU15
 105 000a 8BB9     		cbnz	r3, .L8
 233:../../shields/Murata-dualstack/src/alp.c ****   uint8_t itf_id;
 106              		.loc 1 233 3 is_stmt 1 view .LVU16
 234:../../shields/Murata-dualstack/src/alp.c ****   assert(fifo_pop(fifo, &itf_id, 1) == oss7SUCCESS);
 107              		.loc 1 234 3 view .LVU17
 108 000c 0122     		movs	r2, #1
 109              	.LVL6:
 110              		.loc 1 234 3 is_stmt 0 view .LVU18
ARM GAS  C:\Users\yvesk\AppData\Local\Temp\cchyx8pA.s 			page 7


 111 000e 0DF10701 		add	r1, sp, #7
 112              	.LVL7:
 113              		.loc 1 234 3 view .LVU19
 114 0012 FFF7FEFF 		bl	fifo_pop
 115              	.LVL8:
 116              		.loc 1 234 3 view .LVU20
 117 0016 88B9     		cbnz	r0, .L21
 235:../../shields/Murata-dualstack/src/alp.c ****   // TODO uint32_t itf_len = parse_length_operand(fifo);
 236:../../shields/Murata-dualstack/src/alp.c ****   // assert(itf_len == sizeof(d7ap_session_result_t));
 237:../../shields/Murata-dualstack/src/alp.c ****   action->status.type=itf_id;
 118              		.loc 1 237 3 is_stmt 1 view .LVU21
 119              		.loc 1 237 22 is_stmt 0 view .LVU22
 120 0018 9DF80730 		ldrb	r3, [sp, #7]	@ zero_extendqisi2
 121 001c 84F80431 		strb	r3, [r4, #260]
 238:../../shields/Murata-dualstack/src/alp.c ****   if (itf_id == ALP_ITF_ID_D7ASP)
 122              		.loc 1 238 3 is_stmt 1 view .LVU23
 123              		.loc 1 238 6 is_stmt 0 view .LVU24
 124 0020 D72B     		cmp	r3, #215
 125 0022 11D0     		beq	.L22
 239:../../shields/Murata-dualstack/src/alp.c ****   {
 240:../../shields/Murata-dualstack/src/alp.c ****     d7ap_session_result_t* interface_status =  ((d7ap_session_result_t*)action->status.data);
 241:../../shields/Murata-dualstack/src/alp.c **** 
 242:../../shields/Murata-dualstack/src/alp.c ****     fifo_pop(fifo, &interface_status->channel.channel_header, 1);
 243:../../shields/Murata-dualstack/src/alp.c ****     fifo_pop(fifo, (uint8_t*)&interface_status->channel.center_freq_index, 2);
 244:../../shields/Murata-dualstack/src/alp.c ****     interface_status->channel.center_freq_index = __builtin_bswap16(interface_status->channel.cente
 245:../../shields/Murata-dualstack/src/alp.c ****     fifo_pop(fifo, &interface_status->rx_level, 1);
 246:../../shields/Murata-dualstack/src/alp.c ****     fifo_pop(fifo, &interface_status->link_budget, 1);
 247:../../shields/Murata-dualstack/src/alp.c ****     fifo_pop(fifo, &interface_status->target_rx_level, 1);
 248:../../shields/Murata-dualstack/src/alp.c ****     fifo_pop(fifo, &interface_status->status.raw, 1);
 249:../../shields/Murata-dualstack/src/alp.c ****     fifo_pop(fifo, &interface_status->fifo_token, 1);
 250:../../shields/Murata-dualstack/src/alp.c ****     fifo_pop(fifo, &interface_status->seqnr, 1);
 251:../../shields/Murata-dualstack/src/alp.c ****     fifo_pop(fifo, &interface_status->response_to, 1);
 252:../../shields/Murata-dualstack/src/alp.c ****     fifo_pop(fifo, &interface_status->addressee.ctrl.raw, 1);
 253:../../shields/Murata-dualstack/src/alp.c ****     fifo_pop(fifo, &interface_status->addressee.access_class, 1);
 254:../../shields/Murata-dualstack/src/alp.c ****     uint8_t addressee_len = d7ap_addressee_id_length(interface_status->addressee.ctrl.id_type);
 255:../../shields/Murata-dualstack/src/alp.c ****     assert(fifo_pop(fifo, (uint8_t*)&interface_status->addressee.id, addressee_len) == oss7SUCCESS)
 256:../../shields/Murata-dualstack/src/alp.c ****   }
 257:../../shields/Murata-dualstack/src/alp.c ****   else if ( (itf_id == ALP_ITF_ID_LORAWAN_OTAA) || (itf_id == ALP_ITF_ID_LORAWAN_ABP))
 126              		.loc 1 257 8 is_stmt 1 view .LVU25
 127              		.loc 1 257 49 is_stmt 0 view .LVU26
 128 0024 023B     		subs	r3, r3, #2
 129 0026 DBB2     		uxtb	r3, r3
 130              		.loc 1 257 11 view .LVU27
 131 0028 012B     		cmp	r3, #1
 132 002a 75D9     		bls	.L23
 133              	.L7:
 258:../../shields/Murata-dualstack/src/alp.c ****   {
 259:../../shields/Murata-dualstack/src/alp.c ****     lorawan_session_result_t* interface_status = ((lorawan_session_result_t*)action->status.data);
 260:../../shields/Murata-dualstack/src/alp.c ****     fifo_skip(fifo,1); //size
 261:../../shields/Murata-dualstack/src/alp.c ****     fifo_pop(fifo, &interface_status->attempts, 1);
 262:../../shields/Murata-dualstack/src/alp.c ****     fifo_pop(fifo, &interface_status->error_state, 1);
 263:../../shields/Murata-dualstack/src/alp.c ****     fifo_pop(fifo,  (uint8_t*)&interface_status->duty_cycle_wait_time,2);
 264:../../shields/Murata-dualstack/src/alp.c ****     interface_status->duty_cycle_wait_time= __builtin_bswap16(interface_status->duty_cycle_wait_tim
 265:../../shields/Murata-dualstack/src/alp.c ****   }
 266:../../shields/Murata-dualstack/src/alp.c **** 
 267:../../shields/Murata-dualstack/src/alp.c ****   DPRINT("parsed interface status");
 268:../../shields/Murata-dualstack/src/alp.c **** }
ARM GAS  C:\Users\yvesk\AppData\Local\Temp\cchyx8pA.s 			page 8


 134              		.loc 1 268 1 view .LVU28
 135 002c 02B0     		add	sp, sp, #8
 136              	.LCFI3:
 137              		.cfi_remember_state
 138              		.cfi_def_cfa_offset 16
 139              		@ sp needed
 140 002e 70BD     		pop	{r4, r5, r6, pc}
 141              	.LVL9:
 142              	.L8:
 143              	.LCFI4:
 144              		.cfi_restore_state
 232:../../shields/Murata-dualstack/src/alp.c ****   uint8_t itf_id;
 145              		.loc 1 232 3 discriminator 3 view .LVU29
 146 0030 454B     		ldr	r3, .L24
 147              	.LVL10:
 232:../../shields/Murata-dualstack/src/alp.c ****   uint8_t itf_id;
 148              		.loc 1 232 3 discriminator 3 view .LVU30
 149 0032 464A     		ldr	r2, .L24+4
 150              	.LVL11:
 232:../../shields/Murata-dualstack/src/alp.c ****   uint8_t itf_id;
 151              		.loc 1 232 3 discriminator 3 view .LVU31
 152 0034 E821     		movs	r1, #232
 153              	.LVL12:
 232:../../shields/Murata-dualstack/src/alp.c ****   uint8_t itf_id;
 154              		.loc 1 232 3 discriminator 3 view .LVU32
 155 0036 4648     		ldr	r0, .L24+8
 156              	.LVL13:
 232:../../shields/Murata-dualstack/src/alp.c ****   uint8_t itf_id;
 157              		.loc 1 232 3 discriminator 3 view .LVU33
 158 0038 FFF7FEFF 		bl	__assert_func
 159              	.LVL14:
 160              	.L21:
 234:../../shields/Murata-dualstack/src/alp.c ****   // TODO uint32_t itf_len = parse_length_operand(fifo);
 161              		.loc 1 234 3 discriminator 1 view .LVU34
 162 003c 454B     		ldr	r3, .L24+12
 163 003e 434A     		ldr	r2, .L24+4
 164 0040 EA21     		movs	r1, #234
 165 0042 4348     		ldr	r0, .L24+8
 166 0044 FFF7FEFF 		bl	__assert_func
 167              	.LVL15:
 168              	.L22:
 169              	.LBB6:
 240:../../shields/Murata-dualstack/src/alp.c **** 
 170              		.loc 1 240 5 is_stmt 1 view .LVU35
 242:../../shields/Murata-dualstack/src/alp.c ****     fifo_pop(fifo, (uint8_t*)&interface_status->channel.center_freq_index, 2);
 171              		.loc 1 242 5 view .LVU36
 172 0048 261D     		adds	r6, r4, #4
 173              	.LVL16:
 242:../../shields/Murata-dualstack/src/alp.c ****     fifo_pop(fifo, (uint8_t*)&interface_status->channel.center_freq_index, 2);
 174              		.loc 1 242 5 is_stmt 0 view .LVU37
 175 004a 0122     		movs	r2, #1
 176 004c 3146     		mov	r1, r6
 177 004e 2846     		mov	r0, r5
 178 0050 FFF7FEFF 		bl	fifo_pop
 179              	.LVL17:
 243:../../shields/Murata-dualstack/src/alp.c ****     interface_status->channel.center_freq_index = __builtin_bswap16(interface_status->channel.cente
 180              		.loc 1 243 5 is_stmt 1 view .LVU38
ARM GAS  C:\Users\yvesk\AppData\Local\Temp\cchyx8pA.s 			page 9


 181 0054 0222     		movs	r2, #2
 182 0056 A11D     		adds	r1, r4, #6
 183 0058 2846     		mov	r0, r5
 184 005a FFF7FEFF 		bl	fifo_pop
 185              	.LVL18:
 244:../../shields/Murata-dualstack/src/alp.c ****     fifo_pop(fifo, &interface_status->rx_level, 1);
 186              		.loc 1 244 5 view .LVU39
 244:../../shields/Murata-dualstack/src/alp.c ****     fifo_pop(fifo, &interface_status->rx_level, 1);
 187              		.loc 1 244 51 is_stmt 0 view .LVU40
 188 005e E388     		ldrh	r3, [r4, #6]	@ unaligned
 244:../../shields/Murata-dualstack/src/alp.c ****     fifo_pop(fifo, &interface_status->rx_level, 1);
 189              		.loc 1 244 49 view .LVU41
 190 0060 5BBA     		rev16	r3, r3
 191 0062 E380     		strh	r3, [r4, #6]	@ unaligned
 245:../../shields/Murata-dualstack/src/alp.c ****     fifo_pop(fifo, &interface_status->link_budget, 1);
 192              		.loc 1 245 5 is_stmt 1 view .LVU42
 193 0064 0122     		movs	r2, #1
 194 0066 04F10801 		add	r1, r4, #8
 195 006a 2846     		mov	r0, r5
 196 006c FFF7FEFF 		bl	fifo_pop
 197              	.LVL19:
 246:../../shields/Murata-dualstack/src/alp.c ****     fifo_pop(fifo, &interface_status->target_rx_level, 1);
 198              		.loc 1 246 5 view .LVU43
 199 0070 0122     		movs	r2, #1
 200 0072 04F10901 		add	r1, r4, #9
 201 0076 2846     		mov	r0, r5
 202 0078 FFF7FEFF 		bl	fifo_pop
 203              	.LVL20:
 247:../../shields/Murata-dualstack/src/alp.c ****     fifo_pop(fifo, &interface_status->status.raw, 1);
 204              		.loc 1 247 5 view .LVU44
 205 007c 0122     		movs	r2, #1
 206 007e 04F10B01 		add	r1, r4, #11
 207 0082 2846     		mov	r0, r5
 208 0084 FFF7FEFF 		bl	fifo_pop
 209              	.LVL21:
 248:../../shields/Murata-dualstack/src/alp.c ****     fifo_pop(fifo, &interface_status->fifo_token, 1);
 210              		.loc 1 248 5 view .LVU45
 211 0088 0122     		movs	r2, #1
 212 008a 04F10C01 		add	r1, r4, #12
 213 008e 2846     		mov	r0, r5
 214 0090 FFF7FEFF 		bl	fifo_pop
 215              	.LVL22:
 249:../../shields/Murata-dualstack/src/alp.c ****     fifo_pop(fifo, &interface_status->seqnr, 1);
 216              		.loc 1 249 5 view .LVU46
 217 0094 0122     		movs	r2, #1
 218 0096 04F10D01 		add	r1, r4, #13
 219 009a 2846     		mov	r0, r5
 220 009c FFF7FEFF 		bl	fifo_pop
 221              	.LVL23:
 250:../../shields/Murata-dualstack/src/alp.c ****     fifo_pop(fifo, &interface_status->response_to, 1);
 222              		.loc 1 250 5 view .LVU47
 223 00a0 0122     		movs	r2, #1
 224 00a2 04F10E01 		add	r1, r4, #14
 225 00a6 2846     		mov	r0, r5
 226 00a8 FFF7FEFF 		bl	fifo_pop
 227              	.LVL24:
 251:../../shields/Murata-dualstack/src/alp.c ****     fifo_pop(fifo, &interface_status->addressee.ctrl.raw, 1);
ARM GAS  C:\Users\yvesk\AppData\Local\Temp\cchyx8pA.s 			page 10


 228              		.loc 1 251 5 view .LVU48
 229 00ac 0122     		movs	r2, #1
 230 00ae 04F10F01 		add	r1, r4, #15
 231 00b2 2846     		mov	r0, r5
 232 00b4 FFF7FEFF 		bl	fifo_pop
 233              	.LVL25:
 252:../../shields/Murata-dualstack/src/alp.c ****     fifo_pop(fifo, &interface_status->addressee.access_class, 1);
 234              		.loc 1 252 5 view .LVU49
 235 00b8 0122     		movs	r2, #1
 236 00ba 04F11101 		add	r1, r4, #17
 237 00be 2846     		mov	r0, r5
 238 00c0 FFF7FEFF 		bl	fifo_pop
 239              	.LVL26:
 253:../../shields/Murata-dualstack/src/alp.c ****     uint8_t addressee_len = d7ap_addressee_id_length(interface_status->addressee.ctrl.id_type);
 240              		.loc 1 253 5 view .LVU50
 241 00c4 0122     		movs	r2, #1
 242 00c6 04F11201 		add	r1, r4, #18
 243 00ca 2846     		mov	r0, r5
 244 00cc FFF7FEFF 		bl	fifo_pop
 245              	.LVL27:
 254:../../shields/Murata-dualstack/src/alp.c ****     assert(fifo_pop(fifo, (uint8_t*)&interface_status->addressee.id, addressee_len) == oss7SUCCESS)
 246              		.loc 1 254 5 view .LVU51
 254:../../shields/Murata-dualstack/src/alp.c ****     assert(fifo_pop(fifo, (uint8_t*)&interface_status->addressee.id, addressee_len) == oss7SUCCESS)
 247              		.loc 1 254 86 is_stmt 0 view .LVU52
 248 00d0 637C     		ldrb	r3, [r4, #17]	@ zero_extendqisi2
 249 00d2 C3F30113 		ubfx	r3, r3, #4, #2
 250              	.LVL28:
 251              	.LBB7:
 252              	.LBI7:
 253              		.file 2 "../../shields/Murata-dualstack/inc/d7ap.h"
   1:../../shields/Murata-dualstack/inc/d7ap.h **** 
   2:../../shields/Murata-dualstack/inc/d7ap.h **** /* * OSS-7 - An opensource implementation of the DASH7 Alliance Protocol for ultra
   3:../../shields/Murata-dualstack/inc/d7ap.h ****  * lowpower wireless sensor communication
   4:../../shields/Murata-dualstack/inc/d7ap.h ****  *
   5:../../shields/Murata-dualstack/inc/d7ap.h ****  * Copyright 2018 University of Antwerp
   6:../../shields/Murata-dualstack/inc/d7ap.h ****  * Copyright 2018 CORTUS SA
   7:../../shields/Murata-dualstack/inc/d7ap.h ****  *
   8:../../shields/Murata-dualstack/inc/d7ap.h ****  * Licensed under the Apache License, Version 2.0 (the "License");
   9:../../shields/Murata-dualstack/inc/d7ap.h ****  * you may not use this file except in compliance with the License.
  10:../../shields/Murata-dualstack/inc/d7ap.h ****  * You may obtain a copy of the License at
  11:../../shields/Murata-dualstack/inc/d7ap.h ****  *
  12:../../shields/Murata-dualstack/inc/d7ap.h ****  *   http://www.apache.org/licenses/LICENSE-2.0
  13:../../shields/Murata-dualstack/inc/d7ap.h ****  *
  14:../../shields/Murata-dualstack/inc/d7ap.h ****  * Unless required by applicable law or agreed to in writing, software
  15:../../shields/Murata-dualstack/inc/d7ap.h ****  * distributed under the License is distributed on an "AS IS" BASIS,
  16:../../shields/Murata-dualstack/inc/d7ap.h ****  * WITHOUT WARRANTIES OR CONDITIONS OF ANY KIND, either express or implied.
  17:../../shields/Murata-dualstack/inc/d7ap.h ****  * See the License for the specific language governing permissions and
  18:../../shields/Murata-dualstack/inc/d7ap.h ****  * limitations under the License.
  19:../../shields/Murata-dualstack/inc/d7ap.h ****  *
  20:../../shields/Murata-dualstack/inc/d7ap.h ****  * \author philippe.nunes@cortus.com
  21:../../shields/Murata-dualstack/inc/d7ap.h ****  */
  22:../../shields/Murata-dualstack/inc/d7ap.h **** 
  23:../../shields/Murata-dualstack/inc/d7ap.h **** /**
  24:../../shields/Murata-dualstack/inc/d7ap.h ****  * @file d7ap.h
  25:../../shields/Murata-dualstack/inc/d7ap.h ****  * @addtogroup d7ap
  26:../../shields/Murata-dualstack/inc/d7ap.h ****  * @ingroup framework
  27:../../shields/Murata-dualstack/inc/d7ap.h ****  * @{
ARM GAS  C:\Users\yvesk\AppData\Local\Temp\cchyx8pA.s 			page 11


  28:../../shields/Murata-dualstack/inc/d7ap.h ****  * @brief D7AP public types (used for modem and/or D7AP stack itself)
  29:../../shields/Murata-dualstack/inc/d7ap.h ****  *
  30:../../shields/Murata-dualstack/inc/d7ap.h ****  */
  31:../../shields/Murata-dualstack/inc/d7ap.h **** 
  32:../../shields/Murata-dualstack/inc/d7ap.h **** #ifndef D7AP_H
  33:../../shields/Murata-dualstack/inc/d7ap.h **** #define D7AP_H
  34:../../shields/Murata-dualstack/inc/d7ap.h **** 
  35:../../shields/Murata-dualstack/inc/d7ap.h **** #include "types.h"
  36:../../shields/Murata-dualstack/inc/d7ap.h **** #include "assert.h"
  37:../../shields/Murata-dualstack/inc/d7ap.h **** 
  38:../../shields/Murata-dualstack/inc/d7ap.h **** #define D7AP_MAX_CLIENT_COUNT 8
  39:../../shields/Murata-dualstack/inc/d7ap.h **** 
  40:../../shields/Murata-dualstack/inc/d7ap.h **** #define D7A_FILE_UID_FILE_ID 0x00
  41:../../shields/Murata-dualstack/inc/d7ap.h **** #define D7A_FILE_UID_SIZE 8
  42:../../shields/Murata-dualstack/inc/d7ap.h **** 
  43:../../shields/Murata-dualstack/inc/d7ap.h **** #define D7A_FILE_FIRMWARE_VERSION_FILE_ID 0x02
  44:../../shields/Murata-dualstack/inc/d7ap.h **** #define D7A_FILE_FIRMWARE_VERSION_APP_NAME_SIZE 6
  45:../../shields/Murata-dualstack/inc/d7ap.h **** #define D7A_FILE_FIRMWARE_VERSION_GIT_SHA1_SIZE 7
  46:../../shields/Murata-dualstack/inc/d7ap.h **** #define D7A_FILE_FIRMWARE_VERSION_SIZE (2 + D7A_FILE_FIRMWARE_VERSION_APP_NAME_SIZE + D7A_FILE_FIRM
  47:../../shields/Murata-dualstack/inc/d7ap.h **** 
  48:../../shields/Murata-dualstack/inc/d7ap.h **** #define D7A_FILE_DLL_CONF_FILE_ID	0x0A
  49:../../shields/Murata-dualstack/inc/d7ap.h **** #define D7A_FILE_DLL_CONF_SIZE		6
  50:../../shields/Murata-dualstack/inc/d7ap.h **** 
  51:../../shields/Murata-dualstack/inc/d7ap.h **** #define D7A_FILE_ACCESS_PROFILE_ID 0x20 // the first access class file
  52:../../shields/Murata-dualstack/inc/d7ap.h **** #define D7A_FILE_ACCESS_PROFILE_SIZE 65
  53:../../shields/Murata-dualstack/inc/d7ap.h **** #define D7A_FILE_ACCESS_PROFILE_COUNT 15
  54:../../shields/Murata-dualstack/inc/d7ap.h **** 
  55:../../shields/Murata-dualstack/inc/d7ap.h **** #define D7A_FILE_NWL_SECURITY		0x0D
  56:../../shields/Murata-dualstack/inc/d7ap.h **** #define D7A_FILE_NWL_SECURITY_SIZE	5
  57:../../shields/Murata-dualstack/inc/d7ap.h **** 
  58:../../shields/Murata-dualstack/inc/d7ap.h **** #define D7A_FILE_NWL_SECURITY_KEY		0x0E
  59:../../shields/Murata-dualstack/inc/d7ap.h **** #define D7A_FILE_NWL_SECURITY_KEY_SIZE	16
  60:../../shields/Murata-dualstack/inc/d7ap.h **** 
  61:../../shields/Murata-dualstack/inc/d7ap.h **** #define D7A_FILE_NWL_SECURITY_STATE_REG			0x0F
  62:../../shields/Murata-dualstack/inc/d7ap.h **** #define D7A_FILE_NWL_SECURITY_STATE_REG_SIZE	2 + (FRAMEWORK_FS_TRUSTED_NODE_TABLE_SIZE)*(D7A_FILE_N
  63:../../shields/Murata-dualstack/inc/d7ap.h **** 
  64:../../shields/Murata-dualstack/inc/d7ap.h **** 
  65:../../shields/Murata-dualstack/inc/d7ap.h **** #define ID_TYPE_NBID_ID_LENGTH 1
  66:../../shields/Murata-dualstack/inc/d7ap.h **** #define ID_TYPE_NOID_ID_LENGTH 0
  67:../../shields/Murata-dualstack/inc/d7ap.h **** #define ID_TYPE_UID_ID_LENGTH   8
  68:../../shields/Murata-dualstack/inc/d7ap.h **** #define ID_TYPE_VID_LENGTH      2
  69:../../shields/Murata-dualstack/inc/d7ap.h **** 
  70:../../shields/Murata-dualstack/inc/d7ap.h **** #define ID_TYPE_IS_BROADCAST(id_type) (id_type == ID_TYPE_NBID || id_type == ID_TYPE_NOID)
  71:../../shields/Murata-dualstack/inc/d7ap.h **** 
  72:../../shields/Murata-dualstack/inc/d7ap.h **** #define D7A_PAYLOAD_MAX_SIZE 239 // TODO confirm this value when FEC and security are disabled
  73:../../shields/Murata-dualstack/inc/d7ap.h **** 
  74:../../shields/Murata-dualstack/inc/d7ap.h **** 
  75:../../shields/Murata-dualstack/inc/d7ap.h **** typedef enum {
  76:../../shields/Murata-dualstack/inc/d7ap.h ****     ID_TYPE_NBID = 0,
  77:../../shields/Murata-dualstack/inc/d7ap.h ****     ID_TYPE_NOID = 1,
  78:../../shields/Murata-dualstack/inc/d7ap.h ****     ID_TYPE_UID = 2,
  79:../../shields/Murata-dualstack/inc/d7ap.h ****     ID_TYPE_VID = 3
  80:../../shields/Murata-dualstack/inc/d7ap.h **** } d7ap_addressee_id_type_t;
  81:../../shields/Murata-dualstack/inc/d7ap.h **** 
  82:../../shields/Murata-dualstack/inc/d7ap.h **** typedef enum
  83:../../shields/Murata-dualstack/inc/d7ap.h **** {
  84:../../shields/Murata-dualstack/inc/d7ap.h ****     AES_NONE = 0, /* No security */
ARM GAS  C:\Users\yvesk\AppData\Local\Temp\cchyx8pA.s 			page 12


  85:../../shields/Murata-dualstack/inc/d7ap.h ****     AES_CTR = 0x01, /* data confidentiality */
  86:../../shields/Murata-dualstack/inc/d7ap.h ****     AES_CBC_MAC_128 = 0x02, /* data authenticity */
  87:../../shields/Murata-dualstack/inc/d7ap.h ****     AES_CBC_MAC_64 = 0x03, /* data authenticity */
  88:../../shields/Murata-dualstack/inc/d7ap.h ****     AES_CBC_MAC_32 = 0x04, /* data authenticity */
  89:../../shields/Murata-dualstack/inc/d7ap.h ****     AES_CCM_128 = 0x05, /* data confidentiality and authenticity*/
  90:../../shields/Murata-dualstack/inc/d7ap.h ****     AES_CCM_64 = 0x06, /* data confidentiality and authenticity*/
  91:../../shields/Murata-dualstack/inc/d7ap.h ****     AES_CCM_32 = 0x07, /* data confidentiality and authenticity*/
  92:../../shields/Murata-dualstack/inc/d7ap.h **** } nls_method_t;
  93:../../shields/Murata-dualstack/inc/d7ap.h **** 
  94:../../shields/Murata-dualstack/inc/d7ap.h **** typedef struct {
  95:../../shields/Murata-dualstack/inc/d7ap.h ****     union {
  96:../../shields/Murata-dualstack/inc/d7ap.h ****         uint8_t raw;
  97:../../shields/Murata-dualstack/inc/d7ap.h ****         struct {
  98:../../shields/Murata-dualstack/inc/d7ap.h ****             nls_method_t nls_method : 4;
  99:../../shields/Murata-dualstack/inc/d7ap.h ****             d7ap_addressee_id_type_t id_type : 2;
 100:../../shields/Murata-dualstack/inc/d7ap.h ****             uint8_t _rfu : 2;
 101:../../shields/Murata-dualstack/inc/d7ap.h ****         };
 102:../../shields/Murata-dualstack/inc/d7ap.h ****     };
 103:../../shields/Murata-dualstack/inc/d7ap.h **** } d7ap_addressee_ctrl_t;
 104:../../shields/Murata-dualstack/inc/d7ap.h **** 
 105:../../shields/Murata-dualstack/inc/d7ap.h **** typedef struct __attribute__((__packed__)) {
 106:../../shields/Murata-dualstack/inc/d7ap.h ****     d7ap_addressee_ctrl_t ctrl;
 107:../../shields/Murata-dualstack/inc/d7ap.h ****     union {
 108:../../shields/Murata-dualstack/inc/d7ap.h ****         uint8_t access_class;
 109:../../shields/Murata-dualstack/inc/d7ap.h ****         struct {
 110:../../shields/Murata-dualstack/inc/d7ap.h ****             uint8_t access_mask : 4;
 111:../../shields/Murata-dualstack/inc/d7ap.h ****             uint8_t access_specifier : 4;
 112:../../shields/Murata-dualstack/inc/d7ap.h ****         };
 113:../../shields/Murata-dualstack/inc/d7ap.h ****     };
 114:../../shields/Murata-dualstack/inc/d7ap.h ****     uint8_t id[8]; // TODO assuming 8 byte id for now
 115:../../shields/Murata-dualstack/inc/d7ap.h **** } d7ap_addressee_t;
 116:../../shields/Murata-dualstack/inc/d7ap.h **** 
 117:../../shields/Murata-dualstack/inc/d7ap.h **** typedef struct {
 118:../../shields/Murata-dualstack/inc/d7ap.h ****     union {
 119:../../shields/Murata-dualstack/inc/d7ap.h ****         uint8_t raw;
 120:../../shields/Murata-dualstack/inc/d7ap.h ****         struct {
 121:../../shields/Murata-dualstack/inc/d7ap.h ****             uint8_t _rfu : 4;
 122:../../shields/Murata-dualstack/inc/d7ap.h ****             bool ucast : 1;
 123:../../shields/Murata-dualstack/inc/d7ap.h ****             bool retry : 1;
 124:../../shields/Murata-dualstack/inc/d7ap.h ****             bool missed : 1;
 125:../../shields/Murata-dualstack/inc/d7ap.h ****             bool nls : 1;
 126:../../shields/Murata-dualstack/inc/d7ap.h ****         };
 127:../../shields/Murata-dualstack/inc/d7ap.h ****     };
 128:../../shields/Murata-dualstack/inc/d7ap.h **** } d7ap_sp_state_t;
 129:../../shields/Murata-dualstack/inc/d7ap.h **** 
 130:../../shields/Murata-dualstack/inc/d7ap.h **** typedef struct
 131:../../shields/Murata-dualstack/inc/d7ap.h **** {
 132:../../shields/Murata-dualstack/inc/d7ap.h ****     uint8_t channel_header;         /**< PHY layer channel header */
 133:../../shields/Murata-dualstack/inc/d7ap.h ****     uint16_t center_freq_index;     /**< The center frequency index of the channel id */
 134:../../shields/Murata-dualstack/inc/d7ap.h **** } d7ap_channel_t;
 135:../../shields/Murata-dualstack/inc/d7ap.h **** 
 136:../../shields/Murata-dualstack/inc/d7ap.h **** typedef struct __attribute__((__packed__)) {
 137:../../shields/Murata-dualstack/inc/d7ap.h ****     d7ap_channel_t channel;
 138:../../shields/Murata-dualstack/inc/d7ap.h ****     uint8_t rx_level;
 139:../../shields/Murata-dualstack/inc/d7ap.h ****     uint8_t link_budget;
 140:../../shields/Murata-dualstack/inc/d7ap.h ****     uint8_t link_quality;
 141:../../shields/Murata-dualstack/inc/d7ap.h ****     uint8_t target_rx_level;
ARM GAS  C:\Users\yvesk\AppData\Local\Temp\cchyx8pA.s 			page 13


 142:../../shields/Murata-dualstack/inc/d7ap.h ****     d7ap_sp_state_t status;
 143:../../shields/Murata-dualstack/inc/d7ap.h ****     uint8_t fifo_token;
 144:../../shields/Murata-dualstack/inc/d7ap.h ****     uint8_t seqnr;
 145:../../shields/Murata-dualstack/inc/d7ap.h ****     uint8_t response_to;
 146:../../shields/Murata-dualstack/inc/d7ap.h ****     bool response_expected;
 147:../../shields/Murata-dualstack/inc/d7ap.h ****     d7ap_addressee_t addressee;
 148:../../shields/Murata-dualstack/inc/d7ap.h **** } d7ap_session_result_t;
 149:../../shields/Murata-dualstack/inc/d7ap.h **** 
 150:../../shields/Murata-dualstack/inc/d7ap.h **** typedef enum  {
 151:../../shields/Murata-dualstack/inc/d7ap.h ****     SESSION_RESP_MODE_NO = 0,
 152:../../shields/Murata-dualstack/inc/d7ap.h ****     SESSION_RESP_MODE_ALL = 1,
 153:../../shields/Murata-dualstack/inc/d7ap.h ****     SESSION_RESP_MODE_ANY = 2,
 154:../../shields/Murata-dualstack/inc/d7ap.h ****     SESSION_RESP_MODE_NO_RPT = 4,
 155:../../shields/Murata-dualstack/inc/d7ap.h ****     SESSION_RESP_MODE_ON_ERR = 5,
 156:../../shields/Murata-dualstack/inc/d7ap.h ****     SESSION_RESP_MODE_PREFERRED = 6,
 157:../../shields/Murata-dualstack/inc/d7ap.h **** } d7ap_session_resp_mode_t;
 158:../../shields/Murata-dualstack/inc/d7ap.h **** 
 159:../../shields/Murata-dualstack/inc/d7ap.h **** typedef enum {
 160:../../shields/Murata-dualstack/inc/d7ap.h ****     SESSION_RETRY_MODE_NO = 0
 161:../../shields/Murata-dualstack/inc/d7ap.h **** } d7ap_session_retry_mode_t;
 162:../../shields/Murata-dualstack/inc/d7ap.h **** 
 163:../../shields/Murata-dualstack/inc/d7ap.h **** typedef struct {
 164:../../shields/Murata-dualstack/inc/d7ap.h ****     union {
 165:../../shields/Murata-dualstack/inc/d7ap.h ****         uint8_t raw;
 166:../../shields/Murata-dualstack/inc/d7ap.h ****         struct {
 167:../../shields/Murata-dualstack/inc/d7ap.h ****             d7ap_session_resp_mode_t qos_resp_mode : 3;
 168:../../shields/Murata-dualstack/inc/d7ap.h ****             d7ap_session_retry_mode_t qos_retry_mode: 3;
 169:../../shields/Murata-dualstack/inc/d7ap.h ****             bool qos_record : 1;
 170:../../shields/Murata-dualstack/inc/d7ap.h ****             bool qos_stop_on_error : 1;
 171:../../shields/Murata-dualstack/inc/d7ap.h ****         };
 172:../../shields/Murata-dualstack/inc/d7ap.h ****     };
 173:../../shields/Murata-dualstack/inc/d7ap.h **** } d7ap_session_qos_t;
 174:../../shields/Murata-dualstack/inc/d7ap.h **** 
 175:../../shields/Murata-dualstack/inc/d7ap.h **** typedef struct {
 176:../../shields/Murata-dualstack/inc/d7ap.h ****     d7ap_session_qos_t qos;
 177:../../shields/Murata-dualstack/inc/d7ap.h ****     uint8_t dormant_timeout;
 178:../../shields/Murata-dualstack/inc/d7ap.h ****     d7ap_addressee_t addressee;
 179:../../shields/Murata-dualstack/inc/d7ap.h **** } d7ap_session_config_t;
 180:../../shields/Murata-dualstack/inc/d7ap.h **** 
 181:../../shields/Murata-dualstack/inc/d7ap.h **** typedef void (*d7ap_receive_callback)(uint16_t trans_id, uint8_t* payload, uint8_t len, d7ap_sessio
 182:../../shields/Murata-dualstack/inc/d7ap.h **** /**
 183:../../shields/Murata-dualstack/inc/d7ap.h ****  * @brief Called when the stack received an unsolicited message
 184:../../shields/Murata-dualstack/inc/d7ap.h ****  * @returns true when the unsolicited request will result in a response payload from the upper laye
 185:../../shields/Murata-dualstack/inc/d7ap.h ****  * the upper layer should return false, so the stack can respond with an ack immediately (if reques
 186:../../shields/Murata-dualstack/inc/d7ap.h ****  */
 187:../../shields/Murata-dualstack/inc/d7ap.h **** typedef bool (*d7ap_receive_unsolicited_callback)(uint8_t* payload, uint8_t len, d7ap_session_resul
 188:../../shields/Murata-dualstack/inc/d7ap.h **** typedef void (*d7ap_transmitted_callback)(uint16_t trans_id, error_t error);
 189:../../shields/Murata-dualstack/inc/d7ap.h **** 
 190:../../shields/Murata-dualstack/inc/d7ap.h **** typedef struct{
 191:../../shields/Murata-dualstack/inc/d7ap.h ****     d7ap_receive_callback  receive_cb;                /*< receive callback,
 192:../../shields/Murata-dualstack/inc/d7ap.h ****                                                           if NULL, all message received for clientI
 193:../../shields/Murata-dualstack/inc/d7ap.h ****     d7ap_transmitted_callback transmitted_cb;         /*< send completion callback,
 194:../../shields/Murata-dualstack/inc/d7ap.h ****                                                           if NULL, the associated packet will be re
 195:../../shields/Murata-dualstack/inc/d7ap.h ****     d7ap_receive_unsolicited_callback unsolicited_cb; /*< unsolicited data callback,
 196:../../shields/Murata-dualstack/inc/d7ap.h ****                                                           if NULL, the associated packet will be re
 197:../../shields/Murata-dualstack/inc/d7ap.h **** } d7ap_resource_desc_t;
 198:../../shields/Murata-dualstack/inc/d7ap.h **** 
ARM GAS  C:\Users\yvesk\AppData\Local\Temp\cchyx8pA.s 			page 14


 199:../../shields/Murata-dualstack/inc/d7ap.h **** 
 200:../../shields/Murata-dualstack/inc/d7ap.h **** //=========================== prototypes ======================================
 201:../../shields/Murata-dualstack/inc/d7ap.h **** /**
 202:../../shields/Murata-dualstack/inc/d7ap.h ****  * @brief   Initializes d7a module
 203:../../shields/Murata-dualstack/inc/d7ap.h ****  */
 204:../../shields/Murata-dualstack/inc/d7ap.h **** void d7ap_init(void);
 205:../../shields/Murata-dualstack/inc/d7ap.h **** 
 206:../../shields/Murata-dualstack/inc/d7ap.h **** 
 207:../../shields/Murata-dualstack/inc/d7ap.h **** /**
 208:../../shields/Murata-dualstack/inc/d7ap.h ****  * @brief   Register the client callbacks
 209:../../shields/Murata-dualstack/inc/d7ap.h ****  *
 210:../../shields/Murata-dualstack/inc/d7ap.h ****  * @param[in] desc pointer to the client resource
 211:../../shields/Murata-dualstack/inc/d7ap.h ****  *
 212:../../shields/Murata-dualstack/inc/d7ap.h ****  * @return  the client Id
 213:../../shields/Murata-dualstack/inc/d7ap.h ****  */
 214:../../shields/Murata-dualstack/inc/d7ap.h **** uint8_t d7ap_register(d7ap_resource_desc_t* desc);
 215:../../shields/Murata-dualstack/inc/d7ap.h **** 
 216:../../shields/Murata-dualstack/inc/d7ap.h **** 
 217:../../shields/Murata-dualstack/inc/d7ap.h **** /**
 218:../../shields/Murata-dualstack/inc/d7ap.h ****  * @brief   Gets the device address UID/VID
 219:../../shields/Murata-dualstack/inc/d7ap.h ****  *
 220:../../shields/Murata-dualstack/inc/d7ap.h ****  * @param[out] *addr   Pointer to the device addressee UID/VID
 221:../../shields/Murata-dualstack/inc/d7ap.h ****  */
 222:../../shields/Murata-dualstack/inc/d7ap.h **** void d7ap_get_dev_addr(d7ap_addressee_t* addr);
 223:../../shields/Murata-dualstack/inc/d7ap.h **** 
 224:../../shields/Murata-dualstack/inc/d7ap.h **** 
 225:../../shields/Murata-dualstack/inc/d7ap.h **** /**
 226:../../shields/Murata-dualstack/inc/d7ap.h ****  * @brief Get the maximum payload size.
 227:../../shields/Murata-dualstack/inc/d7ap.h ****  *
 228:../../shields/Murata-dualstack/inc/d7ap.h ****  * @param[in] clientId  The d7A  instance Id.
 229:../../shields/Murata-dualstack/inc/d7ap.h ****  *
 230:../../shields/Murata-dualstack/inc/d7ap.h ****  * @returns the maximum payload size in bytes.
 231:../../shields/Murata-dualstack/inc/d7ap.h ****  */
 232:../../shields/Murata-dualstack/inc/d7ap.h **** uint8_t d7ap_get_payload_max_size(uint8_t clientId);
 233:../../shields/Murata-dualstack/inc/d7ap.h **** 
 234:../../shields/Murata-dualstack/inc/d7ap.h **** 
 235:../../shields/Murata-dualstack/inc/d7ap.h **** /**
 236:../../shields/Murata-dualstack/inc/d7ap.h ****  * @brief   Send a packet over DASH7 network
 237:../../shields/Murata-dualstack/inc/d7ap.h ****  *
 238:../../shields/Murata-dualstack/inc/d7ap.h ****  * @param[in] clientID  The registered client Id
 239:../../shields/Murata-dualstack/inc/d7ap.h ****  * @param[in] config    The configuration for the d7a session. Set to NULL to use the current confi
 240:../../shields/Murata-dualstack/inc/d7ap.h ****  * @param[in] payload   The pointer to the payload buffer
 241:../../shields/Murata-dualstack/inc/d7ap.h ****  * @param[in] len       The length of the payload
 242:../../shields/Murata-dualstack/inc/d7ap.h ****  * @param[in] expected_response_len The length of the expected response
 243:../../shields/Murata-dualstack/inc/d7ap.h ****  * @param[in,out] trans_id   Set the value of this parameter to NULL to cause the function to execu
 244:../../shields/Murata-dualstack/inc/d7ap.h ****  *                           If this parameter is not NULL, the call executes asynchronously. Upon 
 245:../../shields/Murata-dualstack/inc/d7ap.h ****  *                           this points to the transaction identifier associated with the asynchro
 246:../../shields/Murata-dualstack/inc/d7ap.h ****  * @return 0 on success
 247:../../shields/Murata-dualstack/inc/d7ap.h ****  * @return an error (errno.h) in case of failure
 248:../../shields/Murata-dualstack/inc/d7ap.h ****  */
 249:../../shields/Murata-dualstack/inc/d7ap.h **** error_t d7ap_send(uint8_t clientId, d7ap_session_config_t* config, uint8_t* payload,
 250:../../shields/Murata-dualstack/inc/d7ap.h ****                    uint8_t len, uint8_t expected_response_len, uint16_t* trans_id);
 251:../../shields/Murata-dualstack/inc/d7ap.h **** 
 252:../../shields/Murata-dualstack/inc/d7ap.h **** 
 253:../../shields/Murata-dualstack/inc/d7ap.h **** /**
 254:../../shields/Murata-dualstack/inc/d7ap.h ****  * @brief   Sets the channels TX power index
 255:../../shields/Murata-dualstack/inc/d7ap.h ****  *
ARM GAS  C:\Users\yvesk\AppData\Local\Temp\cchyx8pA.s 			page 15


 256:../../shields/Murata-dualstack/inc/d7ap.h ****  * @param[in] power  The TX power index (from 1 to 16)
 257:../../shields/Murata-dualstack/inc/d7ap.h ****  */
 258:../../shields/Murata-dualstack/inc/d7ap.h **** void d7ap_set_tx_power(uint8_t power);
 259:../../shields/Murata-dualstack/inc/d7ap.h **** 
 260:../../shields/Murata-dualstack/inc/d7ap.h **** 
 261:../../shields/Murata-dualstack/inc/d7ap.h **** /**
 262:../../shields/Murata-dualstack/inc/d7ap.h ****  * @brief   Gets the channels TX power index
 263:../../shields/Murata-dualstack/inc/d7ap.h ****  *
 264:../../shields/Murata-dualstack/inc/d7ap.h ****  * @return  The TX power index (from 1 to 16)
 265:../../shields/Murata-dualstack/inc/d7ap.h ****  */
 266:../../shields/Murata-dualstack/inc/d7ap.h **** uint8_t d7ap_get_tx_power(void);
 267:../../shields/Murata-dualstack/inc/d7ap.h **** 
 268:../../shields/Murata-dualstack/inc/d7ap.h **** 
 269:../../shields/Murata-dualstack/inc/d7ap.h **** /**
 270:../../shields/Murata-dualstack/inc/d7ap.h ****  * @brief   Sets the device access class
 271:../../shields/Murata-dualstack/inc/d7ap.h ****  *
 272:../../shields/Murata-dualstack/inc/d7ap.h ****  * @param[in] access_class  The device access class
 273:../../shields/Murata-dualstack/inc/d7ap.h ****  */
 274:../../shields/Murata-dualstack/inc/d7ap.h **** void d7ap_set_access_class(uint8_t access_class);
 275:../../shields/Murata-dualstack/inc/d7ap.h **** 
 276:../../shields/Murata-dualstack/inc/d7ap.h **** 
 277:../../shields/Murata-dualstack/inc/d7ap.h **** /**
 278:../../shields/Murata-dualstack/inc/d7ap.h ****  * @brief   Gets the device access class
 279:../../shields/Murata-dualstack/inc/d7ap.h ****  *
 280:../../shields/Murata-dualstack/inc/d7ap.h ****  * @return  The device access class
 281:../../shields/Murata-dualstack/inc/d7ap.h ****  */
 282:../../shields/Murata-dualstack/inc/d7ap.h **** uint8_t d7ap_get_access_class(void);
 283:../../shields/Murata-dualstack/inc/d7ap.h **** 
 284:../../shields/Murata-dualstack/inc/d7ap.h **** /**
 285:../../shields/Murata-dualstack/inc/d7ap.h ****  * @brief   Gets the length of the addressee Id
 286:../../shields/Murata-dualstack/inc/d7ap.h ****  *
 287:../../shields/Murata-dualstack/inc/d7ap.h ****  * @param[in] id_type  The addressee Id type
 288:../../shields/Murata-dualstack/inc/d7ap.h ****  * @return  The length of the addressee Id according the addressee Id type
 289:../../shields/Murata-dualstack/inc/d7ap.h ****  */
 290:../../shields/Murata-dualstack/inc/d7ap.h **** static inline uint8_t d7ap_addressee_id_length(d7ap_addressee_id_type_t id_type) {
 254              		.loc 2 290 23 is_stmt 1 view .LVU53
 255              	.LBB8:
 291:../../shields/Murata-dualstack/inc/d7ap.h ****   switch(id_type)
 256              		.loc 2 291 3 view .LVU54
 257 00d6 032B     		cmp	r3, #3
 258 00d8 07D8     		bhi	.L12
 259 00da DFE803F0 		tbb	[pc, r3]
 260              	.L14:
 261 00de 0F       		.byte	(.L19-.L14)/2
 262 00df 0D       		.byte	(.L16-.L14)/2
 263 00e0 02       		.byte	(.L15-.L14)/2
 264 00e1 04       		.byte	(.L13-.L14)/2
 265              		.p2align 1
 266              	.L15:
 292:../../shields/Murata-dualstack/inc/d7ap.h ****   {
 293:../../shields/Murata-dualstack/inc/d7ap.h ****       case ID_TYPE_NOID:
 294:../../shields/Murata-dualstack/inc/d7ap.h ****         return ID_TYPE_NOID_ID_LENGTH;
 295:../../shields/Murata-dualstack/inc/d7ap.h ****       case ID_TYPE_NBID:
 296:../../shields/Murata-dualstack/inc/d7ap.h ****         return ID_TYPE_NBID_ID_LENGTH;
 297:../../shields/Murata-dualstack/inc/d7ap.h ****       case ID_TYPE_UID:
 298:../../shields/Murata-dualstack/inc/d7ap.h ****         return ID_TYPE_UID_ID_LENGTH;
 267              		.loc 2 298 9 view .LVU55
ARM GAS  C:\Users\yvesk\AppData\Local\Temp\cchyx8pA.s 			page 16


 268              		.loc 2 298 16 is_stmt 0 view .LVU56
 269 00e2 0822     		movs	r2, #8
 270 00e4 0BE0     		b	.L17
 271              	.L13:
 299:../../shields/Murata-dualstack/inc/d7ap.h ****       case ID_TYPE_VID:
 300:../../shields/Murata-dualstack/inc/d7ap.h ****         return ID_TYPE_VID_LENGTH;
 272              		.loc 2 300 9 is_stmt 1 view .LVU57
 273              		.loc 2 300 16 is_stmt 0 view .LVU58
 274 00e6 0222     		movs	r2, #2
 275 00e8 09E0     		b	.L17
 276              	.L12:
 301:../../shields/Murata-dualstack/inc/d7ap.h ****       default:
 302:../../shields/Murata-dualstack/inc/d7ap.h ****         assert(false);
 277              		.loc 2 302 9 is_stmt 1 view .LVU59
 278 00ea 1B4B     		ldr	r3, .L24+16
 279 00ec 1B4A     		ldr	r2, .L24+20
 280 00ee 4FF49771 		mov	r1, #302
 281 00f2 1B48     		ldr	r0, .L24+24
 282 00f4 FFF7FEFF 		bl	__assert_func
 283              	.LVL29:
 284              	.L16:
 294:../../shields/Murata-dualstack/inc/d7ap.h ****       case ID_TYPE_NBID:
 285              		.loc 2 294 16 is_stmt 0 view .LVU60
 286 00f8 0022     		movs	r2, #0
 287 00fa 00E0     		b	.L17
 288              	.L19:
 296:../../shields/Murata-dualstack/inc/d7ap.h ****       case ID_TYPE_UID:
 289              		.loc 2 296 16 view .LVU61
 290 00fc 0122     		movs	r2, #1
 291              	.L17:
 292              	.LVL30:
 296:../../shields/Murata-dualstack/inc/d7ap.h ****       case ID_TYPE_UID:
 293              		.loc 2 296 16 view .LVU62
 294              	.LBE8:
 295              	.LBE7:
 255:../../shields/Murata-dualstack/src/alp.c ****   }
 296              		.loc 1 255 5 is_stmt 1 view .LVU63
 297 00fe 04F11301 		add	r1, r4, #19
 298 0102 2846     		mov	r0, r5
 299 0104 FFF7FEFF 		bl	fifo_pop
 300              	.LVL31:
 255:../../shields/Murata-dualstack/src/alp.c ****   }
 301              		.loc 1 255 5 is_stmt 0 view .LVU64
 302 0108 0028     		cmp	r0, #0
 303 010a 8FD0     		beq	.L7
 255:../../shields/Murata-dualstack/src/alp.c ****   }
 304              		.loc 1 255 5 discriminator 1 view .LVU65
 305 010c 154B     		ldr	r3, .L24+28
 306 010e 0F4A     		ldr	r2, .L24+4
 307 0110 FF21     		movs	r1, #255
 308 0112 0F48     		ldr	r0, .L24+8
 309 0114 FFF7FEFF 		bl	__assert_func
 310              	.LVL32:
 311              	.L23:
 255:../../shields/Murata-dualstack/src/alp.c ****   }
 312              		.loc 1 255 5 discriminator 1 view .LVU66
 313              	.LBE6:
ARM GAS  C:\Users\yvesk\AppData\Local\Temp\cchyx8pA.s 			page 17


 314              	.LBB9:
 259:../../shields/Murata-dualstack/src/alp.c ****     fifo_skip(fifo,1); //size
 315              		.loc 1 259 5 is_stmt 1 view .LVU67
 260:../../shields/Murata-dualstack/src/alp.c ****     fifo_pop(fifo, &interface_status->attempts, 1);
 316              		.loc 1 260 5 view .LVU68
 317 0118 0121     		movs	r1, #1
 318 011a 2846     		mov	r0, r5
 319 011c FFF7FEFF 		bl	fifo_skip
 320              	.LVL33:
 261:../../shields/Murata-dualstack/src/alp.c ****     fifo_pop(fifo, &interface_status->error_state, 1);
 321              		.loc 1 261 5 view .LVU69
 322 0120 0122     		movs	r2, #1
 323 0122 211D     		adds	r1, r4, #4
 324              	.LVL34:
 261:../../shields/Murata-dualstack/src/alp.c ****     fifo_pop(fifo, &interface_status->error_state, 1);
 325              		.loc 1 261 5 is_stmt 0 view .LVU70
 326 0124 2846     		mov	r0, r5
 327 0126 FFF7FEFF 		bl	fifo_pop
 328              	.LVL35:
 262:../../shields/Murata-dualstack/src/alp.c ****     fifo_pop(fifo,  (uint8_t*)&interface_status->duty_cycle_wait_time,2);
 329              		.loc 1 262 5 is_stmt 1 view .LVU71
 330 012a 0122     		movs	r2, #1
 331 012c 611D     		adds	r1, r4, #5
 332 012e 2846     		mov	r0, r5
 333 0130 FFF7FEFF 		bl	fifo_pop
 334              	.LVL36:
 263:../../shields/Murata-dualstack/src/alp.c ****     interface_status->duty_cycle_wait_time= __builtin_bswap16(interface_status->duty_cycle_wait_tim
 335              		.loc 1 263 5 view .LVU72
 336 0134 0222     		movs	r2, #2
 337 0136 A11D     		adds	r1, r4, #6
 338 0138 2846     		mov	r0, r5
 339 013a FFF7FEFF 		bl	fifo_pop
 340              	.LVL37:
 264:../../shields/Murata-dualstack/src/alp.c ****   }
 341              		.loc 1 264 5 view .LVU73
 264:../../shields/Murata-dualstack/src/alp.c ****   }
 342              		.loc 1 264 45 is_stmt 0 view .LVU74
 343 013e E388     		ldrh	r3, [r4, #6]	@ unaligned
 264:../../shields/Murata-dualstack/src/alp.c ****   }
 344              		.loc 1 264 43 view .LVU75
 345 0140 5BBA     		rev16	r3, r3
 346 0142 E380     		strh	r3, [r4, #6]	@ unaligned
 347              	.LBE9:
 267:../../shields/Murata-dualstack/src/alp.c **** }
 348              		.loc 1 267 36 is_stmt 1 view .LVU76
 349              		.loc 1 268 1 is_stmt 0 view .LVU77
 350 0144 72E7     		b	.L7
 351              	.L25:
 352 0146 00BF     		.align	2
 353              	.L24:
 354 0148 00000000 		.word	.LC2
 355 014c 00000000 		.word	.LANCHOR1
 356 0150 40000000 		.word	.LC1
 357 0154 0C000000 		.word	.LC3
 358 0158 38000000 		.word	.LC4
 359 015c 00000000 		.word	.LANCHOR2
 360 0160 40000000 		.word	.LC5
ARM GAS  C:\Users\yvesk\AppData\Local\Temp\cchyx8pA.s 			page 18


 361 0164 6C000000 		.word	.LC6
 362              		.cfi_endproc
 363              	.LFE16:
 365              		.section	.text.alp_get_operation,"ax",%progbits
 366              		.align	1
 367              		.global	alp_get_operation
 368              		.syntax unified
 369              		.thumb
 370              		.thumb_func
 371              		.fpu fpv4-sp-d16
 373              	alp_get_operation:
 374              	.LVL38:
 375              	.LFB1:
  42:../../shields/Murata-dualstack/src/alp.c ****     alp_control_t alp_ctrl;
 376              		.loc 1 42 1 is_stmt 1 view -0
 377              		.cfi_startproc
 378              		@ args = 0, pretend = 0, frame = 0
 379              		@ frame_needed = 0, uses_anonymous_args = 0
 380              		@ link register save eliminated.
  43:../../shields/Murata-dualstack/src/alp.c ****     alp_ctrl.raw = (*alp_command);
 381              		.loc 1 43 5 view .LVU79
  44:../../shields/Murata-dualstack/src/alp.c ****     return alp_ctrl.operation;
 382              		.loc 1 44 5 view .LVU80
  44:../../shields/Murata-dualstack/src/alp.c ****     return alp_ctrl.operation;
 383              		.loc 1 44 21 is_stmt 0 view .LVU81
 384 0000 0078     		ldrb	r0, [r0]	@ zero_extendqisi2
 385              	.LVL39:
  45:../../shields/Murata-dualstack/src/alp.c **** }
 386              		.loc 1 45 5 is_stmt 1 view .LVU82
  46:../../shields/Murata-dualstack/src/alp.c **** 
 387              		.loc 1 46 1 is_stmt 0 view .LVU83
 388 0002 00F03F00 		and	r0, r0, #63
 389 0006 7047     		bx	lr
 390              		.cfi_endproc
 391              	.LFE1:
 393              		.section	.text.alp_parse_length_operand,"ax",%progbits
 394              		.align	1
 395              		.global	alp_parse_length_operand
 396              		.syntax unified
 397              		.thumb
 398              		.thumb_func
 399              		.fpu fpv4-sp-d16
 401              	alp_parse_length_operand:
 402              	.LVL40:
 403              	.LFB2:
  48:../../shields/Murata-dualstack/src/alp.c ****   uint8_t len = 0;
 404              		.loc 1 48 53 is_stmt 1 view -0
 405              		.cfi_startproc
 406              		@ args = 0, pretend = 0, frame = 8
 407              		@ frame_needed = 0, uses_anonymous_args = 0
  48:../../shields/Murata-dualstack/src/alp.c ****   uint8_t len = 0;
 408              		.loc 1 48 53 is_stmt 0 view .LVU85
 409 0000 10B5     		push	{r4, lr}
 410              	.LCFI5:
 411              		.cfi_def_cfa_offset 8
 412              		.cfi_offset 4, -8
 413              		.cfi_offset 14, -4
ARM GAS  C:\Users\yvesk\AppData\Local\Temp\cchyx8pA.s 			page 19


 414 0002 82B0     		sub	sp, sp, #8
 415              	.LCFI6:
 416              		.cfi_def_cfa_offset 16
 417 0004 0446     		mov	r4, r0
  49:../../shields/Murata-dualstack/src/alp.c ****   fifo_pop(cmd_fifo, (uint8_t*)&len, 1);
 418              		.loc 1 49 3 is_stmt 1 view .LVU86
  49:../../shields/Murata-dualstack/src/alp.c ****   fifo_pop(cmd_fifo, (uint8_t*)&len, 1);
 419              		.loc 1 49 11 is_stmt 0 view .LVU87
 420 0006 0023     		movs	r3, #0
 421 0008 8DF80730 		strb	r3, [sp, #7]
  50:../../shields/Murata-dualstack/src/alp.c ****   uint8_t field_len = len >> 6;
 422              		.loc 1 50 3 is_stmt 1 view .LVU88
 423 000c 0122     		movs	r2, #1
 424 000e 0DF10701 		add	r1, sp, #7
 425 0012 FFF7FEFF 		bl	fifo_pop
 426              	.LVL41:
  51:../../shields/Murata-dualstack/src/alp.c ****   if(field_len == 0)
 427              		.loc 1 51 3 view .LVU89
  51:../../shields/Murata-dualstack/src/alp.c ****   if(field_len == 0)
 428              		.loc 1 51 11 is_stmt 0 view .LVU90
 429 0016 9DF80700 		ldrb	r0, [sp, #7]	@ zero_extendqisi2
 430              	.LVL42:
  52:../../shields/Murata-dualstack/src/alp.c ****     return (uint32_t)len;
 431              		.loc 1 52 3 is_stmt 1 view .LVU91
  52:../../shields/Murata-dualstack/src/alp.c ****     return (uint32_t)len;
 432              		.loc 1 52 5 is_stmt 0 view .LVU92
 433 001a 8209     		lsrs	r2, r0, #6
 434 001c 01D1     		bne	.L31
 435              	.LVL43:
 436              	.L27:
  58:../../shields/Murata-dualstack/src/alp.c **** 
 437              		.loc 1 58 1 view .LVU93
 438 001e 02B0     		add	sp, sp, #8
 439              	.LCFI7:
 440              		.cfi_remember_state
 441              		.cfi_def_cfa_offset 8
 442              		@ sp needed
 443 0020 10BD     		pop	{r4, pc}
 444              	.LVL44:
 445              	.L31:
 446              	.LCFI8:
 447              		.cfi_restore_state
  55:../../shields/Murata-dualstack/src/alp.c ****   fifo_pop(cmd_fifo, (uint8_t*)&full_length, field_len);
 448              		.loc 1 55 3 is_stmt 1 view .LVU94
  55:../../shields/Murata-dualstack/src/alp.c ****   fifo_pop(cmd_fifo, (uint8_t*)&full_length, field_len);
 449              		.loc 1 55 31 is_stmt 0 view .LVU95
 450 0022 00F03F00 		and	r0, r0, #63
 451              	.LVL45:
  55:../../shields/Murata-dualstack/src/alp.c ****   fifo_pop(cmd_fifo, (uint8_t*)&full_length, field_len);
 452              		.loc 1 55 46 view .LVU96
 453 0026 D300     		lsls	r3, r2, #3
  55:../../shields/Murata-dualstack/src/alp.c ****   fifo_pop(cmd_fifo, (uint8_t*)&full_length, field_len);
 454              		.loc 1 55 39 view .LVU97
 455 0028 9840     		lsls	r0, r0, r3
  55:../../shields/Murata-dualstack/src/alp.c ****   fifo_pop(cmd_fifo, (uint8_t*)&full_length, field_len);
 456              		.loc 1 55 12 view .LVU98
 457 002a 0090     		str	r0, [sp]
ARM GAS  C:\Users\yvesk\AppData\Local\Temp\cchyx8pA.s 			page 20


  56:../../shields/Murata-dualstack/src/alp.c ****   return full_length;
 458              		.loc 1 56 3 is_stmt 1 view .LVU99
 459 002c 6946     		mov	r1, sp
 460 002e 2046     		mov	r0, r4
 461 0030 FFF7FEFF 		bl	fifo_pop
 462              	.LVL46:
  57:../../shields/Murata-dualstack/src/alp.c **** }
 463              		.loc 1 57 3 view .LVU100
  57:../../shields/Murata-dualstack/src/alp.c **** }
 464              		.loc 1 57 10 is_stmt 0 view .LVU101
 465 0034 0098     		ldr	r0, [sp]
 466 0036 F2E7     		b	.L27
 467              		.cfi_endproc
 468              	.LFE2:
 470              		.section	.text.alp_append_length_operand,"ax",%progbits
 471              		.align	1
 472              		.global	alp_append_length_operand
 473              		.syntax unified
 474              		.thumb
 475              		.thumb_func
 476              		.fpu fpv4-sp-d16
 478              	alp_append_length_operand:
 479              	.LVL47:
 480              	.LFB3:
  60:../../shields/Murata-dualstack/src/alp.c ****   if(length < 64) {
 481              		.loc 1 60 63 is_stmt 1 view -0
 482              		.cfi_startproc
 483              		@ args = 0, pretend = 0, frame = 16
 484              		@ frame_needed = 0, uses_anonymous_args = 0
  60:../../shields/Murata-dualstack/src/alp.c ****   if(length < 64) {
 485              		.loc 1 60 63 is_stmt 0 view .LVU103
 486 0000 30B5     		push	{r4, r5, lr}
 487              	.LCFI9:
 488              		.cfi_def_cfa_offset 12
 489              		.cfi_offset 4, -12
 490              		.cfi_offset 5, -8
 491              		.cfi_offset 14, -4
 492 0002 85B0     		sub	sp, sp, #20
 493              	.LCFI10:
 494              		.cfi_def_cfa_offset 32
 495 0004 0546     		mov	r5, r0
 496 0006 0191     		str	r1, [sp, #4]
  61:../../shields/Murata-dualstack/src/alp.c ****     // can be coded in one byte
 497              		.loc 1 61 3 is_stmt 1 view .LVU104
  61:../../shields/Murata-dualstack/src/alp.c ****     // can be coded in one byte
 498              		.loc 1 61 5 is_stmt 0 view .LVU105
 499 0008 3F29     		cmp	r1, #63
 500 000a 26D9     		bls	.L43
  67:../../shields/Murata-dualstack/src/alp.c ****   if(length > 0x3FFF)
 501              		.loc 1 67 3 is_stmt 1 view .LVU106
 502              	.LVL48:
  68:../../shields/Murata-dualstack/src/alp.c ****     size = 2;
 503              		.loc 1 68 3 view .LVU107
  68:../../shields/Murata-dualstack/src/alp.c ****     size = 2;
 504              		.loc 1 68 5 is_stmt 0 view .LVU108
 505 000c B1F5804F 		cmp	r1, #16384
 506 0010 2FD2     		bcs	.L40
ARM GAS  C:\Users\yvesk\AppData\Local\Temp\cchyx8pA.s 			page 21


  67:../../shields/Murata-dualstack/src/alp.c ****   if(length > 0x3FFF)
 507              		.loc 1 67 11 view .LVU109
 508 0012 0124     		movs	r4, #1
 509              	.L36:
 510              	.LVL49:
  70:../../shields/Murata-dualstack/src/alp.c ****     size = 3;
 511              		.loc 1 70 3 is_stmt 1 view .LVU110
  70:../../shields/Murata-dualstack/src/alp.c ****     size = 3;
 512              		.loc 1 70 5 is_stmt 0 view .LVU111
 513 0014 B1F5800F 		cmp	r1, #4194304
 514 0018 00D3     		bcc	.L37
  71:../../shields/Murata-dualstack/src/alp.c **** 
 515              		.loc 1 71 10 view .LVU112
 516 001a 0324     		movs	r4, #3
 517              	.LVL50:
 518              	.L37:
  73:../../shields/Murata-dualstack/src/alp.c ****   byte += (size << 6); // length specifier bits
 519              		.loc 1 73 3 is_stmt 1 view .LVU113
  74:../../shields/Murata-dualstack/src/alp.c ****   byte += ((uint8_t*)(&length))[size];
 520              		.loc 1 74 3 view .LVU114
  74:../../shields/Murata-dualstack/src/alp.c ****   byte += ((uint8_t*)(&length))[size];
 521              		.loc 1 74 17 is_stmt 0 view .LVU115
 522 001c A301     		lsls	r3, r4, #6
 523 001e DBB2     		uxtb	r3, r3
  74:../../shields/Murata-dualstack/src/alp.c ****   byte += ((uint8_t*)(&length))[size];
 524              		.loc 1 74 8 view .LVU116
 525 0020 8DF80F30 		strb	r3, [sp, #15]
  75:../../shields/Murata-dualstack/src/alp.c ****   assert(fifo_put(fifo, &byte, 1) == oss7SUCCESS);
 526              		.loc 1 75 3 is_stmt 1 view .LVU117
  75:../../shields/Murata-dualstack/src/alp.c ****   assert(fifo_put(fifo, &byte, 1) == oss7SUCCESS);
 527              		.loc 1 75 32 is_stmt 0 view .LVU118
 528 0024 04AA     		add	r2, sp, #16
 529 0026 2244     		add	r2, r2, r4
 530 0028 12F80C2C 		ldrb	r2, [r2, #-12]	@ zero_extendqisi2
  75:../../shields/Murata-dualstack/src/alp.c ****   assert(fifo_put(fifo, &byte, 1) == oss7SUCCESS);
 531              		.loc 1 75 8 view .LVU119
 532 002c 1344     		add	r3, r3, r2
 533 002e 8DF80F30 		strb	r3, [sp, #15]
  76:../../shields/Murata-dualstack/src/alp.c ****   do {
 534              		.loc 1 76 3 is_stmt 1 view .LVU120
 535 0032 0122     		movs	r2, #1
 536 0034 0DF10F01 		add	r1, sp, #15
 537              	.LVL51:
  76:../../shields/Murata-dualstack/src/alp.c ****   do {
 538              		.loc 1 76 3 is_stmt 0 view .LVU121
 539 0038 2846     		mov	r0, r5
 540              	.LVL52:
  76:../../shields/Murata-dualstack/src/alp.c ****   do {
 541              		.loc 1 76 3 view .LVU122
 542 003a FFF7FEFF 		bl	fifo_put
 543              	.LVL53:
  76:../../shields/Murata-dualstack/src/alp.c ****   do {
 544              		.loc 1 76 3 view .LVU123
 545 003e D0B9     		cbnz	r0, .L44
 546              	.L38:
  77:../../shields/Murata-dualstack/src/alp.c ****     size--;
 547              		.loc 1 77 3 is_stmt 1 view .LVU124
ARM GAS  C:\Users\yvesk\AppData\Local\Temp\cchyx8pA.s 			page 22


  78:../../shields/Murata-dualstack/src/alp.c ****     assert(fifo_put(fifo, (uint8_t*)&length + size, 1) == oss7SUCCESS);
 548              		.loc 1 78 5 view .LVU125
  78:../../shields/Murata-dualstack/src/alp.c ****     assert(fifo_put(fifo, (uint8_t*)&length + size, 1) == oss7SUCCESS);
 549              		.loc 1 78 9 is_stmt 0 view .LVU126
 550 0040 013C     		subs	r4, r4, #1
 551              	.LVL54:
  78:../../shields/Murata-dualstack/src/alp.c ****     assert(fifo_put(fifo, (uint8_t*)&length + size, 1) == oss7SUCCESS);
 552              		.loc 1 78 9 view .LVU127
 553 0042 E4B2     		uxtb	r4, r4
 554              	.LVL55:
  79:../../shields/Murata-dualstack/src/alp.c ****   } while(size > 0);
 555              		.loc 1 79 5 is_stmt 1 view .LVU128
 556 0044 0122     		movs	r2, #1
 557 0046 01AB     		add	r3, sp, #4
 558 0048 1919     		adds	r1, r3, r4
 559 004a 2846     		mov	r0, r5
 560 004c FFF7FEFF 		bl	fifo_put
 561              	.LVL56:
 562 0050 B8B9     		cbnz	r0, .L45
  80:../../shields/Murata-dualstack/src/alp.c **** }
 563              		.loc 1 80 3 is_stmt 0 view .LVU129
 564 0052 002C     		cmp	r4, #0
 565 0054 F4D1     		bne	.L38
 566              	.LVL57:
 567              	.L32:
  81:../../shields/Murata-dualstack/src/alp.c **** 
 568              		.loc 1 81 1 view .LVU130
 569 0056 05B0     		add	sp, sp, #20
 570              	.LCFI11:
 571              		.cfi_remember_state
 572              		.cfi_def_cfa_offset 12
 573              		@ sp needed
 574 0058 30BD     		pop	{r4, r5, pc}
 575              	.LVL58:
 576              	.L43:
 577              	.LCFI12:
 578              		.cfi_restore_state
  63:../../shields/Murata-dualstack/src/alp.c ****     return;
 579              		.loc 1 63 5 is_stmt 1 view .LVU131
 580 005a 0122     		movs	r2, #1
 581 005c 01A9     		add	r1, sp, #4
 582              	.LVL59:
  63:../../shields/Murata-dualstack/src/alp.c ****     return;
 583              		.loc 1 63 5 is_stmt 0 view .LVU132
 584 005e FFF7FEFF 		bl	fifo_put
 585              	.LVL60:
  63:../../shields/Murata-dualstack/src/alp.c ****     return;
 586              		.loc 1 63 5 view .LVU133
 587 0062 0028     		cmp	r0, #0
 588 0064 F7D0     		beq	.L32
  63:../../shields/Murata-dualstack/src/alp.c ****     return;
 589              		.loc 1 63 5 discriminator 1 view .LVU134
 590 0066 0A4B     		ldr	r3, .L46
 591 0068 0A4A     		ldr	r2, .L46+4
 592 006a 3F21     		movs	r1, #63
 593 006c 0A48     		ldr	r0, .L46+8
 594 006e FFF7FEFF 		bl	__assert_func
ARM GAS  C:\Users\yvesk\AppData\Local\Temp\cchyx8pA.s 			page 23


 595              	.LVL61:
 596              	.L40:
  69:../../shields/Murata-dualstack/src/alp.c ****   if(length > 0x3FFFFF)
 597              		.loc 1 69 10 view .LVU135
 598 0072 0224     		movs	r4, #2
 599 0074 CEE7     		b	.L36
 600              	.LVL62:
 601              	.L44:
  76:../../shields/Murata-dualstack/src/alp.c ****   do {
 602              		.loc 1 76 3 discriminator 1 view .LVU136
 603 0076 094B     		ldr	r3, .L46+12
 604 0078 064A     		ldr	r2, .L46+4
 605 007a 4C21     		movs	r1, #76
 606 007c 0648     		ldr	r0, .L46+8
 607 007e FFF7FEFF 		bl	__assert_func
 608              	.LVL63:
 609              	.L45:
  79:../../shields/Murata-dualstack/src/alp.c ****   } while(size > 0);
 610              		.loc 1 79 5 discriminator 1 view .LVU137
 611 0082 074B     		ldr	r3, .L46+16
 612 0084 034A     		ldr	r2, .L46+4
 613 0086 4F21     		movs	r1, #79
 614 0088 0348     		ldr	r0, .L46+8
 615 008a FFF7FEFF 		bl	__assert_func
 616              	.LVL64:
 617              	.L47:
 618 008e 00BF     		.align	2
 619              	.L46:
 620 0090 00000000 		.word	.LC7
 621 0094 00000000 		.word	.LANCHOR3
 622 0098 40000000 		.word	.LC1
 623 009c 34000000 		.word	.LC8
 624 00a0 5C000000 		.word	.LC9
 625              		.cfi_endproc
 626              	.LFE3:
 628              		.section	.text.alp_parse_file_offset_operand,"ax",%progbits
 629              		.align	1
 630              		.global	alp_parse_file_offset_operand
 631              		.syntax unified
 632              		.thumb
 633              		.thumb_func
 634              		.fpu fpv4-sp-d16
 636              	alp_parse_file_offset_operand:
 637              	.LVL65:
 638              	.LFB4:
  83:../../shields/Murata-dualstack/src/alp.c ****   alp_operand_file_offset_t operand;
 639              		.loc 1 83 75 is_stmt 1 view -0
 640              		.cfi_startproc
 641              		@ args = 0, pretend = 0, frame = 8
 642              		@ frame_needed = 0, uses_anonymous_args = 0
  83:../../shields/Murata-dualstack/src/alp.c ****   alp_operand_file_offset_t operand;
 643              		.loc 1 83 75 is_stmt 0 view .LVU139
 644 0000 30B5     		push	{r4, r5, lr}
 645              	.LCFI13:
 646              		.cfi_def_cfa_offset 12
 647              		.cfi_offset 4, -12
 648              		.cfi_offset 5, -8
ARM GAS  C:\Users\yvesk\AppData\Local\Temp\cchyx8pA.s 			page 24


 649              		.cfi_offset 14, -4
 650 0002 83B0     		sub	sp, sp, #12
 651              	.LCFI14:
 652              		.cfi_def_cfa_offset 24
 653 0004 0446     		mov	r4, r0
 654 0006 0D46     		mov	r5, r1
  84:../../shields/Murata-dualstack/src/alp.c ****   error_t err = fifo_pop(cmd_fifo, &operand.file_id, 1); assert(err == oss7SUCCESS);
 655              		.loc 1 84 3 is_stmt 1 view .LVU140
  85:../../shields/Murata-dualstack/src/alp.c ****   operand.offset = alp_parse_length_operand(cmd_fifo);
 656              		.loc 1 85 3 view .LVU141
  85:../../shields/Murata-dualstack/src/alp.c ****   operand.offset = alp_parse_length_operand(cmd_fifo);
 657              		.loc 1 85 17 is_stmt 0 view .LVU142
 658 0008 0122     		movs	r2, #1
 659 000a 6946     		mov	r1, sp
 660              	.LVL66:
  85:../../shields/Murata-dualstack/src/alp.c ****   operand.offset = alp_parse_length_operand(cmd_fifo);
 661              		.loc 1 85 17 view .LVU143
 662 000c 2846     		mov	r0, r5
 663              	.LVL67:
  85:../../shields/Murata-dualstack/src/alp.c ****   operand.offset = alp_parse_length_operand(cmd_fifo);
 664              		.loc 1 85 17 view .LVU144
 665 000e FFF7FEFF 		bl	fifo_pop
 666              	.LVL68:
  85:../../shields/Murata-dualstack/src/alp.c ****   operand.offset = alp_parse_length_operand(cmd_fifo);
 667              		.loc 1 85 58 is_stmt 1 view .LVU145
 668 0012 58B9     		cbnz	r0, .L51
  86:../../shields/Murata-dualstack/src/alp.c ****   return operand;
 669              		.loc 1 86 3 view .LVU146
  86:../../shields/Murata-dualstack/src/alp.c ****   return operand;
 670              		.loc 1 86 20 is_stmt 0 view .LVU147
 671 0014 2846     		mov	r0, r5
 672              	.LVL69:
  86:../../shields/Murata-dualstack/src/alp.c ****   return operand;
 673              		.loc 1 86 20 view .LVU148
 674 0016 FFF7FEFF 		bl	alp_parse_length_operand
 675              	.LVL70:
  86:../../shields/Murata-dualstack/src/alp.c ****   return operand;
 676              		.loc 1 86 18 view .LVU149
 677 001a 0190     		str	r0, [sp, #4]
  87:../../shields/Murata-dualstack/src/alp.c **** }
 678              		.loc 1 87 3 is_stmt 1 view .LVU150
  87:../../shields/Murata-dualstack/src/alp.c **** }
 679              		.loc 1 87 10 is_stmt 0 view .LVU151
 680 001c 02AB     		add	r3, sp, #8
 681 001e 13E90300 		ldmdb	r3, {r0, r1}
 682 0022 84E80300 		stm	r4, {r0, r1}
  88:../../shields/Murata-dualstack/src/alp.c **** 
 683              		.loc 1 88 1 view .LVU152
 684 0026 2046     		mov	r0, r4
 685 0028 03B0     		add	sp, sp, #12
 686              	.LCFI15:
 687              		.cfi_remember_state
 688              		.cfi_def_cfa_offset 12
 689              		@ sp needed
 690 002a 30BD     		pop	{r4, r5, pc}
 691              	.LVL71:
 692              	.L51:
ARM GAS  C:\Users\yvesk\AppData\Local\Temp\cchyx8pA.s 			page 25


 693              	.LCFI16:
 694              		.cfi_restore_state
  85:../../shields/Murata-dualstack/src/alp.c ****   operand.offset = alp_parse_length_operand(cmd_fifo);
 695              		.loc 1 85 58 discriminator 1 view .LVU153
 696 002c 024B     		ldr	r3, .L52
 697 002e 034A     		ldr	r2, .L52+4
 698 0030 5521     		movs	r1, #85
 699 0032 0348     		ldr	r0, .L52+8
 700              	.LVL72:
  85:../../shields/Murata-dualstack/src/alp.c ****   operand.offset = alp_parse_length_operand(cmd_fifo);
 701              		.loc 1 85 58 discriminator 1 view .LVU154
 702 0034 FFF7FEFF 		bl	__assert_func
 703              	.LVL73:
 704              	.L53:
 705              		.align	2
 706              	.L52:
 707 0038 00000000 		.word	.LC10
 708 003c 00000000 		.word	.LANCHOR4
 709 0040 40000000 		.word	.LC1
 710              		.cfi_endproc
 711              	.LFE4:
 713              		.section	.text.parse_operand_file_data,"ax",%progbits
 714              		.align	1
 715              		.syntax unified
 716              		.thumb
 717              		.thumb_func
 718              		.fpu fpv4-sp-d16
 720              	parse_operand_file_data:
 721              	.LVL74:
 722              	.LFB12:
 206:../../shields/Murata-dualstack/src/alp.c ****   action->file_data_operand.file_offset = alp_parse_file_offset_operand(fifo);
 723              		.loc 1 206 73 is_stmt 1 view -0
 724              		.cfi_startproc
 725              		@ args = 0, pretend = 0, frame = 8
 726              		@ frame_needed = 0, uses_anonymous_args = 0
 206:../../shields/Murata-dualstack/src/alp.c ****   action->file_data_operand.file_offset = alp_parse_file_offset_operand(fifo);
 727              		.loc 1 206 73 is_stmt 0 view .LVU156
 728 0000 70B5     		push	{r4, r5, r6, lr}
 729              	.LCFI17:
 730              		.cfi_def_cfa_offset 16
 731              		.cfi_offset 4, -16
 732              		.cfi_offset 5, -12
 733              		.cfi_offset 6, -8
 734              		.cfi_offset 14, -4
 735 0002 82B0     		sub	sp, sp, #8
 736              	.LCFI18:
 737              		.cfi_def_cfa_offset 24
 738 0004 0546     		mov	r5, r0
 739 0006 0E46     		mov	r6, r1
 207:../../shields/Murata-dualstack/src/alp.c ****   action->file_data_operand.provided_data_length = alp_parse_length_operand(fifo);
 740              		.loc 1 207 3 is_stmt 1 view .LVU157
 207:../../shields/Murata-dualstack/src/alp.c ****   action->file_data_operand.provided_data_length = alp_parse_length_operand(fifo);
 741              		.loc 1 207 43 is_stmt 0 view .LVU158
 742 0008 6C46     		mov	r4, sp
 743 000a 0146     		mov	r1, r0
 744              	.LVL75:
 207:../../shields/Murata-dualstack/src/alp.c ****   action->file_data_operand.provided_data_length = alp_parse_length_operand(fifo);
ARM GAS  C:\Users\yvesk\AppData\Local\Temp\cchyx8pA.s 			page 26


 745              		.loc 1 207 43 view .LVU159
 746 000c 2046     		mov	r0, r4
 747              	.LVL76:
 207:../../shields/Murata-dualstack/src/alp.c ****   action->file_data_operand.provided_data_length = alp_parse_length_operand(fifo);
 748              		.loc 1 207 43 view .LVU160
 749 000e FFF7FEFF 		bl	alp_parse_file_offset_operand
 750              	.LVL77:
 207:../../shields/Murata-dualstack/src/alp.c ****   action->file_data_operand.provided_data_length = alp_parse_length_operand(fifo);
 751              		.loc 1 207 43 view .LVU161
 752 0012 331D     		adds	r3, r6, #4
 753 0014 94E80300 		ldm	r4, {r0, r1}
 754 0018 83E80300 		stm	r3, {r0, r1}
 208:../../shields/Murata-dualstack/src/alp.c ****   assert(action->file_data_operand.provided_data_length <= sizeof(action->file_data_operand.data));
 755              		.loc 1 208 3 is_stmt 1 view .LVU162
 208:../../shields/Murata-dualstack/src/alp.c ****   assert(action->file_data_operand.provided_data_length <= sizeof(action->file_data_operand.data));
 756              		.loc 1 208 52 is_stmt 0 view .LVU163
 757 001c 2846     		mov	r0, r5
 758 001e FFF7FEFF 		bl	alp_parse_length_operand
 759              	.LVL78:
 208:../../shields/Murata-dualstack/src/alp.c ****   assert(action->file_data_operand.provided_data_length <= sizeof(action->file_data_operand.data));
 760              		.loc 1 208 50 view .LVU164
 761 0022 F060     		str	r0, [r6, #12]
 209:../../shields/Murata-dualstack/src/alp.c ****   fifo_pop(fifo, action->file_data_operand.data, action->file_data_operand.provided_data_length);
 762              		.loc 1 209 3 is_stmt 1 view .LVU165
 763 0024 FF28     		cmp	r0, #255
 764 0026 07D8     		bhi	.L57
 210:../../shields/Murata-dualstack/src/alp.c **** }
 765              		.loc 1 210 3 view .LVU166
 766 0028 82B2     		uxth	r2, r0
 767 002a 06F11001 		add	r1, r6, #16
 768 002e 2846     		mov	r0, r5
 769 0030 FFF7FEFF 		bl	fifo_pop
 770              	.LVL79:
 211:../../shields/Murata-dualstack/src/alp.c **** 
 771              		.loc 1 211 1 is_stmt 0 view .LVU167
 772 0034 02B0     		add	sp, sp, #8
 773              	.LCFI19:
 774              		.cfi_remember_state
 775              		.cfi_def_cfa_offset 16
 776              		@ sp needed
 777 0036 70BD     		pop	{r4, r5, r6, pc}
 778              	.LVL80:
 779              	.L57:
 780              	.LCFI20:
 781              		.cfi_restore_state
 209:../../shields/Murata-dualstack/src/alp.c ****   fifo_pop(fifo, action->file_data_operand.data, action->file_data_operand.provided_data_length);
 782              		.loc 1 209 3 discriminator 1 view .LVU168
 783 0038 024B     		ldr	r3, .L58
 784 003a 034A     		ldr	r2, .L58+4
 785 003c D121     		movs	r1, #209
 786 003e 0348     		ldr	r0, .L58+8
 787 0040 FFF7FEFF 		bl	__assert_func
 788              	.LVL81:
 789              	.L59:
 790              		.align	2
 791              	.L58:
 792 0044 00000000 		.word	.LC11
ARM GAS  C:\Users\yvesk\AppData\Local\Temp\cchyx8pA.s 			page 27


 793 0048 00000000 		.word	.LANCHOR5
 794 004c 40000000 		.word	.LC1
 795              		.cfi_endproc
 796              	.LFE12:
 798              		.section	.text.parse_op_write_file_data,"ax",%progbits
 799              		.align	1
 800              		.syntax unified
 801              		.thumb
 802              		.thumb_func
 803              		.fpu fpv4-sp-d16
 805              	parse_op_write_file_data:
 806              	.LVL82:
 807              	.LFB13:
 213:../../shields/Murata-dualstack/src/alp.c ****   parse_operand_file_data(fifo, action);
 808              		.loc 1 213 74 is_stmt 1 view -0
 809              		.cfi_startproc
 810              		@ args = 0, pretend = 0, frame = 0
 811              		@ frame_needed = 0, uses_anonymous_args = 0
 213:../../shields/Murata-dualstack/src/alp.c ****   parse_operand_file_data(fifo, action);
 812              		.loc 1 213 74 is_stmt 0 view .LVU170
 813 0000 08B5     		push	{r3, lr}
 814              	.LCFI21:
 815              		.cfi_def_cfa_offset 8
 816              		.cfi_offset 3, -8
 817              		.cfi_offset 14, -4
 214:../../shields/Murata-dualstack/src/alp.c ****   DPRINT("parsed write file data file %i, len %i", action->file_data_operand.file_offset.file_id, a
 818              		.loc 1 214 3 is_stmt 1 view .LVU171
 819 0002 FFF7FEFF 		bl	parse_operand_file_data
 820              	.LVL83:
 215:../../shields/Murata-dualstack/src/alp.c **** }
 821              		.loc 1 215 146 view .LVU172
 216:../../shields/Murata-dualstack/src/alp.c **** 
 822              		.loc 1 216 1 is_stmt 0 view .LVU173
 823 0006 08BD     		pop	{r3, pc}
 824              		.cfi_endproc
 825              	.LFE13:
 827              		.section	.text.parse_op_return_file_data,"ax",%progbits
 828              		.align	1
 829              		.syntax unified
 830              		.thumb
 831              		.thumb_func
 832              		.fpu fpv4-sp-d16
 834              	parse_op_return_file_data:
 835              	.LVL84:
 836              	.LFB14:
 219:../../shields/Murata-dualstack/src/alp.c ****   parse_operand_file_data(fifo, action);
 837              		.loc 1 219 75 is_stmt 1 view -0
 838              		.cfi_startproc
 839              		@ args = 0, pretend = 0, frame = 0
 840              		@ frame_needed = 0, uses_anonymous_args = 0
 219:../../shields/Murata-dualstack/src/alp.c ****   parse_operand_file_data(fifo, action);
 841              		.loc 1 219 75 is_stmt 0 view .LVU175
 842 0000 08B5     		push	{r3, lr}
 843              	.LCFI22:
 844              		.cfi_def_cfa_offset 8
 845              		.cfi_offset 3, -8
 846              		.cfi_offset 14, -4
ARM GAS  C:\Users\yvesk\AppData\Local\Temp\cchyx8pA.s 			page 28


 220:../../shields/Murata-dualstack/src/alp.c ****   DPRINT("parsed return file data file %i, len %i", action->file_data_operand.file_offset.file_id, 
 847              		.loc 1 220 3 is_stmt 1 view .LVU176
 848 0002 FFF7FEFF 		bl	parse_operand_file_data
 849              	.LVL85:
 221:../../shields/Murata-dualstack/src/alp.c **** }
 850              		.loc 1 221 147 view .LVU177
 222:../../shields/Murata-dualstack/src/alp.c **** 
 851              		.loc 1 222 1 is_stmt 0 view .LVU178
 852 0006 08BD     		pop	{r3, pc}
 853              		.cfi_endproc
 854              	.LFE14:
 856              		.section	.text.alp_parse_file_header_operand,"ax",%progbits
 857              		.align	1
 858              		.global	alp_parse_file_header_operand
 859              		.syntax unified
 860              		.thumb
 861              		.thumb_func
 862              		.fpu fpv4-sp-d16
 864              	alp_parse_file_header_operand:
 865              	.LVL86:
 866              	.LFB5:
  90:../../shields/Murata-dualstack/src/alp.c ****   alp_operand_file_header_t operand;
 867              		.loc 1 90 75 is_stmt 1 view -0
 868              		.cfi_startproc
 869              		@ args = 0, pretend = 0, frame = 16
 870              		@ frame_needed = 0, uses_anonymous_args = 0
  90:../../shields/Murata-dualstack/src/alp.c ****   alp_operand_file_header_t operand;
 871              		.loc 1 90 75 is_stmt 0 view .LVU180
 872 0000 30B5     		push	{r4, r5, lr}
 873              	.LCFI23:
 874              		.cfi_def_cfa_offset 12
 875              		.cfi_offset 4, -12
 876              		.cfi_offset 5, -8
 877              		.cfi_offset 14, -4
 878 0002 85B0     		sub	sp, sp, #20
 879              	.LCFI24:
 880              		.cfi_def_cfa_offset 32
 881 0004 0446     		mov	r4, r0
 882 0006 0D46     		mov	r5, r1
  91:../../shields/Murata-dualstack/src/alp.c ****   error_t err = fifo_pop(cmd_fifo, &operand.file_id, 1); assert(err == oss7SUCCESS);
 883              		.loc 1 91 3 is_stmt 1 view .LVU181
  92:../../shields/Murata-dualstack/src/alp.c ****   err = fifo_pop(cmd_fifo, (uint8_t*)&operand.file_header, sizeof(d7ap_fs_file_header_t)); assert(e
 884              		.loc 1 92 3 view .LVU182
  92:../../shields/Murata-dualstack/src/alp.c ****   err = fifo_pop(cmd_fifo, (uint8_t*)&operand.file_header, sizeof(d7ap_fs_file_header_t)); assert(e
 885              		.loc 1 92 17 is_stmt 0 view .LVU183
 886 0008 0122     		movs	r2, #1
 887 000a 6946     		mov	r1, sp
 888              	.LVL87:
  92:../../shields/Murata-dualstack/src/alp.c ****   err = fifo_pop(cmd_fifo, (uint8_t*)&operand.file_header, sizeof(d7ap_fs_file_header_t)); assert(e
 889              		.loc 1 92 17 view .LVU184
 890 000c 2846     		mov	r0, r5
 891              	.LVL88:
  92:../../shields/Murata-dualstack/src/alp.c ****   err = fifo_pop(cmd_fifo, (uint8_t*)&operand.file_header, sizeof(d7ap_fs_file_header_t)); assert(e
 892              		.loc 1 92 17 view .LVU185
 893 000e FFF7FEFF 		bl	fifo_pop
 894              	.LVL89:
  92:../../shields/Murata-dualstack/src/alp.c ****   err = fifo_pop(cmd_fifo, (uint8_t*)&operand.file_header, sizeof(d7ap_fs_file_header_t)); assert(e
ARM GAS  C:\Users\yvesk\AppData\Local\Temp\cchyx8pA.s 			page 29


 895              		.loc 1 92 58 is_stmt 1 view .LVU186
 896 0012 D0B9     		cbnz	r0, .L68
  93:../../shields/Murata-dualstack/src/alp.c **** 
 897              		.loc 1 93 3 view .LVU187
  93:../../shields/Murata-dualstack/src/alp.c **** 
 898              		.loc 1 93 9 is_stmt 0 view .LVU188
 899 0014 0C22     		movs	r2, #12
 900 0016 0DF10101 		add	r1, sp, #1
 901 001a 2846     		mov	r0, r5
 902              	.LVL90:
  93:../../shields/Murata-dualstack/src/alp.c **** 
 903              		.loc 1 93 9 view .LVU189
 904 001c FFF7FEFF 		bl	fifo_pop
 905              	.LVL91:
  93:../../shields/Murata-dualstack/src/alp.c **** 
 906              		.loc 1 93 92 is_stmt 1 view .LVU190
 907 0020 C8B9     		cbnz	r0, .L69
  96:../../shields/Murata-dualstack/src/alp.c ****   operand.file_header.allocated_length = __builtin_bswap32(operand.file_header.allocated_length);
 908              		.loc 1 96 3 view .LVU191
  96:../../shields/Murata-dualstack/src/alp.c ****   operand.file_header.allocated_length = __builtin_bswap32(operand.file_header.allocated_length);
 909              		.loc 1 96 32 is_stmt 0 view .LVU192
 910 0022 DDF80530 		ldr	r3, [sp, #5]	@ unaligned
 911 0026 1BBA     		rev	r3, r3
  96:../../shields/Murata-dualstack/src/alp.c ****   operand.file_header.allocated_length = __builtin_bswap32(operand.file_header.allocated_length);
 912              		.loc 1 96 30 view .LVU193
 913 0028 CDF80530 		str	r3, [sp, #5]	@ unaligned
  97:../../shields/Murata-dualstack/src/alp.c ****   return operand;
 914              		.loc 1 97 3 is_stmt 1 view .LVU194
  97:../../shields/Murata-dualstack/src/alp.c ****   return operand;
 915              		.loc 1 97 42 is_stmt 0 view .LVU195
 916 002c DDF80930 		ldr	r3, [sp, #9]	@ unaligned
 917 0030 1BBA     		rev	r3, r3
  97:../../shields/Murata-dualstack/src/alp.c ****   return operand;
 918              		.loc 1 97 40 view .LVU196
 919 0032 CDF80930 		str	r3, [sp, #9]	@ unaligned
  98:../../shields/Murata-dualstack/src/alp.c **** }
 920              		.loc 1 98 3 is_stmt 1 view .LVU197
  98:../../shields/Murata-dualstack/src/alp.c **** }
 921              		.loc 1 98 10 is_stmt 0 view .LVU198
 922 0036 6B46     		mov	r3, sp
 923 0038 07CB     		ldmia	r3!, {r0, r1, r2}
 924              	.LVL92:
  98:../../shields/Murata-dualstack/src/alp.c **** }
 925              		.loc 1 98 10 view .LVU199
 926 003a 2060     		str	r0, [r4]	@ unaligned
 927 003c 6160     		str	r1, [r4, #4]	@ unaligned
 928 003e A260     		str	r2, [r4, #8]	@ unaligned
 929 0040 1B78     		ldrb	r3, [r3]	@ zero_extendqisi2
 930 0042 2373     		strb	r3, [r4, #12]
  99:../../shields/Murata-dualstack/src/alp.c **** 
 931              		.loc 1 99 1 view .LVU200
 932 0044 2046     		mov	r0, r4
 933 0046 05B0     		add	sp, sp, #20
 934              	.LCFI25:
 935              		.cfi_remember_state
 936              		.cfi_def_cfa_offset 12
 937              		@ sp needed
ARM GAS  C:\Users\yvesk\AppData\Local\Temp\cchyx8pA.s 			page 30


 938 0048 30BD     		pop	{r4, r5, pc}
 939              	.LVL93:
 940              	.L68:
 941              	.LCFI26:
 942              		.cfi_restore_state
  92:../../shields/Murata-dualstack/src/alp.c ****   err = fifo_pop(cmd_fifo, (uint8_t*)&operand.file_header, sizeof(d7ap_fs_file_header_t)); assert(e
 943              		.loc 1 92 58 discriminator 1 view .LVU201
 944 004a 064B     		ldr	r3, .L70
 945 004c 064A     		ldr	r2, .L70+4
 946 004e 5C21     		movs	r1, #92
 947 0050 0648     		ldr	r0, .L70+8
 948              	.LVL94:
  92:../../shields/Murata-dualstack/src/alp.c ****   err = fifo_pop(cmd_fifo, (uint8_t*)&operand.file_header, sizeof(d7ap_fs_file_header_t)); assert(e
 949              		.loc 1 92 58 discriminator 1 view .LVU202
 950 0052 FFF7FEFF 		bl	__assert_func
 951              	.LVL95:
 952              	.L69:
  93:../../shields/Murata-dualstack/src/alp.c **** 
 953              		.loc 1 93 92 discriminator 1 view .LVU203
 954 0056 034B     		ldr	r3, .L70
 955 0058 034A     		ldr	r2, .L70+4
 956 005a 5D21     		movs	r1, #93
 957 005c 0348     		ldr	r0, .L70+8
 958              	.LVL96:
  93:../../shields/Murata-dualstack/src/alp.c **** 
 959              		.loc 1 93 92 discriminator 1 view .LVU204
 960 005e FFF7FEFF 		bl	__assert_func
 961              	.LVL97:
 962              	.L71:
 963 0062 00BF     		.align	2
 964              	.L70:
 965 0064 00000000 		.word	.LC10
 966 0068 00000000 		.word	.LANCHOR6
 967 006c 40000000 		.word	.LC1
 968              		.cfi_endproc
 969              	.LFE5:
 971              		.section	.text.alp_append_file_offset_operand,"ax",%progbits
 972              		.align	1
 973              		.global	alp_append_file_offset_operand
 974              		.syntax unified
 975              		.thumb
 976              		.thumb_func
 977              		.fpu fpv4-sp-d16
 979              	alp_append_file_offset_operand:
 980              	.LVL98:
 981              	.LFB6:
 101:../../shields/Murata-dualstack/src/alp.c ****   assert(fifo_put_byte(fifo, file_id) == oss7SUCCESS);
 982              		.loc 1 101 85 is_stmt 1 view -0
 983              		.cfi_startproc
 984              		@ args = 0, pretend = 0, frame = 0
 985              		@ frame_needed = 0, uses_anonymous_args = 0
 101:../../shields/Murata-dualstack/src/alp.c ****   assert(fifo_put_byte(fifo, file_id) == oss7SUCCESS);
 986              		.loc 1 101 85 is_stmt 0 view .LVU206
 987 0000 38B5     		push	{r3, r4, r5, lr}
 988              	.LCFI27:
 989              		.cfi_def_cfa_offset 16
 990              		.cfi_offset 3, -16
ARM GAS  C:\Users\yvesk\AppData\Local\Temp\cchyx8pA.s 			page 31


 991              		.cfi_offset 4, -12
 992              		.cfi_offset 5, -8
 993              		.cfi_offset 14, -4
 994 0002 0446     		mov	r4, r0
 995 0004 1546     		mov	r5, r2
 102:../../shields/Murata-dualstack/src/alp.c ****   alp_append_length_operand(fifo, offset);
 996              		.loc 1 102 3 is_stmt 1 view .LVU207
 997 0006 FFF7FEFF 		bl	fifo_put_byte
 998              	.LVL99:
 102:../../shields/Murata-dualstack/src/alp.c ****   alp_append_length_operand(fifo, offset);
 999              		.loc 1 102 3 is_stmt 0 view .LVU208
 1000 000a 20B9     		cbnz	r0, .L75
 103:../../shields/Murata-dualstack/src/alp.c **** }
 1001              		.loc 1 103 3 is_stmt 1 view .LVU209
 1002 000c 2946     		mov	r1, r5
 1003 000e 2046     		mov	r0, r4
 1004 0010 FFF7FEFF 		bl	alp_append_length_operand
 1005              	.LVL100:
 104:../../shields/Murata-dualstack/src/alp.c **** 
 1006              		.loc 1 104 1 is_stmt 0 view .LVU210
 1007 0014 38BD     		pop	{r3, r4, r5, pc}
 1008              	.LVL101:
 1009              	.L75:
 102:../../shields/Murata-dualstack/src/alp.c ****   alp_append_length_operand(fifo, offset);
 1010              		.loc 1 102 3 discriminator 1 view .LVU211
 1011 0016 034B     		ldr	r3, .L76
 1012 0018 034A     		ldr	r2, .L76+4
 1013 001a 6621     		movs	r1, #102
 1014 001c 0348     		ldr	r0, .L76+8
 1015 001e FFF7FEFF 		bl	__assert_func
 1016              	.LVL102:
 1017              	.L77:
 1018 0022 00BF     		.align	2
 1019              	.L76:
 1020 0024 00000000 		.word	.LC12
 1021 0028 00000000 		.word	.LANCHOR7
 1022 002c 40000000 		.word	.LC1
 1023              		.cfi_endproc
 1024              	.LFE6:
 1026              		.section	.text.alp_append_indirect_forward_action,"ax",%progbits
 1027              		.align	1
 1028              		.global	alp_append_indirect_forward_action
 1029              		.syntax unified
 1030              		.thumb
 1031              		.thumb_func
 1032              		.fpu fpv4-sp-d16
 1034              	alp_append_indirect_forward_action:
 1035              	.LVL103:
 1036              	.LFB7:
 106:../../shields/Murata-dualstack/src/alp.c ****   assert(fifo_put_byte(fifo, ALP_OP_INDIRECT_FORWARD | (overload << 7)) == oss7SUCCESS);
 1037              		.loc 1 106 142 is_stmt 1 view -0
 1038              		.cfi_startproc
 1039              		@ args = 4, pretend = 0, frame = 0
 1040              		@ frame_needed = 0, uses_anonymous_args = 0
 106:../../shields/Murata-dualstack/src/alp.c ****   assert(fifo_put_byte(fifo, ALP_OP_INDIRECT_FORWARD | (overload << 7)) == oss7SUCCESS);
 1041              		.loc 1 106 142 is_stmt 0 view .LVU213
 1042 0000 F8B5     		push	{r3, r4, r5, r6, r7, lr}
ARM GAS  C:\Users\yvesk\AppData\Local\Temp\cchyx8pA.s 			page 32


 1043              	.LCFI28:
 1044              		.cfi_def_cfa_offset 24
 1045              		.cfi_offset 3, -24
 1046              		.cfi_offset 4, -20
 1047              		.cfi_offset 5, -16
 1048              		.cfi_offset 6, -12
 1049              		.cfi_offset 7, -8
 1050              		.cfi_offset 14, -4
 1051 0002 0546     		mov	r5, r0
 1052 0004 0E46     		mov	r6, r1
 1053 0006 1446     		mov	r4, r2
 1054 0008 1F46     		mov	r7, r3
 107:../../shields/Murata-dualstack/src/alp.c ****   assert(fifo_put_byte(fifo, file_id) == oss7SUCCESS);
 1055              		.loc 1 107 3 is_stmt 1 view .LVU214
 1056 000a D101     		lsls	r1, r2, #7
 1057              	.LVL104:
 107:../../shields/Murata-dualstack/src/alp.c ****   assert(fifo_put_byte(fifo, file_id) == oss7SUCCESS);
 1058              		.loc 1 107 3 is_stmt 0 view .LVU215
 1059 000c 41F03301 		orr	r1, r1, #51
 1060 0010 01F0B301 		and	r1, r1, #179
 1061 0014 FFF7FEFF 		bl	fifo_put_byte
 1062              	.LVL105:
 107:../../shields/Murata-dualstack/src/alp.c ****   assert(fifo_put_byte(fifo, file_id) == oss7SUCCESS);
 1063              		.loc 1 107 3 view .LVU216
 1064 0018 30B9     		cbnz	r0, .L83
 108:../../shields/Murata-dualstack/src/alp.c **** 
 1065              		.loc 1 108 3 is_stmt 1 view .LVU217
 1066 001a 3146     		mov	r1, r6
 1067 001c 2846     		mov	r0, r5
 1068 001e FFF7FEFF 		bl	fifo_put_byte
 1069              	.LVL106:
 1070 0022 38B9     		cbnz	r0, .L84
 110:../../shields/Murata-dualstack/src/alp.c ****     assert(fifo_put(fifo, overload_config, overload_config_len) == oss7SUCCESS);
 1071              		.loc 1 110 3 view .LVU218
 110:../../shields/Murata-dualstack/src/alp.c ****     assert(fifo_put(fifo, overload_config, overload_config_len) == oss7SUCCESS);
 1072              		.loc 1 110 6 is_stmt 0 view .LVU219
 1073 0024 64B9     		cbnz	r4, .L85
 1074              	.L78:
 115:../../shields/Murata-dualstack/src/alp.c **** 
 1075              		.loc 1 115 1 view .LVU220
 1076 0026 F8BD     		pop	{r3, r4, r5, r6, r7, pc}
 1077              	.LVL107:
 1078              	.L83:
 107:../../shields/Murata-dualstack/src/alp.c ****   assert(fifo_put_byte(fifo, file_id) == oss7SUCCESS);
 1079              		.loc 1 107 3 discriminator 1 view .LVU221
 1080 0028 0C4B     		ldr	r3, .L86
 1081 002a 0D4A     		ldr	r2, .L86+4
 1082 002c 6B21     		movs	r1, #107
 1083 002e 0D48     		ldr	r0, .L86+8
 1084 0030 FFF7FEFF 		bl	__assert_func
 1085              	.LVL108:
 1086              	.L84:
 108:../../shields/Murata-dualstack/src/alp.c **** 
 1087              		.loc 1 108 3 discriminator 1 view .LVU222
 1088 0034 0C4B     		ldr	r3, .L86+12
 1089 0036 0A4A     		ldr	r2, .L86+4
 1090 0038 6C21     		movs	r1, #108
ARM GAS  C:\Users\yvesk\AppData\Local\Temp\cchyx8pA.s 			page 33


 1091 003a 0A48     		ldr	r0, .L86+8
 1092 003c FFF7FEFF 		bl	__assert_func
 1093              	.LVL109:
 1094              	.L85:
 111:../../shields/Murata-dualstack/src/alp.c ****   }
 1095              		.loc 1 111 5 is_stmt 1 view .LVU223
 1096 0040 9DF81820 		ldrb	r2, [sp, #24]	@ zero_extendqisi2
 1097 0044 3946     		mov	r1, r7
 1098 0046 2846     		mov	r0, r5
 1099 0048 FFF7FEFF 		bl	fifo_put
 1100              	.LVL110:
 1101 004c 0028     		cmp	r0, #0
 1102 004e EAD0     		beq	.L78
 111:../../shields/Murata-dualstack/src/alp.c ****   }
 1103              		.loc 1 111 5 is_stmt 0 discriminator 1 view .LVU224
 1104 0050 064B     		ldr	r3, .L86+16
 1105 0052 034A     		ldr	r2, .L86+4
 1106 0054 6F21     		movs	r1, #111
 1107 0056 0348     		ldr	r0, .L86+8
 1108 0058 FFF7FEFF 		bl	__assert_func
 1109              	.LVL111:
 1110              	.L87:
 1111              		.align	2
 1112              	.L86:
 1113 005c 00000000 		.word	.LC13
 1114 0060 00000000 		.word	.LANCHOR8
 1115 0064 40000000 		.word	.LC1
 1116 0068 00000000 		.word	.LC12
 1117 006c 50000000 		.word	.LC14
 1118              		.cfi_endproc
 1119              	.LFE7:
 1121              		.section	.text.alp_append_forward_action,"ax",%progbits
 1122              		.align	1
 1123              		.global	alp_append_forward_action
 1124              		.syntax unified
 1125              		.thumb
 1126              		.thumb_func
 1127              		.fpu fpv4-sp-d16
 1129              	alp_append_forward_action:
 1130              	.LVL112:
 1131              	.LFB8:
 117:../../shields/Murata-dualstack/src/alp.c ****   assert(config!=NULL);
 1132              		.loc 1 117 99 is_stmt 1 view -0
 1133              		.cfi_startproc
 1134              		@ args = 0, pretend = 0, frame = 8
 1135              		@ frame_needed = 0, uses_anonymous_args = 0
 117:../../shields/Murata-dualstack/src/alp.c ****   assert(config!=NULL);
 1136              		.loc 1 117 99 is_stmt 0 view .LVU226
 1137 0000 F0B5     		push	{r4, r5, r6, r7, lr}
 1138              	.LCFI29:
 1139              		.cfi_def_cfa_offset 20
 1140              		.cfi_offset 4, -20
 1141              		.cfi_offset 5, -16
 1142              		.cfi_offset 6, -12
 1143              		.cfi_offset 7, -8
 1144              		.cfi_offset 14, -4
 1145 0002 83B0     		sub	sp, sp, #12
ARM GAS  C:\Users\yvesk\AppData\Local\Temp\cchyx8pA.s 			page 34


 1146              	.LCFI30:
 1147              		.cfi_def_cfa_offset 32
 118:../../shields/Murata-dualstack/src/alp.c ****   assert(fifo_put_byte(fifo, ALP_OP_FORWARD) == oss7SUCCESS);
 1148              		.loc 1 118 3 is_stmt 1 view .LVU227
 1149 0004 EAB1     		cbz	r2, .L120
 1150 0006 0446     		mov	r4, r0
 1151 0008 0E46     		mov	r6, r1
 1152 000a 1F46     		mov	r7, r3
 1153 000c 1546     		mov	r5, r2
 119:../../shields/Murata-dualstack/src/alp.c ****   assert(fifo_put_byte(fifo, itf_id) == oss7SUCCESS);
 1154              		.loc 1 119 3 view .LVU228
 1155 000e 3221     		movs	r1, #50
 1156              	.LVL113:
 119:../../shields/Murata-dualstack/src/alp.c ****   assert(fifo_put_byte(fifo, itf_id) == oss7SUCCESS);
 1157              		.loc 1 119 3 is_stmt 0 view .LVU229
 1158 0010 FFF7FEFF 		bl	fifo_put_byte
 1159              	.LVL114:
 119:../../shields/Murata-dualstack/src/alp.c ****   assert(fifo_put_byte(fifo, itf_id) == oss7SUCCESS);
 1160              		.loc 1 119 3 view .LVU230
 1161 0014 D8B9     		cbnz	r0, .L121
 120:../../shields/Murata-dualstack/src/alp.c **** 
 1162              		.loc 1 120 3 is_stmt 1 view .LVU231
 1163 0016 3146     		mov	r1, r6
 1164 0018 2046     		mov	r0, r4
 1165 001a FFF7FEFF 		bl	fifo_put_byte
 1166              	.LVL115:
 1167 001e E0B9     		cbnz	r0, .L122
 122:../../shields/Murata-dualstack/src/alp.c ****   {
 1168              		.loc 1 122 3 view .LVU232
 122:../../shields/Murata-dualstack/src/alp.c ****   {
 1169              		.loc 1 122 6 is_stmt 0 view .LVU233
 1170 0020 D72E     		cmp	r6, #215
 1171 0022 20D0     		beq	.L123
 131:../../shields/Murata-dualstack/src/alp.c ****   {
 1172              		.loc 1 131 8 is_stmt 1 view .LVU234
 131:../../shields/Murata-dualstack/src/alp.c ****   {
 1173              		.loc 1 131 10 is_stmt 0 view .LVU235
 1174 0024 022E     		cmp	r6, #2
 1175 0026 6ED0     		beq	.L124
 146:../../shields/Murata-dualstack/src/alp.c ****   {
 1176              		.loc 1 146 8 is_stmt 1 view .LVU236
 146:../../shields/Murata-dualstack/src/alp.c ****   {
 1177              		.loc 1 146 10 is_stmt 0 view .LVU237
 1178 0028 032E     		cmp	r6, #3
 1179 002a 00F0D880 		beq	.L125
 159:../../shields/Murata-dualstack/src/alp.c ****   }
 1180              		.loc 1 159 5 is_stmt 1 view .LVU238
 1181 002e 3A46     		mov	r2, r7
 1182 0030 2946     		mov	r1, r5
 1183 0032 2046     		mov	r0, r4
 1184 0034 FFF7FEFF 		bl	fifo_put
 1185              	.LVL116:
 1186 0038 0028     		cmp	r0, #0
 1187 003a 40F02381 		bne	.L126
 1188              	.L88:
 163:../../shields/Murata-dualstack/src/alp.c **** 
 1189              		.loc 1 163 1 is_stmt 0 view .LVU239
ARM GAS  C:\Users\yvesk\AppData\Local\Temp\cchyx8pA.s 			page 35


 1190 003e 03B0     		add	sp, sp, #12
 1191              	.LCFI31:
 1192              		.cfi_remember_state
 1193              		.cfi_def_cfa_offset 20
 1194              		@ sp needed
 1195 0040 F0BD     		pop	{r4, r5, r6, r7, pc}
 1196              	.LVL117:
 1197              	.L120:
 1198              	.LCFI32:
 1199              		.cfi_restore_state
 118:../../shields/Murata-dualstack/src/alp.c ****   assert(fifo_put_byte(fifo, ALP_OP_FORWARD) == oss7SUCCESS);
 1200              		.loc 1 118 3 discriminator 1 view .LVU240
 1201 0042 934B     		ldr	r3, .L142
 1202              	.LVL118:
 118:../../shields/Murata-dualstack/src/alp.c ****   assert(fifo_put_byte(fifo, ALP_OP_FORWARD) == oss7SUCCESS);
 1203              		.loc 1 118 3 discriminator 1 view .LVU241
 1204 0044 934A     		ldr	r2, .L142+4
 1205              	.LVL119:
 118:../../shields/Murata-dualstack/src/alp.c ****   assert(fifo_put_byte(fifo, ALP_OP_FORWARD) == oss7SUCCESS);
 1206              		.loc 1 118 3 discriminator 1 view .LVU242
 1207 0046 7621     		movs	r1, #118
 1208              	.LVL120:
 118:../../shields/Murata-dualstack/src/alp.c ****   assert(fifo_put_byte(fifo, ALP_OP_FORWARD) == oss7SUCCESS);
 1209              		.loc 1 118 3 discriminator 1 view .LVU243
 1210 0048 9348     		ldr	r0, .L142+8
 1211              	.LVL121:
 118:../../shields/Murata-dualstack/src/alp.c ****   assert(fifo_put_byte(fifo, ALP_OP_FORWARD) == oss7SUCCESS);
 1212              		.loc 1 118 3 discriminator 1 view .LVU244
 1213 004a FFF7FEFF 		bl	__assert_func
 1214              	.LVL122:
 1215              	.L121:
 119:../../shields/Murata-dualstack/src/alp.c ****   assert(fifo_put_byte(fifo, itf_id) == oss7SUCCESS);
 1216              		.loc 1 119 3 discriminator 1 view .LVU245
 1217 004e 934B     		ldr	r3, .L142+12
 1218 0050 904A     		ldr	r2, .L142+4
 1219 0052 7721     		movs	r1, #119
 1220 0054 9048     		ldr	r0, .L142+8
 1221 0056 FFF7FEFF 		bl	__assert_func
 1222              	.LVL123:
 1223              	.L122:
 120:../../shields/Murata-dualstack/src/alp.c **** 
 1224              		.loc 1 120 3 discriminator 1 view .LVU246
 1225 005a 914B     		ldr	r3, .L142+16
 1226 005c 8D4A     		ldr	r2, .L142+4
 1227 005e 7821     		movs	r1, #120
 1228 0060 8D48     		ldr	r0, .L142+8
 1229 0062 FFF7FEFF 		bl	__assert_func
 1230              	.LVL124:
 1231              	.L123:
 1232              	.LBB15:
 124:../../shields/Murata-dualstack/src/alp.c ****     assert(fifo_put_byte(fifo, ((d7ap_session_config_t*)config)->dormant_timeout) == oss7SUCCESS);
 1233              		.loc 1 124 5 is_stmt 1 view .LVU247
 1234 0066 2978     		ldrb	r1, [r5]	@ zero_extendqisi2
 1235 0068 2046     		mov	r0, r4
 1236 006a FFF7FEFF 		bl	fifo_put_byte
 1237              	.LVL125:
 1238 006e 90B9     		cbnz	r0, .L127
ARM GAS  C:\Users\yvesk\AppData\Local\Temp\cchyx8pA.s 			page 36


 125:../../shields/Murata-dualstack/src/alp.c ****     assert(fifo_put_byte(fifo, ((d7ap_session_config_t*)config)->addressee.ctrl.raw) == oss7SUCCESS
 1239              		.loc 1 125 5 view .LVU248
 1240 0070 6978     		ldrb	r1, [r5, #1]	@ zero_extendqisi2
 1241 0072 2046     		mov	r0, r4
 1242 0074 FFF7FEFF 		bl	fifo_put_byte
 1243              	.LVL126:
 1244 0078 98B9     		cbnz	r0, .L128
 126:../../shields/Murata-dualstack/src/alp.c ****     uint8_t id_length = d7ap_addressee_id_length(((d7ap_session_config_t*)config)->addressee.ctrl.i
 1245              		.loc 1 126 5 view .LVU249
 1246 007a A978     		ldrb	r1, [r5, #2]	@ zero_extendqisi2
 1247 007c 2046     		mov	r0, r4
 1248 007e FFF7FEFF 		bl	fifo_put_byte
 1249              	.LVL127:
 1250 0082 A0B9     		cbnz	r0, .L129
 127:../../shields/Murata-dualstack/src/alp.c ****     assert(fifo_put_byte(fifo, ((d7ap_session_config_t*)config)->addressee.access_class) == oss7SUC
 1251              		.loc 1 127 5 view .LVU250
 127:../../shields/Murata-dualstack/src/alp.c ****     assert(fifo_put_byte(fifo, ((d7ap_session_config_t*)config)->addressee.access_class) == oss7SUC
 1252              		.loc 1 127 98 is_stmt 0 view .LVU251
 1253 0084 AB78     		ldrb	r3, [r5, #2]	@ zero_extendqisi2
 1254 0086 C3F30113 		ubfx	r3, r3, #4, #2
 1255              	.LVL128:
 1256              	.LBB16:
 1257              	.LBI16:
 290:../../shields/Murata-dualstack/inc/d7ap.h ****   switch(id_type)
 1258              		.loc 2 290 23 is_stmt 1 view .LVU252
 1259              	.LBB17:
 291:../../shields/Murata-dualstack/inc/d7ap.h ****   {
 1260              		.loc 2 291 3 view .LVU253
 1261 008a 032B     		cmp	r3, #3
 1262 008c 19D8     		bhi	.L96
 1263 008e DFE803F0 		tbb	[pc, r3]
 1264              	.L98:
 1265 0092 21       		.byte	(.L118-.L98)/2
 1266 0093 1F       		.byte	(.L100-.L98)/2
 1267 0094 14       		.byte	(.L99-.L98)/2
 1268 0095 16       		.byte	(.L97-.L98)/2
 1269              	.LVL129:
 1270              		.p2align 1
 1271              	.L127:
 291:../../shields/Murata-dualstack/inc/d7ap.h ****   {
 1272              		.loc 2 291 3 is_stmt 0 view .LVU254
 1273              	.LBE17:
 1274              	.LBE16:
 124:../../shields/Murata-dualstack/src/alp.c ****     assert(fifo_put_byte(fifo, ((d7ap_session_config_t*)config)->dormant_timeout) == oss7SUCCESS);
 1275              		.loc 1 124 5 discriminator 1 view .LVU255
 1276 0096 834B     		ldr	r3, .L142+20
 1277 0098 7E4A     		ldr	r2, .L142+4
 1278 009a 7C21     		movs	r1, #124
 1279 009c 7E48     		ldr	r0, .L142+8
 1280 009e FFF7FEFF 		bl	__assert_func
 1281              	.LVL130:
 1282              	.L128:
 125:../../shields/Murata-dualstack/src/alp.c ****     assert(fifo_put_byte(fifo, ((d7ap_session_config_t*)config)->addressee.ctrl.raw) == oss7SUCCESS
 1283              		.loc 1 125 5 discriminator 1 view .LVU256
 1284 00a2 814B     		ldr	r3, .L142+24
 1285 00a4 7B4A     		ldr	r2, .L142+4
 1286 00a6 7D21     		movs	r1, #125
ARM GAS  C:\Users\yvesk\AppData\Local\Temp\cchyx8pA.s 			page 37


 1287 00a8 7B48     		ldr	r0, .L142+8
 1288 00aa FFF7FEFF 		bl	__assert_func
 1289              	.LVL131:
 1290              	.L129:
 126:../../shields/Murata-dualstack/src/alp.c ****     uint8_t id_length = d7ap_addressee_id_length(((d7ap_session_config_t*)config)->addressee.ctrl.i
 1291              		.loc 1 126 5 discriminator 1 view .LVU257
 1292 00ae 7F4B     		ldr	r3, .L142+28
 1293 00b0 784A     		ldr	r2, .L142+4
 1294 00b2 7E21     		movs	r1, #126
 1295 00b4 7848     		ldr	r0, .L142+8
 1296 00b6 FFF7FEFF 		bl	__assert_func
 1297              	.LVL132:
 1298              	.L99:
 1299              	.LBB19:
 1300              	.LBB18:
 298:../../shields/Murata-dualstack/inc/d7ap.h ****       case ID_TYPE_VID:
 1301              		.loc 2 298 9 is_stmt 1 view .LVU258
 298:../../shields/Murata-dualstack/inc/d7ap.h ****       case ID_TYPE_VID:
 1302              		.loc 2 298 16 is_stmt 0 view .LVU259
 1303 00ba 0826     		movs	r6, #8
 1304 00bc 0BE0     		b	.L101
 1305              	.L97:
 300:../../shields/Murata-dualstack/inc/d7ap.h ****       default:
 1306              		.loc 2 300 9 is_stmt 1 view .LVU260
 300:../../shields/Murata-dualstack/inc/d7ap.h ****       default:
 1307              		.loc 2 300 16 is_stmt 0 view .LVU261
 1308 00be 0226     		movs	r6, #2
 1309 00c0 09E0     		b	.L101
 1310              	.L96:
 1311              		.loc 2 302 9 is_stmt 1 view .LVU262
 1312 00c2 7B4B     		ldr	r3, .L142+32
 1313 00c4 7B4A     		ldr	r2, .L142+36
 1314 00c6 4FF49771 		mov	r1, #302
 1315 00ca 7B48     		ldr	r0, .L142+40
 1316 00cc FFF7FEFF 		bl	__assert_func
 1317              	.LVL133:
 1318              	.L100:
 294:../../shields/Murata-dualstack/inc/d7ap.h ****       case ID_TYPE_NBID:
 1319              		.loc 2 294 16 is_stmt 0 view .LVU263
 1320 00d0 0026     		movs	r6, #0
 1321 00d2 00E0     		b	.L101
 1322              	.L118:
 296:../../shields/Murata-dualstack/inc/d7ap.h ****       case ID_TYPE_UID:
 1323              		.loc 2 296 16 view .LVU264
 1324 00d4 0126     		movs	r6, #1
 1325              	.L101:
 1326              	.LVL134:
 296:../../shields/Murata-dualstack/inc/d7ap.h ****       case ID_TYPE_UID:
 1327              		.loc 2 296 16 view .LVU265
 1328              	.LBE18:
 1329              	.LBE19:
 128:../../shields/Murata-dualstack/src/alp.c ****     assert(fifo_put(fifo, ((d7ap_session_config_t*)config)->addressee.id, id_length) == oss7SUCCESS
 1330              		.loc 1 128 5 is_stmt 1 view .LVU266
 1331 00d6 E978     		ldrb	r1, [r5, #3]	@ zero_extendqisi2
 1332 00d8 2046     		mov	r0, r4
 1333 00da FFF7FEFF 		bl	fifo_put_byte
 1334              	.LVL135:
ARM GAS  C:\Users\yvesk\AppData\Local\Temp\cchyx8pA.s 			page 38


 1335 00de 60B9     		cbnz	r0, .L130
 129:../../shields/Murata-dualstack/src/alp.c ****   }
 1336              		.loc 1 129 5 view .LVU267
 1337 00e0 3246     		mov	r2, r6
 1338 00e2 291D     		adds	r1, r5, #4
 1339 00e4 2046     		mov	r0, r4
 1340 00e6 FFF7FEFF 		bl	fifo_put
 1341              	.LVL136:
 1342 00ea 0028     		cmp	r0, #0
 1343 00ec A7D0     		beq	.L88
 129:../../shields/Murata-dualstack/src/alp.c ****   }
 1344              		.loc 1 129 5 is_stmt 0 discriminator 1 view .LVU268
 1345 00ee 734B     		ldr	r3, .L142+44
 1346 00f0 684A     		ldr	r2, .L142+4
 1347 00f2 8121     		movs	r1, #129
 1348 00f4 6848     		ldr	r0, .L142+8
 1349 00f6 FFF7FEFF 		bl	__assert_func
 1350              	.LVL137:
 1351              	.L130:
 128:../../shields/Murata-dualstack/src/alp.c ****     assert(fifo_put(fifo, ((d7ap_session_config_t*)config)->addressee.id, id_length) == oss7SUCCESS
 1352              		.loc 1 128 5 discriminator 1 view .LVU269
 1353 00fa 714B     		ldr	r3, .L142+48
 1354 00fc 654A     		ldr	r2, .L142+4
 1355 00fe 8021     		movs	r1, #128
 1356 0100 6548     		ldr	r0, .L142+8
 1357 0102 FFF7FEFF 		bl	__assert_func
 1358              	.LVL138:
 1359              	.L124:
 128:../../shields/Murata-dualstack/src/alp.c ****     assert(fifo_put(fifo, ((d7ap_session_config_t*)config)->addressee.id, id_length) == oss7SUCCESS
 1360              		.loc 1 128 5 discriminator 1 view .LVU270
 1361              	.LBE15:
 1362              	.LBB20:
 133:../../shields/Murata-dualstack/src/alp.c ****     control_byte += ((lorawan_session_config_abp_t*)config)->adr_enabled << 2;
 1363              		.loc 1 133 5 is_stmt 1 view .LVU271
 133:../../shields/Murata-dualstack/src/alp.c ****     control_byte += ((lorawan_session_config_abp_t*)config)->adr_enabled << 2;
 1364              		.loc 1 133 67 is_stmt 0 view .LVU272
 1365 0106 95F82810 		ldrb	r1, [r5, #40]	@ zero_extendqisi2
 133:../../shields/Murata-dualstack/src/alp.c ****     control_byte += ((lorawan_session_config_abp_t*)config)->adr_enabled << 2;
 1366              		.loc 1 133 13 view .LVU273
 1367 010a 4900     		lsls	r1, r1, #1
 1368 010c CBB2     		uxtb	r3, r1
 1369              	.LVL139:
 134:../../shields/Murata-dualstack/src/alp.c ****     assert(fifo_put_byte(fifo, control_byte) == oss7SUCCESS);
 1370              		.loc 1 134 5 is_stmt 1 view .LVU274
 134:../../shields/Murata-dualstack/src/alp.c ****     assert(fifo_put_byte(fifo, control_byte) == oss7SUCCESS);
 1371              		.loc 1 134 60 is_stmt 0 view .LVU275
 1372 010e 95F82A10 		ldrb	r1, [r5, #42]	@ zero_extendqisi2
 134:../../shields/Murata-dualstack/src/alp.c ****     assert(fifo_put_byte(fifo, control_byte) == oss7SUCCESS);
 1373              		.loc 1 134 74 view .LVU276
 1374 0112 8900     		lsls	r1, r1, #2
 1375 0114 C9B2     		uxtb	r1, r1
 134:../../shields/Murata-dualstack/src/alp.c ****     assert(fifo_put_byte(fifo, control_byte) == oss7SUCCESS);
 1376              		.loc 1 134 18 view .LVU277
 1377 0116 1944     		add	r1, r1, r3
 1378              	.LVL140:
 135:../../shields/Murata-dualstack/src/alp.c ****     assert(fifo_put_byte(fifo, ((lorawan_session_config_abp_t*)config)->application_port) == oss7SU
 1379              		.loc 1 135 5 is_stmt 1 view .LVU278
ARM GAS  C:\Users\yvesk\AppData\Local\Temp\cchyx8pA.s 			page 39


 1380 0118 01F0FE01 		and	r1, r1, #254
 1381              	.LVL141:
 135:../../shields/Murata-dualstack/src/alp.c ****     assert(fifo_put_byte(fifo, ((lorawan_session_config_abp_t*)config)->application_port) == oss7SU
 1382              		.loc 1 135 5 is_stmt 0 view .LVU279
 1383 011c 2046     		mov	r0, r4
 1384 011e FFF7FEFF 		bl	fifo_put_byte
 1385              	.LVL142:
 135:../../shields/Murata-dualstack/src/alp.c ****     assert(fifo_put_byte(fifo, ((lorawan_session_config_abp_t*)config)->application_port) == oss7SU
 1386              		.loc 1 135 5 view .LVU280
 1387 0122 0028     		cmp	r0, #0
 1388 0124 37D1     		bne	.L131
 136:../../shields/Murata-dualstack/src/alp.c ****     assert(fifo_put_byte(fifo, ((lorawan_session_config_abp_t*)config)->data_rate) == oss7SUCCESS);
 1389              		.loc 1 136 5 is_stmt 1 view .LVU281
 1390 0126 95F82910 		ldrb	r1, [r5, #41]	@ zero_extendqisi2
 1391 012a 2046     		mov	r0, r4
 1392 012c FFF7FEFF 		bl	fifo_put_byte
 1393              	.LVL143:
 1394 0130 0028     		cmp	r0, #0
 1395 0132 36D1     		bne	.L132
 137:../../shields/Murata-dualstack/src/alp.c ****     assert(fifo_put(fifo, ((lorawan_session_config_abp_t*)config)->nwkSKey, 16) == oss7SUCCESS);
 1396              		.loc 1 137 5 view .LVU282
 1397 0134 95F82B10 		ldrb	r1, [r5, #43]	@ zero_extendqisi2
 1398 0138 2046     		mov	r0, r4
 1399 013a FFF7FEFF 		bl	fifo_put_byte
 1400              	.LVL144:
 1401 013e 0028     		cmp	r0, #0
 1402 0140 35D1     		bne	.L133
 138:../../shields/Murata-dualstack/src/alp.c ****     assert(fifo_put(fifo, ((lorawan_session_config_abp_t*)config)->appSKey, 16) == oss7SUCCESS);
 1403              		.loc 1 138 5 view .LVU283
 1404 0142 1022     		movs	r2, #16
 1405 0144 2946     		mov	r1, r5
 1406 0146 2046     		mov	r0, r4
 1407 0148 FFF7FEFF 		bl	fifo_put
 1408              	.LVL145:
 1409 014c 0028     		cmp	r0, #0
 1410 014e 34D1     		bne	.L134
 139:../../shields/Murata-dualstack/src/alp.c ****     uint32_t dev_addr = __builtin_bswap32(((lorawan_session_config_abp_t*)config)->devAddr);
 1411              		.loc 1 139 5 view .LVU284
 1412 0150 1022     		movs	r2, #16
 1413 0152 A918     		adds	r1, r5, r2
 1414 0154 2046     		mov	r0, r4
 1415 0156 FFF7FEFF 		bl	fifo_put
 1416              	.LVL146:
 1417 015a 0028     		cmp	r0, #0
 1418 015c 33D1     		bne	.L135
 140:../../shields/Murata-dualstack/src/alp.c ****     assert(fifo_put(fifo, (uint8_t*)&dev_addr, 4) == oss7SUCCESS);
 1419              		.loc 1 140 5 view .LVU285
 140:../../shields/Murata-dualstack/src/alp.c ****     assert(fifo_put(fifo, (uint8_t*)&dev_addr, 4) == oss7SUCCESS);
 1420              		.loc 1 140 25 is_stmt 0 view .LVU286
 1421 015e 2B6A     		ldr	r3, [r5, #32]
 1422 0160 1BBA     		rev	r3, r3
 140:../../shields/Murata-dualstack/src/alp.c ****     assert(fifo_put(fifo, (uint8_t*)&dev_addr, 4) == oss7SUCCESS);
 1423              		.loc 1 140 14 view .LVU287
 1424 0162 0093     		str	r3, [sp]
 141:../../shields/Murata-dualstack/src/alp.c ****     uint32_t network_id = __builtin_bswap32(((lorawan_session_config_abp_t*)config)->network_id);
 1425              		.loc 1 141 5 is_stmt 1 view .LVU288
 1426 0164 0422     		movs	r2, #4
ARM GAS  C:\Users\yvesk\AppData\Local\Temp\cchyx8pA.s 			page 40


 1427 0166 6946     		mov	r1, sp
 1428 0168 2046     		mov	r0, r4
 1429 016a FFF7FEFF 		bl	fifo_put
 1430              	.LVL147:
 1431 016e 0028     		cmp	r0, #0
 1432 0170 2FD1     		bne	.L136
 142:../../shields/Murata-dualstack/src/alp.c **** 
 1433              		.loc 1 142 5 view .LVU289
 142:../../shields/Murata-dualstack/src/alp.c **** 
 1434              		.loc 1 142 27 is_stmt 0 view .LVU290
 1435 0172 6B6A     		ldr	r3, [r5, #36]
 1436 0174 1BBA     		rev	r3, r3
 142:../../shields/Murata-dualstack/src/alp.c **** 
 1437              		.loc 1 142 14 view .LVU291
 1438 0176 0193     		str	r3, [sp, #4]
 144:../../shields/Murata-dualstack/src/alp.c ****   }
 1439              		.loc 1 144 5 is_stmt 1 view .LVU292
 1440 0178 0422     		movs	r2, #4
 1441 017a 0DEB0201 		add	r1, sp, r2
 1442 017e 2046     		mov	r0, r4
 1443 0180 FFF7FEFF 		bl	fifo_put
 1444              	.LVL148:
 1445 0184 0028     		cmp	r0, #0
 1446 0186 3FF45AAF 		beq	.L88
 144:../../shields/Murata-dualstack/src/alp.c ****   }
 1447              		.loc 1 144 5 is_stmt 0 discriminator 1 view .LVU293
 1448 018a 4E4B     		ldr	r3, .L142+52
 1449 018c 414A     		ldr	r2, .L142+4
 1450 018e 9021     		movs	r1, #144
 1451 0190 4148     		ldr	r0, .L142+8
 1452 0192 FFF7FEFF 		bl	__assert_func
 1453              	.LVL149:
 1454              	.L131:
 135:../../shields/Murata-dualstack/src/alp.c ****     assert(fifo_put_byte(fifo, ((lorawan_session_config_abp_t*)config)->application_port) == oss7SU
 1455              		.loc 1 135 5 discriminator 1 view .LVU294
 1456 0196 4C4B     		ldr	r3, .L142+56
 1457 0198 3E4A     		ldr	r2, .L142+4
 1458 019a 8721     		movs	r1, #135
 1459 019c 3E48     		ldr	r0, .L142+8
 1460 019e FFF7FEFF 		bl	__assert_func
 1461              	.LVL150:
 1462              	.L132:
 136:../../shields/Murata-dualstack/src/alp.c ****     assert(fifo_put_byte(fifo, ((lorawan_session_config_abp_t*)config)->data_rate) == oss7SUCCESS);
 1463              		.loc 1 136 5 discriminator 1 view .LVU295
 1464 01a2 4A4B     		ldr	r3, .L142+60
 1465 01a4 3B4A     		ldr	r2, .L142+4
 1466 01a6 8821     		movs	r1, #136
 1467 01a8 3B48     		ldr	r0, .L142+8
 1468 01aa FFF7FEFF 		bl	__assert_func
 1469              	.LVL151:
 1470              	.L133:
 137:../../shields/Murata-dualstack/src/alp.c ****     assert(fifo_put(fifo, ((lorawan_session_config_abp_t*)config)->nwkSKey, 16) == oss7SUCCESS);
 1471              		.loc 1 137 5 discriminator 1 view .LVU296
 1472 01ae 484B     		ldr	r3, .L142+64
 1473 01b0 384A     		ldr	r2, .L142+4
 1474 01b2 8921     		movs	r1, #137
 1475 01b4 3848     		ldr	r0, .L142+8
ARM GAS  C:\Users\yvesk\AppData\Local\Temp\cchyx8pA.s 			page 41


 1476 01b6 FFF7FEFF 		bl	__assert_func
 1477              	.LVL152:
 1478              	.L134:
 138:../../shields/Murata-dualstack/src/alp.c ****     assert(fifo_put(fifo, ((lorawan_session_config_abp_t*)config)->appSKey, 16) == oss7SUCCESS);
 1479              		.loc 1 138 5 discriminator 1 view .LVU297
 1480 01ba 464B     		ldr	r3, .L142+68
 1481 01bc 354A     		ldr	r2, .L142+4
 1482 01be 8A21     		movs	r1, #138
 1483 01c0 3548     		ldr	r0, .L142+8
 1484 01c2 FFF7FEFF 		bl	__assert_func
 1485              	.LVL153:
 1486              	.L135:
 139:../../shields/Murata-dualstack/src/alp.c ****     uint32_t dev_addr = __builtin_bswap32(((lorawan_session_config_abp_t*)config)->devAddr);
 1487              		.loc 1 139 5 discriminator 1 view .LVU298
 1488 01c6 444B     		ldr	r3, .L142+72
 1489 01c8 324A     		ldr	r2, .L142+4
 1490 01ca 8B21     		movs	r1, #139
 1491 01cc 3248     		ldr	r0, .L142+8
 1492 01ce FFF7FEFF 		bl	__assert_func
 1493              	.LVL154:
 1494              	.L136:
 141:../../shields/Murata-dualstack/src/alp.c ****     uint32_t network_id = __builtin_bswap32(((lorawan_session_config_abp_t*)config)->network_id);
 1495              		.loc 1 141 5 discriminator 1 view .LVU299
 1496 01d2 424B     		ldr	r3, .L142+76
 1497 01d4 2F4A     		ldr	r2, .L142+4
 1498 01d6 8D21     		movs	r1, #141
 1499 01d8 2F48     		ldr	r0, .L142+8
 1500 01da FFF7FEFF 		bl	__assert_func
 1501              	.LVL155:
 1502              	.L125:
 141:../../shields/Murata-dualstack/src/alp.c ****     uint32_t network_id = __builtin_bswap32(((lorawan_session_config_abp_t*)config)->network_id);
 1503              		.loc 1 141 5 discriminator 1 view .LVU300
 1504              	.LBE20:
 1505              	.LBB21:
 148:../../shields/Murata-dualstack/src/alp.c ****     control_byte += ((lorawan_session_config_otaa_t*)config)->adr_enabled << 2;
 1506              		.loc 1 148 5 is_stmt 1 view .LVU301
 148:../../shields/Murata-dualstack/src/alp.c ****     control_byte += ((lorawan_session_config_otaa_t*)config)->adr_enabled << 2;
 1507              		.loc 1 148 68 is_stmt 0 view .LVU302
 1508 01de 95F82010 		ldrb	r1, [r5, #32]	@ zero_extendqisi2
 148:../../shields/Murata-dualstack/src/alp.c ****     control_byte += ((lorawan_session_config_otaa_t*)config)->adr_enabled << 2;
 1509              		.loc 1 148 13 view .LVU303
 1510 01e2 4900     		lsls	r1, r1, #1
 1511 01e4 CBB2     		uxtb	r3, r1
 1512              	.LVL156:
 149:../../shields/Murata-dualstack/src/alp.c ****     assert(fifo_put_byte(fifo, control_byte) == oss7SUCCESS);
 1513              		.loc 1 149 5 is_stmt 1 view .LVU304
 149:../../shields/Murata-dualstack/src/alp.c ****     assert(fifo_put_byte(fifo, control_byte) == oss7SUCCESS);
 1514              		.loc 1 149 61 is_stmt 0 view .LVU305
 1515 01e6 95F82210 		ldrb	r1, [r5, #34]	@ zero_extendqisi2
 149:../../shields/Murata-dualstack/src/alp.c ****     assert(fifo_put_byte(fifo, control_byte) == oss7SUCCESS);
 1516              		.loc 1 149 75 view .LVU306
 1517 01ea 8900     		lsls	r1, r1, #2
 1518 01ec C9B2     		uxtb	r1, r1
 149:../../shields/Murata-dualstack/src/alp.c ****     assert(fifo_put_byte(fifo, control_byte) == oss7SUCCESS);
 1519              		.loc 1 149 18 view .LVU307
 1520 01ee 1944     		add	r1, r1, r3
 1521              	.LVL157:
ARM GAS  C:\Users\yvesk\AppData\Local\Temp\cchyx8pA.s 			page 42


 150:../../shields/Murata-dualstack/src/alp.c ****     assert(fifo_put_byte(fifo, ((lorawan_session_config_otaa_t*)config)->application_port) == oss7S
 1522              		.loc 1 150 5 is_stmt 1 view .LVU308
 1523 01f0 01F0FE01 		and	r1, r1, #254
 1524              	.LVL158:
 150:../../shields/Murata-dualstack/src/alp.c ****     assert(fifo_put_byte(fifo, ((lorawan_session_config_otaa_t*)config)->application_port) == oss7S
 1525              		.loc 1 150 5 is_stmt 0 view .LVU309
 1526 01f4 2046     		mov	r0, r4
 1527 01f6 FFF7FEFF 		bl	fifo_put_byte
 1528              	.LVL159:
 150:../../shields/Murata-dualstack/src/alp.c ****     assert(fifo_put_byte(fifo, ((lorawan_session_config_otaa_t*)config)->application_port) == oss7S
 1529              		.loc 1 150 5 view .LVU310
 1530 01fa 28BB     		cbnz	r0, .L137
 151:../../shields/Murata-dualstack/src/alp.c ****     assert(fifo_put_byte(fifo, ((lorawan_session_config_otaa_t*)config)->data_rate) == oss7SUCCESS)
 1531              		.loc 1 151 5 is_stmt 1 view .LVU311
 1532 01fc 95F82110 		ldrb	r1, [r5, #33]	@ zero_extendqisi2
 1533 0200 2046     		mov	r0, r4
 1534 0202 FFF7FEFF 		bl	fifo_put_byte
 1535              	.LVL160:
 1536 0206 28BB     		cbnz	r0, .L138
 152:../../shields/Murata-dualstack/src/alp.c ****     assert(fifo_put(fifo, ((lorawan_session_config_otaa_t*)config)->devEUI, 8) == oss7SUCCESS);
 1537              		.loc 1 152 5 view .LVU312
 1538 0208 95F82310 		ldrb	r1, [r5, #35]	@ zero_extendqisi2
 1539 020c 2046     		mov	r0, r4
 1540 020e FFF7FEFF 		bl	fifo_put_byte
 1541              	.LVL161:
 1542 0212 28BB     		cbnz	r0, .L139
 153:../../shields/Murata-dualstack/src/alp.c ****     assert(fifo_put(fifo, ((lorawan_session_config_otaa_t*)config)->appEUI, 8) == oss7SUCCESS);
 1543              		.loc 1 153 5 view .LVU313
 1544 0214 0822     		movs	r2, #8
 1545 0216 2946     		mov	r1, r5
 1546 0218 2046     		mov	r0, r4
 1547 021a FFF7FEFF 		bl	fifo_put
 1548              	.LVL162:
 1549 021e 28BB     		cbnz	r0, .L140
 154:../../shields/Murata-dualstack/src/alp.c ****     assert(fifo_put(fifo, ((lorawan_session_config_otaa_t*)config)->appKey, 16) == oss7SUCCESS);
 1550              		.loc 1 154 5 view .LVU314
 1551 0220 0822     		movs	r2, #8
 1552 0222 A918     		adds	r1, r5, r2
 1553 0224 2046     		mov	r0, r4
 1554 0226 FFF7FEFF 		bl	fifo_put
 1555              	.LVL163:
 1556 022a 28BB     		cbnz	r0, .L141
 155:../../shields/Murata-dualstack/src/alp.c ****   }
 1557              		.loc 1 155 5 view .LVU315
 1558 022c 1022     		movs	r2, #16
 1559 022e A918     		adds	r1, r5, r2
 1560 0230 2046     		mov	r0, r4
 1561 0232 FFF7FEFF 		bl	fifo_put
 1562              	.LVL164:
 1563 0236 0028     		cmp	r0, #0
 1564 0238 3FF401AF 		beq	.L88
 155:../../shields/Murata-dualstack/src/alp.c ****   }
 1565              		.loc 1 155 5 is_stmt 0 discriminator 1 view .LVU316
 1566 023c 284B     		ldr	r3, .L142+80
 1567 023e 154A     		ldr	r2, .L142+4
 1568 0240 9B21     		movs	r1, #155
 1569 0242 1548     		ldr	r0, .L142+8
ARM GAS  C:\Users\yvesk\AppData\Local\Temp\cchyx8pA.s 			page 43


 1570 0244 FFF7FEFF 		bl	__assert_func
 1571              	.LVL165:
 1572              	.L137:
 150:../../shields/Murata-dualstack/src/alp.c ****     assert(fifo_put_byte(fifo, ((lorawan_session_config_otaa_t*)config)->application_port) == oss7S
 1573              		.loc 1 150 5 discriminator 1 view .LVU317
 1574 0248 1F4B     		ldr	r3, .L142+56
 1575 024a 124A     		ldr	r2, .L142+4
 1576 024c 9621     		movs	r1, #150
 1577 024e 1248     		ldr	r0, .L142+8
 1578 0250 FFF7FEFF 		bl	__assert_func
 1579              	.LVL166:
 1580              	.L138:
 151:../../shields/Murata-dualstack/src/alp.c ****     assert(fifo_put_byte(fifo, ((lorawan_session_config_otaa_t*)config)->data_rate) == oss7SUCCESS)
 1581              		.loc 1 151 5 discriminator 1 view .LVU318
 1582 0254 234B     		ldr	r3, .L142+84
 1583 0256 0F4A     		ldr	r2, .L142+4
 1584 0258 9721     		movs	r1, #151
 1585 025a 0F48     		ldr	r0, .L142+8
 1586 025c FFF7FEFF 		bl	__assert_func
 1587              	.LVL167:
 1588              	.L139:
 152:../../shields/Murata-dualstack/src/alp.c ****     assert(fifo_put(fifo, ((lorawan_session_config_otaa_t*)config)->devEUI, 8) == oss7SUCCESS);
 1589              		.loc 1 152 5 discriminator 1 view .LVU319
 1590 0260 214B     		ldr	r3, .L142+88
 1591 0262 0C4A     		ldr	r2, .L142+4
 1592 0264 9821     		movs	r1, #152
 1593 0266 0C48     		ldr	r0, .L142+8
 1594 0268 FFF7FEFF 		bl	__assert_func
 1595              	.LVL168:
 1596              	.L140:
 153:../../shields/Murata-dualstack/src/alp.c ****     assert(fifo_put(fifo, ((lorawan_session_config_otaa_t*)config)->appEUI, 8) == oss7SUCCESS);
 1597              		.loc 1 153 5 discriminator 1 view .LVU320
 1598 026c 1F4B     		ldr	r3, .L142+92
 1599 026e 094A     		ldr	r2, .L142+4
 1600 0270 9921     		movs	r1, #153
 1601 0272 0948     		ldr	r0, .L142+8
 1602 0274 FFF7FEFF 		bl	__assert_func
 1603              	.LVL169:
 1604              	.L141:
 154:../../shields/Murata-dualstack/src/alp.c ****     assert(fifo_put(fifo, ((lorawan_session_config_otaa_t*)config)->appKey, 16) == oss7SUCCESS);
 1605              		.loc 1 154 5 discriminator 1 view .LVU321
 1606 0278 1D4B     		ldr	r3, .L142+96
 1607 027a 064A     		ldr	r2, .L142+4
 1608 027c 9A21     		movs	r1, #154
 1609 027e 0648     		ldr	r0, .L142+8
 1610 0280 FFF7FEFF 		bl	__assert_func
 1611              	.LVL170:
 1612              	.L126:
 154:../../shields/Murata-dualstack/src/alp.c ****     assert(fifo_put(fifo, ((lorawan_session_config_otaa_t*)config)->appKey, 16) == oss7SUCCESS);
 1613              		.loc 1 154 5 discriminator 1 view .LVU322
 1614              	.LBE21:
 159:../../shields/Murata-dualstack/src/alp.c ****   }
 1615              		.loc 1 159 5 discriminator 1 view .LVU323
 1616 0284 1B4B     		ldr	r3, .L142+100
 1617 0286 034A     		ldr	r2, .L142+4
 1618 0288 9F21     		movs	r1, #159
 1619 028a 0348     		ldr	r0, .L142+8
ARM GAS  C:\Users\yvesk\AppData\Local\Temp\cchyx8pA.s 			page 44


 1620 028c FFF7FEFF 		bl	__assert_func
 1621              	.LVL171:
 1622              	.L143:
 1623              		.align	2
 1624              	.L142:
 1625 0290 00000000 		.word	.LC15
 1626 0294 00000000 		.word	.LANCHOR9
 1627 0298 40000000 		.word	.LC1
 1628 029c 10000000 		.word	.LC16
 1629 02a0 44000000 		.word	.LC17
 1630 02a4 70000000 		.word	.LC18
 1631 02a8 C0000000 		.word	.LC19
 1632 02ac 18010000 		.word	.LC20
 1633 02b0 38000000 		.word	.LC4
 1634 02b4 00000000 		.word	.LANCHOR2
 1635 02b8 40000000 		.word	.LC5
 1636 02bc D4010000 		.word	.LC22
 1637 02c0 74010000 		.word	.LC21
 1638 02c4 FC030000 		.word	.LC29
 1639 02c8 30020000 		.word	.LC23
 1640 02cc 64020000 		.word	.LC24
 1641 02d0 C4020000 		.word	.LC25
 1642 02d4 1C030000 		.word	.LC26
 1643 02d8 70030000 		.word	.LC27
 1644 02dc C4030000 		.word	.LC28
 1645 02e0 94050000 		.word	.LC34
 1646 02e4 34040000 		.word	.LC30
 1647 02e8 94040000 		.word	.LC31
 1648 02ec EC040000 		.word	.LC32
 1649 02f0 40050000 		.word	.LC33
 1650 02f4 E8050000 		.word	.LC35
 1651              		.cfi_endproc
 1652              	.LFE8:
 1654              		.section	.text.alp_append_return_file_data_action,"ax",%progbits
 1655              		.align	1
 1656              		.global	alp_append_return_file_data_action
 1657              		.syntax unified
 1658              		.thumb
 1659              		.thumb_func
 1660              		.fpu fpv4-sp-d16
 1662              	alp_append_return_file_data_action:
 1663              	.LVL172:
 1664              	.LFB9:
 165:../../shields/Murata-dualstack/src/alp.c ****   assert(fifo_put_byte(fifo, ALP_OP_RETURN_FILE_DATA) == oss7SUCCESS);
 1665              		.loc 1 165 121 is_stmt 1 view -0
 1666              		.cfi_startproc
 1667              		@ args = 4, pretend = 0, frame = 0
 1668              		@ frame_needed = 0, uses_anonymous_args = 0
 165:../../shields/Murata-dualstack/src/alp.c ****   assert(fifo_put_byte(fifo, ALP_OP_RETURN_FILE_DATA) == oss7SUCCESS);
 1669              		.loc 1 165 121 is_stmt 0 view .LVU325
 1670 0000 F8B5     		push	{r3, r4, r5, r6, r7, lr}
 1671              	.LCFI33:
 1672              		.cfi_def_cfa_offset 24
 1673              		.cfi_offset 3, -24
 1674              		.cfi_offset 4, -20
 1675              		.cfi_offset 5, -16
 1676              		.cfi_offset 6, -12
ARM GAS  C:\Users\yvesk\AppData\Local\Temp\cchyx8pA.s 			page 45


 1677              		.cfi_offset 7, -8
 1678              		.cfi_offset 14, -4
 1679 0002 0446     		mov	r4, r0
 1680 0004 0F46     		mov	r7, r1
 1681 0006 1646     		mov	r6, r2
 1682 0008 1D46     		mov	r5, r3
 166:../../shields/Murata-dualstack/src/alp.c ****   assert(fifo_put_byte(fifo, file_id) == oss7SUCCESS);
 1683              		.loc 1 166 3 is_stmt 1 view .LVU326
 1684 000a 2021     		movs	r1, #32
 1685              	.LVL173:
 166:../../shields/Murata-dualstack/src/alp.c ****   assert(fifo_put_byte(fifo, file_id) == oss7SUCCESS);
 1686              		.loc 1 166 3 is_stmt 0 view .LVU327
 1687 000c FFF7FEFF 		bl	fifo_put_byte
 1688              	.LVL174:
 166:../../shields/Murata-dualstack/src/alp.c ****   assert(fifo_put_byte(fifo, file_id) == oss7SUCCESS);
 1689              		.loc 1 166 3 view .LVU328
 1690 0010 98B9     		cbnz	r0, .L149
 167:../../shields/Murata-dualstack/src/alp.c ****   alp_append_length_operand(fifo, offset);
 1691              		.loc 1 167 3 is_stmt 1 view .LVU329
 1692 0012 3946     		mov	r1, r7
 1693 0014 2046     		mov	r0, r4
 1694 0016 FFF7FEFF 		bl	fifo_put_byte
 1695              	.LVL175:
 1696 001a A0B9     		cbnz	r0, .L150
 168:../../shields/Murata-dualstack/src/alp.c ****   alp_append_length_operand(fifo, length);
 1697              		.loc 1 168 3 view .LVU330
 1698 001c 3146     		mov	r1, r6
 1699 001e 2046     		mov	r0, r4
 1700 0020 FFF7FEFF 		bl	alp_append_length_operand
 1701              	.LVL176:
 169:../../shields/Murata-dualstack/src/alp.c ****   assert(fifo_put(fifo, data, length) == oss7SUCCESS);
 1702              		.loc 1 169 3 view .LVU331
 1703 0024 2946     		mov	r1, r5
 1704 0026 2046     		mov	r0, r4
 1705 0028 FFF7FEFF 		bl	alp_append_length_operand
 1706              	.LVL177:
 170:../../shields/Murata-dualstack/src/alp.c **** }
 1707              		.loc 1 170 3 view .LVU332
 1708 002c AAB2     		uxth	r2, r5
 1709 002e 0699     		ldr	r1, [sp, #24]
 1710 0030 2046     		mov	r0, r4
 1711 0032 FFF7FEFF 		bl	fifo_put
 1712              	.LVL178:
 1713 0036 60B9     		cbnz	r0, .L151
 171:../../shields/Murata-dualstack/src/alp.c **** 
 1714              		.loc 1 171 1 is_stmt 0 view .LVU333
 1715 0038 F8BD     		pop	{r3, r4, r5, r6, r7, pc}
 1716              	.LVL179:
 1717              	.L149:
 166:../../shields/Murata-dualstack/src/alp.c ****   assert(fifo_put_byte(fifo, file_id) == oss7SUCCESS);
 1718              		.loc 1 166 3 discriminator 1 view .LVU334
 1719 003a 094B     		ldr	r3, .L152
 1720 003c 094A     		ldr	r2, .L152+4
 1721 003e A621     		movs	r1, #166
 1722 0040 0948     		ldr	r0, .L152+8
 1723 0042 FFF7FEFF 		bl	__assert_func
 1724              	.LVL180:
ARM GAS  C:\Users\yvesk\AppData\Local\Temp\cchyx8pA.s 			page 46


 1725              	.L150:
 167:../../shields/Murata-dualstack/src/alp.c ****   alp_append_length_operand(fifo, offset);
 1726              		.loc 1 167 3 discriminator 1 view .LVU335
 1727 0046 094B     		ldr	r3, .L152+12
 1728 0048 064A     		ldr	r2, .L152+4
 1729 004a A721     		movs	r1, #167
 1730 004c 0648     		ldr	r0, .L152+8
 1731 004e FFF7FEFF 		bl	__assert_func
 1732              	.LVL181:
 1733              	.L151:
 170:../../shields/Murata-dualstack/src/alp.c **** }
 1734              		.loc 1 170 3 discriminator 1 view .LVU336
 1735 0052 074B     		ldr	r3, .L152+16
 1736 0054 034A     		ldr	r2, .L152+4
 1737 0056 AA21     		movs	r1, #170
 1738 0058 0348     		ldr	r0, .L152+8
 1739 005a FFF7FEFF 		bl	__assert_func
 1740              	.LVL182:
 1741              	.L153:
 1742 005e 00BF     		.align	2
 1743              	.L152:
 1744 0060 00000000 		.word	.LC36
 1745 0064 00000000 		.word	.LANCHOR10
 1746 0068 40000000 		.word	.LC1
 1747 006c 00000000 		.word	.LC12
 1748 0070 3C000000 		.word	.LC37
 1749              		.cfi_endproc
 1750              	.LFE9:
 1752              		.section	.text.alp_parse_action,"ax",%progbits
 1753              		.align	1
 1754              		.global	alp_parse_action
 1755              		.syntax unified
 1756              		.thumb
 1757              		.thumb_func
 1758              		.fpu fpv4-sp-d16
 1760              	alp_parse_action:
 1761              	.LVL183:
 1762              	.LFB17:
 269:../../shields/Murata-dualstack/src/alp.c **** 
 270:../../shields/Murata-dualstack/src/alp.c **** void alp_parse_action(fifo_t* fifo, alp_action_t* action) {
 1763              		.loc 1 270 59 is_stmt 1 view -0
 1764              		.cfi_startproc
 1765              		@ args = 0, pretend = 0, frame = 8
 1766              		@ frame_needed = 0, uses_anonymous_args = 0
 1767              		.loc 1 270 59 is_stmt 0 view .LVU338
 1768 0000 30B5     		push	{r4, r5, lr}
 1769              	.LCFI34:
 1770              		.cfi_def_cfa_offset 12
 1771              		.cfi_offset 4, -12
 1772              		.cfi_offset 5, -8
 1773              		.cfi_offset 14, -4
 1774 0002 83B0     		sub	sp, sp, #12
 1775              	.LCFI35:
 1776              		.cfi_def_cfa_offset 24
 1777 0004 0546     		mov	r5, r0
 1778 0006 0C46     		mov	r4, r1
 271:../../shields/Murata-dualstack/src/alp.c ****   uint8_t op;
ARM GAS  C:\Users\yvesk\AppData\Local\Temp\cchyx8pA.s 			page 47


 1779              		.loc 1 271 3 is_stmt 1 view .LVU339
 272:../../shields/Murata-dualstack/src/alp.c ****   assert(fifo_pop(fifo, &op, 1) == oss7SUCCESS);
 1780              		.loc 1 272 3 view .LVU340
 1781 0008 0122     		movs	r2, #1
 1782 000a 0DF10701 		add	r1, sp, #7
 1783              	.LVL184:
 1784              		.loc 1 272 3 is_stmt 0 view .LVU341
 1785 000e FFF7FEFF 		bl	fifo_pop
 1786              	.LVL185:
 1787              		.loc 1 272 3 view .LVU342
 1788 0012 F0B9     		cbnz	r0, .L164
 273:../../shields/Murata-dualstack/src/alp.c ****   bool b6 = (op >> 6) & 1;
 1789              		.loc 1 273 3 is_stmt 1 view .LVU343
 1790              		.loc 1 273 23 is_stmt 0 view .LVU344
 1791 0014 9DF80710 		ldrb	r1, [sp, #7]	@ zero_extendqisi2
 1792              		.loc 1 273 8 view .LVU345
 1793 0018 C1F38012 		ubfx	r2, r1, #6, #1
 1794              	.LVL186:
 274:../../shields/Murata-dualstack/src/alp.c ****   bool b7 = op >> 7;
 1795              		.loc 1 274 3 is_stmt 1 view .LVU346
 1796              		.loc 1 274 8 is_stmt 0 view .LVU347
 1797 001c CB09     		lsrs	r3, r1, #7
 1798              	.LVL187:
 275:../../shields/Murata-dualstack/src/alp.c ****   op &= 0x3F; // op is in b5-b0
 1799              		.loc 1 275 3 is_stmt 1 view .LVU348
 1800              		.loc 1 275 6 is_stmt 0 view .LVU349
 1801 001e 01F03F01 		and	r1, r1, #63
 1802 0022 8DF80710 		strb	r1, [sp, #7]
 276:../../shields/Murata-dualstack/src/alp.c ****   action->operation = op;
 1803              		.loc 1 276 3 is_stmt 1 view .LVU350
 1804              		.loc 1 276 21 is_stmt 0 view .LVU351
 1805 0026 2170     		strb	r1, [r4]
 277:../../shields/Murata-dualstack/src/alp.c ****   switch(op) {
 1806              		.loc 1 277 3 is_stmt 1 view .LVU352
 1807 0028 0439     		subs	r1, r1, #4
 1808 002a 1F29     		cmp	r1, #31
 1809 002c 2DD8     		bhi	.L156
 1810 002e DFE801F0 		tbb	[pc, r1]
 1811              	.L158:
 1812 0032 17       		.byte	(.L161-.L158)/2
 1813 0033 2C       		.byte	(.L156-.L158)/2
 1814 0034 2C       		.byte	(.L156-.L158)/2
 1815 0035 2C       		.byte	(.L156-.L158)/2
 1816 0036 2C       		.byte	(.L156-.L158)/2
 1817 0037 2C       		.byte	(.L156-.L158)/2
 1818 0038 2C       		.byte	(.L156-.L158)/2
 1819 0039 2C       		.byte	(.L156-.L158)/2
 1820 003a 2C       		.byte	(.L156-.L158)/2
 1821 003b 2C       		.byte	(.L156-.L158)/2
 1822 003c 2C       		.byte	(.L156-.L158)/2
 1823 003d 2C       		.byte	(.L156-.L158)/2
 1824 003e 2C       		.byte	(.L156-.L158)/2
 1825 003f 2C       		.byte	(.L156-.L158)/2
 1826 0040 2C       		.byte	(.L156-.L158)/2
 1827 0041 2C       		.byte	(.L156-.L158)/2
 1828 0042 2C       		.byte	(.L156-.L158)/2
 1829 0043 2C       		.byte	(.L156-.L158)/2
ARM GAS  C:\Users\yvesk\AppData\Local\Temp\cchyx8pA.s 			page 48


 1830 0044 2C       		.byte	(.L156-.L158)/2
 1831 0045 2C       		.byte	(.L156-.L158)/2
 1832 0046 2C       		.byte	(.L156-.L158)/2
 1833 0047 2C       		.byte	(.L156-.L158)/2
 1834 0048 2C       		.byte	(.L156-.L158)/2
 1835 0049 2C       		.byte	(.L156-.L158)/2
 1836 004a 2C       		.byte	(.L156-.L158)/2
 1837 004b 2C       		.byte	(.L156-.L158)/2
 1838 004c 2C       		.byte	(.L156-.L158)/2
 1839 004d 2C       		.byte	(.L156-.L158)/2
 1840 004e 1D       		.byte	(.L160-.L158)/2
 1841 004f 2C       		.byte	(.L156-.L158)/2
 1842 0050 27       		.byte	(.L159-.L158)/2
 1843 0051 22       		.byte	(.L157-.L158)/2
 1844              	.LVL188:
 1845              		.p2align 1
 1846              	.L164:
 272:../../shields/Murata-dualstack/src/alp.c ****   bool b6 = (op >> 6) & 1;
 1847              		.loc 1 272 3 is_stmt 0 discriminator 1 view .LVU353
 1848 0052 114B     		ldr	r3, .L165
 1849 0054 114A     		ldr	r2, .L165+4
 1850 0056 4FF48871 		mov	r1, #272
 1851 005a 1148     		ldr	r0, .L165+8
 1852 005c FFF7FEFF 		bl	__assert_func
 1853              	.LVL189:
 1854              	.L161:
 278:../../shields/Murata-dualstack/src/alp.c ****     case ALP_OP_WRITE_FILE_DATA:
 279:../../shields/Murata-dualstack/src/alp.c ****       parse_op_write_file_data(fifo, action);
 1855              		.loc 1 279 7 is_stmt 1 view .LVU354
 1856 0060 2146     		mov	r1, r4
 1857 0062 2846     		mov	r0, r5
 1858 0064 FFF7FEFF 		bl	parse_op_write_file_data
 1859              	.LVL190:
 280:../../shields/Murata-dualstack/src/alp.c ****       break;
 1860              		.loc 1 280 7 view .LVU355
 1861              	.L154:
 281:../../shields/Murata-dualstack/src/alp.c ****     case ALP_OP_RETURN_FILE_DATA:
 282:../../shields/Murata-dualstack/src/alp.c ****       parse_op_return_file_data(fifo, action);
 283:../../shields/Murata-dualstack/src/alp.c ****       break;
 284:../../shields/Murata-dualstack/src/alp.c ****     case ALP_OP_RETURN_TAG:
 285:../../shields/Murata-dualstack/src/alp.c ****       parse_op_return_tag(fifo, action, b6, b7);
 286:../../shields/Murata-dualstack/src/alp.c ****       break;
 287:../../shields/Murata-dualstack/src/alp.c ****     case ALP_OP_RETURN_STATUS:
 288:../../shields/Murata-dualstack/src/alp.c ****       parse_op_return_status(fifo, action, b6, b7);
 289:../../shields/Murata-dualstack/src/alp.c ****       break;
 290:../../shields/Murata-dualstack/src/alp.c ****     default:
 291:../../shields/Murata-dualstack/src/alp.c ****       DPRINT("op %x not implemented", op);
 292:../../shields/Murata-dualstack/src/alp.c ****       assert(false);
 293:../../shields/Murata-dualstack/src/alp.c ****   }
 294:../../shields/Murata-dualstack/src/alp.c **** 
 295:../../shields/Murata-dualstack/src/alp.c ****   DPRINT("parsed action");
 296:../../shields/Murata-dualstack/src/alp.c **** }
 1862              		.loc 1 296 1 is_stmt 0 view .LVU356
 1863 0068 03B0     		add	sp, sp, #12
 1864              	.LCFI36:
 1865              		.cfi_remember_state
 1866              		.cfi_def_cfa_offset 12
ARM GAS  C:\Users\yvesk\AppData\Local\Temp\cchyx8pA.s 			page 49


 1867              		@ sp needed
 1868 006a 30BD     		pop	{r4, r5, pc}
 1869              	.LVL191:
 1870              	.L160:
 1871              	.LCFI37:
 1872              		.cfi_restore_state
 282:../../shields/Murata-dualstack/src/alp.c ****       break;
 1873              		.loc 1 282 7 is_stmt 1 view .LVU357
 1874 006c 2146     		mov	r1, r4
 1875 006e 2846     		mov	r0, r5
 1876 0070 FFF7FEFF 		bl	parse_op_return_file_data
 1877              	.LVL192:
 283:../../shields/Murata-dualstack/src/alp.c ****     case ALP_OP_RETURN_TAG:
 1878              		.loc 1 283 7 view .LVU358
 1879 0074 F8E7     		b	.L154
 1880              	.LVL193:
 1881              	.L157:
 285:../../shields/Murata-dualstack/src/alp.c ****       break;
 1882              		.loc 1 285 7 view .LVU359
 1883 0076 2146     		mov	r1, r4
 1884 0078 2846     		mov	r0, r5
 1885 007a FFF7FEFF 		bl	parse_op_return_tag
 1886              	.LVL194:
 286:../../shields/Murata-dualstack/src/alp.c ****     case ALP_OP_RETURN_STATUS:
 1887              		.loc 1 286 7 view .LVU360
 1888 007e F3E7     		b	.L154
 1889              	.LVL195:
 1890              	.L159:
 288:../../shields/Murata-dualstack/src/alp.c ****       break;
 1891              		.loc 1 288 7 view .LVU361
 1892 0080 2146     		mov	r1, r4
 1893 0082 2846     		mov	r0, r5
 1894 0084 FFF7FEFF 		bl	parse_op_return_status
 1895              	.LVL196:
 289:../../shields/Murata-dualstack/src/alp.c ****     default:
 1896              		.loc 1 289 7 view .LVU362
 1897 0088 EEE7     		b	.L154
 1898              	.LVL197:
 1899              	.L156:
 291:../../shields/Murata-dualstack/src/alp.c ****       assert(false);
 1900              		.loc 1 291 42 view .LVU363
 292:../../shields/Murata-dualstack/src/alp.c ****   }
 1901              		.loc 1 292 7 view .LVU364
 1902 008a 064B     		ldr	r3, .L165+12
 1903              	.LVL198:
 292:../../shields/Murata-dualstack/src/alp.c ****   }
 1904              		.loc 1 292 7 is_stmt 0 view .LVU365
 1905 008c 034A     		ldr	r2, .L165+4
 1906              	.LVL199:
 292:../../shields/Murata-dualstack/src/alp.c ****   }
 1907              		.loc 1 292 7 view .LVU366
 1908 008e 4FF49271 		mov	r1, #292
 1909 0092 0348     		ldr	r0, .L165+8
 1910 0094 FFF7FEFF 		bl	__assert_func
 1911              	.LVL200:
 1912              	.L166:
 1913              		.align	2
ARM GAS  C:\Users\yvesk\AppData\Local\Temp\cchyx8pA.s 			page 50


 1914              	.L165:
 1915 0098 00000000 		.word	.LC38
 1916 009c 00000000 		.word	.LANCHOR11
 1917 00a0 40000000 		.word	.LC1
 1918 00a4 38000000 		.word	.LC4
 1919              		.cfi_endproc
 1920              	.LFE17:
 1922              		.section	.text.alp_append_tag_request_action,"ax",%progbits
 1923              		.align	1
 1924              		.global	alp_append_tag_request_action
 1925              		.syntax unified
 1926              		.thumb
 1927              		.thumb_func
 1928              		.fpu fpv4-sp-d16
 1930              	alp_append_tag_request_action:
 1931              	.LVL201:
 1932              	.LFB19:
 297:../../shields/Murata-dualstack/src/alp.c **** 
 298:../../shields/Murata-dualstack/src/alp.c **** uint8_t alp_get_expected_response_length(uint8_t* alp_command, uint8_t alp_command_length) {
 299:../../shields/Murata-dualstack/src/alp.c ****   uint8_t expected_response_length = 0;
 300:../../shields/Murata-dualstack/src/alp.c ****   fifo_t fifo;
 301:../../shields/Murata-dualstack/src/alp.c ****   fifo_init_filled(&fifo, alp_command, alp_command_length, alp_command_length + 1);
 302:../../shields/Murata-dualstack/src/alp.c **** 
 303:../../shields/Murata-dualstack/src/alp.c ****   while(fifo_get_size(&fifo) > 0) {
 304:../../shields/Murata-dualstack/src/alp.c ****     alp_control_t control;
 305:../../shields/Murata-dualstack/src/alp.c ****     fifo_pop(&fifo, (uint8_t*)&control.raw, 1);
 306:../../shields/Murata-dualstack/src/alp.c ****     switch(control.operation) {
 307:../../shields/Murata-dualstack/src/alp.c ****       case ALP_OP_READ_FILE_DATA:
 308:../../shields/Murata-dualstack/src/alp.c ****         fifo_skip(&fifo, 1); // skip file ID
 309:../../shields/Murata-dualstack/src/alp.c ****         uint32_t offset = alp_parse_length_operand(&fifo); // offset
 310:../../shields/Murata-dualstack/src/alp.c ****         expected_response_length += alp_parse_length_operand(&fifo); // the file length
 311:../../shields/Murata-dualstack/src/alp.c ****         expected_response_length += alp_length_operand_coded_length(expected_response_length); // t
 312:../../shields/Murata-dualstack/src/alp.c ****         expected_response_length += alp_length_operand_coded_length(offset) + 1; // the length of t
 313:../../shields/Murata-dualstack/src/alp.c ****         expected_response_length += 1; // the opcode
 314:../../shields/Murata-dualstack/src/alp.c ****         break;
 315:../../shields/Murata-dualstack/src/alp.c ****       case ALP_OP_REQUEST_TAG:
 316:../../shields/Murata-dualstack/src/alp.c ****         fifo_skip(&fifo, 1); // skip tag ID operand
 317:../../shields/Murata-dualstack/src/alp.c ****         break;
 318:../../shields/Murata-dualstack/src/alp.c ****       case ALP_OP_RETURN_FILE_DATA:
 319:../../shields/Murata-dualstack/src/alp.c ****       case ALP_OP_WRITE_FILE_DATA:
 320:../../shields/Murata-dualstack/src/alp.c ****         fifo_skip(&fifo, 1); // skip file ID
 321:../../shields/Murata-dualstack/src/alp.c ****         alp_parse_length_operand(&fifo); // offset
 322:../../shields/Murata-dualstack/src/alp.c ****         fifo_skip(&fifo, alp_parse_length_operand(&fifo));
 323:../../shields/Murata-dualstack/src/alp.c ****         break;
 324:../../shields/Murata-dualstack/src/alp.c ****       case ALP_OP_FORWARD: ;
 325:../../shields/Murata-dualstack/src/alp.c ****         uint8_t itf_id;
 326:../../shields/Murata-dualstack/src/alp.c ****         fifo_pop(&fifo, &itf_id, 1);
 327:../../shields/Murata-dualstack/src/alp.c ****         if(itf_id == ALP_ITF_ID_D7ASP) {
 328:../../shields/Murata-dualstack/src/alp.c ****           fifo_skip(&fifo, 1); // skip QoS, dormant timeout
 329:../../shields/Murata-dualstack/src/alp.c ****           d7ap_addressee_ctrl_t addressee_ctrl;
 330:../../shields/Murata-dualstack/src/alp.c ****           fifo_pop(&fifo, (uint8_t*)&addressee_ctrl.raw, 1);
 331:../../shields/Murata-dualstack/src/alp.c ****           fifo_skip(&fifo, 2 + d7ap_addressee_id_length(addressee_ctrl.id_type)); // skip addressee
 332:../../shields/Murata-dualstack/src/alp.c ****           // TODO refactor to reuse same logic for parsing and response length counting
 333:../../shields/Murata-dualstack/src/alp.c ****         }
 334:../../shields/Murata-dualstack/src/alp.c ****         // other ITFs have no configuration
 335:../../shields/Murata-dualstack/src/alp.c ****         break;
 336:../../shields/Murata-dualstack/src/alp.c ****       case ALP_OP_WRITE_FILE_PROPERTIES:
ARM GAS  C:\Users\yvesk\AppData\Local\Temp\cchyx8pA.s 			page 51


 337:../../shields/Murata-dualstack/src/alp.c ****         fifo_skip(&fifo, 1 + sizeof(d7ap_fs_file_header_t)); // skip file ID & header
 338:../../shields/Murata-dualstack/src/alp.c ****         break;
 339:../../shields/Murata-dualstack/src/alp.c ****       // TODO other operations
 340:../../shields/Murata-dualstack/src/alp.c ****       default:
 341:../../shields/Murata-dualstack/src/alp.c ****         DPRINT("op %i not implemented", control.operation);
 342:../../shields/Murata-dualstack/src/alp.c ****         assert(false);
 343:../../shields/Murata-dualstack/src/alp.c ****     }
 344:../../shields/Murata-dualstack/src/alp.c ****   }
 345:../../shields/Murata-dualstack/src/alp.c **** 
 346:../../shields/Murata-dualstack/src/alp.c ****   DPRINT("Expected ALP response length=%i", expected_response_length);
 347:../../shields/Murata-dualstack/src/alp.c ****   return expected_response_length;
 348:../../shields/Murata-dualstack/src/alp.c **** }
 349:../../shields/Murata-dualstack/src/alp.c **** 
 350:../../shields/Murata-dualstack/src/alp.c **** void alp_append_tag_request_action(fifo_t* fifo, uint8_t tag_id, bool eop) {
 1933              		.loc 1 350 76 is_stmt 1 view -0
 1934              		.cfi_startproc
 1935              		@ args = 0, pretend = 0, frame = 0
 1936              		@ frame_needed = 0, uses_anonymous_args = 0
 1937              		.loc 1 350 76 is_stmt 0 view .LVU368
 1938 0000 38B5     		push	{r3, r4, r5, lr}
 1939              	.LCFI38:
 1940              		.cfi_def_cfa_offset 16
 1941              		.cfi_offset 3, -16
 1942              		.cfi_offset 4, -12
 1943              		.cfi_offset 5, -8
 1944              		.cfi_offset 14, -4
 1945 0002 0446     		mov	r4, r0
 1946 0004 0D46     		mov	r5, r1
 351:../../shields/Murata-dualstack/src/alp.c ****   DPRINT("append tag %i", tag_id);
 1947              		.loc 1 351 34 is_stmt 1 view .LVU369
 352:../../shields/Murata-dualstack/src/alp.c ****   uint8_t op = ALP_OP_REQUEST_TAG | (eop << 7);
 1948              		.loc 1 352 3 view .LVU370
 1949              		.loc 1 352 42 is_stmt 0 view .LVU371
 1950 0006 D201     		lsls	r2, r2, #7
 1951              	.LVL202:
 1952              		.loc 1 352 35 view .LVU372
 1953 0008 42F03401 		orr	r1, r2, #52
 1954              	.LVL203:
 353:../../shields/Murata-dualstack/src/alp.c ****   assert(fifo_put_byte(fifo, op) == oss7SUCCESS);
 1955              		.loc 1 353 3 is_stmt 1 view .LVU373
 1956 000c 01F0B401 		and	r1, r1, #180
 1957              	.LVL204:
 1958              		.loc 1 353 3 is_stmt 0 view .LVU374
 1959 0010 FFF7FEFF 		bl	fifo_put_byte
 1960              	.LVL205:
 1961              		.loc 1 353 3 view .LVU375
 1962 0014 28B9     		cbnz	r0, .L171
 354:../../shields/Murata-dualstack/src/alp.c ****   assert(fifo_put_byte(fifo, tag_id) == oss7SUCCESS);
 1963              		.loc 1 354 3 is_stmt 1 view .LVU376
 1964 0016 2946     		mov	r1, r5
 1965 0018 2046     		mov	r0, r4
 1966 001a FFF7FEFF 		bl	fifo_put_byte
 1967              	.LVL206:
 1968 001e 38B9     		cbnz	r0, .L172
 355:../../shields/Murata-dualstack/src/alp.c **** }
 1969              		.loc 1 355 1 is_stmt 0 view .LVU377
 1970 0020 38BD     		pop	{r3, r4, r5, pc}
ARM GAS  C:\Users\yvesk\AppData\Local\Temp\cchyx8pA.s 			page 52


 1971              	.LVL207:
 1972              	.L171:
 353:../../shields/Murata-dualstack/src/alp.c ****   assert(fifo_put_byte(fifo, op) == oss7SUCCESS);
 1973              		.loc 1 353 3 discriminator 1 view .LVU378
 1974 0022 074B     		ldr	r3, .L173
 1975 0024 074A     		ldr	r2, .L173+4
 1976 0026 40F26111 		movw	r1, #353
 1977 002a 0748     		ldr	r0, .L173+8
 1978 002c FFF7FEFF 		bl	__assert_func
 1979              	.LVL208:
 1980              	.L172:
 354:../../shields/Murata-dualstack/src/alp.c ****   assert(fifo_put_byte(fifo, tag_id) == oss7SUCCESS);
 1981              		.loc 1 354 3 discriminator 1 view .LVU379
 1982 0030 064B     		ldr	r3, .L173+12
 1983 0032 044A     		ldr	r2, .L173+4
 1984 0034 4FF4B171 		mov	r1, #354
 1985 0038 0348     		ldr	r0, .L173+8
 1986 003a FFF7FEFF 		bl	__assert_func
 1987              	.LVL209:
 1988              	.L174:
 1989 003e 00BF     		.align	2
 1990              	.L173:
 1991 0040 00000000 		.word	.LC39
 1992 0044 00000000 		.word	.LANCHOR12
 1993 0048 40000000 		.word	.LC1
 1994 004c 28000000 		.word	.LC40
 1995              		.cfi_endproc
 1996              	.LFE19:
 1998              		.section	.text.alp_append_read_file_data_action,"ax",%progbits
 1999              		.align	1
 2000              		.global	alp_append_read_file_data_action
 2001              		.syntax unified
 2002              		.thumb
 2003              		.thumb_func
 2004              		.fpu fpv4-sp-d16
 2006              	alp_append_read_file_data_action:
 2007              	.LVL210:
 2008              	.LFB20:
 356:../../shields/Murata-dualstack/src/alp.c **** 
 357:../../shields/Murata-dualstack/src/alp.c **** void alp_append_read_file_data_action(fifo_t* fifo, uint8_t file_id, uint32_t offset, uint32_t leng
 2009              		.loc 1 357 127 is_stmt 1 view -0
 2010              		.cfi_startproc
 2011              		@ args = 8, pretend = 0, frame = 0
 2012              		@ frame_needed = 0, uses_anonymous_args = 0
 2013              		.loc 1 357 127 is_stmt 0 view .LVU381
 2014 0000 F8B5     		push	{r3, r4, r5, r6, r7, lr}
 2015              	.LCFI39:
 2016              		.cfi_def_cfa_offset 24
 2017              		.cfi_offset 3, -24
 2018              		.cfi_offset 4, -20
 2019              		.cfi_offset 5, -16
 2020              		.cfi_offset 6, -12
 2021              		.cfi_offset 7, -8
 2022              		.cfi_offset 14, -4
 2023 0002 0446     		mov	r4, r0
 2024 0004 0E46     		mov	r6, r1
 2025 0006 1746     		mov	r7, r2
ARM GAS  C:\Users\yvesk\AppData\Local\Temp\cchyx8pA.s 			page 53


 2026 0008 1D46     		mov	r5, r3
 358:../../shields/Murata-dualstack/src/alp.c ****   uint8_t op = ALP_OP_READ_FILE_DATA | (resp << 6) | (group << 7);
 2027              		.loc 1 358 3 is_stmt 1 view .LVU382
 2028              		.loc 1 358 46 is_stmt 0 view .LVU383
 2029 000a 9DF81810 		ldrb	r1, [sp, #24]	@ zero_extendqisi2
 2030              	.LVL211:
 2031              		.loc 1 358 46 view .LVU384
 2032 000e 8901     		lsls	r1, r1, #6
 2033              		.loc 1 358 38 view .LVU385
 2034 0010 41F00101 		orr	r1, r1, #1
 2035 0014 49B2     		sxtb	r1, r1
 2036              		.loc 1 358 52 view .LVU386
 2037 0016 9DF81C30 		ldrb	r3, [sp, #28]	@ zero_extendqisi2
 2038              	.LVL212:
 2039              		.loc 1 358 52 view .LVU387
 2040 001a 41EAC311 		orr	r1, r1, r3, lsl #7
 2041              	.LVL213:
 359:../../shields/Murata-dualstack/src/alp.c ****   assert(fifo_put_byte(fifo, op) == oss7SUCCESS);
 2042              		.loc 1 359 3 is_stmt 1 view .LVU388
 2043 001e 01F0C101 		and	r1, r1, #193
 2044              	.LVL214:
 2045              		.loc 1 359 3 is_stmt 0 view .LVU389
 2046 0022 FFF7FEFF 		bl	fifo_put_byte
 2047              	.LVL215:
 2048              		.loc 1 359 3 view .LVU390
 2049 0026 48B9     		cbnz	r0, .L178
 360:../../shields/Murata-dualstack/src/alp.c ****   alp_append_file_offset_operand(fifo, file_id, offset);
 2050              		.loc 1 360 3 is_stmt 1 view .LVU391
 2051 0028 3A46     		mov	r2, r7
 2052 002a 3146     		mov	r1, r6
 2053 002c 2046     		mov	r0, r4
 2054 002e FFF7FEFF 		bl	alp_append_file_offset_operand
 2055              	.LVL216:
 361:../../shields/Murata-dualstack/src/alp.c ****   alp_append_length_operand(fifo, length);
 2056              		.loc 1 361 3 view .LVU392
 2057 0032 2946     		mov	r1, r5
 2058 0034 2046     		mov	r0, r4
 2059 0036 FFF7FEFF 		bl	alp_append_length_operand
 2060              	.LVL217:
 362:../../shields/Murata-dualstack/src/alp.c **** }
 2061              		.loc 1 362 1 is_stmt 0 view .LVU393
 2062 003a F8BD     		pop	{r3, r4, r5, r6, r7, pc}
 2063              	.LVL218:
 2064              	.L178:
 359:../../shields/Murata-dualstack/src/alp.c ****   alp_append_file_offset_operand(fifo, file_id, offset);
 2065              		.loc 1 359 3 discriminator 1 view .LVU394
 2066 003c 034B     		ldr	r3, .L179
 2067 003e 044A     		ldr	r2, .L179+4
 2068 0040 40F26711 		movw	r1, #359
 2069 0044 0348     		ldr	r0, .L179+8
 2070 0046 FFF7FEFF 		bl	__assert_func
 2071              	.LVL219:
 2072              	.L180:
 2073 004a 00BF     		.align	2
 2074              	.L179:
 2075 004c 00000000 		.word	.LC39
 2076 0050 00000000 		.word	.LANCHOR13
ARM GAS  C:\Users\yvesk\AppData\Local\Temp\cchyx8pA.s 			page 54


 2077 0054 40000000 		.word	.LC1
 2078              		.cfi_endproc
 2079              	.LFE20:
 2081              		.section	.text.alp_append_write_file_data_action,"ax",%progbits
 2082              		.align	1
 2083              		.global	alp_append_write_file_data_action
 2084              		.syntax unified
 2085              		.thumb
 2086              		.thumb_func
 2087              		.fpu fpv4-sp-d16
 2089              	alp_append_write_file_data_action:
 2090              	.LVL220:
 2091              	.LFB21:
 363:../../shields/Murata-dualstack/src/alp.c **** 
 364:../../shields/Murata-dualstack/src/alp.c **** void alp_append_write_file_data_action(fifo_t* fifo, uint8_t file_id, uint32_t offset, uint32_t len
 2092              		.loc 1 364 143 is_stmt 1 view -0
 2093              		.cfi_startproc
 2094              		@ args = 12, pretend = 0, frame = 0
 2095              		@ frame_needed = 0, uses_anonymous_args = 0
 2096              		.loc 1 364 143 is_stmt 0 view .LVU396
 2097 0000 F8B5     		push	{r3, r4, r5, r6, r7, lr}
 2098              	.LCFI40:
 2099              		.cfi_def_cfa_offset 24
 2100              		.cfi_offset 3, -24
 2101              		.cfi_offset 4, -20
 2102              		.cfi_offset 5, -16
 2103              		.cfi_offset 6, -12
 2104              		.cfi_offset 7, -8
 2105              		.cfi_offset 14, -4
 2106 0002 0446     		mov	r4, r0
 2107 0004 0E46     		mov	r6, r1
 2108 0006 1746     		mov	r7, r2
 2109 0008 1D46     		mov	r5, r3
 365:../../shields/Murata-dualstack/src/alp.c ****   uint8_t op = ALP_OP_WRITE_FILE_DATA | (resp << 6) | (group << 7);
 2110              		.loc 1 365 3 is_stmt 1 view .LVU397
 2111              		.loc 1 365 47 is_stmt 0 view .LVU398
 2112 000a 9DF81C10 		ldrb	r1, [sp, #28]	@ zero_extendqisi2
 2113              	.LVL221:
 2114              		.loc 1 365 47 view .LVU399
 2115 000e 8901     		lsls	r1, r1, #6
 2116              		.loc 1 365 39 view .LVU400
 2117 0010 41F00401 		orr	r1, r1, #4
 2118 0014 49B2     		sxtb	r1, r1
 2119              		.loc 1 365 53 view .LVU401
 2120 0016 9DF82030 		ldrb	r3, [sp, #32]	@ zero_extendqisi2
 2121              	.LVL222:
 2122              		.loc 1 365 53 view .LVU402
 2123 001a 41EAC311 		orr	r1, r1, r3, lsl #7
 2124              	.LVL223:
 366:../../shields/Murata-dualstack/src/alp.c ****   assert(fifo_put_byte(fifo, op) == oss7SUCCESS);
 2125              		.loc 1 366 3 is_stmt 1 view .LVU403
 2126 001e 01F0C401 		and	r1, r1, #196
 2127              	.LVL224:
 2128              		.loc 1 366 3 is_stmt 0 view .LVU404
 2129 0022 FFF7FEFF 		bl	fifo_put_byte
 2130              	.LVL225:
 2131              		.loc 1 366 3 view .LVU405
ARM GAS  C:\Users\yvesk\AppData\Local\Temp\cchyx8pA.s 			page 55


 2132 0026 78B9     		cbnz	r0, .L185
 367:../../shields/Murata-dualstack/src/alp.c ****   alp_append_file_offset_operand(fifo, file_id, offset);
 2133              		.loc 1 367 3 is_stmt 1 view .LVU406
 2134 0028 3A46     		mov	r2, r7
 2135 002a 3146     		mov	r1, r6
 2136 002c 2046     		mov	r0, r4
 2137 002e FFF7FEFF 		bl	alp_append_file_offset_operand
 2138              	.LVL226:
 368:../../shields/Murata-dualstack/src/alp.c ****   alp_append_length_operand(fifo, length);
 2139              		.loc 1 368 3 view .LVU407
 2140 0032 2946     		mov	r1, r5
 2141 0034 2046     		mov	r0, r4
 2142 0036 FFF7FEFF 		bl	alp_append_length_operand
 2143              	.LVL227:
 369:../../shields/Murata-dualstack/src/alp.c ****   assert(fifo_put(fifo, data, length) == oss7SUCCESS);
 2144              		.loc 1 369 3 view .LVU408
 2145 003a AAB2     		uxth	r2, r5
 2146 003c 0699     		ldr	r1, [sp, #24]
 2147 003e 2046     		mov	r0, r4
 2148 0040 FFF7FEFF 		bl	fifo_put
 2149              	.LVL228:
 2150 0044 38B9     		cbnz	r0, .L186
 370:../../shields/Murata-dualstack/src/alp.c **** }
 2151              		.loc 1 370 1 is_stmt 0 view .LVU409
 2152 0046 F8BD     		pop	{r3, r4, r5, r6, r7, pc}
 2153              	.LVL229:
 2154              	.L185:
 366:../../shields/Murata-dualstack/src/alp.c ****   alp_append_file_offset_operand(fifo, file_id, offset);
 2155              		.loc 1 366 3 discriminator 1 view .LVU410
 2156 0048 064B     		ldr	r3, .L187
 2157 004a 074A     		ldr	r2, .L187+4
 2158 004c 4FF4B771 		mov	r1, #366
 2159 0050 0648     		ldr	r0, .L187+8
 2160 0052 FFF7FEFF 		bl	__assert_func
 2161              	.LVL230:
 2162              	.L186:
 369:../../shields/Murata-dualstack/src/alp.c ****   assert(fifo_put(fifo, data, length) == oss7SUCCESS);
 2163              		.loc 1 369 3 discriminator 1 view .LVU411
 2164 0056 064B     		ldr	r3, .L187+12
 2165 0058 034A     		ldr	r2, .L187+4
 2166 005a 40F27111 		movw	r1, #369
 2167 005e 0348     		ldr	r0, .L187+8
 2168 0060 FFF7FEFF 		bl	__assert_func
 2169              	.LVL231:
 2170              	.L188:
 2171              		.align	2
 2172              	.L187:
 2173 0064 00000000 		.word	.LC39
 2174 0068 00000000 		.word	.LANCHOR14
 2175 006c 40000000 		.word	.LC1
 2176 0070 3C000000 		.word	.LC37
 2177              		.cfi_endproc
 2178              	.LFE21:
 2180              		.section	.text.alp_append_create_new_file_data_action,"ax",%progbits
 2181              		.align	1
 2182              		.global	alp_append_create_new_file_data_action
 2183              		.syntax unified
ARM GAS  C:\Users\yvesk\AppData\Local\Temp\cchyx8pA.s 			page 56


 2184              		.thumb
 2185              		.thumb_func
 2186              		.fpu fpv4-sp-d16
 2188              	alp_append_create_new_file_data_action:
 2189              	.LVL232:
 2190              	.LFB22:
 371:../../shields/Murata-dualstack/src/alp.c **** 
 372:../../shields/Murata-dualstack/src/alp.c **** void alp_append_create_new_file_data_action(fifo_t* fifo, uint8_t file_id, uint32_t length, fs_stor
 2191              		.loc 1 372 150 is_stmt 1 view -0
 2192              		.cfi_startproc
 2193              		@ args = 8, pretend = 0, frame = 16
 2194              		@ frame_needed = 0, uses_anonymous_args = 0
 2195              		.loc 1 372 150 is_stmt 0 view .LVU413
 2196 0000 F0B5     		push	{r4, r5, r6, r7, lr}
 2197              	.LCFI41:
 2198              		.cfi_def_cfa_offset 20
 2199              		.cfi_offset 4, -20
 2200              		.cfi_offset 5, -16
 2201              		.cfi_offset 6, -12
 2202              		.cfi_offset 7, -8
 2203              		.cfi_offset 14, -4
 2204 0002 85B0     		sub	sp, sp, #20
 2205              	.LCFI42:
 2206              		.cfi_def_cfa_offset 40
 2207 0004 0546     		mov	r5, r0
 2208 0006 0F46     		mov	r7, r1
 2209 0008 1446     		mov	r4, r2
 2210 000a 1E46     		mov	r6, r3
 373:../../shields/Murata-dualstack/src/alp.c ****   uint8_t op = ALP_OP_CREATE_FILE | (resp << 6) | (group << 7);
 2211              		.loc 1 373 3 is_stmt 1 view .LVU414
 2212              		.loc 1 373 43 is_stmt 0 view .LVU415
 2213 000c 9DF82810 		ldrb	r1, [sp, #40]	@ zero_extendqisi2
 2214              	.LVL233:
 2215              		.loc 1 373 43 view .LVU416
 2216 0010 8901     		lsls	r1, r1, #6
 2217              		.loc 1 373 35 view .LVU417
 2218 0012 41F01101 		orr	r1, r1, #17
 2219 0016 49B2     		sxtb	r1, r1
 2220              		.loc 1 373 49 view .LVU418
 2221 0018 9DF82C30 		ldrb	r3, [sp, #44]	@ zero_extendqisi2
 2222              	.LVL234:
 2223              		.loc 1 373 49 view .LVU419
 2224 001c 41EAC311 		orr	r1, r1, r3, lsl #7
 2225              	.LVL235:
 374:../../shields/Murata-dualstack/src/alp.c ****   assert(fifo_put_byte(fifo, op) == oss7SUCCESS);
 2226              		.loc 1 374 3 is_stmt 1 view .LVU420
 2227 0020 01F0D101 		and	r1, r1, #209
 2228              	.LVL236:
 2229              		.loc 1 374 3 is_stmt 0 view .LVU421
 2230 0024 FFF7FEFF 		bl	fifo_put_byte
 2231              	.LVL237:
 2232              		.loc 1 374 3 view .LVU422
 2233 0028 B0B9     		cbnz	r0, .L193
 375:../../shields/Murata-dualstack/src/alp.c ****   alp_operand_file_header_t header = {
 2234              		.loc 1 375 3 is_stmt 1 view .LVU423
 2235              		.loc 1 375 29 is_stmt 0 view .LVU424
 2236 002a 0023     		movs	r3, #0
ARM GAS  C:\Users\yvesk\AppData\Local\Temp\cchyx8pA.s 			page 57


 2237 002c 0093     		str	r3, [sp]
 2238 002e 8DF80430 		strb	r3, [sp, #4]
 2239 0032 8DF80070 		strb	r7, [sp]
 2240 0036 66F30103 		bfi	r3, r6, #0, #2
 2241 003a 8DF80230 		strb	r3, [sp, #2]
 376:../../shields/Murata-dualstack/src/alp.c ****     .file_id = file_id,
 377:../../shields/Murata-dualstack/src/alp.c ****     .file_header = {
 378:../../shields/Murata-dualstack/src/alp.c ****       .file_permissions = 0,
 379:../../shields/Murata-dualstack/src/alp.c ****       .file_properties.action_protocol_enabled = 0,
 380:../../shields/Murata-dualstack/src/alp.c ****       .file_properties.storage_class = storage_class,
 381:../../shields/Murata-dualstack/src/alp.c ****       .length = __builtin_bswap32(length),
 2242              		.loc 1 381 17 view .LVU425
 2243 003e 24BA     		rev	r4, r4
 2244              	.LVL238:
 375:../../shields/Murata-dualstack/src/alp.c ****   alp_operand_file_header_t header = {
 2245              		.loc 1 375 29 view .LVU426
 2246 0040 CDF80540 		str	r4, [sp, #5]	@ unaligned
 2247 0044 CDF80940 		str	r4, [sp, #9]	@ unaligned
 382:../../shields/Murata-dualstack/src/alp.c ****       .allocated_length = __builtin_bswap32(length)
 383:../../shields/Murata-dualstack/src/alp.c ****     }
 384:../../shields/Murata-dualstack/src/alp.c ****   };
 385:../../shields/Murata-dualstack/src/alp.c ****   assert(fifo_put(fifo, (uint8_t*)&header, sizeof(alp_operand_file_header_t)) == oss7SUCCESS);
 2248              		.loc 1 385 3 is_stmt 1 view .LVU427
 2249 0048 0D22     		movs	r2, #13
 2250 004a 6946     		mov	r1, sp
 2251 004c 2846     		mov	r0, r5
 2252 004e FFF7FEFF 		bl	fifo_put
 2253              	.LVL239:
 2254 0052 40B9     		cbnz	r0, .L194
 386:../../shields/Murata-dualstack/src/alp.c **** }
 2255              		.loc 1 386 1 is_stmt 0 view .LVU428
 2256 0054 05B0     		add	sp, sp, #20
 2257              	.LCFI43:
 2258              		.cfi_remember_state
 2259              		.cfi_def_cfa_offset 20
 2260              		@ sp needed
 2261 0056 F0BD     		pop	{r4, r5, r6, r7, pc}
 2262              	.LVL240:
 2263              	.L193:
 2264              	.LCFI44:
 2265              		.cfi_restore_state
 374:../../shields/Murata-dualstack/src/alp.c ****   alp_operand_file_header_t header = {
 2266              		.loc 1 374 3 discriminator 1 view .LVU429
 2267 0058 064B     		ldr	r3, .L195
 2268 005a 074A     		ldr	r2, .L195+4
 2269 005c 4FF4BB71 		mov	r1, #374
 2270 0060 0648     		ldr	r0, .L195+8
 2271 0062 FFF7FEFF 		bl	__assert_func
 2272              	.LVL241:
 2273              	.L194:
 385:../../shields/Murata-dualstack/src/alp.c **** }
 2274              		.loc 1 385 3 discriminator 1 view .LVU430
 2275 0066 064B     		ldr	r3, .L195+12
 2276 0068 034A     		ldr	r2, .L195+4
 2277 006a 40F28111 		movw	r1, #385
 2278 006e 0348     		ldr	r0, .L195+8
 2279 0070 FFF7FEFF 		bl	__assert_func
ARM GAS  C:\Users\yvesk\AppData\Local\Temp\cchyx8pA.s 			page 58


 2280              	.LVL242:
 2281              	.L196:
 2282              		.align	2
 2283              	.L195:
 2284 0074 00000000 		.word	.LC39
 2285 0078 00000000 		.word	.LANCHOR15
 2286 007c 40000000 		.word	.LC1
 2287 0080 00000000 		.word	.LC41
 2288              		.cfi_endproc
 2289              	.LFE22:
 2291              		.section	.text.alp_length_operand_coded_length,"ax",%progbits
 2292              		.align	1
 2293              		.global	alp_length_operand_coded_length
 2294              		.syntax unified
 2295              		.thumb
 2296              		.thumb_func
 2297              		.fpu fpv4-sp-d16
 2299              	alp_length_operand_coded_length:
 2300              	.LVL243:
 2301              	.LFB23:
 387:../../shields/Murata-dualstack/src/alp.c **** 
 388:../../shields/Murata-dualstack/src/alp.c **** uint8_t alp_length_operand_coded_length(uint32_t length) {
 2302              		.loc 1 388 58 is_stmt 1 view -0
 2303              		.cfi_startproc
 2304              		@ args = 0, pretend = 0, frame = 0
 2305              		@ frame_needed = 0, uses_anonymous_args = 0
 2306              		@ link register save eliminated.
 2307              		.loc 1 388 58 is_stmt 0 view .LVU432
 2308 0000 0346     		mov	r3, r0
 389:../../shields/Murata-dualstack/src/alp.c ****   uint8_t coded_len = 1;
 2309              		.loc 1 389 3 is_stmt 1 view .LVU433
 2310              	.LVL244:
 390:../../shields/Murata-dualstack/src/alp.c ****   if(length > 0x3F)
 2311              		.loc 1 390 3 view .LVU434
 2312              		.loc 1 390 5 is_stmt 0 view .LVU435
 2313 0002 3F28     		cmp	r0, #63
 2314 0004 08D8     		bhi	.L201
 389:../../shields/Murata-dualstack/src/alp.c ****   uint8_t coded_len = 1;
 2315              		.loc 1 389 11 view .LVU436
 2316 0006 0120     		movs	r0, #1
 2317              	.LVL245:
 2318              	.L198:
 391:../../shields/Murata-dualstack/src/alp.c ****     coded_len = 2;
 392:../../shields/Murata-dualstack/src/alp.c **** 
 393:../../shields/Murata-dualstack/src/alp.c ****   if(length > 0x3FFF)
 2319              		.loc 1 393 3 is_stmt 1 view .LVU437
 2320              		.loc 1 393 5 is_stmt 0 view .LVU438
 2321 0008 B3F5804F 		cmp	r3, #16384
 2322 000c 00D3     		bcc	.L199
 394:../../shields/Murata-dualstack/src/alp.c ****     coded_len = 3;
 2323              		.loc 1 394 15 view .LVU439
 2324 000e 0320     		movs	r0, #3
 2325              	.LVL246:
 2326              	.L199:
 395:../../shields/Murata-dualstack/src/alp.c **** 
 396:../../shields/Murata-dualstack/src/alp.c ****   if(length > 0x3FFFFF)
 2327              		.loc 1 396 3 is_stmt 1 view .LVU440
ARM GAS  C:\Users\yvesk\AppData\Local\Temp\cchyx8pA.s 			page 59


 2328              		.loc 1 396 5 is_stmt 0 view .LVU441
 2329 0010 B3F5800F 		cmp	r3, #4194304
 2330 0014 02D2     		bcs	.L204
 2331              	.LVL247:
 2332              	.L200:
 397:../../shields/Murata-dualstack/src/alp.c ****     coded_len = 4;
 398:../../shields/Murata-dualstack/src/alp.c **** 
 399:../../shields/Murata-dualstack/src/alp.c ****   return coded_len;
 2333              		.loc 1 399 3 is_stmt 1 view .LVU442
 400:../../shields/Murata-dualstack/src/alp.c **** }
 2334              		.loc 1 400 1 is_stmt 0 view .LVU443
 2335 0016 7047     		bx	lr
 2336              	.LVL248:
 2337              	.L201:
 391:../../shields/Murata-dualstack/src/alp.c **** 
 2338              		.loc 1 391 15 view .LVU444
 2339 0018 0220     		movs	r0, #2
 2340              	.LVL249:
 391:../../shields/Murata-dualstack/src/alp.c **** 
 2341              		.loc 1 391 15 view .LVU445
 2342 001a F5E7     		b	.L198
 2343              	.LVL250:
 2344              	.L204:
 397:../../shields/Murata-dualstack/src/alp.c ****     coded_len = 4;
 2345              		.loc 1 397 15 view .LVU446
 2346 001c 0420     		movs	r0, #4
 2347              	.LVL251:
 397:../../shields/Murata-dualstack/src/alp.c ****     coded_len = 4;
 2348              		.loc 1 397 15 view .LVU447
 2349 001e FAE7     		b	.L200
 2350              		.cfi_endproc
 2351              	.LFE23:
 2353              		.section	.text.alp_get_expected_response_length,"ax",%progbits
 2354              		.align	1
 2355              		.global	alp_get_expected_response_length
 2356              		.syntax unified
 2357              		.thumb
 2358              		.thumb_func
 2359              		.fpu fpv4-sp-d16
 2361              	alp_get_expected_response_length:
 2362              	.LVL252:
 2363              	.LFB18:
 298:../../shields/Murata-dualstack/src/alp.c ****   uint8_t expected_response_length = 0;
 2364              		.loc 1 298 92 is_stmt 1 view -0
 2365              		.cfi_startproc
 2366              		@ args = 0, pretend = 0, frame = 24
 2367              		@ frame_needed = 0, uses_anonymous_args = 0
 298:../../shields/Murata-dualstack/src/alp.c ****   uint8_t expected_response_length = 0;
 2368              		.loc 1 298 92 is_stmt 0 view .LVU449
 2369 0000 30B5     		push	{r4, r5, lr}
 2370              	.LCFI45:
 2371              		.cfi_def_cfa_offset 12
 2372              		.cfi_offset 4, -12
 2373              		.cfi_offset 5, -8
 2374              		.cfi_offset 14, -4
 2375 0002 87B0     		sub	sp, sp, #28
 2376              	.LCFI46:
ARM GAS  C:\Users\yvesk\AppData\Local\Temp\cchyx8pA.s 			page 60


 2377              		.cfi_def_cfa_offset 40
 299:../../shields/Murata-dualstack/src/alp.c ****   fifo_t fifo;
 2378              		.loc 1 299 3 is_stmt 1 view .LVU450
 2379              	.LVL253:
 300:../../shields/Murata-dualstack/src/alp.c ****   fifo_init_filled(&fifo, alp_command, alp_command_length, alp_command_length + 1);
 2380              		.loc 1 300 3 view .LVU451
 301:../../shields/Murata-dualstack/src/alp.c **** 
 2381              		.loc 1 301 3 view .LVU452
 2382 0004 0A46     		mov	r2, r1
 2383 0006 4B1C     		adds	r3, r1, #1
 2384 0008 0146     		mov	r1, r0
 2385              	.LVL254:
 301:../../shields/Murata-dualstack/src/alp.c **** 
 2386              		.loc 1 301 3 is_stmt 0 view .LVU453
 2387 000a 02A8     		add	r0, sp, #8
 2388              	.LVL255:
 301:../../shields/Murata-dualstack/src/alp.c **** 
 2389              		.loc 1 301 3 view .LVU454
 2390 000c FFF7FEFF 		bl	fifo_init_filled
 2391              	.LVL256:
 303:../../shields/Murata-dualstack/src/alp.c ****     alp_control_t control;
 2392              		.loc 1 303 3 is_stmt 1 view .LVU455
 299:../../shields/Murata-dualstack/src/alp.c ****   fifo_t fifo;
 2393              		.loc 1 299 11 is_stmt 0 view .LVU456
 2394 0010 0024     		movs	r4, #0
 303:../../shields/Murata-dualstack/src/alp.c ****     alp_control_t control;
 2395              		.loc 1 303 8 view .LVU457
 2396 0012 19E0     		b	.L206
 2397              	.LVL257:
 2398              	.L213:
 2399              	.LBB27:
 2400              	.LBB28:
 308:../../shields/Murata-dualstack/src/alp.c ****         uint32_t offset = alp_parse_length_operand(&fifo); // offset
 2401              		.loc 1 308 9 is_stmt 1 view .LVU458
 2402 0014 0121     		movs	r1, #1
 2403 0016 02A8     		add	r0, sp, #8
 2404 0018 FFF7FEFF 		bl	fifo_skip
 2405              	.LVL258:
 309:../../shields/Murata-dualstack/src/alp.c ****         expected_response_length += alp_parse_length_operand(&fifo); // the file length
 2406              		.loc 1 309 9 view .LVU459
 309:../../shields/Murata-dualstack/src/alp.c ****         expected_response_length += alp_parse_length_operand(&fifo); // the file length
 2407              		.loc 1 309 27 is_stmt 0 view .LVU460
 2408 001c 02A8     		add	r0, sp, #8
 2409 001e FFF7FEFF 		bl	alp_parse_length_operand
 2410              	.LVL259:
 2411 0022 0546     		mov	r5, r0
 2412              	.LVL260:
 310:../../shields/Murata-dualstack/src/alp.c ****         expected_response_length += alp_length_operand_coded_length(expected_response_length); // t
 2413              		.loc 1 310 9 is_stmt 1 view .LVU461
 310:../../shields/Murata-dualstack/src/alp.c ****         expected_response_length += alp_length_operand_coded_length(expected_response_length); // t
 2414              		.loc 1 310 37 is_stmt 0 view .LVU462
 2415 0024 02A8     		add	r0, sp, #8
 2416              	.LVL261:
 310:../../shields/Murata-dualstack/src/alp.c ****         expected_response_length += alp_length_operand_coded_length(expected_response_length); // t
 2417              		.loc 1 310 37 view .LVU463
 2418 0026 FFF7FEFF 		bl	alp_parse_length_operand
 2419              	.LVL262:
ARM GAS  C:\Users\yvesk\AppData\Local\Temp\cchyx8pA.s 			page 61


 310:../../shields/Murata-dualstack/src/alp.c ****         expected_response_length += alp_length_operand_coded_length(expected_response_length); // t
 2420              		.loc 1 310 34 view .LVU464
 2421 002a 0444     		add	r4, r4, r0
 2422              	.LVL263:
 310:../../shields/Murata-dualstack/src/alp.c ****         expected_response_length += alp_length_operand_coded_length(expected_response_length); // t
 2423              		.loc 1 310 34 view .LVU465
 2424 002c E4B2     		uxtb	r4, r4
 2425              	.LVL264:
 311:../../shields/Murata-dualstack/src/alp.c ****         expected_response_length += alp_length_operand_coded_length(offset) + 1; // the length of t
 2426              		.loc 1 311 9 is_stmt 1 view .LVU466
 311:../../shields/Murata-dualstack/src/alp.c ****         expected_response_length += alp_length_operand_coded_length(offset) + 1; // the length of t
 2427              		.loc 1 311 37 is_stmt 0 view .LVU467
 2428 002e 2046     		mov	r0, r4
 2429 0030 FFF7FEFF 		bl	alp_length_operand_coded_length
 2430              	.LVL265:
 311:../../shields/Murata-dualstack/src/alp.c ****         expected_response_length += alp_length_operand_coded_length(offset) + 1; // the length of t
 2431              		.loc 1 311 34 view .LVU468
 2432 0034 0444     		add	r4, r4, r0
 2433              	.LVL266:
 311:../../shields/Murata-dualstack/src/alp.c ****         expected_response_length += alp_length_operand_coded_length(offset) + 1; // the length of t
 2434              		.loc 1 311 34 view .LVU469
 2435 0036 E4B2     		uxtb	r4, r4
 2436              	.LVL267:
 312:../../shields/Murata-dualstack/src/alp.c ****         expected_response_length += 1; // the opcode
 2437              		.loc 1 312 9 is_stmt 1 view .LVU470
 312:../../shields/Murata-dualstack/src/alp.c ****         expected_response_length += 1; // the opcode
 2438              		.loc 1 312 37 is_stmt 0 view .LVU471
 2439 0038 2846     		mov	r0, r5
 2440 003a FFF7FEFF 		bl	alp_length_operand_coded_length
 2441              	.LVL268:
 312:../../shields/Murata-dualstack/src/alp.c ****         expected_response_length += 1; // the opcode
 2442              		.loc 1 312 34 view .LVU472
 2443 003e 0130     		adds	r0, r0, #1
 2444 0040 0444     		add	r4, r4, r0
 2445              	.LVL269:
 312:../../shields/Murata-dualstack/src/alp.c ****         expected_response_length += 1; // the opcode
 2446              		.loc 1 312 34 view .LVU473
 2447 0042 E4B2     		uxtb	r4, r4
 2448              	.LVL270:
 313:../../shields/Murata-dualstack/src/alp.c ****         break;
 2449              		.loc 1 313 9 is_stmt 1 view .LVU474
 313:../../shields/Murata-dualstack/src/alp.c ****         break;
 2450              		.loc 1 313 34 is_stmt 0 view .LVU475
 2451 0044 0134     		adds	r4, r4, #1
 2452              	.LVL271:
 313:../../shields/Murata-dualstack/src/alp.c ****         break;
 2453              		.loc 1 313 34 view .LVU476
 2454 0046 E4B2     		uxtb	r4, r4
 2455              	.LVL272:
 314:../../shields/Murata-dualstack/src/alp.c ****       case ALP_OP_REQUEST_TAG:
 2456              		.loc 1 314 9 is_stmt 1 view .LVU477
 2457              	.L206:
 314:../../shields/Murata-dualstack/src/alp.c ****       case ALP_OP_REQUEST_TAG:
 2458              		.loc 1 314 9 is_stmt 0 view .LVU478
 2459              	.LBE28:
 2460              	.LBE27:
 303:../../shields/Murata-dualstack/src/alp.c ****     alp_control_t control;
ARM GAS  C:\Users\yvesk\AppData\Local\Temp\cchyx8pA.s 			page 62


 2461              		.loc 1 303 9 view .LVU479
 2462 0048 02A8     		add	r0, sp, #8
 2463 004a FFF7FEFF 		bl	fifo_get_size
 2464              	.LVL273:
 303:../../shields/Murata-dualstack/src/alp.c ****     alp_control_t control;
 2465              		.loc 1 303 8 view .LVU480
 2466 004e 0028     		cmp	r0, #0
 2467 0050 00F0C980 		beq	.L224
 2468              	.LBB33:
 304:../../shields/Murata-dualstack/src/alp.c ****     fifo_pop(&fifo, (uint8_t*)&control.raw, 1);
 2469              		.loc 1 304 5 is_stmt 1 view .LVU481
 305:../../shields/Murata-dualstack/src/alp.c ****     switch(control.operation) {
 2470              		.loc 1 305 5 view .LVU482
 2471 0054 0122     		movs	r2, #1
 2472 0056 6946     		mov	r1, sp
 2473 0058 02A8     		add	r0, sp, #8
 2474 005a FFF7FEFF 		bl	fifo_pop
 2475              	.LVL274:
 306:../../shields/Murata-dualstack/src/alp.c ****       case ALP_OP_READ_FILE_DATA:
 2476              		.loc 1 306 5 view .LVU483
 306:../../shields/Murata-dualstack/src/alp.c ****       case ALP_OP_READ_FILE_DATA:
 2477              		.loc 1 306 19 is_stmt 0 view .LVU484
 2478 005e 9DF80030 		ldrb	r3, [sp]	@ zero_extendqisi2
 2479 0062 03F03F03 		and	r3, r3, #63
 306:../../shields/Murata-dualstack/src/alp.c ****       case ALP_OP_READ_FILE_DATA:
 2480              		.loc 1 306 5 view .LVU485
 2481 0066 013B     		subs	r3, r3, #1
 2482 0068 332B     		cmp	r3, #51
 2483 006a 00F2B580 		bhi	.L207
 2484 006e 01A2     		adr	r2, .L209
 2485 0070 52F823F0 		ldr	pc, [r2, r3, lsl #2]
 2486              		.p2align 2
 2487              	.L209:
 2488 0074 15000000 		.word	.L213+1
 2489 0078 D9010000 		.word	.L207+1
 2490 007c D9010000 		.word	.L207+1
 2491 0080 4F010000 		.word	.L211+1
 2492 0084 D9010000 		.word	.L207+1
 2493 0088 CF010000 		.word	.L212+1
 2494 008c D9010000 		.word	.L207+1
 2495 0090 D9010000 		.word	.L207+1
 2496 0094 D9010000 		.word	.L207+1
 2497 0098 D9010000 		.word	.L207+1
 2498 009c D9010000 		.word	.L207+1
 2499 00a0 D9010000 		.word	.L207+1
 2500 00a4 D9010000 		.word	.L207+1
 2501 00a8 D9010000 		.word	.L207+1
 2502 00ac D9010000 		.word	.L207+1
 2503 00b0 D9010000 		.word	.L207+1
 2504 00b4 D9010000 		.word	.L207+1
 2505 00b8 D9010000 		.word	.L207+1
 2506 00bc D9010000 		.word	.L207+1
 2507 00c0 D9010000 		.word	.L207+1
 2508 00c4 D9010000 		.word	.L207+1
 2509 00c8 D9010000 		.word	.L207+1
 2510 00cc D9010000 		.word	.L207+1
 2511 00d0 D9010000 		.word	.L207+1
ARM GAS  C:\Users\yvesk\AppData\Local\Temp\cchyx8pA.s 			page 63


 2512 00d4 D9010000 		.word	.L207+1
 2513 00d8 D9010000 		.word	.L207+1
 2514 00dc D9010000 		.word	.L207+1
 2515 00e0 D9010000 		.word	.L207+1
 2516 00e4 D9010000 		.word	.L207+1
 2517 00e8 D9010000 		.word	.L207+1
 2518 00ec D9010000 		.word	.L207+1
 2519 00f0 4F010000 		.word	.L211+1
 2520 00f4 D9010000 		.word	.L207+1
 2521 00f8 D9010000 		.word	.L207+1
 2522 00fc D9010000 		.word	.L207+1
 2523 0100 D9010000 		.word	.L207+1
 2524 0104 D9010000 		.word	.L207+1
 2525 0108 D9010000 		.word	.L207+1
 2526 010c D9010000 		.word	.L207+1
 2527 0110 D9010000 		.word	.L207+1
 2528 0114 D9010000 		.word	.L207+1
 2529 0118 D9010000 		.word	.L207+1
 2530 011c D9010000 		.word	.L207+1
 2531 0120 D9010000 		.word	.L207+1
 2532 0124 D9010000 		.word	.L207+1
 2533 0128 D9010000 		.word	.L207+1
 2534 012c D9010000 		.word	.L207+1
 2535 0130 D9010000 		.word	.L207+1
 2536 0134 D9010000 		.word	.L207+1
 2537 0138 6D010000 		.word	.L210+1
 2538 013c D9010000 		.word	.L207+1
 2539 0140 45010000 		.word	.L208+1
 2540              		.p2align 1
 2541              	.L208:
 2542              	.LBB32:
 316:../../shields/Murata-dualstack/src/alp.c ****         break;
 2543              		.loc 1 316 9 is_stmt 1 view .LVU486
 2544 0144 0121     		movs	r1, #1
 2545 0146 02A8     		add	r0, sp, #8
 2546 0148 FFF7FEFF 		bl	fifo_skip
 2547              	.LVL275:
 317:../../shields/Murata-dualstack/src/alp.c ****       case ALP_OP_RETURN_FILE_DATA:
 2548              		.loc 1 317 9 view .LVU487
 2549 014c 7CE7     		b	.L206
 2550              	.L211:
 320:../../shields/Murata-dualstack/src/alp.c ****         alp_parse_length_operand(&fifo); // offset
 2551              		.loc 1 320 9 view .LVU488
 2552 014e 0121     		movs	r1, #1
 2553 0150 02A8     		add	r0, sp, #8
 2554 0152 FFF7FEFF 		bl	fifo_skip
 2555              	.LVL276:
 321:../../shields/Murata-dualstack/src/alp.c ****         fifo_skip(&fifo, alp_parse_length_operand(&fifo));
 2556              		.loc 1 321 9 view .LVU489
 2557 0156 02A8     		add	r0, sp, #8
 2558 0158 FFF7FEFF 		bl	alp_parse_length_operand
 2559              	.LVL277:
 322:../../shields/Murata-dualstack/src/alp.c ****         break;
 2560              		.loc 1 322 9 view .LVU490
 322:../../shields/Murata-dualstack/src/alp.c ****         break;
 2561              		.loc 1 322 26 is_stmt 0 view .LVU491
 2562 015c 02A8     		add	r0, sp, #8
ARM GAS  C:\Users\yvesk\AppData\Local\Temp\cchyx8pA.s 			page 64


 2563 015e FFF7FEFF 		bl	alp_parse_length_operand
 2564              	.LVL278:
 322:../../shields/Murata-dualstack/src/alp.c ****         break;
 2565              		.loc 1 322 9 view .LVU492
 2566 0162 81B2     		uxth	r1, r0
 2567 0164 02A8     		add	r0, sp, #8
 2568 0166 FFF7FEFF 		bl	fifo_skip
 2569              	.LVL279:
 323:../../shields/Murata-dualstack/src/alp.c ****       case ALP_OP_FORWARD: ;
 2570              		.loc 1 323 9 is_stmt 1 view .LVU493
 2571 016a 6DE7     		b	.L206
 2572              	.L210:
 324:../../shields/Murata-dualstack/src/alp.c ****         uint8_t itf_id;
 2573              		.loc 1 324 28 view .LVU494
 325:../../shields/Murata-dualstack/src/alp.c ****         fifo_pop(&fifo, &itf_id, 1);
 2574              		.loc 1 325 9 view .LVU495
 326:../../shields/Murata-dualstack/src/alp.c ****         if(itf_id == ALP_ITF_ID_D7ASP) {
 2575              		.loc 1 326 9 view .LVU496
 2576 016c 0122     		movs	r2, #1
 2577 016e 0DF10701 		add	r1, sp, #7
 2578 0172 02A8     		add	r0, sp, #8
 2579 0174 FFF7FEFF 		bl	fifo_pop
 2580              	.LVL280:
 327:../../shields/Murata-dualstack/src/alp.c ****           fifo_skip(&fifo, 1); // skip QoS, dormant timeout
 2581              		.loc 1 327 9 view .LVU497
 327:../../shields/Murata-dualstack/src/alp.c ****           fifo_skip(&fifo, 1); // skip QoS, dormant timeout
 2582              		.loc 1 327 19 is_stmt 0 view .LVU498
 2583 0178 9DF80730 		ldrb	r3, [sp, #7]	@ zero_extendqisi2
 327:../../shields/Murata-dualstack/src/alp.c ****           fifo_skip(&fifo, 1); // skip QoS, dormant timeout
 2584              		.loc 1 327 11 view .LVU499
 2585 017c D72B     		cmp	r3, #215
 2586 017e 7FF463AF 		bne	.L206
 2587              	.LBB29:
 328:../../shields/Murata-dualstack/src/alp.c ****           d7ap_addressee_ctrl_t addressee_ctrl;
 2588              		.loc 1 328 11 is_stmt 1 view .LVU500
 2589 0182 0121     		movs	r1, #1
 2590 0184 02A8     		add	r0, sp, #8
 2591 0186 FFF7FEFF 		bl	fifo_skip
 2592              	.LVL281:
 329:../../shields/Murata-dualstack/src/alp.c ****           fifo_pop(&fifo, (uint8_t*)&addressee_ctrl.raw, 1);
 2593              		.loc 1 329 11 view .LVU501
 330:../../shields/Murata-dualstack/src/alp.c ****           fifo_skip(&fifo, 2 + d7ap_addressee_id_length(addressee_ctrl.id_type)); // skip addressee
 2594              		.loc 1 330 11 view .LVU502
 2595 018a 0122     		movs	r2, #1
 2596 018c 01A9     		add	r1, sp, #4
 2597 018e 02A8     		add	r0, sp, #8
 2598 0190 FFF7FEFF 		bl	fifo_pop
 2599              	.LVL282:
 331:../../shields/Murata-dualstack/src/alp.c ****           // TODO refactor to reuse same logic for parsing and response length counting
 2600              		.loc 1 331 11 view .LVU503
 331:../../shields/Murata-dualstack/src/alp.c ****           // TODO refactor to reuse same logic for parsing and response length counting
 2601              		.loc 1 331 71 is_stmt 0 view .LVU504
 2602 0194 9DF80430 		ldrb	r3, [sp, #4]	@ zero_extendqisi2
 2603 0198 C3F30113 		ubfx	r3, r3, #4, #2
 2604              	.LVL283:
 2605              	.LBB30:
 2606              	.LBI30:
ARM GAS  C:\Users\yvesk\AppData\Local\Temp\cchyx8pA.s 			page 65


 290:../../shields/Murata-dualstack/inc/d7ap.h ****   switch(id_type)
 2607              		.loc 2 290 23 is_stmt 1 view .LVU505
 2608              	.LBB31:
 291:../../shields/Murata-dualstack/inc/d7ap.h ****   {
 2609              		.loc 2 291 3 view .LVU506
 2610 019c 032B     		cmp	r3, #3
 2611 019e 07D8     		bhi	.L215
 2612 01a0 DFE803F0 		tbb	[pc, r3]
 2613              	.L217:
 2614 01a4 0F       		.byte	(.L222-.L217)/2
 2615 01a5 0D       		.byte	(.L219-.L217)/2
 2616 01a6 02       		.byte	(.L218-.L217)/2
 2617 01a7 04       		.byte	(.L216-.L217)/2
 2618              		.p2align 1
 2619              	.L218:
 298:../../shields/Murata-dualstack/inc/d7ap.h ****       case ID_TYPE_VID:
 2620              		.loc 2 298 9 view .LVU507
 298:../../shields/Murata-dualstack/inc/d7ap.h ****       case ID_TYPE_VID:
 2621              		.loc 2 298 16 is_stmt 0 view .LVU508
 2622 01a8 0821     		movs	r1, #8
 2623 01aa 0BE0     		b	.L220
 2624              	.L216:
 300:../../shields/Murata-dualstack/inc/d7ap.h ****       default:
 2625              		.loc 2 300 9 is_stmt 1 view .LVU509
 300:../../shields/Murata-dualstack/inc/d7ap.h ****       default:
 2626              		.loc 2 300 16 is_stmt 0 view .LVU510
 2627 01ac 0221     		movs	r1, #2
 2628 01ae 09E0     		b	.L220
 2629              	.L215:
 2630              		.loc 2 302 9 is_stmt 1 view .LVU511
 2631 01b0 0E4B     		ldr	r3, .L225
 2632 01b2 0F4A     		ldr	r2, .L225+4
 2633 01b4 4FF49771 		mov	r1, #302
 2634 01b8 0E48     		ldr	r0, .L225+8
 2635 01ba FFF7FEFF 		bl	__assert_func
 2636              	.LVL284:
 2637              	.L219:
 294:../../shields/Murata-dualstack/inc/d7ap.h ****       case ID_TYPE_NBID:
 2638              		.loc 2 294 16 is_stmt 0 view .LVU512
 2639 01be 0021     		movs	r1, #0
 2640 01c0 00E0     		b	.L220
 2641              	.L222:
 296:../../shields/Murata-dualstack/inc/d7ap.h ****       case ID_TYPE_UID:
 2642              		.loc 2 296 16 view .LVU513
 2643 01c2 0121     		movs	r1, #1
 2644              	.L220:
 2645              	.LVL285:
 296:../../shields/Murata-dualstack/inc/d7ap.h ****       case ID_TYPE_UID:
 2646              		.loc 2 296 16 view .LVU514
 2647              	.LBE31:
 2648              	.LBE30:
 331:../../shields/Murata-dualstack/src/alp.c ****           // TODO refactor to reuse same logic for parsing and response length counting
 2649              		.loc 1 331 11 view .LVU515
 2650 01c4 0231     		adds	r1, r1, #2
 2651 01c6 02A8     		add	r0, sp, #8
 2652 01c8 FFF7FEFF 		bl	fifo_skip
 2653              	.LVL286:
ARM GAS  C:\Users\yvesk\AppData\Local\Temp\cchyx8pA.s 			page 66


 2654 01cc 3CE7     		b	.L206
 2655              	.L212:
 2656              	.LBE29:
 337:../../shields/Murata-dualstack/src/alp.c ****         break;
 2657              		.loc 1 337 9 is_stmt 1 view .LVU516
 2658 01ce 0D21     		movs	r1, #13
 2659 01d0 02A8     		add	r0, sp, #8
 2660 01d2 FFF7FEFF 		bl	fifo_skip
 2661              	.LVL287:
 338:../../shields/Murata-dualstack/src/alp.c ****       // TODO other operations
 2662              		.loc 1 338 9 view .LVU517
 338:../../shields/Murata-dualstack/src/alp.c ****       // TODO other operations
 2663              		.loc 1 338 9 is_stmt 0 view .LVU518
 2664 01d6 37E7     		b	.L206
 2665              	.L207:
 341:../../shields/Murata-dualstack/src/alp.c ****         assert(false);
 2666              		.loc 1 341 59 is_stmt 1 view .LVU519
 342:../../shields/Murata-dualstack/src/alp.c ****     }
 2667              		.loc 1 342 9 view .LVU520
 2668 01d8 044B     		ldr	r3, .L225
 2669 01da 074A     		ldr	r2, .L225+12
 2670 01dc 4FF4AB71 		mov	r1, #342
 2671 01e0 0648     		ldr	r0, .L225+16
 2672 01e2 FFF7FEFF 		bl	__assert_func
 2673              	.LVL288:
 2674              	.L224:
 2675              	.LBE32:
 2676              	.LBE33:
 346:../../shields/Murata-dualstack/src/alp.c ****   return expected_response_length;
 2677              		.loc 1 346 70 view .LVU521
 347:../../shields/Murata-dualstack/src/alp.c **** }
 2678              		.loc 1 347 3 view .LVU522
 348:../../shields/Murata-dualstack/src/alp.c **** 
 2679              		.loc 1 348 1 is_stmt 0 view .LVU523
 2680 01e6 2046     		mov	r0, r4
 2681 01e8 07B0     		add	sp, sp, #28
 2682              	.LCFI47:
 2683              		.cfi_def_cfa_offset 12
 2684              		@ sp needed
 2685 01ea 30BD     		pop	{r4, r5, pc}
 2686              	.LVL289:
 2687              	.L226:
 348:../../shields/Murata-dualstack/src/alp.c **** 
 2688              		.loc 1 348 1 view .LVU524
 2689              		.align	2
 2690              	.L225:
 2691 01ec 38000000 		.word	.LC4
 2692 01f0 00000000 		.word	.LANCHOR2
 2693 01f4 40000000 		.word	.LC5
 2694 01f8 00000000 		.word	.LANCHOR16
 2695 01fc 40000000 		.word	.LC1
 2696              		.cfi_endproc
 2697              	.LFE18:
 2699              		.section	.rodata.__func__.6325,"a"
 2700              		.align	2
 2701              		.set	.LANCHOR2,. + 0
 2704              	__func__.6325:
ARM GAS  C:\Users\yvesk\AppData\Local\Temp\cchyx8pA.s 			page 67


 2705 0000 64376170 		.ascii	"d7ap_addressee_id_length\000"
 2705      5F616464 
 2705      72657373 
 2705      65655F69 
 2705      645F6C65 
 2706              		.section	.rodata.__func__.6857,"a"
 2707              		.align	2
 2708              		.set	.LANCHOR3,. + 0
 2711              	__func__.6857:
 2712 0000 616C705F 		.ascii	"alp_append_length_operand\000"
 2712      61707065 
 2712      6E645F6C 
 2712      656E6774 
 2712      685F6F70 
 2713              		.section	.rodata.__func__.6867,"a"
 2714              		.align	2
 2715              		.set	.LANCHOR4,. + 0
 2718              	__func__.6867:
 2719 0000 616C705F 		.ascii	"alp_parse_file_offset_operand\000"
 2719      70617273 
 2719      655F6669 
 2719      6C655F6F 
 2719      66667365 
 2720              		.section	.rodata.__func__.6873,"a"
 2721              		.align	2
 2722              		.set	.LANCHOR6,. + 0
 2725              	__func__.6873:
 2726 0000 616C705F 		.ascii	"alp_parse_file_header_operand\000"
 2726      70617273 
 2726      655F6669 
 2726      6C655F68 
 2726      65616465 
 2727              		.section	.rodata.__func__.6879,"a"
 2728              		.align	2
 2729              		.set	.LANCHOR7,. + 0
 2732              	__func__.6879:
 2733 0000 616C705F 		.ascii	"alp_append_file_offset_operand\000"
 2733      61707065 
 2733      6E645F66 
 2733      696C655F 
 2733      6F666673 
 2734              		.section	.rodata.__func__.6887,"a"
 2735              		.align	2
 2736              		.set	.LANCHOR8,. + 0
 2739              	__func__.6887:
 2740 0000 616C705F 		.ascii	"alp_append_indirect_forward_action\000"
 2740      61707065 
 2740      6E645F69 
 2740      6E646972 
 2740      6563745F 
 2741              		.section	.rodata.__func__.6894,"a"
 2742              		.align	2
 2743              		.set	.LANCHOR9,. + 0
 2746              	__func__.6894:
 2747 0000 616C705F 		.ascii	"alp_append_forward_action\000"
 2747      61707065 
 2747      6E645F66 
ARM GAS  C:\Users\yvesk\AppData\Local\Temp\cchyx8pA.s 			page 68


 2747      6F727761 
 2747      72645F61 
 2748              		.section	.rodata.__func__.6907,"a"
 2749              		.align	2
 2750              		.set	.LANCHOR10,. + 0
 2753              	__func__.6907:
 2754 0000 616C705F 		.ascii	"alp_append_return_file_data_action\000"
 2754      61707065 
 2754      6E645F72 
 2754      65747572 
 2754      6E5F6669 
 2755              		.section	.rodata.__func__.6929,"a"
 2756              		.align	2
 2757              		.set	.LANCHOR5,. + 0
 2760              	__func__.6929:
 2761 0000 70617273 		.ascii	"parse_operand_file_data\000"
 2761      655F6F70 
 2761      6572616E 
 2761      645F6669 
 2761      6C655F64 
 2762              		.section	.rodata.__func__.6944,"a"
 2763              		.align	2
 2764              		.set	.LANCHOR0,. + 0
 2767              	__func__.6944:
 2768 0000 70617273 		.ascii	"parse_op_return_tag\000"
 2768      655F6F70 
 2768      5F726574 
 2768      75726E5F 
 2768      74616700 
 2769              		.section	.rodata.__func__.6951,"a"
 2770              		.align	2
 2771              		.set	.LANCHOR1,. + 0
 2774              	__func__.6951:
 2775 0000 70617273 		.ascii	"parse_op_return_status\000"
 2775      655F6F70 
 2775      5F726574 
 2775      75726E5F 
 2775      73746174 
 2776              		.section	.rodata.__func__.6961,"a"
 2777              		.align	2
 2778              		.set	.LANCHOR11,. + 0
 2781              	__func__.6961:
 2782 0000 616C705F 		.ascii	"alp_parse_action\000"
 2782      70617273 
 2782      655F6163 
 2782      74696F6E 
 2782      00
 2783              		.section	.rodata.__func__.6988,"a"
 2784              		.align	2
 2785              		.set	.LANCHOR16,. + 0
 2788              	__func__.6988:
 2789 0000 616C705F 		.ascii	"alp_get_expected_response_length\000"
 2789      6765745F 
 2789      65787065 
 2789      63746564 
 2789      5F726573 
 2790              		.section	.rodata.__func__.6998,"a"
ARM GAS  C:\Users\yvesk\AppData\Local\Temp\cchyx8pA.s 			page 69


 2791              		.align	2
 2792              		.set	.LANCHOR12,. + 0
 2795              	__func__.6998:
 2796 0000 616C705F 		.ascii	"alp_append_tag_request_action\000"
 2796      61707065 
 2796      6E645F74 
 2796      61675F72 
 2796      65717565 
 2797              		.section	.rodata.__func__.7008,"a"
 2798              		.align	2
 2799              		.set	.LANCHOR13,. + 0
 2802              	__func__.7008:
 2803 0000 616C705F 		.ascii	"alp_append_read_file_data_action\000"
 2803      61707065 
 2803      6E645F72 
 2803      6561645F 
 2803      66696C65 
 2804              		.section	.rodata.__func__.7019,"a"
 2805              		.align	2
 2806              		.set	.LANCHOR14,. + 0
 2809              	__func__.7019:
 2810 0000 616C705F 		.ascii	"alp_append_write_file_data_action\000"
 2810      61707065 
 2810      6E645F77 
 2810      72697465 
 2810      5F66696C 
 2811              		.section	.rodata.__func__.7029,"a"
 2812              		.align	2
 2813              		.set	.LANCHOR15,. + 0
 2816              	__func__.7029:
 2817 0000 616C705F 		.ascii	"alp_append_create_new_file_data_action\000"
 2817      61707065 
 2817      6E645F63 
 2817      72656174 
 2817      655F6E65 
 2818              		.section	.rodata.alp_append_create_new_file_data_action.str1.4,"aMS",%progbits,1
 2819              		.align	2
 2820              	.LC41:
 2821 0000 6669666F 		.ascii	"fifo_put(fifo, (uint8_t*)&header, sizeof(alp_operan"
 2821      5F707574 
 2821      28666966 
 2821      6F2C2028 
 2821      75696E74 
 2822 0033 645F6669 		.ascii	"d_file_header_t)) == oss7SUCCESS\000"
 2822      6C655F68 
 2822      65616465 
 2822      725F7429 
 2822      29203D3D 
 2823              		.section	.rodata.alp_append_file_offset_operand.str1.4,"aMS",%progbits,1
 2824              		.align	2
 2825              	.LC12:
 2826 0000 6669666F 		.ascii	"fifo_put_byte(fifo, file_id) == oss7SUCCESS\000"
 2826      5F707574 
 2826      5F627974 
 2826      65286669 
 2826      666F2C20 
 2827              		.section	.rodata.alp_append_forward_action.str1.4,"aMS",%progbits,1
ARM GAS  C:\Users\yvesk\AppData\Local\Temp\cchyx8pA.s 			page 70


 2828              		.align	2
 2829              	.LC15:
 2830 0000 636F6E66 		.ascii	"config!=NULL\000"
 2830      6967213D 
 2830      4E554C4C 
 2830      00
 2831 000d 000000   		.space	3
 2832              	.LC16:
 2833 0010 6669666F 		.ascii	"fifo_put_byte(fifo, ALP_OP_FORWARD) == oss7SUCCESS\000"
 2833      5F707574 
 2833      5F627974 
 2833      65286669 
 2833      666F2C20 
 2834 0043 00       		.space	1
 2835              	.LC17:
 2836 0044 6669666F 		.ascii	"fifo_put_byte(fifo, itf_id) == oss7SUCCESS\000"
 2836      5F707574 
 2836      5F627974 
 2836      65286669 
 2836      666F2C20 
 2837 006f 00       		.space	1
 2838              	.LC18:
 2839 0070 6669666F 		.ascii	"fifo_put_byte(fifo, ((d7ap_session_config_t*)config"
 2839      5F707574 
 2839      5F627974 
 2839      65286669 
 2839      666F2C20 
 2840 00a3 292D3E71 		.ascii	")->qos.raw) == oss7SUCCESS\000"
 2840      6F732E72 
 2840      61772920 
 2840      3D3D206F 
 2840      73733753 
 2841 00be 0000     		.space	2
 2842              	.LC19:
 2843 00c0 6669666F 		.ascii	"fifo_put_byte(fifo, ((d7ap_session_config_t*)config"
 2843      5F707574 
 2843      5F627974 
 2843      65286669 
 2843      666F2C20 
 2844 00f3 292D3E64 		.ascii	")->dormant_timeout) == oss7SUCCESS\000"
 2844      6F726D61 
 2844      6E745F74 
 2844      696D656F 
 2844      75742920 
 2845 0116 0000     		.space	2
 2846              	.LC20:
 2847 0118 6669666F 		.ascii	"fifo_put_byte(fifo, ((d7ap_session_config_t*)config"
 2847      5F707574 
 2847      5F627974 
 2847      65286669 
 2847      666F2C20 
 2848 014b 292D3E61 		.ascii	")->addressee.ctrl.raw) == oss7SUCCESS\000"
 2848      64647265 
 2848      73736565 
 2848      2E637472 
 2848      6C2E7261 
 2849 0171 000000   		.space	3
ARM GAS  C:\Users\yvesk\AppData\Local\Temp\cchyx8pA.s 			page 71


 2850              	.LC21:
 2851 0174 6669666F 		.ascii	"fifo_put_byte(fifo, ((d7ap_session_config_t*)config"
 2851      5F707574 
 2851      5F627974 
 2851      65286669 
 2851      666F2C20 
 2852 01a7 292D3E61 		.ascii	")->addressee.access_class) == oss7SUCCESS\000"
 2852      64647265 
 2852      73736565 
 2852      2E616363 
 2852      6573735F 
 2853 01d1 000000   		.space	3
 2854              	.LC22:
 2855 01d4 6669666F 		.ascii	"fifo_put(fifo, ((d7ap_session_config_t*)config)->ad"
 2855      5F707574 
 2855      28666966 
 2855      6F2C2028 
 2855      28643761 
 2856 0207 64726573 		.ascii	"dressee.id, id_length) == oss7SUCCESS\000"
 2856      7365652E 
 2856      69642C20 
 2856      69645F6C 
 2856      656E6774 
 2857 022d 000000   		.space	3
 2858              	.LC23:
 2859 0230 6669666F 		.ascii	"fifo_put_byte(fifo, control_byte) == oss7SUCCESS\000"
 2859      5F707574 
 2859      5F627974 
 2859      65286669 
 2859      666F2C20 
 2860 0261 000000   		.space	3
 2861              	.LC24:
 2862 0264 6669666F 		.ascii	"fifo_put_byte(fifo, ((lorawan_session_config_abp_t*"
 2862      5F707574 
 2862      5F627974 
 2862      65286669 
 2862      666F2C20 
 2863 0297 29636F6E 		.ascii	")config)->application_port) == oss7SUCCESS\000"
 2863      66696729 
 2863      2D3E6170 
 2863      706C6963 
 2863      6174696F 
 2864 02c2 0000     		.space	2
 2865              	.LC25:
 2866 02c4 6669666F 		.ascii	"fifo_put_byte(fifo, ((lorawan_session_config_abp_t*"
 2866      5F707574 
 2866      5F627974 
 2866      65286669 
 2866      666F2C20 
 2867 02f7 29636F6E 		.ascii	")config)->data_rate) == oss7SUCCESS\000"
 2867      66696729 
 2867      2D3E6461 
 2867      74615F72 
 2867      61746529 
 2868 031b 00       		.space	1
 2869              	.LC26:
 2870 031c 6669666F 		.ascii	"fifo_put(fifo, ((lorawan_session_config_abp_t*)conf"
ARM GAS  C:\Users\yvesk\AppData\Local\Temp\cchyx8pA.s 			page 72


 2870      5F707574 
 2870      28666966 
 2870      6F2C2028 
 2870      286C6F72 
 2871 034f 6967292D 		.ascii	"ig)->nwkSKey, 16) == oss7SUCCESS\000"
 2871      3E6E776B 
 2871      534B6579 
 2871      2C203136 
 2871      29203D3D 
 2872              	.LC27:
 2873 0370 6669666F 		.ascii	"fifo_put(fifo, ((lorawan_session_config_abp_t*)conf"
 2873      5F707574 
 2873      28666966 
 2873      6F2C2028 
 2873      286C6F72 
 2874 03a3 6967292D 		.ascii	"ig)->appSKey, 16) == oss7SUCCESS\000"
 2874      3E617070 
 2874      534B6579 
 2874      2C203136 
 2874      29203D3D 
 2875              	.LC28:
 2876 03c4 6669666F 		.ascii	"fifo_put(fifo, (uint8_t*)&dev_addr, 4) == oss7SUCCE"
 2876      5F707574 
 2876      28666966 
 2876      6F2C2028 
 2876      75696E74 
 2877 03f7 535300   		.ascii	"SS\000"
 2878 03fa 0000     		.space	2
 2879              	.LC29:
 2880 03fc 6669666F 		.ascii	"fifo_put(fifo, (uint8_t*)&network_id, 4) == oss7SUC"
 2880      5F707574 
 2880      28666966 
 2880      6F2C2028 
 2880      75696E74 
 2881 042f 43455353 		.ascii	"CESS\000"
 2881      00
 2882              	.LC30:
 2883 0434 6669666F 		.ascii	"fifo_put_byte(fifo, ((lorawan_session_config_otaa_t"
 2883      5F707574 
 2883      5F627974 
 2883      65286669 
 2883      666F2C20 
 2884 0467 2A29636F 		.ascii	"*)config)->application_port) == oss7SUCCESS\000"
 2884      6E666967 
 2884      292D3E61 
 2884      70706C69 
 2884      63617469 
 2885 0493 00       		.space	1
 2886              	.LC31:
 2887 0494 6669666F 		.ascii	"fifo_put_byte(fifo, ((lorawan_session_config_otaa_t"
 2887      5F707574 
 2887      5F627974 
 2887      65286669 
 2887      666F2C20 
 2888 04c7 2A29636F 		.ascii	"*)config)->data_rate) == oss7SUCCESS\000"
 2888      6E666967 
 2888      292D3E64 
ARM GAS  C:\Users\yvesk\AppData\Local\Temp\cchyx8pA.s 			page 73


 2888      6174615F 
 2888      72617465 
 2889              	.LC32:
 2890 04ec 6669666F 		.ascii	"fifo_put(fifo, ((lorawan_session_config_otaa_t*)con"
 2890      5F707574 
 2890      28666966 
 2890      6F2C2028 
 2890      286C6F72 
 2891 051f 66696729 		.ascii	"fig)->devEUI, 8) == oss7SUCCESS\000"
 2891      2D3E6465 
 2891      76455549 
 2891      2C203829 
 2891      203D3D20 
 2892 053f 00       		.space	1
 2893              	.LC33:
 2894 0540 6669666F 		.ascii	"fifo_put(fifo, ((lorawan_session_config_otaa_t*)con"
 2894      5F707574 
 2894      28666966 
 2894      6F2C2028 
 2894      286C6F72 
 2895 0573 66696729 		.ascii	"fig)->appEUI, 8) == oss7SUCCESS\000"
 2895      2D3E6170 
 2895      70455549 
 2895      2C203829 
 2895      203D3D20 
 2896 0593 00       		.space	1
 2897              	.LC34:
 2898 0594 6669666F 		.ascii	"fifo_put(fifo, ((lorawan_session_config_otaa_t*)con"
 2898      5F707574 
 2898      28666966 
 2898      6F2C2028 
 2898      286C6F72 
 2899 05c7 66696729 		.ascii	"fig)->appKey, 16) == oss7SUCCESS\000"
 2899      2D3E6170 
 2899      704B6579 
 2899      2C203136 
 2899      29203D3D 
 2900              	.LC35:
 2901 05e8 6669666F 		.ascii	"fifo_put(fifo, config, config_len) == oss7SUCCESS\000"
 2901      5F707574 
 2901      28666966 
 2901      6F2C2063 
 2901      6F6E6669 
 2902              		.section	.rodata.alp_append_indirect_forward_action.str1.4,"aMS",%progbits,1
 2903              		.align	2
 2904              	.LC13:
 2905 0000 6669666F 		.ascii	"fifo_put_byte(fifo, ALP_OP_INDIRECT_FORWARD | (over"
 2905      5F707574 
 2905      5F627974 
 2905      65286669 
 2905      666F2C20 
 2906 0033 6C6F6164 		.ascii	"load << 7)) == oss7SUCCESS\000"
 2906      203C3C20 
 2906      37292920 
 2906      3D3D206F 
 2906      73733753 
 2907 004e 0000     		.space	2
ARM GAS  C:\Users\yvesk\AppData\Local\Temp\cchyx8pA.s 			page 74


 2908              	.LC14:
 2909 0050 6669666F 		.ascii	"fifo_put(fifo, overload_config, overload_config_len"
 2909      5F707574 
 2909      28666966 
 2909      6F2C206F 
 2909      7665726C 
 2910 0083 29203D3D 		.ascii	") == oss7SUCCESS\000"
 2910      206F7373 
 2910      37535543 
 2910      43455353 
 2910      00
 2911              		.section	.rodata.alp_append_length_operand.str1.4,"aMS",%progbits,1
 2912              		.align	2
 2913              	.LC7:
 2914 0000 6669666F 		.ascii	"fifo_put(fifo, (uint8_t*)&length, 1) == oss7SUCCESS"
 2914      5F707574 
 2914      28666966 
 2914      6F2C2028 
 2914      75696E74 
 2915 0033 00       		.ascii	"\000"
 2916              	.LC8:
 2917 0034 6669666F 		.ascii	"fifo_put(fifo, &byte, 1) == oss7SUCCESS\000"
 2917      5F707574 
 2917      28666966 
 2917      6F2C2026 
 2917      62797465 
 2918              	.LC9:
 2919 005c 6669666F 		.ascii	"fifo_put(fifo, (uint8_t*)&length + size, 1) == oss7"
 2919      5F707574 
 2919      28666966 
 2919      6F2C2028 
 2919      75696E74 
 2920 008f 53554343 		.ascii	"SUCCESS\000"
 2920      45535300 
 2921              		.section	.rodata.alp_append_return_file_data_action.str1.4,"aMS",%progbits,1
 2922              		.align	2
 2923              	.LC36:
 2924 0000 6669666F 		.ascii	"fifo_put_byte(fifo, ALP_OP_RETURN_FILE_DATA) == oss"
 2924      5F707574 
 2924      5F627974 
 2924      65286669 
 2924      666F2C20 
 2925 0033 37535543 		.ascii	"7SUCCESS\000"
 2925      43455353 
 2925      00
 2926              	.LC37:
 2927 003c 6669666F 		.ascii	"fifo_put(fifo, data, length) == oss7SUCCESS\000"
 2927      5F707574 
 2927      28666966 
 2927      6F2C2064 
 2927      6174612C 
 2928              		.section	.rodata.alp_append_tag_request_action.str1.4,"aMS",%progbits,1
 2929              		.align	2
 2930              	.LC39:
 2931 0000 6669666F 		.ascii	"fifo_put_byte(fifo, op) == oss7SUCCESS\000"
 2931      5F707574 
 2931      5F627974 
ARM GAS  C:\Users\yvesk\AppData\Local\Temp\cchyx8pA.s 			page 75


 2931      65286669 
 2931      666F2C20 
 2932 0027 00       		.space	1
 2933              	.LC40:
 2934 0028 6669666F 		.ascii	"fifo_put_byte(fifo, tag_id) == oss7SUCCESS\000"
 2934      5F707574 
 2934      5F627974 
 2934      65286669 
 2934      666F2C20 
 2935              		.section	.rodata.alp_parse_action.str1.4,"aMS",%progbits,1
 2936              		.align	2
 2937              	.LC38:
 2938 0000 6669666F 		.ascii	"fifo_pop(fifo, &op, 1) == oss7SUCCESS\000"
 2938      5F706F70 
 2938      28666966 
 2938      6F2C2026 
 2938      6F702C20 
 2939              		.section	.rodata.alp_parse_file_offset_operand.str1.4,"aMS",%progbits,1
 2940              		.align	2
 2941              	.LC10:
 2942 0000 65727220 		.ascii	"err == oss7SUCCESS\000"
 2942      3D3D206F 
 2942      73733753 
 2942      55434345 
 2942      535300
 2943              		.section	.rodata.parse_op_return_status.str1.4,"aMS",%progbits,1
 2944              		.align	2
 2945              	.LC2:
 2946 0000 62362026 		.ascii	"b6 && !b7\000"
 2946      26202162 
 2946      3700
 2947 000a 0000     		.space	2
 2948              	.LC3:
 2949 000c 6669666F 		.ascii	"fifo_pop(fifo, &itf_id, 1) == oss7SUCCESS\000"
 2949      5F706F70 
 2949      28666966 
 2949      6F2C2026 
 2949      6974665F 
 2950 0036 0000     		.space	2
 2951              	.LC4:
 2952 0038 66616C73 		.ascii	"false\000"
 2952      6500
 2953 003e 0000     		.space	2
 2954              	.LC5:
 2955 0040 2E2E2F2E 		.ascii	"../../shields/Murata-dualstack/inc/d7ap.h\000"
 2955      2E2F7368 
 2955      69656C64 
 2955      732F4D75 
 2955      72617461 
 2956 006a 0000     		.space	2
 2957              	.LC6:
 2958 006c 6669666F 		.ascii	"fifo_pop(fifo, (uint8_t*)&interface_status->address"
 2958      5F706F70 
 2958      28666966 
 2958      6F2C2028 
 2958      75696E74 
 2959 009f 65652E69 		.ascii	"ee.id, addressee_len) == oss7SUCCESS\000"
ARM GAS  C:\Users\yvesk\AppData\Local\Temp\cchyx8pA.s 			page 76


 2959      642C2061 
 2959      64647265 
 2959      73736565 
 2959      5F6C656E 
 2960              		.section	.rodata.parse_op_return_tag.str1.4,"aMS",%progbits,1
 2961              		.align	2
 2962              	.LC0:
 2963 0000 6669666F 		.ascii	"fifo_pop(fifo, &action->tag_response.tag_id, 1) == "
 2963      5F706F70 
 2963      28666966 
 2963      6F2C2026 
 2963      61637469 
 2964 0033 6F737337 		.ascii	"oss7SUCCESS\000"
 2964      53554343 
 2964      45535300 
 2965 003f 00       		.space	1
 2966              	.LC1:
 2967 0040 2E2E2F2E 		.ascii	"../../shields/Murata-dualstack/src/alp.c\000"
 2967      2E2F7368 
 2967      69656C64 
 2967      732F4D75 
 2967      72617461 
 2968              		.section	.rodata.parse_operand_file_data.str1.4,"aMS",%progbits,1
 2969              		.align	2
 2970              	.LC11:
 2971 0000 61637469 		.ascii	"action->file_data_operand.provided_data_length <= s"
 2971      6F6E2D3E 
 2971      66696C65 
 2971      5F646174 
 2971      615F6F70 
 2972 0033 697A656F 		.ascii	"izeof(action->file_data_operand.data)\000"
 2972      66286163 
 2972      74696F6E 
 2972      2D3E6669 
 2972      6C655F64 
 2973              		.text
 2974              	.Letext0:
 2975              		.file 3 "c:\\program files (x86)\\gnu tools arm embedded\\8 2019-q3-update\\lib\\gcc\\arm-none-eab
 2976              		.file 4 "c:\\program files (x86)\\gnu tools arm embedded\\8 2019-q3-update\\arm-none-eabi\\include
 2977              		.file 5 "c:\\program files (x86)\\gnu tools arm embedded\\8 2019-q3-update\\arm-none-eabi\\include
 2978              		.file 6 "c:\\program files (x86)\\gnu tools arm embedded\\8 2019-q3-update\\arm-none-eabi\\include
 2979              		.file 7 "c:\\program files (x86)\\gnu tools arm embedded\\8 2019-q3-update\\arm-none-eabi\\include
 2980              		.file 8 "c:\\program files (x86)\\gnu tools arm embedded\\8 2019-q3-update\\arm-none-eabi\\include
 2981              		.file 9 "c:\\program files (x86)\\gnu tools arm embedded\\8 2019-q3-update\\arm-none-eabi\\include
 2982              		.file 10 "../../shields/Murata-dualstack/inc/types.h"
 2983              		.file 11 "c:\\program files (x86)\\gnu tools arm embedded\\8 2019-q3-update\\arm-none-eabi\\includ
 2984              		.file 12 "../../shields/Murata-dualstack/inc/dae.h"
 2985              		.file 13 "../../shields/Murata-dualstack/inc/fs.h"
 2986              		.file 14 "../../shields/Murata-dualstack/inc/d7ap_fs.h"
 2987              		.file 15 "../../shields/Murata-dualstack/inc/lorawan_stack.h"
 2988              		.file 16 "../../shields/Murata-dualstack/inc/fifo.h"
 2989              		.file 17 "../../shields/Murata-dualstack/inc/alp.h"
 2990              		.file 18 "c:\\program files (x86)\\gnu tools arm embedded\\8 2019-q3-update\\arm-none-eabi\\includ
ARM GAS  C:\Users\yvesk\AppData\Local\Temp\cchyx8pA.s 			page 77

