ARM GAS  C:\Users\yvesk\AppData\Local\Temp\ccIGvJVU.s 			page 1


   1              		.cpu cortex-m4
   2              		.eabi_attribute 27, 1
   3              		.eabi_attribute 28, 1
   4              		.eabi_attribute 20, 1
   5              		.eabi_attribute 21, 1
   6              		.eabi_attribute 23, 3
   7              		.eabi_attribute 24, 1
   8              		.eabi_attribute 25, 1
   9              		.eabi_attribute 26, 1
  10              		.eabi_attribute 30, 1
  11              		.eabi_attribute 34, 1
  12              		.eabi_attribute 18, 4
  13              		.file	"crc.c"
  14              		.text
  15              	.Ltext0:
  16              		.cfi_sections	.debug_frame
  17              		.section	.text.update_crc,"ax",%progbits
  18              		.align	1
  19              		.arch armv7e-m
  20              		.syntax unified
  21              		.thumb
  22              		.thumb_func
  23              		.fpu fpv4-sp-d16
  25              	update_crc:
  26              	.LVL0:
  27              	.LFB0:
  28              		.file 1 "../../shields/Murata-dualstack/src/crc.c"
   1:../../shields/Murata-dualstack/src/crc.c **** /*! \file crc.c
   2:../../shields/Murata-dualstack/src/crc.c ****  *
   3:../../shields/Murata-dualstack/src/crc.c **** 
   4:../../shields/Murata-dualstack/src/crc.c ****  *  \copyright (C) Copyright 2015 University of Antwerp and others (http://oss-7.cosys.be)
   5:../../shields/Murata-dualstack/src/crc.c ****  *
   6:../../shields/Murata-dualstack/src/crc.c ****  * Licensed under the Apache License, Version 2.0 (the "License");
   7:../../shields/Murata-dualstack/src/crc.c ****  * you may not use this file except in compliance with the License.
   8:../../shields/Murata-dualstack/src/crc.c ****  * You may obtain a copy of the License at
   9:../../shields/Murata-dualstack/src/crc.c ****  *
  10:../../shields/Murata-dualstack/src/crc.c ****  *     http://www.apache.org/licenses/LICENSE-2.0
  11:../../shields/Murata-dualstack/src/crc.c ****  *
  12:../../shields/Murata-dualstack/src/crc.c ****  * Unless required by applicable law or agreed to in writing, software
  13:../../shields/Murata-dualstack/src/crc.c ****  * distributed under the License is distributed on an "AS IS" BASIS,
  14:../../shields/Murata-dualstack/src/crc.c ****  * WITHOUT WARRANTIES OR CONDITIONS OF ANY KIND, either express or implied.
  15:../../shields/Murata-dualstack/src/crc.c ****  * See the License for the specific language governing permissions and
  16:../../shields/Murata-dualstack/src/crc.c ****  * limitations under the License.
  17:../../shields/Murata-dualstack/src/crc.c ****  *
  18:../../shields/Murata-dualstack/src/crc.c ****  *  \author glenn.ergeerts@uantwerpen.be
  19:../../shields/Murata-dualstack/src/crc.c ****  *  \author maarten.weyn@uantwerpen.be
  20:../../shields/Murata-dualstack/src/crc.c ****  *
  21:../../shields/Murata-dualstack/src/crc.c ****  */
  22:../../shields/Murata-dualstack/src/crc.c **** 
  23:../../shields/Murata-dualstack/src/crc.c **** #include <stdint.h>
  24:../../shields/Murata-dualstack/src/crc.c **** 
  25:../../shields/Murata-dualstack/src/crc.c **** #include "crc.h"
  26:../../shields/Murata-dualstack/src/crc.c **** 
  27:../../shields/Murata-dualstack/src/crc.c **** static uint16_t crc;
  28:../../shields/Murata-dualstack/src/crc.c **** 
  29:../../shields/Murata-dualstack/src/crc.c **** static void update_crc(uint8_t x)
  30:../../shields/Murata-dualstack/src/crc.c **** {
ARM GAS  C:\Users\yvesk\AppData\Local\Temp\ccIGvJVU.s 			page 2


  29              		.loc 1 30 1 view -0
  30              		.cfi_startproc
  31              		@ args = 0, pretend = 0, frame = 0
  32              		@ frame_needed = 0, uses_anonymous_args = 0
  33              		@ link register save eliminated.
  31:../../shields/Murata-dualstack/src/crc.c ****      uint16_t crc_new = (uint8_t)(crc >> 8) | (crc << 8);
  34              		.loc 1 31 6 view .LVU1
  35              		.loc 1 31 25 is_stmt 0 view .LVU2
  36 0000 094A     		ldr	r2, .L2
  37 0002 1188     		ldrh	r1, [r2]
  38              		.loc 1 31 52 view .LVU3
  39 0004 0B02     		lsls	r3, r1, #8
  40              		.loc 1 31 45 view .LVU4
  41 0006 43EA1123 		orr	r3, r3, r1, lsr #8
  42              		.loc 1 31 15 view .LVU5
  43 000a 9BB2     		uxth	r3, r3
  44              	.LVL1:
  32:../../shields/Murata-dualstack/src/crc.c ****      crc_new ^= x;
  45              		.loc 1 32 6 is_stmt 1 view .LVU6
  46              		.loc 1 32 14 is_stmt 0 view .LVU7
  47 000c 5840     		eors	r0, r0, r3
  48              	.LVL2:
  33:../../shields/Murata-dualstack/src/crc.c ****      crc_new ^= (uint8_t)(crc_new & 0xff) >> 4;
  49              		.loc 1 33 6 is_stmt 1 view .LVU8
  50              		.loc 1 33 14 is_stmt 0 view .LVU9
  51 000e C0F30313 		ubfx	r3, r0, #4, #4
  52 0012 5840     		eors	r0, r0, r3
  53              	.LVL3:
  34:../../shields/Murata-dualstack/src/crc.c ****      crc_new ^= crc_new << 12;
  54              		.loc 1 34 6 is_stmt 1 view .LVU10
  55              		.loc 1 34 14 is_stmt 0 view .LVU11
  56 0014 80EA0030 		eor	r0, r0, r0, lsl #12
  57              	.LVL4:
  58              		.loc 1 34 14 view .LVU12
  59 0018 00B2     		sxth	r0, r0
  60 001a 83B2     		uxth	r3, r0
  61              	.LVL5:
  35:../../shields/Murata-dualstack/src/crc.c ****      crc_new ^= (crc_new & 0xff) << 5;
  62              		.loc 1 35 6 is_stmt 1 view .LVU13
  63              		.loc 1 35 34 is_stmt 0 view .LVU14
  64 001c 5B01     		lsls	r3, r3, #5
  65              	.LVL6:
  66              		.loc 1 35 34 view .LVU15
  67 001e 03F4FF53 		and	r3, r3, #8160
  68              		.loc 1 35 14 view .LVU16
  69 0022 5840     		eors	r0, r0, r3
  70              	.LVL7:
  36:../../shields/Murata-dualstack/src/crc.c ****      crc = crc_new;
  71              		.loc 1 36 6 is_stmt 1 view .LVU17
  72              		.loc 1 36 10 is_stmt 0 view .LVU18
  73 0024 1080     		strh	r0, [r2]	@ movhi
  37:../../shields/Murata-dualstack/src/crc.c **** }
  74              		.loc 1 37 1 view .LVU19
  75 0026 7047     		bx	lr
  76              	.L3:
  77              		.align	2
  78              	.L2:
ARM GAS  C:\Users\yvesk\AppData\Local\Temp\ccIGvJVU.s 			page 3


  79 0028 00000000 		.word	.LANCHOR0
  80              		.cfi_endproc
  81              	.LFE0:
  83              		.section	.text.crc_calculate,"ax",%progbits
  84              		.align	1
  85              		.global	crc_calculate
  86              		.syntax unified
  87              		.thumb
  88              		.thumb_func
  89              		.fpu fpv4-sp-d16
  91              	crc_calculate:
  92              	.LVL8:
  93              	.LFB1:
  38:../../shields/Murata-dualstack/src/crc.c **** 
  39:../../shields/Murata-dualstack/src/crc.c **** uint16_t crc_calculate(uint8_t* data, uint8_t length)
  40:../../shields/Murata-dualstack/src/crc.c **** {
  94              		.loc 1 40 1 is_stmt 1 view -0
  95              		.cfi_startproc
  96              		@ args = 0, pretend = 0, frame = 0
  97              		@ frame_needed = 0, uses_anonymous_args = 0
  98              		.loc 1 40 1 is_stmt 0 view .LVU21
  99 0000 70B5     		push	{r4, r5, r6, lr}
 100              	.LCFI0:
 101              		.cfi_def_cfa_offset 16
 102              		.cfi_offset 4, -16
 103              		.cfi_offset 5, -12
 104              		.cfi_offset 6, -8
 105              		.cfi_offset 14, -4
 106 0002 0646     		mov	r6, r0
 107 0004 0D46     		mov	r5, r1
  41:../../shields/Murata-dualstack/src/crc.c ****     crc = 0xffff;
 108              		.loc 1 41 5 is_stmt 1 view .LVU22
 109              		.loc 1 41 9 is_stmt 0 view .LVU23
 110 0006 084B     		ldr	r3, .L9
 111 0008 4FF6FF72 		movw	r2, #65535
 112 000c 1A80     		strh	r2, [r3]	@ movhi
  42:../../shields/Murata-dualstack/src/crc.c ****     uint8_t i = 0;
 113              		.loc 1 42 5 is_stmt 1 view .LVU24
 114              	.LVL9:
  43:../../shields/Murata-dualstack/src/crc.c **** 
  44:../../shields/Murata-dualstack/src/crc.c ****     for(; i<length; i++)
 115              		.loc 1 44 5 view .LVU25
  42:../../shields/Murata-dualstack/src/crc.c ****     uint8_t i = 0;
 116              		.loc 1 42 13 is_stmt 0 view .LVU26
 117 000e 0024     		movs	r4, #0
 118              	.LVL10:
 119              	.L5:
 120              		.loc 1 44 5 discriminator 1 view .LVU27
 121 0010 AC42     		cmp	r4, r5
 122 0012 05D2     		bcs	.L8
  45:../../shields/Murata-dualstack/src/crc.c ****     {
  46:../../shields/Murata-dualstack/src/crc.c ****         update_crc(data[i]);
 123              		.loc 1 46 9 is_stmt 1 discriminator 2 view .LVU28
 124 0014 305D     		ldrb	r0, [r6, r4]	@ zero_extendqisi2
 125 0016 FFF7FEFF 		bl	update_crc
 126              	.LVL11:
  44:../../shields/Murata-dualstack/src/crc.c ****     {
ARM GAS  C:\Users\yvesk\AppData\Local\Temp\ccIGvJVU.s 			page 4


 127              		.loc 1 44 22 is_stmt 0 discriminator 2 view .LVU29
 128 001a 0134     		adds	r4, r4, #1
 129              	.LVL12:
  44:../../shields/Murata-dualstack/src/crc.c ****     {
 130              		.loc 1 44 22 discriminator 2 view .LVU30
 131 001c E4B2     		uxtb	r4, r4
 132              	.LVL13:
  44:../../shields/Murata-dualstack/src/crc.c ****     {
 133              		.loc 1 44 22 discriminator 2 view .LVU31
 134 001e F7E7     		b	.L5
 135              	.L8:
  47:../../shields/Murata-dualstack/src/crc.c ****     }
  48:../../shields/Murata-dualstack/src/crc.c ****     return crc;
 136              		.loc 1 48 5 is_stmt 1 view .LVU32
  49:../../shields/Murata-dualstack/src/crc.c **** }
 137              		.loc 1 49 1 is_stmt 0 view .LVU33
 138 0020 014B     		ldr	r3, .L9
 139 0022 1888     		ldrh	r0, [r3]
 140 0024 70BD     		pop	{r4, r5, r6, pc}
 141              	.LVL14:
 142              	.L10:
 143              		.loc 1 49 1 view .LVU34
 144 0026 00BF     		.align	2
 145              	.L9:
 146 0028 00000000 		.word	.LANCHOR0
 147              		.cfi_endproc
 148              	.LFE1:
 150              		.section	.bss.crc,"aw",%nobits
 151              		.align	1
 152              		.set	.LANCHOR0,. + 0
 155              	crc:
 156 0000 0000     		.space	2
 157              		.text
 158              	.Letext0:
 159              		.file 2 "c:\\program files (x86)\\gnu tools arm embedded\\8 2019-q3-update\\arm-none-eabi\\include
 160              		.file 3 "c:\\program files (x86)\\gnu tools arm embedded\\8 2019-q3-update\\arm-none-eabi\\include
ARM GAS  C:\Users\yvesk\AppData\Local\Temp\ccIGvJVU.s 			page 5

