ARM GAS  C:\Users\yvesk\AppData\Local\Temp\ccpIoJST.s 			page 1


   1              		.cpu cortex-m4
   2              		.eabi_attribute 27, 1
   3              		.eabi_attribute 28, 1
   4              		.eabi_attribute 20, 1
   5              		.eabi_attribute 21, 1
   6              		.eabi_attribute 23, 3
   7              		.eabi_attribute 24, 1
   8              		.eabi_attribute 25, 1
   9              		.eabi_attribute 26, 1
  10              		.eabi_attribute 30, 1
  11              		.eabi_attribute 34, 1
  12              		.eabi_attribute 18, 4
  13              		.file	"heap_4.c"
  14              		.text
  15              	.Ltext0:
  16              		.cfi_sections	.debug_frame
  17              		.section	.text.prvHeapInit,"ax",%progbits
  18              		.align	1
  19              		.arch armv7e-m
  20              		.syntax unified
  21              		.thumb
  22              		.thumb_func
  23              		.fpu fpv4-sp-d16
  25              	prvHeapInit:
  26              	.LFB10:
  27              		.file 1 "../../core/ST/Middlewares/Third_Party/FreeRTOS/Source/portable/MemMang/heap_4.c"
   1:../../core/ST/Middlewares/Third_Party/FreeRTOS/Source/portable/MemMang/heap_4.c **** /*
   2:../../core/ST/Middlewares/Third_Party/FreeRTOS/Source/portable/MemMang/heap_4.c ****  * FreeRTOS Kernel V10.0.1
   3:../../core/ST/Middlewares/Third_Party/FreeRTOS/Source/portable/MemMang/heap_4.c ****  * Copyright (C) 2017 Amazon.com, Inc. or its affiliates.  All Rights Reserved.
   4:../../core/ST/Middlewares/Third_Party/FreeRTOS/Source/portable/MemMang/heap_4.c ****  *
   5:../../core/ST/Middlewares/Third_Party/FreeRTOS/Source/portable/MemMang/heap_4.c ****  * Permission is hereby granted, free of charge, to any person obtaining a copy of
   6:../../core/ST/Middlewares/Third_Party/FreeRTOS/Source/portable/MemMang/heap_4.c ****  * this software and associated documentation files (the "Software"), to deal in
   7:../../core/ST/Middlewares/Third_Party/FreeRTOS/Source/portable/MemMang/heap_4.c ****  * the Software without restriction, including without limitation the rights to
   8:../../core/ST/Middlewares/Third_Party/FreeRTOS/Source/portable/MemMang/heap_4.c ****  * use, copy, modify, merge, publish, distribute, sublicense, and/or sell copies of
   9:../../core/ST/Middlewares/Third_Party/FreeRTOS/Source/portable/MemMang/heap_4.c ****  * the Software, and to permit persons to whom the Software is furnished to do so,
  10:../../core/ST/Middlewares/Third_Party/FreeRTOS/Source/portable/MemMang/heap_4.c ****  * subject to the following conditions:
  11:../../core/ST/Middlewares/Third_Party/FreeRTOS/Source/portable/MemMang/heap_4.c ****  *
  12:../../core/ST/Middlewares/Third_Party/FreeRTOS/Source/portable/MemMang/heap_4.c ****  * The above copyright notice and this permission notice shall be included in all
  13:../../core/ST/Middlewares/Third_Party/FreeRTOS/Source/portable/MemMang/heap_4.c ****  * copies or substantial portions of the Software.
  14:../../core/ST/Middlewares/Third_Party/FreeRTOS/Source/portable/MemMang/heap_4.c ****  *
  15:../../core/ST/Middlewares/Third_Party/FreeRTOS/Source/portable/MemMang/heap_4.c ****  * THE SOFTWARE IS PROVIDED "AS IS", WITHOUT WARRANTY OF ANY KIND, EXPRESS OR
  16:../../core/ST/Middlewares/Third_Party/FreeRTOS/Source/portable/MemMang/heap_4.c ****  * IMPLIED, INCLUDING BUT NOT LIMITED TO THE WARRANTIES OF MERCHANTABILITY, FITNESS
  17:../../core/ST/Middlewares/Third_Party/FreeRTOS/Source/portable/MemMang/heap_4.c ****  * FOR A PARTICULAR PURPOSE AND NONINFRINGEMENT. IN NO EVENT SHALL THE AUTHORS OR
  18:../../core/ST/Middlewares/Third_Party/FreeRTOS/Source/portable/MemMang/heap_4.c ****  * COPYRIGHT HOLDERS BE LIABLE FOR ANY CLAIM, DAMAGES OR OTHER LIABILITY, WHETHER
  19:../../core/ST/Middlewares/Third_Party/FreeRTOS/Source/portable/MemMang/heap_4.c ****  * IN AN ACTION OF CONTRACT, TORT OR OTHERWISE, ARISING FROM, OUT OF OR IN
  20:../../core/ST/Middlewares/Third_Party/FreeRTOS/Source/portable/MemMang/heap_4.c ****  * CONNECTION WITH THE SOFTWARE OR THE USE OR OTHER DEALINGS IN THE SOFTWARE.
  21:../../core/ST/Middlewares/Third_Party/FreeRTOS/Source/portable/MemMang/heap_4.c ****  *
  22:../../core/ST/Middlewares/Third_Party/FreeRTOS/Source/portable/MemMang/heap_4.c ****  * http://www.FreeRTOS.org
  23:../../core/ST/Middlewares/Third_Party/FreeRTOS/Source/portable/MemMang/heap_4.c ****  * http://aws.amazon.com/freertos
  24:../../core/ST/Middlewares/Third_Party/FreeRTOS/Source/portable/MemMang/heap_4.c ****  *
  25:../../core/ST/Middlewares/Third_Party/FreeRTOS/Source/portable/MemMang/heap_4.c ****  * 1 tab == 4 spaces!
  26:../../core/ST/Middlewares/Third_Party/FreeRTOS/Source/portable/MemMang/heap_4.c ****  */
  27:../../core/ST/Middlewares/Third_Party/FreeRTOS/Source/portable/MemMang/heap_4.c **** 
  28:../../core/ST/Middlewares/Third_Party/FreeRTOS/Source/portable/MemMang/heap_4.c **** /*
  29:../../core/ST/Middlewares/Third_Party/FreeRTOS/Source/portable/MemMang/heap_4.c ****  * A sample implementation of pvPortMalloc() and vPortFree() that combines
  30:../../core/ST/Middlewares/Third_Party/FreeRTOS/Source/portable/MemMang/heap_4.c ****  * (coalescences) adjacent memory blocks as they are freed, and in so doing
  31:../../core/ST/Middlewares/Third_Party/FreeRTOS/Source/portable/MemMang/heap_4.c ****  * limits memory fragmentation.
ARM GAS  C:\Users\yvesk\AppData\Local\Temp\ccpIoJST.s 			page 2


  32:../../core/ST/Middlewares/Third_Party/FreeRTOS/Source/portable/MemMang/heap_4.c ****  *
  33:../../core/ST/Middlewares/Third_Party/FreeRTOS/Source/portable/MemMang/heap_4.c ****  * See heap_1.c, heap_2.c and heap_3.c for alternative implementations, and the
  34:../../core/ST/Middlewares/Third_Party/FreeRTOS/Source/portable/MemMang/heap_4.c ****  * memory management pages of http://www.FreeRTOS.org for more information.
  35:../../core/ST/Middlewares/Third_Party/FreeRTOS/Source/portable/MemMang/heap_4.c ****  */
  36:../../core/ST/Middlewares/Third_Party/FreeRTOS/Source/portable/MemMang/heap_4.c **** #include <stdlib.h>
  37:../../core/ST/Middlewares/Third_Party/FreeRTOS/Source/portable/MemMang/heap_4.c **** 
  38:../../core/ST/Middlewares/Third_Party/FreeRTOS/Source/portable/MemMang/heap_4.c **** /* Defining MPU_WRAPPERS_INCLUDED_FROM_API_FILE prevents task.h from redefining
  39:../../core/ST/Middlewares/Third_Party/FreeRTOS/Source/portable/MemMang/heap_4.c **** all the API functions to use the MPU wrappers.  That should only be done when
  40:../../core/ST/Middlewares/Third_Party/FreeRTOS/Source/portable/MemMang/heap_4.c **** task.h is included from an application file. */
  41:../../core/ST/Middlewares/Third_Party/FreeRTOS/Source/portable/MemMang/heap_4.c **** #define MPU_WRAPPERS_INCLUDED_FROM_API_FILE
  42:../../core/ST/Middlewares/Third_Party/FreeRTOS/Source/portable/MemMang/heap_4.c **** 
  43:../../core/ST/Middlewares/Third_Party/FreeRTOS/Source/portable/MemMang/heap_4.c **** #include "FreeRTOS.h"
  44:../../core/ST/Middlewares/Third_Party/FreeRTOS/Source/portable/MemMang/heap_4.c **** #include "task.h"
  45:../../core/ST/Middlewares/Third_Party/FreeRTOS/Source/portable/MemMang/heap_4.c **** 
  46:../../core/ST/Middlewares/Third_Party/FreeRTOS/Source/portable/MemMang/heap_4.c **** #undef MPU_WRAPPERS_INCLUDED_FROM_API_FILE
  47:../../core/ST/Middlewares/Third_Party/FreeRTOS/Source/portable/MemMang/heap_4.c **** 
  48:../../core/ST/Middlewares/Third_Party/FreeRTOS/Source/portable/MemMang/heap_4.c **** #if( configSUPPORT_DYNAMIC_ALLOCATION == 0 )
  49:../../core/ST/Middlewares/Third_Party/FreeRTOS/Source/portable/MemMang/heap_4.c **** 	#error This file must not be used if configSUPPORT_DYNAMIC_ALLOCATION is 0
  50:../../core/ST/Middlewares/Third_Party/FreeRTOS/Source/portable/MemMang/heap_4.c **** #endif
  51:../../core/ST/Middlewares/Third_Party/FreeRTOS/Source/portable/MemMang/heap_4.c **** 
  52:../../core/ST/Middlewares/Third_Party/FreeRTOS/Source/portable/MemMang/heap_4.c **** /* Block sizes must not get too small. */
  53:../../core/ST/Middlewares/Third_Party/FreeRTOS/Source/portable/MemMang/heap_4.c **** #define heapMINIMUM_BLOCK_SIZE	( ( size_t ) ( xHeapStructSize << 1 ) )
  54:../../core/ST/Middlewares/Third_Party/FreeRTOS/Source/portable/MemMang/heap_4.c **** 
  55:../../core/ST/Middlewares/Third_Party/FreeRTOS/Source/portable/MemMang/heap_4.c **** /* Assumes 8bit bytes! */
  56:../../core/ST/Middlewares/Third_Party/FreeRTOS/Source/portable/MemMang/heap_4.c **** #define heapBITS_PER_BYTE		( ( size_t ) 8 )
  57:../../core/ST/Middlewares/Third_Party/FreeRTOS/Source/portable/MemMang/heap_4.c **** 
  58:../../core/ST/Middlewares/Third_Party/FreeRTOS/Source/portable/MemMang/heap_4.c **** /* Allocate the memory for the heap. */
  59:../../core/ST/Middlewares/Third_Party/FreeRTOS/Source/portable/MemMang/heap_4.c **** #if( configAPPLICATION_ALLOCATED_HEAP == 1 )
  60:../../core/ST/Middlewares/Third_Party/FreeRTOS/Source/portable/MemMang/heap_4.c **** 	/* The application writer has already defined the array used for the RTOS
  61:../../core/ST/Middlewares/Third_Party/FreeRTOS/Source/portable/MemMang/heap_4.c **** 	heap - probably so it can be placed in a special segment or address. */
  62:../../core/ST/Middlewares/Third_Party/FreeRTOS/Source/portable/MemMang/heap_4.c **** 	extern uint8_t ucHeap[ configTOTAL_HEAP_SIZE ];
  63:../../core/ST/Middlewares/Third_Party/FreeRTOS/Source/portable/MemMang/heap_4.c **** #else
  64:../../core/ST/Middlewares/Third_Party/FreeRTOS/Source/portable/MemMang/heap_4.c **** 	static uint8_t ucHeap[ configTOTAL_HEAP_SIZE ];
  65:../../core/ST/Middlewares/Third_Party/FreeRTOS/Source/portable/MemMang/heap_4.c **** #endif /* configAPPLICATION_ALLOCATED_HEAP */
  66:../../core/ST/Middlewares/Third_Party/FreeRTOS/Source/portable/MemMang/heap_4.c **** 
  67:../../core/ST/Middlewares/Third_Party/FreeRTOS/Source/portable/MemMang/heap_4.c **** /* Define the linked list structure.  This is used to link free blocks in order
  68:../../core/ST/Middlewares/Third_Party/FreeRTOS/Source/portable/MemMang/heap_4.c **** of their memory address. */
  69:../../core/ST/Middlewares/Third_Party/FreeRTOS/Source/portable/MemMang/heap_4.c **** typedef struct A_BLOCK_LINK
  70:../../core/ST/Middlewares/Third_Party/FreeRTOS/Source/portable/MemMang/heap_4.c **** {
  71:../../core/ST/Middlewares/Third_Party/FreeRTOS/Source/portable/MemMang/heap_4.c **** 	struct A_BLOCK_LINK *pxNextFreeBlock;	/*<< The next free block in the list. */
  72:../../core/ST/Middlewares/Third_Party/FreeRTOS/Source/portable/MemMang/heap_4.c **** 	size_t xBlockSize;						/*<< The size of the free block. */
  73:../../core/ST/Middlewares/Third_Party/FreeRTOS/Source/portable/MemMang/heap_4.c **** } BlockLink_t;
  74:../../core/ST/Middlewares/Third_Party/FreeRTOS/Source/portable/MemMang/heap_4.c **** 
  75:../../core/ST/Middlewares/Third_Party/FreeRTOS/Source/portable/MemMang/heap_4.c **** /*-----------------------------------------------------------*/
  76:../../core/ST/Middlewares/Third_Party/FreeRTOS/Source/portable/MemMang/heap_4.c **** 
  77:../../core/ST/Middlewares/Third_Party/FreeRTOS/Source/portable/MemMang/heap_4.c **** /*
  78:../../core/ST/Middlewares/Third_Party/FreeRTOS/Source/portable/MemMang/heap_4.c ****  * Inserts a block of memory that is being freed into the correct position in
  79:../../core/ST/Middlewares/Third_Party/FreeRTOS/Source/portable/MemMang/heap_4.c ****  * the list of free memory blocks.  The block being freed will be merged with
  80:../../core/ST/Middlewares/Third_Party/FreeRTOS/Source/portable/MemMang/heap_4.c ****  * the block in front it and/or the block behind it if the memory blocks are
  81:../../core/ST/Middlewares/Third_Party/FreeRTOS/Source/portable/MemMang/heap_4.c ****  * adjacent to each other.
  82:../../core/ST/Middlewares/Third_Party/FreeRTOS/Source/portable/MemMang/heap_4.c ****  */
  83:../../core/ST/Middlewares/Third_Party/FreeRTOS/Source/portable/MemMang/heap_4.c **** static void prvInsertBlockIntoFreeList( BlockLink_t *pxBlockToInsert );
  84:../../core/ST/Middlewares/Third_Party/FreeRTOS/Source/portable/MemMang/heap_4.c **** 
  85:../../core/ST/Middlewares/Third_Party/FreeRTOS/Source/portable/MemMang/heap_4.c **** /*
  86:../../core/ST/Middlewares/Third_Party/FreeRTOS/Source/portable/MemMang/heap_4.c ****  * Called automatically to setup the required heap structures the first time
  87:../../core/ST/Middlewares/Third_Party/FreeRTOS/Source/portable/MemMang/heap_4.c ****  * pvPortMalloc() is called.
  88:../../core/ST/Middlewares/Third_Party/FreeRTOS/Source/portable/MemMang/heap_4.c ****  */
ARM GAS  C:\Users\yvesk\AppData\Local\Temp\ccpIoJST.s 			page 3


  89:../../core/ST/Middlewares/Third_Party/FreeRTOS/Source/portable/MemMang/heap_4.c **** static void prvHeapInit( void );
  90:../../core/ST/Middlewares/Third_Party/FreeRTOS/Source/portable/MemMang/heap_4.c **** 
  91:../../core/ST/Middlewares/Third_Party/FreeRTOS/Source/portable/MemMang/heap_4.c **** /*-----------------------------------------------------------*/
  92:../../core/ST/Middlewares/Third_Party/FreeRTOS/Source/portable/MemMang/heap_4.c **** 
  93:../../core/ST/Middlewares/Third_Party/FreeRTOS/Source/portable/MemMang/heap_4.c **** /* The size of the structure placed at the beginning of each allocated memory
  94:../../core/ST/Middlewares/Third_Party/FreeRTOS/Source/portable/MemMang/heap_4.c **** block must by correctly byte aligned. */
  95:../../core/ST/Middlewares/Third_Party/FreeRTOS/Source/portable/MemMang/heap_4.c **** static const size_t xHeapStructSize	= ( sizeof( BlockLink_t ) + ( ( size_t ) ( portBYTE_ALIGNMENT -
  96:../../core/ST/Middlewares/Third_Party/FreeRTOS/Source/portable/MemMang/heap_4.c **** 
  97:../../core/ST/Middlewares/Third_Party/FreeRTOS/Source/portable/MemMang/heap_4.c **** /* Create a couple of list links to mark the start and end of the list. */
  98:../../core/ST/Middlewares/Third_Party/FreeRTOS/Source/portable/MemMang/heap_4.c **** static BlockLink_t xStart, *pxEnd = NULL;
  99:../../core/ST/Middlewares/Third_Party/FreeRTOS/Source/portable/MemMang/heap_4.c **** 
 100:../../core/ST/Middlewares/Third_Party/FreeRTOS/Source/portable/MemMang/heap_4.c **** /* Keeps track of the number of free bytes remaining, but says nothing about
 101:../../core/ST/Middlewares/Third_Party/FreeRTOS/Source/portable/MemMang/heap_4.c **** fragmentation. */
 102:../../core/ST/Middlewares/Third_Party/FreeRTOS/Source/portable/MemMang/heap_4.c **** static size_t xFreeBytesRemaining = 0U;
 103:../../core/ST/Middlewares/Third_Party/FreeRTOS/Source/portable/MemMang/heap_4.c **** static size_t xMinimumEverFreeBytesRemaining = 0U;
 104:../../core/ST/Middlewares/Third_Party/FreeRTOS/Source/portable/MemMang/heap_4.c **** 
 105:../../core/ST/Middlewares/Third_Party/FreeRTOS/Source/portable/MemMang/heap_4.c **** /* Gets set to the top bit of an size_t type.  When this bit in the xBlockSize
 106:../../core/ST/Middlewares/Third_Party/FreeRTOS/Source/portable/MemMang/heap_4.c **** member of an BlockLink_t structure is set then the block belongs to the
 107:../../core/ST/Middlewares/Third_Party/FreeRTOS/Source/portable/MemMang/heap_4.c **** application.  When the bit is free the block is still part of the free heap
 108:../../core/ST/Middlewares/Third_Party/FreeRTOS/Source/portable/MemMang/heap_4.c **** space. */
 109:../../core/ST/Middlewares/Third_Party/FreeRTOS/Source/portable/MemMang/heap_4.c **** static size_t xBlockAllocatedBit = 0;
 110:../../core/ST/Middlewares/Third_Party/FreeRTOS/Source/portable/MemMang/heap_4.c **** 
 111:../../core/ST/Middlewares/Third_Party/FreeRTOS/Source/portable/MemMang/heap_4.c **** /*-----------------------------------------------------------*/
 112:../../core/ST/Middlewares/Third_Party/FreeRTOS/Source/portable/MemMang/heap_4.c **** 
 113:../../core/ST/Middlewares/Third_Party/FreeRTOS/Source/portable/MemMang/heap_4.c **** void *pvPortMalloc( size_t xWantedSize )
 114:../../core/ST/Middlewares/Third_Party/FreeRTOS/Source/portable/MemMang/heap_4.c **** {
 115:../../core/ST/Middlewares/Third_Party/FreeRTOS/Source/portable/MemMang/heap_4.c **** BlockLink_t *pxBlock, *pxPreviousBlock, *pxNewBlockLink;
 116:../../core/ST/Middlewares/Third_Party/FreeRTOS/Source/portable/MemMang/heap_4.c **** void *pvReturn = NULL;
 117:../../core/ST/Middlewares/Third_Party/FreeRTOS/Source/portable/MemMang/heap_4.c **** 
 118:../../core/ST/Middlewares/Third_Party/FreeRTOS/Source/portable/MemMang/heap_4.c **** 	vTaskSuspendAll();
 119:../../core/ST/Middlewares/Third_Party/FreeRTOS/Source/portable/MemMang/heap_4.c **** 	{
 120:../../core/ST/Middlewares/Third_Party/FreeRTOS/Source/portable/MemMang/heap_4.c **** 		/* If this is the first call to malloc then the heap will require
 121:../../core/ST/Middlewares/Third_Party/FreeRTOS/Source/portable/MemMang/heap_4.c **** 		initialisation to setup the list of free blocks. */
 122:../../core/ST/Middlewares/Third_Party/FreeRTOS/Source/portable/MemMang/heap_4.c **** 		if( pxEnd == NULL )
 123:../../core/ST/Middlewares/Third_Party/FreeRTOS/Source/portable/MemMang/heap_4.c **** 		{
 124:../../core/ST/Middlewares/Third_Party/FreeRTOS/Source/portable/MemMang/heap_4.c **** 			prvHeapInit();
 125:../../core/ST/Middlewares/Third_Party/FreeRTOS/Source/portable/MemMang/heap_4.c **** 		}
 126:../../core/ST/Middlewares/Third_Party/FreeRTOS/Source/portable/MemMang/heap_4.c **** 		else
 127:../../core/ST/Middlewares/Third_Party/FreeRTOS/Source/portable/MemMang/heap_4.c **** 		{
 128:../../core/ST/Middlewares/Third_Party/FreeRTOS/Source/portable/MemMang/heap_4.c **** 			mtCOVERAGE_TEST_MARKER();
 129:../../core/ST/Middlewares/Third_Party/FreeRTOS/Source/portable/MemMang/heap_4.c **** 		}
 130:../../core/ST/Middlewares/Third_Party/FreeRTOS/Source/portable/MemMang/heap_4.c **** 
 131:../../core/ST/Middlewares/Third_Party/FreeRTOS/Source/portable/MemMang/heap_4.c **** 		/* Check the requested block size is not so large that the top bit is
 132:../../core/ST/Middlewares/Third_Party/FreeRTOS/Source/portable/MemMang/heap_4.c **** 		set.  The top bit of the block size member of the BlockLink_t structure
 133:../../core/ST/Middlewares/Third_Party/FreeRTOS/Source/portable/MemMang/heap_4.c **** 		is used to determine who owns the block - the application or the
 134:../../core/ST/Middlewares/Third_Party/FreeRTOS/Source/portable/MemMang/heap_4.c **** 		kernel, so it must be free. */
 135:../../core/ST/Middlewares/Third_Party/FreeRTOS/Source/portable/MemMang/heap_4.c **** 		if( ( xWantedSize & xBlockAllocatedBit ) == 0 )
 136:../../core/ST/Middlewares/Third_Party/FreeRTOS/Source/portable/MemMang/heap_4.c **** 		{
 137:../../core/ST/Middlewares/Third_Party/FreeRTOS/Source/portable/MemMang/heap_4.c **** 			/* The wanted size is increased so it can contain a BlockLink_t
 138:../../core/ST/Middlewares/Third_Party/FreeRTOS/Source/portable/MemMang/heap_4.c **** 			structure in addition to the requested amount of bytes. */
 139:../../core/ST/Middlewares/Third_Party/FreeRTOS/Source/portable/MemMang/heap_4.c **** 			if( xWantedSize > 0 )
 140:../../core/ST/Middlewares/Third_Party/FreeRTOS/Source/portable/MemMang/heap_4.c **** 			{
 141:../../core/ST/Middlewares/Third_Party/FreeRTOS/Source/portable/MemMang/heap_4.c **** 				xWantedSize += xHeapStructSize;
 142:../../core/ST/Middlewares/Third_Party/FreeRTOS/Source/portable/MemMang/heap_4.c **** 
 143:../../core/ST/Middlewares/Third_Party/FreeRTOS/Source/portable/MemMang/heap_4.c **** 				/* Ensure that blocks are always aligned to the required number
 144:../../core/ST/Middlewares/Third_Party/FreeRTOS/Source/portable/MemMang/heap_4.c **** 				of bytes. */
 145:../../core/ST/Middlewares/Third_Party/FreeRTOS/Source/portable/MemMang/heap_4.c **** 				if( ( xWantedSize & portBYTE_ALIGNMENT_MASK ) != 0x00 )
ARM GAS  C:\Users\yvesk\AppData\Local\Temp\ccpIoJST.s 			page 4


 146:../../core/ST/Middlewares/Third_Party/FreeRTOS/Source/portable/MemMang/heap_4.c **** 				{
 147:../../core/ST/Middlewares/Third_Party/FreeRTOS/Source/portable/MemMang/heap_4.c **** 					/* Byte alignment required. */
 148:../../core/ST/Middlewares/Third_Party/FreeRTOS/Source/portable/MemMang/heap_4.c **** 					xWantedSize += ( portBYTE_ALIGNMENT - ( xWantedSize & portBYTE_ALIGNMENT_MASK ) );
 149:../../core/ST/Middlewares/Third_Party/FreeRTOS/Source/portable/MemMang/heap_4.c **** 					configASSERT( ( xWantedSize & portBYTE_ALIGNMENT_MASK ) == 0 );
 150:../../core/ST/Middlewares/Third_Party/FreeRTOS/Source/portable/MemMang/heap_4.c **** 				}
 151:../../core/ST/Middlewares/Third_Party/FreeRTOS/Source/portable/MemMang/heap_4.c **** 				else
 152:../../core/ST/Middlewares/Third_Party/FreeRTOS/Source/portable/MemMang/heap_4.c **** 				{
 153:../../core/ST/Middlewares/Third_Party/FreeRTOS/Source/portable/MemMang/heap_4.c **** 					mtCOVERAGE_TEST_MARKER();
 154:../../core/ST/Middlewares/Third_Party/FreeRTOS/Source/portable/MemMang/heap_4.c **** 				}
 155:../../core/ST/Middlewares/Third_Party/FreeRTOS/Source/portable/MemMang/heap_4.c **** 			}
 156:../../core/ST/Middlewares/Third_Party/FreeRTOS/Source/portable/MemMang/heap_4.c **** 			else
 157:../../core/ST/Middlewares/Third_Party/FreeRTOS/Source/portable/MemMang/heap_4.c **** 			{
 158:../../core/ST/Middlewares/Third_Party/FreeRTOS/Source/portable/MemMang/heap_4.c **** 				mtCOVERAGE_TEST_MARKER();
 159:../../core/ST/Middlewares/Third_Party/FreeRTOS/Source/portable/MemMang/heap_4.c **** 			}
 160:../../core/ST/Middlewares/Third_Party/FreeRTOS/Source/portable/MemMang/heap_4.c **** 
 161:../../core/ST/Middlewares/Third_Party/FreeRTOS/Source/portable/MemMang/heap_4.c **** 			if( ( xWantedSize > 0 ) && ( xWantedSize <= xFreeBytesRemaining ) )
 162:../../core/ST/Middlewares/Third_Party/FreeRTOS/Source/portable/MemMang/heap_4.c **** 			{
 163:../../core/ST/Middlewares/Third_Party/FreeRTOS/Source/portable/MemMang/heap_4.c **** 				/* Traverse the list from the start	(lowest address) block until
 164:../../core/ST/Middlewares/Third_Party/FreeRTOS/Source/portable/MemMang/heap_4.c **** 				one	of adequate size is found. */
 165:../../core/ST/Middlewares/Third_Party/FreeRTOS/Source/portable/MemMang/heap_4.c **** 				pxPreviousBlock = &xStart;
 166:../../core/ST/Middlewares/Third_Party/FreeRTOS/Source/portable/MemMang/heap_4.c **** 				pxBlock = xStart.pxNextFreeBlock;
 167:../../core/ST/Middlewares/Third_Party/FreeRTOS/Source/portable/MemMang/heap_4.c **** 				while( ( pxBlock->xBlockSize < xWantedSize ) && ( pxBlock->pxNextFreeBlock != NULL ) )
 168:../../core/ST/Middlewares/Third_Party/FreeRTOS/Source/portable/MemMang/heap_4.c **** 				{
 169:../../core/ST/Middlewares/Third_Party/FreeRTOS/Source/portable/MemMang/heap_4.c **** 					pxPreviousBlock = pxBlock;
 170:../../core/ST/Middlewares/Third_Party/FreeRTOS/Source/portable/MemMang/heap_4.c **** 					pxBlock = pxBlock->pxNextFreeBlock;
 171:../../core/ST/Middlewares/Third_Party/FreeRTOS/Source/portable/MemMang/heap_4.c **** 				}
 172:../../core/ST/Middlewares/Third_Party/FreeRTOS/Source/portable/MemMang/heap_4.c **** 
 173:../../core/ST/Middlewares/Third_Party/FreeRTOS/Source/portable/MemMang/heap_4.c **** 				/* If the end marker was reached then a block of adequate size
 174:../../core/ST/Middlewares/Third_Party/FreeRTOS/Source/portable/MemMang/heap_4.c **** 				was	not found. */
 175:../../core/ST/Middlewares/Third_Party/FreeRTOS/Source/portable/MemMang/heap_4.c **** 				if( pxBlock != pxEnd )
 176:../../core/ST/Middlewares/Third_Party/FreeRTOS/Source/portable/MemMang/heap_4.c **** 				{
 177:../../core/ST/Middlewares/Third_Party/FreeRTOS/Source/portable/MemMang/heap_4.c **** 					/* Return the memory space pointed to - jumping over the
 178:../../core/ST/Middlewares/Third_Party/FreeRTOS/Source/portable/MemMang/heap_4.c **** 					BlockLink_t structure at its start. */
 179:../../core/ST/Middlewares/Third_Party/FreeRTOS/Source/portable/MemMang/heap_4.c **** 					pvReturn = ( void * ) ( ( ( uint8_t * ) pxPreviousBlock->pxNextFreeBlock ) + xHeapStructSize )
 180:../../core/ST/Middlewares/Third_Party/FreeRTOS/Source/portable/MemMang/heap_4.c **** 
 181:../../core/ST/Middlewares/Third_Party/FreeRTOS/Source/portable/MemMang/heap_4.c **** 					/* This block is being returned for use so must be taken out
 182:../../core/ST/Middlewares/Third_Party/FreeRTOS/Source/portable/MemMang/heap_4.c **** 					of the list of free blocks. */
 183:../../core/ST/Middlewares/Third_Party/FreeRTOS/Source/portable/MemMang/heap_4.c **** 					pxPreviousBlock->pxNextFreeBlock = pxBlock->pxNextFreeBlock;
 184:../../core/ST/Middlewares/Third_Party/FreeRTOS/Source/portable/MemMang/heap_4.c **** 
 185:../../core/ST/Middlewares/Third_Party/FreeRTOS/Source/portable/MemMang/heap_4.c **** 					/* If the block is larger than required it can be split into
 186:../../core/ST/Middlewares/Third_Party/FreeRTOS/Source/portable/MemMang/heap_4.c **** 					two. */
 187:../../core/ST/Middlewares/Third_Party/FreeRTOS/Source/portable/MemMang/heap_4.c **** 					if( ( pxBlock->xBlockSize - xWantedSize ) > heapMINIMUM_BLOCK_SIZE )
 188:../../core/ST/Middlewares/Third_Party/FreeRTOS/Source/portable/MemMang/heap_4.c **** 					{
 189:../../core/ST/Middlewares/Third_Party/FreeRTOS/Source/portable/MemMang/heap_4.c **** 						/* This block is to be split into two.  Create a new
 190:../../core/ST/Middlewares/Third_Party/FreeRTOS/Source/portable/MemMang/heap_4.c **** 						block following the number of bytes requested. The void
 191:../../core/ST/Middlewares/Third_Party/FreeRTOS/Source/portable/MemMang/heap_4.c **** 						cast is used to prevent byte alignment warnings from the
 192:../../core/ST/Middlewares/Third_Party/FreeRTOS/Source/portable/MemMang/heap_4.c **** 						compiler. */
 193:../../core/ST/Middlewares/Third_Party/FreeRTOS/Source/portable/MemMang/heap_4.c **** 						pxNewBlockLink = ( void * ) ( ( ( uint8_t * ) pxBlock ) + xWantedSize );
 194:../../core/ST/Middlewares/Third_Party/FreeRTOS/Source/portable/MemMang/heap_4.c **** 						configASSERT( ( ( ( size_t ) pxNewBlockLink ) & portBYTE_ALIGNMENT_MASK ) == 0 );
 195:../../core/ST/Middlewares/Third_Party/FreeRTOS/Source/portable/MemMang/heap_4.c **** 
 196:../../core/ST/Middlewares/Third_Party/FreeRTOS/Source/portable/MemMang/heap_4.c **** 						/* Calculate the sizes of two blocks split from the
 197:../../core/ST/Middlewares/Third_Party/FreeRTOS/Source/portable/MemMang/heap_4.c **** 						single block. */
 198:../../core/ST/Middlewares/Third_Party/FreeRTOS/Source/portable/MemMang/heap_4.c **** 						pxNewBlockLink->xBlockSize = pxBlock->xBlockSize - xWantedSize;
 199:../../core/ST/Middlewares/Third_Party/FreeRTOS/Source/portable/MemMang/heap_4.c **** 						pxBlock->xBlockSize = xWantedSize;
 200:../../core/ST/Middlewares/Third_Party/FreeRTOS/Source/portable/MemMang/heap_4.c **** 
 201:../../core/ST/Middlewares/Third_Party/FreeRTOS/Source/portable/MemMang/heap_4.c **** 						/* Insert the new block into the list of free blocks. */
 202:../../core/ST/Middlewares/Third_Party/FreeRTOS/Source/portable/MemMang/heap_4.c **** 						prvInsertBlockIntoFreeList( pxNewBlockLink );
ARM GAS  C:\Users\yvesk\AppData\Local\Temp\ccpIoJST.s 			page 5


 203:../../core/ST/Middlewares/Third_Party/FreeRTOS/Source/portable/MemMang/heap_4.c **** 					}
 204:../../core/ST/Middlewares/Third_Party/FreeRTOS/Source/portable/MemMang/heap_4.c **** 					else
 205:../../core/ST/Middlewares/Third_Party/FreeRTOS/Source/portable/MemMang/heap_4.c **** 					{
 206:../../core/ST/Middlewares/Third_Party/FreeRTOS/Source/portable/MemMang/heap_4.c **** 						mtCOVERAGE_TEST_MARKER();
 207:../../core/ST/Middlewares/Third_Party/FreeRTOS/Source/portable/MemMang/heap_4.c **** 					}
 208:../../core/ST/Middlewares/Third_Party/FreeRTOS/Source/portable/MemMang/heap_4.c **** 
 209:../../core/ST/Middlewares/Third_Party/FreeRTOS/Source/portable/MemMang/heap_4.c **** 					xFreeBytesRemaining -= pxBlock->xBlockSize;
 210:../../core/ST/Middlewares/Third_Party/FreeRTOS/Source/portable/MemMang/heap_4.c **** 
 211:../../core/ST/Middlewares/Third_Party/FreeRTOS/Source/portable/MemMang/heap_4.c **** 					if( xFreeBytesRemaining < xMinimumEverFreeBytesRemaining )
 212:../../core/ST/Middlewares/Third_Party/FreeRTOS/Source/portable/MemMang/heap_4.c **** 					{
 213:../../core/ST/Middlewares/Third_Party/FreeRTOS/Source/portable/MemMang/heap_4.c **** 						xMinimumEverFreeBytesRemaining = xFreeBytesRemaining;
 214:../../core/ST/Middlewares/Third_Party/FreeRTOS/Source/portable/MemMang/heap_4.c **** 					}
 215:../../core/ST/Middlewares/Third_Party/FreeRTOS/Source/portable/MemMang/heap_4.c **** 					else
 216:../../core/ST/Middlewares/Third_Party/FreeRTOS/Source/portable/MemMang/heap_4.c **** 					{
 217:../../core/ST/Middlewares/Third_Party/FreeRTOS/Source/portable/MemMang/heap_4.c **** 						mtCOVERAGE_TEST_MARKER();
 218:../../core/ST/Middlewares/Third_Party/FreeRTOS/Source/portable/MemMang/heap_4.c **** 					}
 219:../../core/ST/Middlewares/Third_Party/FreeRTOS/Source/portable/MemMang/heap_4.c **** 
 220:../../core/ST/Middlewares/Third_Party/FreeRTOS/Source/portable/MemMang/heap_4.c **** 					/* The block is being returned - it is allocated and owned
 221:../../core/ST/Middlewares/Third_Party/FreeRTOS/Source/portable/MemMang/heap_4.c **** 					by the application and has no "next" block. */
 222:../../core/ST/Middlewares/Third_Party/FreeRTOS/Source/portable/MemMang/heap_4.c **** 					pxBlock->xBlockSize |= xBlockAllocatedBit;
 223:../../core/ST/Middlewares/Third_Party/FreeRTOS/Source/portable/MemMang/heap_4.c **** 					pxBlock->pxNextFreeBlock = NULL;
 224:../../core/ST/Middlewares/Third_Party/FreeRTOS/Source/portable/MemMang/heap_4.c **** 				}
 225:../../core/ST/Middlewares/Third_Party/FreeRTOS/Source/portable/MemMang/heap_4.c **** 				else
 226:../../core/ST/Middlewares/Third_Party/FreeRTOS/Source/portable/MemMang/heap_4.c **** 				{
 227:../../core/ST/Middlewares/Third_Party/FreeRTOS/Source/portable/MemMang/heap_4.c **** 					mtCOVERAGE_TEST_MARKER();
 228:../../core/ST/Middlewares/Third_Party/FreeRTOS/Source/portable/MemMang/heap_4.c **** 				}
 229:../../core/ST/Middlewares/Third_Party/FreeRTOS/Source/portable/MemMang/heap_4.c **** 			}
 230:../../core/ST/Middlewares/Third_Party/FreeRTOS/Source/portable/MemMang/heap_4.c **** 			else
 231:../../core/ST/Middlewares/Third_Party/FreeRTOS/Source/portable/MemMang/heap_4.c **** 			{
 232:../../core/ST/Middlewares/Third_Party/FreeRTOS/Source/portable/MemMang/heap_4.c **** 				mtCOVERAGE_TEST_MARKER();
 233:../../core/ST/Middlewares/Third_Party/FreeRTOS/Source/portable/MemMang/heap_4.c **** 			}
 234:../../core/ST/Middlewares/Third_Party/FreeRTOS/Source/portable/MemMang/heap_4.c **** 		}
 235:../../core/ST/Middlewares/Third_Party/FreeRTOS/Source/portable/MemMang/heap_4.c **** 		else
 236:../../core/ST/Middlewares/Third_Party/FreeRTOS/Source/portable/MemMang/heap_4.c **** 		{
 237:../../core/ST/Middlewares/Third_Party/FreeRTOS/Source/portable/MemMang/heap_4.c **** 			mtCOVERAGE_TEST_MARKER();
 238:../../core/ST/Middlewares/Third_Party/FreeRTOS/Source/portable/MemMang/heap_4.c **** 		}
 239:../../core/ST/Middlewares/Third_Party/FreeRTOS/Source/portable/MemMang/heap_4.c **** 
 240:../../core/ST/Middlewares/Third_Party/FreeRTOS/Source/portable/MemMang/heap_4.c **** 		traceMALLOC( pvReturn, xWantedSize );
 241:../../core/ST/Middlewares/Third_Party/FreeRTOS/Source/portable/MemMang/heap_4.c **** 	}
 242:../../core/ST/Middlewares/Third_Party/FreeRTOS/Source/portable/MemMang/heap_4.c **** 	( void ) xTaskResumeAll();
 243:../../core/ST/Middlewares/Third_Party/FreeRTOS/Source/portable/MemMang/heap_4.c **** 
 244:../../core/ST/Middlewares/Third_Party/FreeRTOS/Source/portable/MemMang/heap_4.c **** 	#if( configUSE_MALLOC_FAILED_HOOK == 1 )
 245:../../core/ST/Middlewares/Third_Party/FreeRTOS/Source/portable/MemMang/heap_4.c **** 	{
 246:../../core/ST/Middlewares/Third_Party/FreeRTOS/Source/portable/MemMang/heap_4.c **** 		if( pvReturn == NULL )
 247:../../core/ST/Middlewares/Third_Party/FreeRTOS/Source/portable/MemMang/heap_4.c **** 		{
 248:../../core/ST/Middlewares/Third_Party/FreeRTOS/Source/portable/MemMang/heap_4.c **** 			extern void vApplicationMallocFailedHook( void );
 249:../../core/ST/Middlewares/Third_Party/FreeRTOS/Source/portable/MemMang/heap_4.c **** 			vApplicationMallocFailedHook();
 250:../../core/ST/Middlewares/Third_Party/FreeRTOS/Source/portable/MemMang/heap_4.c **** 		}
 251:../../core/ST/Middlewares/Third_Party/FreeRTOS/Source/portable/MemMang/heap_4.c **** 		else
 252:../../core/ST/Middlewares/Third_Party/FreeRTOS/Source/portable/MemMang/heap_4.c **** 		{
 253:../../core/ST/Middlewares/Third_Party/FreeRTOS/Source/portable/MemMang/heap_4.c **** 			mtCOVERAGE_TEST_MARKER();
 254:../../core/ST/Middlewares/Third_Party/FreeRTOS/Source/portable/MemMang/heap_4.c **** 		}
 255:../../core/ST/Middlewares/Third_Party/FreeRTOS/Source/portable/MemMang/heap_4.c **** 	}
 256:../../core/ST/Middlewares/Third_Party/FreeRTOS/Source/portable/MemMang/heap_4.c **** 	#endif
 257:../../core/ST/Middlewares/Third_Party/FreeRTOS/Source/portable/MemMang/heap_4.c **** 
 258:../../core/ST/Middlewares/Third_Party/FreeRTOS/Source/portable/MemMang/heap_4.c **** 	configASSERT( ( ( ( size_t ) pvReturn ) & ( size_t ) portBYTE_ALIGNMENT_MASK ) == 0 );
 259:../../core/ST/Middlewares/Third_Party/FreeRTOS/Source/portable/MemMang/heap_4.c **** 	return pvReturn;
ARM GAS  C:\Users\yvesk\AppData\Local\Temp\ccpIoJST.s 			page 6


 260:../../core/ST/Middlewares/Third_Party/FreeRTOS/Source/portable/MemMang/heap_4.c **** }
 261:../../core/ST/Middlewares/Third_Party/FreeRTOS/Source/portable/MemMang/heap_4.c **** /*-----------------------------------------------------------*/
 262:../../core/ST/Middlewares/Third_Party/FreeRTOS/Source/portable/MemMang/heap_4.c **** 
 263:../../core/ST/Middlewares/Third_Party/FreeRTOS/Source/portable/MemMang/heap_4.c **** void vPortFree( void *pv )
 264:../../core/ST/Middlewares/Third_Party/FreeRTOS/Source/portable/MemMang/heap_4.c **** {
 265:../../core/ST/Middlewares/Third_Party/FreeRTOS/Source/portable/MemMang/heap_4.c **** uint8_t *puc = ( uint8_t * ) pv;
 266:../../core/ST/Middlewares/Third_Party/FreeRTOS/Source/portable/MemMang/heap_4.c **** BlockLink_t *pxLink;
 267:../../core/ST/Middlewares/Third_Party/FreeRTOS/Source/portable/MemMang/heap_4.c **** 
 268:../../core/ST/Middlewares/Third_Party/FreeRTOS/Source/portable/MemMang/heap_4.c **** 	if( pv != NULL )
 269:../../core/ST/Middlewares/Third_Party/FreeRTOS/Source/portable/MemMang/heap_4.c **** 	{
 270:../../core/ST/Middlewares/Third_Party/FreeRTOS/Source/portable/MemMang/heap_4.c **** 		/* The memory being freed will have an BlockLink_t structure immediately
 271:../../core/ST/Middlewares/Third_Party/FreeRTOS/Source/portable/MemMang/heap_4.c **** 		before it. */
 272:../../core/ST/Middlewares/Third_Party/FreeRTOS/Source/portable/MemMang/heap_4.c **** 		puc -= xHeapStructSize;
 273:../../core/ST/Middlewares/Third_Party/FreeRTOS/Source/portable/MemMang/heap_4.c **** 
 274:../../core/ST/Middlewares/Third_Party/FreeRTOS/Source/portable/MemMang/heap_4.c **** 		/* This casting is to keep the compiler from issuing warnings. */
 275:../../core/ST/Middlewares/Third_Party/FreeRTOS/Source/portable/MemMang/heap_4.c **** 		pxLink = ( void * ) puc;
 276:../../core/ST/Middlewares/Third_Party/FreeRTOS/Source/portable/MemMang/heap_4.c **** 
 277:../../core/ST/Middlewares/Third_Party/FreeRTOS/Source/portable/MemMang/heap_4.c **** 		/* Check the block is actually allocated. */
 278:../../core/ST/Middlewares/Third_Party/FreeRTOS/Source/portable/MemMang/heap_4.c **** 		configASSERT( ( pxLink->xBlockSize & xBlockAllocatedBit ) != 0 );
 279:../../core/ST/Middlewares/Third_Party/FreeRTOS/Source/portable/MemMang/heap_4.c **** 		configASSERT( pxLink->pxNextFreeBlock == NULL );
 280:../../core/ST/Middlewares/Third_Party/FreeRTOS/Source/portable/MemMang/heap_4.c **** 
 281:../../core/ST/Middlewares/Third_Party/FreeRTOS/Source/portable/MemMang/heap_4.c **** 		if( ( pxLink->xBlockSize & xBlockAllocatedBit ) != 0 )
 282:../../core/ST/Middlewares/Third_Party/FreeRTOS/Source/portable/MemMang/heap_4.c **** 		{
 283:../../core/ST/Middlewares/Third_Party/FreeRTOS/Source/portable/MemMang/heap_4.c **** 			if( pxLink->pxNextFreeBlock == NULL )
 284:../../core/ST/Middlewares/Third_Party/FreeRTOS/Source/portable/MemMang/heap_4.c **** 			{
 285:../../core/ST/Middlewares/Third_Party/FreeRTOS/Source/portable/MemMang/heap_4.c **** 				/* The block is being returned to the heap - it is no longer
 286:../../core/ST/Middlewares/Third_Party/FreeRTOS/Source/portable/MemMang/heap_4.c **** 				allocated. */
 287:../../core/ST/Middlewares/Third_Party/FreeRTOS/Source/portable/MemMang/heap_4.c **** 				pxLink->xBlockSize &= ~xBlockAllocatedBit;
 288:../../core/ST/Middlewares/Third_Party/FreeRTOS/Source/portable/MemMang/heap_4.c **** 
 289:../../core/ST/Middlewares/Third_Party/FreeRTOS/Source/portable/MemMang/heap_4.c **** 				vTaskSuspendAll();
 290:../../core/ST/Middlewares/Third_Party/FreeRTOS/Source/portable/MemMang/heap_4.c **** 				{
 291:../../core/ST/Middlewares/Third_Party/FreeRTOS/Source/portable/MemMang/heap_4.c **** 					/* Add this block to the list of free blocks. */
 292:../../core/ST/Middlewares/Third_Party/FreeRTOS/Source/portable/MemMang/heap_4.c **** 					xFreeBytesRemaining += pxLink->xBlockSize;
 293:../../core/ST/Middlewares/Third_Party/FreeRTOS/Source/portable/MemMang/heap_4.c **** 					traceFREE( pv, pxLink->xBlockSize );
 294:../../core/ST/Middlewares/Third_Party/FreeRTOS/Source/portable/MemMang/heap_4.c **** 					prvInsertBlockIntoFreeList( ( ( BlockLink_t * ) pxLink ) );
 295:../../core/ST/Middlewares/Third_Party/FreeRTOS/Source/portable/MemMang/heap_4.c **** 				}
 296:../../core/ST/Middlewares/Third_Party/FreeRTOS/Source/portable/MemMang/heap_4.c **** 				( void ) xTaskResumeAll();
 297:../../core/ST/Middlewares/Third_Party/FreeRTOS/Source/portable/MemMang/heap_4.c **** 			}
 298:../../core/ST/Middlewares/Third_Party/FreeRTOS/Source/portable/MemMang/heap_4.c **** 			else
 299:../../core/ST/Middlewares/Third_Party/FreeRTOS/Source/portable/MemMang/heap_4.c **** 			{
 300:../../core/ST/Middlewares/Third_Party/FreeRTOS/Source/portable/MemMang/heap_4.c **** 				mtCOVERAGE_TEST_MARKER();
 301:../../core/ST/Middlewares/Third_Party/FreeRTOS/Source/portable/MemMang/heap_4.c **** 			}
 302:../../core/ST/Middlewares/Third_Party/FreeRTOS/Source/portable/MemMang/heap_4.c **** 		}
 303:../../core/ST/Middlewares/Third_Party/FreeRTOS/Source/portable/MemMang/heap_4.c **** 		else
 304:../../core/ST/Middlewares/Third_Party/FreeRTOS/Source/portable/MemMang/heap_4.c **** 		{
 305:../../core/ST/Middlewares/Third_Party/FreeRTOS/Source/portable/MemMang/heap_4.c **** 			mtCOVERAGE_TEST_MARKER();
 306:../../core/ST/Middlewares/Third_Party/FreeRTOS/Source/portable/MemMang/heap_4.c **** 		}
 307:../../core/ST/Middlewares/Third_Party/FreeRTOS/Source/portable/MemMang/heap_4.c **** 	}
 308:../../core/ST/Middlewares/Third_Party/FreeRTOS/Source/portable/MemMang/heap_4.c **** }
 309:../../core/ST/Middlewares/Third_Party/FreeRTOS/Source/portable/MemMang/heap_4.c **** /*-----------------------------------------------------------*/
 310:../../core/ST/Middlewares/Third_Party/FreeRTOS/Source/portable/MemMang/heap_4.c **** 
 311:../../core/ST/Middlewares/Third_Party/FreeRTOS/Source/portable/MemMang/heap_4.c **** size_t xPortGetFreeHeapSize( void )
 312:../../core/ST/Middlewares/Third_Party/FreeRTOS/Source/portable/MemMang/heap_4.c **** {
 313:../../core/ST/Middlewares/Third_Party/FreeRTOS/Source/portable/MemMang/heap_4.c **** 	return xFreeBytesRemaining;
 314:../../core/ST/Middlewares/Third_Party/FreeRTOS/Source/portable/MemMang/heap_4.c **** }
 315:../../core/ST/Middlewares/Third_Party/FreeRTOS/Source/portable/MemMang/heap_4.c **** /*-----------------------------------------------------------*/
 316:../../core/ST/Middlewares/Third_Party/FreeRTOS/Source/portable/MemMang/heap_4.c **** 
ARM GAS  C:\Users\yvesk\AppData\Local\Temp\ccpIoJST.s 			page 7


 317:../../core/ST/Middlewares/Third_Party/FreeRTOS/Source/portable/MemMang/heap_4.c **** size_t xPortGetMinimumEverFreeHeapSize( void )
 318:../../core/ST/Middlewares/Third_Party/FreeRTOS/Source/portable/MemMang/heap_4.c **** {
 319:../../core/ST/Middlewares/Third_Party/FreeRTOS/Source/portable/MemMang/heap_4.c **** 	return xMinimumEverFreeBytesRemaining;
 320:../../core/ST/Middlewares/Third_Party/FreeRTOS/Source/portable/MemMang/heap_4.c **** }
 321:../../core/ST/Middlewares/Third_Party/FreeRTOS/Source/portable/MemMang/heap_4.c **** /*-----------------------------------------------------------*/
 322:../../core/ST/Middlewares/Third_Party/FreeRTOS/Source/portable/MemMang/heap_4.c **** 
 323:../../core/ST/Middlewares/Third_Party/FreeRTOS/Source/portable/MemMang/heap_4.c **** void vPortInitialiseBlocks( void )
 324:../../core/ST/Middlewares/Third_Party/FreeRTOS/Source/portable/MemMang/heap_4.c **** {
 325:../../core/ST/Middlewares/Third_Party/FreeRTOS/Source/portable/MemMang/heap_4.c **** 	/* This just exists to keep the linker quiet. */
 326:../../core/ST/Middlewares/Third_Party/FreeRTOS/Source/portable/MemMang/heap_4.c **** }
 327:../../core/ST/Middlewares/Third_Party/FreeRTOS/Source/portable/MemMang/heap_4.c **** /*-----------------------------------------------------------*/
 328:../../core/ST/Middlewares/Third_Party/FreeRTOS/Source/portable/MemMang/heap_4.c **** 
 329:../../core/ST/Middlewares/Third_Party/FreeRTOS/Source/portable/MemMang/heap_4.c **** static void prvHeapInit( void )
 330:../../core/ST/Middlewares/Third_Party/FreeRTOS/Source/portable/MemMang/heap_4.c **** {
  28              		.loc 1 330 1 view -0
  29              		.cfi_startproc
  30              		@ args = 0, pretend = 0, frame = 0
  31              		@ frame_needed = 0, uses_anonymous_args = 0
  32              		@ link register save eliminated.
 331:../../core/ST/Middlewares/Third_Party/FreeRTOS/Source/portable/MemMang/heap_4.c **** BlockLink_t *pxFirstFreeBlock;
  33              		.loc 1 331 1 view .LVU1
 332:../../core/ST/Middlewares/Third_Party/FreeRTOS/Source/portable/MemMang/heap_4.c **** uint8_t *pucAlignedHeap;
  34              		.loc 1 332 1 view .LVU2
 333:../../core/ST/Middlewares/Third_Party/FreeRTOS/Source/portable/MemMang/heap_4.c **** size_t uxAddress;
  35              		.loc 1 333 1 view .LVU3
 334:../../core/ST/Middlewares/Third_Party/FreeRTOS/Source/portable/MemMang/heap_4.c **** size_t xTotalHeapSize = configTOTAL_HEAP_SIZE;
  36              		.loc 1 334 1 view .LVU4
  37              	.LVL0:
 335:../../core/ST/Middlewares/Third_Party/FreeRTOS/Source/portable/MemMang/heap_4.c **** 
 336:../../core/ST/Middlewares/Third_Party/FreeRTOS/Source/portable/MemMang/heap_4.c **** 	/* Ensure the heap starts on a correctly aligned boundary. */
 337:../../core/ST/Middlewares/Third_Party/FreeRTOS/Source/portable/MemMang/heap_4.c **** 	uxAddress = ( size_t ) ucHeap;
  38              		.loc 1 337 2 view .LVU5
  39              		.loc 1 337 12 is_stmt 0 view .LVU6
  40 0000 124A     		ldr	r2, .L4
  41              	.LVL1:
 338:../../core/ST/Middlewares/Third_Party/FreeRTOS/Source/portable/MemMang/heap_4.c **** 
 339:../../core/ST/Middlewares/Third_Party/FreeRTOS/Source/portable/MemMang/heap_4.c **** 	if( ( uxAddress & portBYTE_ALIGNMENT_MASK ) != 0 )
  42              		.loc 1 339 2 is_stmt 1 view .LVU7
  43              		.loc 1 339 4 is_stmt 0 view .LVU8
  44 0002 12F0070F 		tst	r2, #7
  45 0006 07D0     		beq	.L3
 340:../../core/ST/Middlewares/Third_Party/FreeRTOS/Source/portable/MemMang/heap_4.c **** 	{
 341:../../core/ST/Middlewares/Third_Party/FreeRTOS/Source/portable/MemMang/heap_4.c **** 		uxAddress += ( portBYTE_ALIGNMENT - 1 );
  46              		.loc 1 341 3 is_stmt 1 view .LVU9
  47              		.loc 1 341 13 is_stmt 0 view .LVU10
  48 0008 D11D     		adds	r1, r2, #7
  49              	.LVL2:
 342:../../core/ST/Middlewares/Third_Party/FreeRTOS/Source/portable/MemMang/heap_4.c **** 		uxAddress &= ~( ( size_t ) portBYTE_ALIGNMENT_MASK );
  50              		.loc 1 342 3 is_stmt 1 view .LVU11
  51              		.loc 1 342 13 is_stmt 0 view .LVU12
  52 000a 21F00701 		bic	r1, r1, #7
  53              	.LVL3:
 343:../../core/ST/Middlewares/Third_Party/FreeRTOS/Source/portable/MemMang/heap_4.c **** 		xTotalHeapSize -= uxAddress - ( size_t ) ucHeap;
  54              		.loc 1 343 3 is_stmt 1 view .LVU13
  55              		.loc 1 343 18 is_stmt 0 view .LVU14
  56 000e C1F51033 		rsb	r3, r1, #147456
  57 0012 1344     		add	r3, r3, r2
ARM GAS  C:\Users\yvesk\AppData\Local\Temp\ccpIoJST.s 			page 8


  58              	.LVL4:
 342:../../core/ST/Middlewares/Third_Party/FreeRTOS/Source/portable/MemMang/heap_4.c **** 		uxAddress &= ~( ( size_t ) portBYTE_ALIGNMENT_MASK );
  59              		.loc 1 342 13 view .LVU15
  60 0014 0A46     		mov	r2, r1
  61 0016 01E0     		b	.L2
  62              	.LVL5:
  63              	.L3:
 334:../../core/ST/Middlewares/Third_Party/FreeRTOS/Source/portable/MemMang/heap_4.c **** 
  64              		.loc 1 334 8 view .LVU16
  65 0018 4FF41033 		mov	r3, #147456
  66              	.LVL6:
  67              	.L2:
 344:../../core/ST/Middlewares/Third_Party/FreeRTOS/Source/portable/MemMang/heap_4.c **** 	}
 345:../../core/ST/Middlewares/Third_Party/FreeRTOS/Source/portable/MemMang/heap_4.c **** 
 346:../../core/ST/Middlewares/Third_Party/FreeRTOS/Source/portable/MemMang/heap_4.c **** 	pucAlignedHeap = ( uint8_t * ) uxAddress;
  68              		.loc 1 346 2 is_stmt 1 view .LVU17
 347:../../core/ST/Middlewares/Third_Party/FreeRTOS/Source/portable/MemMang/heap_4.c **** 
 348:../../core/ST/Middlewares/Third_Party/FreeRTOS/Source/portable/MemMang/heap_4.c **** 	/* xStart is used to hold a pointer to the first item in the list of free
 349:../../core/ST/Middlewares/Third_Party/FreeRTOS/Source/portable/MemMang/heap_4.c **** 	blocks.  The void cast is used to prevent compiler warnings. */
 350:../../core/ST/Middlewares/Third_Party/FreeRTOS/Source/portable/MemMang/heap_4.c **** 	xStart.pxNextFreeBlock = ( void * ) pucAlignedHeap;
  69              		.loc 1 350 2 view .LVU18
  70              		.loc 1 350 25 is_stmt 0 view .LVU19
  71 001c 0C48     		ldr	r0, .L4+4
  72 001e 0260     		str	r2, [r0]
 351:../../core/ST/Middlewares/Third_Party/FreeRTOS/Source/portable/MemMang/heap_4.c **** 	xStart.xBlockSize = ( size_t ) 0;
  73              		.loc 1 351 2 is_stmt 1 view .LVU20
  74              		.loc 1 351 20 is_stmt 0 view .LVU21
  75 0020 0021     		movs	r1, #0
  76 0022 4160     		str	r1, [r0, #4]
 352:../../core/ST/Middlewares/Third_Party/FreeRTOS/Source/portable/MemMang/heap_4.c **** 
 353:../../core/ST/Middlewares/Third_Party/FreeRTOS/Source/portable/MemMang/heap_4.c **** 	/* pxEnd is used to mark the end of the list of free blocks and is inserted
 354:../../core/ST/Middlewares/Third_Party/FreeRTOS/Source/portable/MemMang/heap_4.c **** 	at the end of the heap space. */
 355:../../core/ST/Middlewares/Third_Party/FreeRTOS/Source/portable/MemMang/heap_4.c **** 	uxAddress = ( ( size_t ) pucAlignedHeap ) + xTotalHeapSize;
  77              		.loc 1 355 2 is_stmt 1 view .LVU22
  78              		.loc 1 355 12 is_stmt 0 view .LVU23
  79 0024 1344     		add	r3, r3, r2
  80              	.LVL7:
 356:../../core/ST/Middlewares/Third_Party/FreeRTOS/Source/portable/MemMang/heap_4.c **** 	uxAddress -= xHeapStructSize;
  81              		.loc 1 356 2 is_stmt 1 view .LVU24
  82              		.loc 1 356 12 is_stmt 0 view .LVU25
  83 0026 083B     		subs	r3, r3, #8
  84              	.LVL8:
 357:../../core/ST/Middlewares/Third_Party/FreeRTOS/Source/portable/MemMang/heap_4.c **** 	uxAddress &= ~( ( size_t ) portBYTE_ALIGNMENT_MASK );
  85              		.loc 1 357 2 is_stmt 1 view .LVU26
  86              		.loc 1 357 12 is_stmt 0 view .LVU27
  87 0028 23F00703 		bic	r3, r3, #7
  88              	.LVL9:
 358:../../core/ST/Middlewares/Third_Party/FreeRTOS/Source/portable/MemMang/heap_4.c **** 	pxEnd = ( void * ) uxAddress;
  89              		.loc 1 358 2 is_stmt 1 view .LVU28
  90              		.loc 1 358 8 is_stmt 0 view .LVU29
  91 002c 0948     		ldr	r0, .L4+8
  92 002e 0360     		str	r3, [r0]
 359:../../core/ST/Middlewares/Third_Party/FreeRTOS/Source/portable/MemMang/heap_4.c **** 	pxEnd->xBlockSize = 0;
  93              		.loc 1 359 2 is_stmt 1 view .LVU30
  94              		.loc 1 359 20 is_stmt 0 view .LVU31
  95 0030 5960     		str	r1, [r3, #4]
 360:../../core/ST/Middlewares/Third_Party/FreeRTOS/Source/portable/MemMang/heap_4.c **** 	pxEnd->pxNextFreeBlock = NULL;
ARM GAS  C:\Users\yvesk\AppData\Local\Temp\ccpIoJST.s 			page 9


  96              		.loc 1 360 2 is_stmt 1 view .LVU32
  97              		.loc 1 360 25 is_stmt 0 view .LVU33
  98 0032 1960     		str	r1, [r3]
 361:../../core/ST/Middlewares/Third_Party/FreeRTOS/Source/portable/MemMang/heap_4.c **** 
 362:../../core/ST/Middlewares/Third_Party/FreeRTOS/Source/portable/MemMang/heap_4.c **** 	/* To start with there is a single free block that is sized to take up the
 363:../../core/ST/Middlewares/Third_Party/FreeRTOS/Source/portable/MemMang/heap_4.c **** 	entire heap space, minus the space taken by pxEnd. */
 364:../../core/ST/Middlewares/Third_Party/FreeRTOS/Source/portable/MemMang/heap_4.c **** 	pxFirstFreeBlock = ( void * ) pucAlignedHeap;
  99              		.loc 1 364 2 is_stmt 1 view .LVU34
 100              	.LVL10:
 365:../../core/ST/Middlewares/Third_Party/FreeRTOS/Source/portable/MemMang/heap_4.c **** 	pxFirstFreeBlock->xBlockSize = uxAddress - ( size_t ) pxFirstFreeBlock;
 101              		.loc 1 365 2 view .LVU35
 102              		.loc 1 365 43 is_stmt 0 view .LVU36
 103 0034 991A     		subs	r1, r3, r2
 104              		.loc 1 365 31 view .LVU37
 105 0036 5160     		str	r1, [r2, #4]
 366:../../core/ST/Middlewares/Third_Party/FreeRTOS/Source/portable/MemMang/heap_4.c **** 	pxFirstFreeBlock->pxNextFreeBlock = pxEnd;
 106              		.loc 1 366 2 is_stmt 1 view .LVU38
 107              		.loc 1 366 36 is_stmt 0 view .LVU39
 108 0038 1360     		str	r3, [r2]
 367:../../core/ST/Middlewares/Third_Party/FreeRTOS/Source/portable/MemMang/heap_4.c **** 
 368:../../core/ST/Middlewares/Third_Party/FreeRTOS/Source/portable/MemMang/heap_4.c **** 	/* Only one block exists - and it covers the entire usable heap space. */
 369:../../core/ST/Middlewares/Third_Party/FreeRTOS/Source/portable/MemMang/heap_4.c **** 	xMinimumEverFreeBytesRemaining = pxFirstFreeBlock->xBlockSize;
 109              		.loc 1 369 2 is_stmt 1 view .LVU40
 110              		.loc 1 369 33 is_stmt 0 view .LVU41
 111 003a 074B     		ldr	r3, .L4+12
 112              	.LVL11:
 113              		.loc 1 369 33 view .LVU42
 114 003c 1960     		str	r1, [r3]
 370:../../core/ST/Middlewares/Third_Party/FreeRTOS/Source/portable/MemMang/heap_4.c **** 	xFreeBytesRemaining = pxFirstFreeBlock->xBlockSize;
 115              		.loc 1 370 2 is_stmt 1 view .LVU43
 116              		.loc 1 370 22 is_stmt 0 view .LVU44
 117 003e 074B     		ldr	r3, .L4+16
 118 0040 1960     		str	r1, [r3]
 371:../../core/ST/Middlewares/Third_Party/FreeRTOS/Source/portable/MemMang/heap_4.c **** 
 372:../../core/ST/Middlewares/Third_Party/FreeRTOS/Source/portable/MemMang/heap_4.c **** 	/* Work out the position of the top bit in a size_t variable. */
 373:../../core/ST/Middlewares/Third_Party/FreeRTOS/Source/portable/MemMang/heap_4.c **** 	xBlockAllocatedBit = ( ( size_t ) 1 ) << ( ( sizeof( size_t ) * heapBITS_PER_BYTE ) - 1 );
 119              		.loc 1 373 2 is_stmt 1 view .LVU45
 120              		.loc 1 373 21 is_stmt 0 view .LVU46
 121 0042 074B     		ldr	r3, .L4+20
 122 0044 4FF00042 		mov	r2, #-2147483648
 123              	.LVL12:
 124              		.loc 1 373 21 view .LVU47
 125 0048 1A60     		str	r2, [r3]
 374:../../core/ST/Middlewares/Third_Party/FreeRTOS/Source/portable/MemMang/heap_4.c **** }
 126              		.loc 1 374 1 view .LVU48
 127 004a 7047     		bx	lr
 128              	.L5:
 129              		.align	2
 130              	.L4:
 131 004c 00000000 		.word	ucHeap
 132 0050 00000000 		.word	.LANCHOR0
 133 0054 00000000 		.word	.LANCHOR1
 134 0058 00000000 		.word	.LANCHOR2
 135 005c 00000000 		.word	.LANCHOR3
 136 0060 00000000 		.word	.LANCHOR4
 137              		.cfi_endproc
 138              	.LFE10:
ARM GAS  C:\Users\yvesk\AppData\Local\Temp\ccpIoJST.s 			page 10


 140              		.section	.text.prvInsertBlockIntoFreeList,"ax",%progbits
 141              		.align	1
 142              		.syntax unified
 143              		.thumb
 144              		.thumb_func
 145              		.fpu fpv4-sp-d16
 147              	prvInsertBlockIntoFreeList:
 148              	.LVL13:
 149              	.LFB11:
 375:../../core/ST/Middlewares/Third_Party/FreeRTOS/Source/portable/MemMang/heap_4.c **** /*-----------------------------------------------------------*/
 376:../../core/ST/Middlewares/Third_Party/FreeRTOS/Source/portable/MemMang/heap_4.c **** 
 377:../../core/ST/Middlewares/Third_Party/FreeRTOS/Source/portable/MemMang/heap_4.c **** static void prvInsertBlockIntoFreeList( BlockLink_t *pxBlockToInsert )
 378:../../core/ST/Middlewares/Third_Party/FreeRTOS/Source/portable/MemMang/heap_4.c **** {
 150              		.loc 1 378 1 is_stmt 1 view -0
 151              		.cfi_startproc
 152              		@ args = 0, pretend = 0, frame = 0
 153              		@ frame_needed = 0, uses_anonymous_args = 0
 154              		@ link register save eliminated.
 155              		.loc 1 378 1 is_stmt 0 view .LVU50
 156 0000 10B4     		push	{r4}
 157              	.LCFI0:
 158              		.cfi_def_cfa_offset 4
 159              		.cfi_offset 4, -4
 379:../../core/ST/Middlewares/Third_Party/FreeRTOS/Source/portable/MemMang/heap_4.c **** BlockLink_t *pxIterator;
 160              		.loc 1 379 1 is_stmt 1 view .LVU51
 380:../../core/ST/Middlewares/Third_Party/FreeRTOS/Source/portable/MemMang/heap_4.c **** uint8_t *puc;
 161              		.loc 1 380 1 view .LVU52
 381:../../core/ST/Middlewares/Third_Party/FreeRTOS/Source/portable/MemMang/heap_4.c **** 
 382:../../core/ST/Middlewares/Third_Party/FreeRTOS/Source/portable/MemMang/heap_4.c **** 	/* Iterate through the list until a block is found that has a higher address
 383:../../core/ST/Middlewares/Third_Party/FreeRTOS/Source/portable/MemMang/heap_4.c **** 	than the block being inserted. */
 384:../../core/ST/Middlewares/Third_Party/FreeRTOS/Source/portable/MemMang/heap_4.c **** 	for( pxIterator = &xStart; pxIterator->pxNextFreeBlock < pxBlockToInsert; pxIterator = pxIterator-
 162              		.loc 1 384 2 view .LVU53
 163              	.LVL14:
 164              		.loc 1 384 18 is_stmt 0 view .LVU54
 165 0002 134A     		ldr	r2, .L17
 166              		.loc 1 384 2 view .LVU55
 167 0004 00E0     		b	.L7
 168              	.LVL15:
 169              	.L13:
 170              		.loc 1 384 87 view .LVU56
 171 0006 1A46     		mov	r2, r3
 172              	.LVL16:
 173              	.L7:
 174              		.loc 1 384 39 discriminator 1 view .LVU57
 175 0008 1368     		ldr	r3, [r2]
 176              		.loc 1 384 2 discriminator 1 view .LVU58
 177 000a 8342     		cmp	r3, r0
 178 000c FBD3     		bcc	.L13
 385:../../core/ST/Middlewares/Third_Party/FreeRTOS/Source/portable/MemMang/heap_4.c **** 	{
 386:../../core/ST/Middlewares/Third_Party/FreeRTOS/Source/portable/MemMang/heap_4.c **** 		/* Nothing to do here, just iterate to the right position. */
 387:../../core/ST/Middlewares/Third_Party/FreeRTOS/Source/portable/MemMang/heap_4.c **** 	}
 388:../../core/ST/Middlewares/Third_Party/FreeRTOS/Source/portable/MemMang/heap_4.c **** 
 389:../../core/ST/Middlewares/Third_Party/FreeRTOS/Source/portable/MemMang/heap_4.c **** 	/* Do the block being inserted, and the block it is being inserted after
 390:../../core/ST/Middlewares/Third_Party/FreeRTOS/Source/portable/MemMang/heap_4.c **** 	make a contiguous block of memory? */
 391:../../core/ST/Middlewares/Third_Party/FreeRTOS/Source/portable/MemMang/heap_4.c **** 	puc = ( uint8_t * ) pxIterator;
 179              		.loc 1 391 2 is_stmt 1 view .LVU59
 180              	.LVL17:
ARM GAS  C:\Users\yvesk\AppData\Local\Temp\ccpIoJST.s 			page 11


 392:../../core/ST/Middlewares/Third_Party/FreeRTOS/Source/portable/MemMang/heap_4.c **** 	if( ( puc + pxIterator->xBlockSize ) == ( uint8_t * ) pxBlockToInsert )
 181              		.loc 1 392 2 view .LVU60
 182              		.loc 1 392 24 is_stmt 0 view .LVU61
 183 000e 5168     		ldr	r1, [r2, #4]
 184              		.loc 1 392 12 view .LVU62
 185 0010 5418     		adds	r4, r2, r1
 186              		.loc 1 392 4 view .LVU63
 187 0012 8442     		cmp	r4, r0
 188 0014 0AD0     		beq	.L15
 189              	.L8:
 393:../../core/ST/Middlewares/Third_Party/FreeRTOS/Source/portable/MemMang/heap_4.c **** 	{
 394:../../core/ST/Middlewares/Third_Party/FreeRTOS/Source/portable/MemMang/heap_4.c **** 		pxIterator->xBlockSize += pxBlockToInsert->xBlockSize;
 395:../../core/ST/Middlewares/Third_Party/FreeRTOS/Source/portable/MemMang/heap_4.c **** 		pxBlockToInsert = pxIterator;
 396:../../core/ST/Middlewares/Third_Party/FreeRTOS/Source/portable/MemMang/heap_4.c **** 	}
 397:../../core/ST/Middlewares/Third_Party/FreeRTOS/Source/portable/MemMang/heap_4.c **** 	else
 398:../../core/ST/Middlewares/Third_Party/FreeRTOS/Source/portable/MemMang/heap_4.c **** 	{
 399:../../core/ST/Middlewares/Third_Party/FreeRTOS/Source/portable/MemMang/heap_4.c **** 		mtCOVERAGE_TEST_MARKER();
 190              		.loc 1 399 27 is_stmt 1 view .LVU64
 400:../../core/ST/Middlewares/Third_Party/FreeRTOS/Source/portable/MemMang/heap_4.c **** 	}
 401:../../core/ST/Middlewares/Third_Party/FreeRTOS/Source/portable/MemMang/heap_4.c **** 
 402:../../core/ST/Middlewares/Third_Party/FreeRTOS/Source/portable/MemMang/heap_4.c **** 	/* Do the block being inserted, and the block it is being inserted before
 403:../../core/ST/Middlewares/Third_Party/FreeRTOS/Source/portable/MemMang/heap_4.c **** 	make a contiguous block of memory? */
 404:../../core/ST/Middlewares/Third_Party/FreeRTOS/Source/portable/MemMang/heap_4.c **** 	puc = ( uint8_t * ) pxBlockToInsert;
 191              		.loc 1 404 2 view .LVU65
 192              	.LVL18:
 405:../../core/ST/Middlewares/Third_Party/FreeRTOS/Source/portable/MemMang/heap_4.c **** 	if( ( puc + pxBlockToInsert->xBlockSize ) == ( uint8_t * ) pxIterator->pxNextFreeBlock )
 193              		.loc 1 405 2 view .LVU66
 194              		.loc 1 405 29 is_stmt 0 view .LVU67
 195 0016 4168     		ldr	r1, [r0, #4]
 196              		.loc 1 405 12 view .LVU68
 197 0018 4418     		adds	r4, r0, r1
 198              		.loc 1 405 4 view .LVU69
 199 001a A342     		cmp	r3, r4
 200 001c 0BD0     		beq	.L16
 406:../../core/ST/Middlewares/Third_Party/FreeRTOS/Source/portable/MemMang/heap_4.c **** 	{
 407:../../core/ST/Middlewares/Third_Party/FreeRTOS/Source/portable/MemMang/heap_4.c **** 		if( pxIterator->pxNextFreeBlock != pxEnd )
 408:../../core/ST/Middlewares/Third_Party/FreeRTOS/Source/portable/MemMang/heap_4.c **** 		{
 409:../../core/ST/Middlewares/Third_Party/FreeRTOS/Source/portable/MemMang/heap_4.c **** 			/* Form one big block from the two blocks. */
 410:../../core/ST/Middlewares/Third_Party/FreeRTOS/Source/portable/MemMang/heap_4.c **** 			pxBlockToInsert->xBlockSize += pxIterator->pxNextFreeBlock->xBlockSize;
 411:../../core/ST/Middlewares/Third_Party/FreeRTOS/Source/portable/MemMang/heap_4.c **** 			pxBlockToInsert->pxNextFreeBlock = pxIterator->pxNextFreeBlock->pxNextFreeBlock;
 412:../../core/ST/Middlewares/Third_Party/FreeRTOS/Source/portable/MemMang/heap_4.c **** 		}
 413:../../core/ST/Middlewares/Third_Party/FreeRTOS/Source/portable/MemMang/heap_4.c **** 		else
 414:../../core/ST/Middlewares/Third_Party/FreeRTOS/Source/portable/MemMang/heap_4.c **** 		{
 415:../../core/ST/Middlewares/Third_Party/FreeRTOS/Source/portable/MemMang/heap_4.c **** 			pxBlockToInsert->pxNextFreeBlock = pxEnd;
 416:../../core/ST/Middlewares/Third_Party/FreeRTOS/Source/portable/MemMang/heap_4.c **** 		}
 417:../../core/ST/Middlewares/Third_Party/FreeRTOS/Source/portable/MemMang/heap_4.c **** 	}
 418:../../core/ST/Middlewares/Third_Party/FreeRTOS/Source/portable/MemMang/heap_4.c **** 	else
 419:../../core/ST/Middlewares/Third_Party/FreeRTOS/Source/portable/MemMang/heap_4.c **** 	{
 420:../../core/ST/Middlewares/Third_Party/FreeRTOS/Source/portable/MemMang/heap_4.c **** 		pxBlockToInsert->pxNextFreeBlock = pxIterator->pxNextFreeBlock;
 201              		.loc 1 420 3 is_stmt 1 view .LVU70
 202              		.loc 1 420 36 is_stmt 0 view .LVU71
 203 001e 0360     		str	r3, [r0]
 204              	.L11:
 421:../../core/ST/Middlewares/Third_Party/FreeRTOS/Source/portable/MemMang/heap_4.c **** 	}
 422:../../core/ST/Middlewares/Third_Party/FreeRTOS/Source/portable/MemMang/heap_4.c **** 
 423:../../core/ST/Middlewares/Third_Party/FreeRTOS/Source/portable/MemMang/heap_4.c **** 	/* If the block being inserted plugged a gab, so was merged with the block
 424:../../core/ST/Middlewares/Third_Party/FreeRTOS/Source/portable/MemMang/heap_4.c **** 	before and the block after, then it's pxNextFreeBlock pointer will have
ARM GAS  C:\Users\yvesk\AppData\Local\Temp\ccpIoJST.s 			page 12


 425:../../core/ST/Middlewares/Third_Party/FreeRTOS/Source/portable/MemMang/heap_4.c **** 	already been set, and should not be set here as that would make it point
 426:../../core/ST/Middlewares/Third_Party/FreeRTOS/Source/portable/MemMang/heap_4.c **** 	to itself. */
 427:../../core/ST/Middlewares/Third_Party/FreeRTOS/Source/portable/MemMang/heap_4.c **** 	if( pxIterator != pxBlockToInsert )
 205              		.loc 1 427 2 is_stmt 1 view .LVU72
 206              		.loc 1 427 4 is_stmt 0 view .LVU73
 207 0020 9042     		cmp	r0, r2
 208 0022 00D0     		beq	.L6
 428:../../core/ST/Middlewares/Third_Party/FreeRTOS/Source/portable/MemMang/heap_4.c **** 	{
 429:../../core/ST/Middlewares/Third_Party/FreeRTOS/Source/portable/MemMang/heap_4.c **** 		pxIterator->pxNextFreeBlock = pxBlockToInsert;
 209              		.loc 1 429 3 is_stmt 1 view .LVU74
 210              		.loc 1 429 31 is_stmt 0 view .LVU75
 211 0024 1060     		str	r0, [r2]
 430:../../core/ST/Middlewares/Third_Party/FreeRTOS/Source/portable/MemMang/heap_4.c **** 	}
 431:../../core/ST/Middlewares/Third_Party/FreeRTOS/Source/portable/MemMang/heap_4.c **** 	else
 432:../../core/ST/Middlewares/Third_Party/FreeRTOS/Source/portable/MemMang/heap_4.c **** 	{
 433:../../core/ST/Middlewares/Third_Party/FreeRTOS/Source/portable/MemMang/heap_4.c **** 		mtCOVERAGE_TEST_MARKER();
 212              		.loc 1 433 27 is_stmt 1 view .LVU76
 213              	.L6:
 434:../../core/ST/Middlewares/Third_Party/FreeRTOS/Source/portable/MemMang/heap_4.c **** 	}
 435:../../core/ST/Middlewares/Third_Party/FreeRTOS/Source/portable/MemMang/heap_4.c **** }
 214              		.loc 1 435 1 is_stmt 0 view .LVU77
 215 0026 5DF8044B 		ldr	r4, [sp], #4
 216              	.LCFI1:
 217              		.cfi_remember_state
 218              		.cfi_restore 4
 219              		.cfi_def_cfa_offset 0
 220 002a 7047     		bx	lr
 221              	.LVL19:
 222              	.L15:
 223              	.LCFI2:
 224              		.cfi_restore_state
 394:../../core/ST/Middlewares/Third_Party/FreeRTOS/Source/portable/MemMang/heap_4.c **** 		pxBlockToInsert = pxIterator;
 225              		.loc 1 394 3 is_stmt 1 view .LVU78
 394:../../core/ST/Middlewares/Third_Party/FreeRTOS/Source/portable/MemMang/heap_4.c **** 		pxBlockToInsert = pxIterator;
 226              		.loc 1 394 44 is_stmt 0 view .LVU79
 227 002c 4068     		ldr	r0, [r0, #4]
 228              	.LVL20:
 394:../../core/ST/Middlewares/Third_Party/FreeRTOS/Source/portable/MemMang/heap_4.c **** 		pxBlockToInsert = pxIterator;
 229              		.loc 1 394 26 view .LVU80
 230 002e 0144     		add	r1, r1, r0
 231 0030 5160     		str	r1, [r2, #4]
 395:../../core/ST/Middlewares/Third_Party/FreeRTOS/Source/portable/MemMang/heap_4.c **** 	}
 232              		.loc 1 395 3 is_stmt 1 view .LVU81
 233              	.LVL21:
 395:../../core/ST/Middlewares/Third_Party/FreeRTOS/Source/portable/MemMang/heap_4.c **** 	}
 234              		.loc 1 395 19 is_stmt 0 view .LVU82
 235 0032 1046     		mov	r0, r2
 236 0034 EFE7     		b	.L8
 237              	.LVL22:
 238              	.L16:
 407:../../core/ST/Middlewares/Third_Party/FreeRTOS/Source/portable/MemMang/heap_4.c **** 		{
 239              		.loc 1 407 3 is_stmt 1 view .LVU83
 407:../../core/ST/Middlewares/Third_Party/FreeRTOS/Source/portable/MemMang/heap_4.c **** 		{
 240              		.loc 1 407 35 is_stmt 0 view .LVU84
 241 0036 074C     		ldr	r4, .L17+4
 242 0038 2468     		ldr	r4, [r4]
 407:../../core/ST/Middlewares/Third_Party/FreeRTOS/Source/portable/MemMang/heap_4.c **** 		{
ARM GAS  C:\Users\yvesk\AppData\Local\Temp\ccpIoJST.s 			page 13


 243              		.loc 1 407 5 view .LVU85
 244 003a A342     		cmp	r3, r4
 245 003c 06D0     		beq	.L10
 410:../../core/ST/Middlewares/Third_Party/FreeRTOS/Source/portable/MemMang/heap_4.c **** 			pxBlockToInsert->pxNextFreeBlock = pxIterator->pxNextFreeBlock->pxNextFreeBlock;
 246              		.loc 1 410 4 is_stmt 1 view .LVU86
 410:../../core/ST/Middlewares/Third_Party/FreeRTOS/Source/portable/MemMang/heap_4.c **** 			pxBlockToInsert->pxNextFreeBlock = pxIterator->pxNextFreeBlock->pxNextFreeBlock;
 247              		.loc 1 410 62 is_stmt 0 view .LVU87
 248 003e 5B68     		ldr	r3, [r3, #4]
 410:../../core/ST/Middlewares/Third_Party/FreeRTOS/Source/portable/MemMang/heap_4.c **** 			pxBlockToInsert->pxNextFreeBlock = pxIterator->pxNextFreeBlock->pxNextFreeBlock;
 249              		.loc 1 410 32 view .LVU88
 250 0040 1944     		add	r1, r1, r3
 251 0042 4160     		str	r1, [r0, #4]
 411:../../core/ST/Middlewares/Third_Party/FreeRTOS/Source/portable/MemMang/heap_4.c **** 		}
 252              		.loc 1 411 4 is_stmt 1 view .LVU89
 411:../../core/ST/Middlewares/Third_Party/FreeRTOS/Source/portable/MemMang/heap_4.c **** 		}
 253              		.loc 1 411 49 is_stmt 0 view .LVU90
 254 0044 1368     		ldr	r3, [r2]
 411:../../core/ST/Middlewares/Third_Party/FreeRTOS/Source/portable/MemMang/heap_4.c **** 		}
 255              		.loc 1 411 66 view .LVU91
 256 0046 1B68     		ldr	r3, [r3]
 411:../../core/ST/Middlewares/Third_Party/FreeRTOS/Source/portable/MemMang/heap_4.c **** 		}
 257              		.loc 1 411 37 view .LVU92
 258 0048 0360     		str	r3, [r0]
 259 004a E9E7     		b	.L11
 260              	.L10:
 415:../../core/ST/Middlewares/Third_Party/FreeRTOS/Source/portable/MemMang/heap_4.c **** 		}
 261              		.loc 1 415 4 is_stmt 1 view .LVU93
 415:../../core/ST/Middlewares/Third_Party/FreeRTOS/Source/portable/MemMang/heap_4.c **** 		}
 262              		.loc 1 415 37 is_stmt 0 view .LVU94
 263 004c 0460     		str	r4, [r0]
 264 004e E7E7     		b	.L11
 265              	.L18:
 266              		.align	2
 267              	.L17:
 268 0050 00000000 		.word	.LANCHOR0
 269 0054 00000000 		.word	.LANCHOR1
 270              		.cfi_endproc
 271              	.LFE11:
 273              		.section	.text.pvPortMalloc,"ax",%progbits
 274              		.align	1
 275              		.global	pvPortMalloc
 276              		.syntax unified
 277              		.thumb
 278              		.thumb_func
 279              		.fpu fpv4-sp-d16
 281              	pvPortMalloc:
 282              	.LVL23:
 283              	.LFB5:
 114:../../core/ST/Middlewares/Third_Party/FreeRTOS/Source/portable/MemMang/heap_4.c **** BlockLink_t *pxBlock, *pxPreviousBlock, *pxNewBlockLink;
 284              		.loc 1 114 1 is_stmt 1 view -0
 285              		.cfi_startproc
 286              		@ args = 0, pretend = 0, frame = 0
 287              		@ frame_needed = 0, uses_anonymous_args = 0
 114:../../core/ST/Middlewares/Third_Party/FreeRTOS/Source/portable/MemMang/heap_4.c **** BlockLink_t *pxBlock, *pxPreviousBlock, *pxNewBlockLink;
 288              		.loc 1 114 1 is_stmt 0 view .LVU96
 289 0000 70B5     		push	{r4, r5, r6, lr}
 290              	.LCFI3:
ARM GAS  C:\Users\yvesk\AppData\Local\Temp\ccpIoJST.s 			page 14


 291              		.cfi_def_cfa_offset 16
 292              		.cfi_offset 4, -16
 293              		.cfi_offset 5, -12
 294              		.cfi_offset 6, -8
 295              		.cfi_offset 14, -4
 296 0002 0446     		mov	r4, r0
 115:../../core/ST/Middlewares/Third_Party/FreeRTOS/Source/portable/MemMang/heap_4.c **** void *pvReturn = NULL;
 297              		.loc 1 115 1 is_stmt 1 view .LVU97
 116:../../core/ST/Middlewares/Third_Party/FreeRTOS/Source/portable/MemMang/heap_4.c **** 
 298              		.loc 1 116 1 view .LVU98
 299              	.LVL24:
 118:../../core/ST/Middlewares/Third_Party/FreeRTOS/Source/portable/MemMang/heap_4.c **** 	{
 300              		.loc 1 118 2 view .LVU99
 301 0004 FFF7FEFF 		bl	vTaskSuspendAll
 302              	.LVL25:
 122:../../core/ST/Middlewares/Third_Party/FreeRTOS/Source/portable/MemMang/heap_4.c **** 		{
 303              		.loc 1 122 3 view .LVU100
 122:../../core/ST/Middlewares/Third_Party/FreeRTOS/Source/portable/MemMang/heap_4.c **** 		{
 304              		.loc 1 122 13 is_stmt 0 view .LVU101
 305 0008 3A4B     		ldr	r3, .L39
 306 000a 1B68     		ldr	r3, [r3]
 122:../../core/ST/Middlewares/Third_Party/FreeRTOS/Source/portable/MemMang/heap_4.c **** 		{
 307              		.loc 1 122 5 view .LVU102
 308 000c BBB1     		cbz	r3, .L38
 309              	.L20:
 128:../../core/ST/Middlewares/Third_Party/FreeRTOS/Source/portable/MemMang/heap_4.c **** 		}
 310              		.loc 1 128 28 is_stmt 1 view .LVU103
 135:../../core/ST/Middlewares/Third_Party/FreeRTOS/Source/portable/MemMang/heap_4.c **** 		{
 311              		.loc 1 135 3 view .LVU104
 135:../../core/ST/Middlewares/Third_Party/FreeRTOS/Source/portable/MemMang/heap_4.c **** 		{
 312              		.loc 1 135 21 is_stmt 0 view .LVU105
 313 000e 3A4B     		ldr	r3, .L39+4
 314 0010 1B68     		ldr	r3, [r3]
 135:../../core/ST/Middlewares/Third_Party/FreeRTOS/Source/portable/MemMang/heap_4.c **** 		{
 315              		.loc 1 135 5 view .LVU106
 316 0012 1C42     		tst	r4, r3
 317 0014 56D1     		bne	.L32
 139:../../core/ST/Middlewares/Third_Party/FreeRTOS/Source/portable/MemMang/heap_4.c **** 			{
 318              		.loc 1 139 4 is_stmt 1 view .LVU107
 139:../../core/ST/Middlewares/Third_Party/FreeRTOS/Source/portable/MemMang/heap_4.c **** 			{
 319              		.loc 1 139 6 is_stmt 0 view .LVU108
 320 0016 ACB1     		cbz	r4, .L22
 141:../../core/ST/Middlewares/Third_Party/FreeRTOS/Source/portable/MemMang/heap_4.c **** 
 321              		.loc 1 141 5 is_stmt 1 view .LVU109
 141:../../core/ST/Middlewares/Third_Party/FreeRTOS/Source/portable/MemMang/heap_4.c **** 
 322              		.loc 1 141 17 is_stmt 0 view .LVU110
 323 0018 0834     		adds	r4, r4, #8
 324              	.LVL26:
 145:../../core/ST/Middlewares/Third_Party/FreeRTOS/Source/portable/MemMang/heap_4.c **** 				{
 325              		.loc 1 145 5 is_stmt 1 view .LVU111
 145:../../core/ST/Middlewares/Third_Party/FreeRTOS/Source/portable/MemMang/heap_4.c **** 				{
 326              		.loc 1 145 7 is_stmt 0 view .LVU112
 327 001a 14F0070F 		tst	r4, #7
 328 001e 11D0     		beq	.L22
 148:../../core/ST/Middlewares/Third_Party/FreeRTOS/Source/portable/MemMang/heap_4.c **** 					configASSERT( ( xWantedSize & portBYTE_ALIGNMENT_MASK ) == 0 );
 329              		.loc 1 148 6 is_stmt 1 view .LVU113
 148:../../core/ST/Middlewares/Third_Party/FreeRTOS/Source/portable/MemMang/heap_4.c **** 					configASSERT( ( xWantedSize & portBYTE_ALIGNMENT_MASK ) == 0 );
ARM GAS  C:\Users\yvesk\AppData\Local\Temp\ccpIoJST.s 			page 15


 330              		.loc 1 148 18 is_stmt 0 view .LVU114
 331 0020 24F00704 		bic	r4, r4, #7
 332              	.LVL27:
 148:../../core/ST/Middlewares/Third_Party/FreeRTOS/Source/portable/MemMang/heap_4.c **** 					configASSERT( ( xWantedSize & portBYTE_ALIGNMENT_MASK ) == 0 );
 333              		.loc 1 148 18 view .LVU115
 334 0024 0834     		adds	r4, r4, #8
 335              	.LVL28:
 149:../../core/ST/Middlewares/Third_Party/FreeRTOS/Source/portable/MemMang/heap_4.c **** 				}
 336              		.loc 1 149 6 is_stmt 1 view .LVU116
 337 0026 04F00703 		and	r3, r4, #7
 338 002a 5BB1     		cbz	r3, .L22
 149:../../core/ST/Middlewares/Third_Party/FreeRTOS/Source/portable/MemMang/heap_4.c **** 				}
 339              		.loc 1 149 6 view .LVU117
 340              	.LBB12:
 341              	.LBI12:
 342              		.file 2 "../../core/ST/Middlewares/Third_Party/FreeRTOS/Source/portable/GCC/ARM_CM4F/portmacro.h"
   1:../../core/ST/Middlewares/Third_Party/FreeRTOS/Source/portable/GCC/ARM_CM4F/portmacro.h **** /*
   2:../../core/ST/Middlewares/Third_Party/FreeRTOS/Source/portable/GCC/ARM_CM4F/portmacro.h ****  * FreeRTOS Kernel V10.0.1
   3:../../core/ST/Middlewares/Third_Party/FreeRTOS/Source/portable/GCC/ARM_CM4F/portmacro.h ****  * Copyright (C) 2017 Amazon.com, Inc. or its affiliates.  All Rights Reserved.
   4:../../core/ST/Middlewares/Third_Party/FreeRTOS/Source/portable/GCC/ARM_CM4F/portmacro.h ****  *
   5:../../core/ST/Middlewares/Third_Party/FreeRTOS/Source/portable/GCC/ARM_CM4F/portmacro.h ****  * Permission is hereby granted, free of charge, to any person obtaining a copy of
   6:../../core/ST/Middlewares/Third_Party/FreeRTOS/Source/portable/GCC/ARM_CM4F/portmacro.h ****  * this software and associated documentation files (the "Software"), to deal in
   7:../../core/ST/Middlewares/Third_Party/FreeRTOS/Source/portable/GCC/ARM_CM4F/portmacro.h ****  * the Software without restriction, including without limitation the rights to
   8:../../core/ST/Middlewares/Third_Party/FreeRTOS/Source/portable/GCC/ARM_CM4F/portmacro.h ****  * use, copy, modify, merge, publish, distribute, sublicense, and/or sell copies of
   9:../../core/ST/Middlewares/Third_Party/FreeRTOS/Source/portable/GCC/ARM_CM4F/portmacro.h ****  * the Software, and to permit persons to whom the Software is furnished to do so,
  10:../../core/ST/Middlewares/Third_Party/FreeRTOS/Source/portable/GCC/ARM_CM4F/portmacro.h ****  * subject to the following conditions:
  11:../../core/ST/Middlewares/Third_Party/FreeRTOS/Source/portable/GCC/ARM_CM4F/portmacro.h ****  *
  12:../../core/ST/Middlewares/Third_Party/FreeRTOS/Source/portable/GCC/ARM_CM4F/portmacro.h ****  * The above copyright notice and this permission notice shall be included in all
  13:../../core/ST/Middlewares/Third_Party/FreeRTOS/Source/portable/GCC/ARM_CM4F/portmacro.h ****  * copies or substantial portions of the Software.
  14:../../core/ST/Middlewares/Third_Party/FreeRTOS/Source/portable/GCC/ARM_CM4F/portmacro.h ****  *
  15:../../core/ST/Middlewares/Third_Party/FreeRTOS/Source/portable/GCC/ARM_CM4F/portmacro.h ****  * THE SOFTWARE IS PROVIDED "AS IS", WITHOUT WARRANTY OF ANY KIND, EXPRESS OR
  16:../../core/ST/Middlewares/Third_Party/FreeRTOS/Source/portable/GCC/ARM_CM4F/portmacro.h ****  * IMPLIED, INCLUDING BUT NOT LIMITED TO THE WARRANTIES OF MERCHANTABILITY, FITNESS
  17:../../core/ST/Middlewares/Third_Party/FreeRTOS/Source/portable/GCC/ARM_CM4F/portmacro.h ****  * FOR A PARTICULAR PURPOSE AND NONINFRINGEMENT. IN NO EVENT SHALL THE AUTHORS OR
  18:../../core/ST/Middlewares/Third_Party/FreeRTOS/Source/portable/GCC/ARM_CM4F/portmacro.h ****  * COPYRIGHT HOLDERS BE LIABLE FOR ANY CLAIM, DAMAGES OR OTHER LIABILITY, WHETHER
  19:../../core/ST/Middlewares/Third_Party/FreeRTOS/Source/portable/GCC/ARM_CM4F/portmacro.h ****  * IN AN ACTION OF CONTRACT, TORT OR OTHERWISE, ARISING FROM, OUT OF OR IN
  20:../../core/ST/Middlewares/Third_Party/FreeRTOS/Source/portable/GCC/ARM_CM4F/portmacro.h ****  * CONNECTION WITH THE SOFTWARE OR THE USE OR OTHER DEALINGS IN THE SOFTWARE.
  21:../../core/ST/Middlewares/Third_Party/FreeRTOS/Source/portable/GCC/ARM_CM4F/portmacro.h ****  *
  22:../../core/ST/Middlewares/Third_Party/FreeRTOS/Source/portable/GCC/ARM_CM4F/portmacro.h ****  * http://www.FreeRTOS.org
  23:../../core/ST/Middlewares/Third_Party/FreeRTOS/Source/portable/GCC/ARM_CM4F/portmacro.h ****  * http://aws.amazon.com/freertos
  24:../../core/ST/Middlewares/Third_Party/FreeRTOS/Source/portable/GCC/ARM_CM4F/portmacro.h ****  *
  25:../../core/ST/Middlewares/Third_Party/FreeRTOS/Source/portable/GCC/ARM_CM4F/portmacro.h ****  * 1 tab == 4 spaces!
  26:../../core/ST/Middlewares/Third_Party/FreeRTOS/Source/portable/GCC/ARM_CM4F/portmacro.h ****  */
  27:../../core/ST/Middlewares/Third_Party/FreeRTOS/Source/portable/GCC/ARM_CM4F/portmacro.h **** 
  28:../../core/ST/Middlewares/Third_Party/FreeRTOS/Source/portable/GCC/ARM_CM4F/portmacro.h **** 
  29:../../core/ST/Middlewares/Third_Party/FreeRTOS/Source/portable/GCC/ARM_CM4F/portmacro.h **** #ifndef PORTMACRO_H
  30:../../core/ST/Middlewares/Third_Party/FreeRTOS/Source/portable/GCC/ARM_CM4F/portmacro.h **** #define PORTMACRO_H
  31:../../core/ST/Middlewares/Third_Party/FreeRTOS/Source/portable/GCC/ARM_CM4F/portmacro.h **** 
  32:../../core/ST/Middlewares/Third_Party/FreeRTOS/Source/portable/GCC/ARM_CM4F/portmacro.h **** #ifdef __cplusplus
  33:../../core/ST/Middlewares/Third_Party/FreeRTOS/Source/portable/GCC/ARM_CM4F/portmacro.h **** extern "C" {
  34:../../core/ST/Middlewares/Third_Party/FreeRTOS/Source/portable/GCC/ARM_CM4F/portmacro.h **** #endif
  35:../../core/ST/Middlewares/Third_Party/FreeRTOS/Source/portable/GCC/ARM_CM4F/portmacro.h **** 
  36:../../core/ST/Middlewares/Third_Party/FreeRTOS/Source/portable/GCC/ARM_CM4F/portmacro.h **** /*-----------------------------------------------------------
  37:../../core/ST/Middlewares/Third_Party/FreeRTOS/Source/portable/GCC/ARM_CM4F/portmacro.h ****  * Port specific definitions.
  38:../../core/ST/Middlewares/Third_Party/FreeRTOS/Source/portable/GCC/ARM_CM4F/portmacro.h ****  *
  39:../../core/ST/Middlewares/Third_Party/FreeRTOS/Source/portable/GCC/ARM_CM4F/portmacro.h ****  * The settings in this file configure FreeRTOS correctly for the
  40:../../core/ST/Middlewares/Third_Party/FreeRTOS/Source/portable/GCC/ARM_CM4F/portmacro.h ****  * given hardware and compiler.
  41:../../core/ST/Middlewares/Third_Party/FreeRTOS/Source/portable/GCC/ARM_CM4F/portmacro.h ****  *
ARM GAS  C:\Users\yvesk\AppData\Local\Temp\ccpIoJST.s 			page 16


  42:../../core/ST/Middlewares/Third_Party/FreeRTOS/Source/portable/GCC/ARM_CM4F/portmacro.h ****  * These settings should not be altered.
  43:../../core/ST/Middlewares/Third_Party/FreeRTOS/Source/portable/GCC/ARM_CM4F/portmacro.h ****  *-----------------------------------------------------------
  44:../../core/ST/Middlewares/Third_Party/FreeRTOS/Source/portable/GCC/ARM_CM4F/portmacro.h ****  */
  45:../../core/ST/Middlewares/Third_Party/FreeRTOS/Source/portable/GCC/ARM_CM4F/portmacro.h **** 
  46:../../core/ST/Middlewares/Third_Party/FreeRTOS/Source/portable/GCC/ARM_CM4F/portmacro.h **** /* Type definitions. */
  47:../../core/ST/Middlewares/Third_Party/FreeRTOS/Source/portable/GCC/ARM_CM4F/portmacro.h **** #define portCHAR		char
  48:../../core/ST/Middlewares/Third_Party/FreeRTOS/Source/portable/GCC/ARM_CM4F/portmacro.h **** #define portFLOAT		float
  49:../../core/ST/Middlewares/Third_Party/FreeRTOS/Source/portable/GCC/ARM_CM4F/portmacro.h **** #define portDOUBLE		double
  50:../../core/ST/Middlewares/Third_Party/FreeRTOS/Source/portable/GCC/ARM_CM4F/portmacro.h **** #define portLONG		long
  51:../../core/ST/Middlewares/Third_Party/FreeRTOS/Source/portable/GCC/ARM_CM4F/portmacro.h **** #define portSHORT		short
  52:../../core/ST/Middlewares/Third_Party/FreeRTOS/Source/portable/GCC/ARM_CM4F/portmacro.h **** #define portSTACK_TYPE	uint32_t
  53:../../core/ST/Middlewares/Third_Party/FreeRTOS/Source/portable/GCC/ARM_CM4F/portmacro.h **** #define portBASE_TYPE	long
  54:../../core/ST/Middlewares/Third_Party/FreeRTOS/Source/portable/GCC/ARM_CM4F/portmacro.h **** 
  55:../../core/ST/Middlewares/Third_Party/FreeRTOS/Source/portable/GCC/ARM_CM4F/portmacro.h **** typedef portSTACK_TYPE StackType_t;
  56:../../core/ST/Middlewares/Third_Party/FreeRTOS/Source/portable/GCC/ARM_CM4F/portmacro.h **** typedef long BaseType_t;
  57:../../core/ST/Middlewares/Third_Party/FreeRTOS/Source/portable/GCC/ARM_CM4F/portmacro.h **** typedef unsigned long UBaseType_t;
  58:../../core/ST/Middlewares/Third_Party/FreeRTOS/Source/portable/GCC/ARM_CM4F/portmacro.h **** 
  59:../../core/ST/Middlewares/Third_Party/FreeRTOS/Source/portable/GCC/ARM_CM4F/portmacro.h **** #if( configUSE_16_BIT_TICKS == 1 )
  60:../../core/ST/Middlewares/Third_Party/FreeRTOS/Source/portable/GCC/ARM_CM4F/portmacro.h **** 	typedef uint16_t TickType_t;
  61:../../core/ST/Middlewares/Third_Party/FreeRTOS/Source/portable/GCC/ARM_CM4F/portmacro.h **** 	#define portMAX_DELAY ( TickType_t ) 0xffff
  62:../../core/ST/Middlewares/Third_Party/FreeRTOS/Source/portable/GCC/ARM_CM4F/portmacro.h **** #else
  63:../../core/ST/Middlewares/Third_Party/FreeRTOS/Source/portable/GCC/ARM_CM4F/portmacro.h **** 	typedef uint32_t TickType_t;
  64:../../core/ST/Middlewares/Third_Party/FreeRTOS/Source/portable/GCC/ARM_CM4F/portmacro.h **** 	#define portMAX_DELAY ( TickType_t ) 0xffffffffUL
  65:../../core/ST/Middlewares/Third_Party/FreeRTOS/Source/portable/GCC/ARM_CM4F/portmacro.h **** 
  66:../../core/ST/Middlewares/Third_Party/FreeRTOS/Source/portable/GCC/ARM_CM4F/portmacro.h **** 	/* 32-bit tick type on a 32-bit architecture, so reads of the tick count do
  67:../../core/ST/Middlewares/Third_Party/FreeRTOS/Source/portable/GCC/ARM_CM4F/portmacro.h **** 	not need to be guarded with a critical section. */
  68:../../core/ST/Middlewares/Third_Party/FreeRTOS/Source/portable/GCC/ARM_CM4F/portmacro.h **** 	#define portTICK_TYPE_IS_ATOMIC 1
  69:../../core/ST/Middlewares/Third_Party/FreeRTOS/Source/portable/GCC/ARM_CM4F/portmacro.h **** #endif
  70:../../core/ST/Middlewares/Third_Party/FreeRTOS/Source/portable/GCC/ARM_CM4F/portmacro.h **** /*-----------------------------------------------------------*/
  71:../../core/ST/Middlewares/Third_Party/FreeRTOS/Source/portable/GCC/ARM_CM4F/portmacro.h **** 
  72:../../core/ST/Middlewares/Third_Party/FreeRTOS/Source/portable/GCC/ARM_CM4F/portmacro.h **** /* Architecture specifics. */
  73:../../core/ST/Middlewares/Third_Party/FreeRTOS/Source/portable/GCC/ARM_CM4F/portmacro.h **** #define portSTACK_GROWTH			( -1 )
  74:../../core/ST/Middlewares/Third_Party/FreeRTOS/Source/portable/GCC/ARM_CM4F/portmacro.h **** #define portTICK_PERIOD_MS			( ( TickType_t ) 1000 / configTICK_RATE_HZ )
  75:../../core/ST/Middlewares/Third_Party/FreeRTOS/Source/portable/GCC/ARM_CM4F/portmacro.h **** #define portBYTE_ALIGNMENT			8
  76:../../core/ST/Middlewares/Third_Party/FreeRTOS/Source/portable/GCC/ARM_CM4F/portmacro.h **** /*-----------------------------------------------------------*/
  77:../../core/ST/Middlewares/Third_Party/FreeRTOS/Source/portable/GCC/ARM_CM4F/portmacro.h **** 
  78:../../core/ST/Middlewares/Third_Party/FreeRTOS/Source/portable/GCC/ARM_CM4F/portmacro.h **** /* Scheduler utilities. */
  79:../../core/ST/Middlewares/Third_Party/FreeRTOS/Source/portable/GCC/ARM_CM4F/portmacro.h **** #define portYIELD() 															\
  80:../../core/ST/Middlewares/Third_Party/FreeRTOS/Source/portable/GCC/ARM_CM4F/portmacro.h **** {																				\
  81:../../core/ST/Middlewares/Third_Party/FreeRTOS/Source/portable/GCC/ARM_CM4F/portmacro.h **** 	/* Set a PendSV to request a context switch. */								\
  82:../../core/ST/Middlewares/Third_Party/FreeRTOS/Source/portable/GCC/ARM_CM4F/portmacro.h **** 	portNVIC_INT_CTRL_REG = portNVIC_PENDSVSET_BIT;								\
  83:../../core/ST/Middlewares/Third_Party/FreeRTOS/Source/portable/GCC/ARM_CM4F/portmacro.h **** 																				\
  84:../../core/ST/Middlewares/Third_Party/FreeRTOS/Source/portable/GCC/ARM_CM4F/portmacro.h **** 	/* Barriers are normally not required but do ensure the code is completely	\
  85:../../core/ST/Middlewares/Third_Party/FreeRTOS/Source/portable/GCC/ARM_CM4F/portmacro.h **** 	within the specified behaviour for the architecture. */						\
  86:../../core/ST/Middlewares/Third_Party/FreeRTOS/Source/portable/GCC/ARM_CM4F/portmacro.h **** 	__asm volatile( "dsb" ::: "memory" );										\
  87:../../core/ST/Middlewares/Third_Party/FreeRTOS/Source/portable/GCC/ARM_CM4F/portmacro.h **** 	__asm volatile( "isb" );													\
  88:../../core/ST/Middlewares/Third_Party/FreeRTOS/Source/portable/GCC/ARM_CM4F/portmacro.h **** }
  89:../../core/ST/Middlewares/Third_Party/FreeRTOS/Source/portable/GCC/ARM_CM4F/portmacro.h **** 
  90:../../core/ST/Middlewares/Third_Party/FreeRTOS/Source/portable/GCC/ARM_CM4F/portmacro.h **** #define portNVIC_INT_CTRL_REG		( * ( ( volatile uint32_t * ) 0xe000ed04 ) )
  91:../../core/ST/Middlewares/Third_Party/FreeRTOS/Source/portable/GCC/ARM_CM4F/portmacro.h **** #define portNVIC_PENDSVSET_BIT		( 1UL << 28UL )
  92:../../core/ST/Middlewares/Third_Party/FreeRTOS/Source/portable/GCC/ARM_CM4F/portmacro.h **** #define portEND_SWITCHING_ISR( xSwitchRequired ) if( xSwitchRequired != pdFALSE ) portYIELD()
  93:../../core/ST/Middlewares/Third_Party/FreeRTOS/Source/portable/GCC/ARM_CM4F/portmacro.h **** #define portYIELD_FROM_ISR( x ) portEND_SWITCHING_ISR( x )
  94:../../core/ST/Middlewares/Third_Party/FreeRTOS/Source/portable/GCC/ARM_CM4F/portmacro.h **** /*-----------------------------------------------------------*/
  95:../../core/ST/Middlewares/Third_Party/FreeRTOS/Source/portable/GCC/ARM_CM4F/portmacro.h **** 
  96:../../core/ST/Middlewares/Third_Party/FreeRTOS/Source/portable/GCC/ARM_CM4F/portmacro.h **** /* Critical section management. */
  97:../../core/ST/Middlewares/Third_Party/FreeRTOS/Source/portable/GCC/ARM_CM4F/portmacro.h **** extern void vPortEnterCritical( void );
  98:../../core/ST/Middlewares/Third_Party/FreeRTOS/Source/portable/GCC/ARM_CM4F/portmacro.h **** extern void vPortExitCritical( void );
ARM GAS  C:\Users\yvesk\AppData\Local\Temp\ccpIoJST.s 			page 17


  99:../../core/ST/Middlewares/Third_Party/FreeRTOS/Source/portable/GCC/ARM_CM4F/portmacro.h **** #define portSET_INTERRUPT_MASK_FROM_ISR()		ulPortRaiseBASEPRI()
 100:../../core/ST/Middlewares/Third_Party/FreeRTOS/Source/portable/GCC/ARM_CM4F/portmacro.h **** #define portCLEAR_INTERRUPT_MASK_FROM_ISR(x)	vPortSetBASEPRI(x)
 101:../../core/ST/Middlewares/Third_Party/FreeRTOS/Source/portable/GCC/ARM_CM4F/portmacro.h **** #define portDISABLE_INTERRUPTS()				vPortRaiseBASEPRI()
 102:../../core/ST/Middlewares/Third_Party/FreeRTOS/Source/portable/GCC/ARM_CM4F/portmacro.h **** #define portENABLE_INTERRUPTS()					vPortSetBASEPRI(0)
 103:../../core/ST/Middlewares/Third_Party/FreeRTOS/Source/portable/GCC/ARM_CM4F/portmacro.h **** #define portENTER_CRITICAL()					vPortEnterCritical()
 104:../../core/ST/Middlewares/Third_Party/FreeRTOS/Source/portable/GCC/ARM_CM4F/portmacro.h **** #define portEXIT_CRITICAL()						vPortExitCritical()
 105:../../core/ST/Middlewares/Third_Party/FreeRTOS/Source/portable/GCC/ARM_CM4F/portmacro.h **** 
 106:../../core/ST/Middlewares/Third_Party/FreeRTOS/Source/portable/GCC/ARM_CM4F/portmacro.h **** /*-----------------------------------------------------------*/
 107:../../core/ST/Middlewares/Third_Party/FreeRTOS/Source/portable/GCC/ARM_CM4F/portmacro.h **** 
 108:../../core/ST/Middlewares/Third_Party/FreeRTOS/Source/portable/GCC/ARM_CM4F/portmacro.h **** /* Task function macros as described on the FreeRTOS.org WEB site.  These are
 109:../../core/ST/Middlewares/Third_Party/FreeRTOS/Source/portable/GCC/ARM_CM4F/portmacro.h **** not necessary for to use this port.  They are defined so the common demo files
 110:../../core/ST/Middlewares/Third_Party/FreeRTOS/Source/portable/GCC/ARM_CM4F/portmacro.h **** (which build with all the ports) will build. */
 111:../../core/ST/Middlewares/Third_Party/FreeRTOS/Source/portable/GCC/ARM_CM4F/portmacro.h **** #define portTASK_FUNCTION_PROTO( vFunction, pvParameters ) void vFunction( void *pvParameters )
 112:../../core/ST/Middlewares/Third_Party/FreeRTOS/Source/portable/GCC/ARM_CM4F/portmacro.h **** #define portTASK_FUNCTION( vFunction, pvParameters ) void vFunction( void *pvParameters )
 113:../../core/ST/Middlewares/Third_Party/FreeRTOS/Source/portable/GCC/ARM_CM4F/portmacro.h **** /*-----------------------------------------------------------*/
 114:../../core/ST/Middlewares/Third_Party/FreeRTOS/Source/portable/GCC/ARM_CM4F/portmacro.h **** 
 115:../../core/ST/Middlewares/Third_Party/FreeRTOS/Source/portable/GCC/ARM_CM4F/portmacro.h **** /* Tickless idle/low power functionality. */
 116:../../core/ST/Middlewares/Third_Party/FreeRTOS/Source/portable/GCC/ARM_CM4F/portmacro.h **** #ifndef portSUPPRESS_TICKS_AND_SLEEP
 117:../../core/ST/Middlewares/Third_Party/FreeRTOS/Source/portable/GCC/ARM_CM4F/portmacro.h **** 	extern void vPortSuppressTicksAndSleep( TickType_t xExpectedIdleTime );
 118:../../core/ST/Middlewares/Third_Party/FreeRTOS/Source/portable/GCC/ARM_CM4F/portmacro.h **** 	#define portSUPPRESS_TICKS_AND_SLEEP( xExpectedIdleTime ) vPortSuppressTicksAndSleep( xExpectedIdl
 119:../../core/ST/Middlewares/Third_Party/FreeRTOS/Source/portable/GCC/ARM_CM4F/portmacro.h **** #endif
 120:../../core/ST/Middlewares/Third_Party/FreeRTOS/Source/portable/GCC/ARM_CM4F/portmacro.h **** /*-----------------------------------------------------------*/
 121:../../core/ST/Middlewares/Third_Party/FreeRTOS/Source/portable/GCC/ARM_CM4F/portmacro.h **** 
 122:../../core/ST/Middlewares/Third_Party/FreeRTOS/Source/portable/GCC/ARM_CM4F/portmacro.h **** /* Architecture specific optimisations. */
 123:../../core/ST/Middlewares/Third_Party/FreeRTOS/Source/portable/GCC/ARM_CM4F/portmacro.h **** #ifndef configUSE_PORT_OPTIMISED_TASK_SELECTION
 124:../../core/ST/Middlewares/Third_Party/FreeRTOS/Source/portable/GCC/ARM_CM4F/portmacro.h **** 	#define configUSE_PORT_OPTIMISED_TASK_SELECTION 1
 125:../../core/ST/Middlewares/Third_Party/FreeRTOS/Source/portable/GCC/ARM_CM4F/portmacro.h **** #endif
 126:../../core/ST/Middlewares/Third_Party/FreeRTOS/Source/portable/GCC/ARM_CM4F/portmacro.h **** 
 127:../../core/ST/Middlewares/Third_Party/FreeRTOS/Source/portable/GCC/ARM_CM4F/portmacro.h **** #if configUSE_PORT_OPTIMISED_TASK_SELECTION == 1
 128:../../core/ST/Middlewares/Third_Party/FreeRTOS/Source/portable/GCC/ARM_CM4F/portmacro.h **** 
 129:../../core/ST/Middlewares/Third_Party/FreeRTOS/Source/portable/GCC/ARM_CM4F/portmacro.h **** 	/* Generic helper function. */
 130:../../core/ST/Middlewares/Third_Party/FreeRTOS/Source/portable/GCC/ARM_CM4F/portmacro.h **** 	__attribute__( ( always_inline ) ) static inline uint8_t ucPortCountLeadingZeros( uint32_t ulBitma
 131:../../core/ST/Middlewares/Third_Party/FreeRTOS/Source/portable/GCC/ARM_CM4F/portmacro.h **** 	{
 132:../../core/ST/Middlewares/Third_Party/FreeRTOS/Source/portable/GCC/ARM_CM4F/portmacro.h **** 	uint8_t ucReturn;
 133:../../core/ST/Middlewares/Third_Party/FreeRTOS/Source/portable/GCC/ARM_CM4F/portmacro.h **** 
 134:../../core/ST/Middlewares/Third_Party/FreeRTOS/Source/portable/GCC/ARM_CM4F/portmacro.h **** 		__asm volatile ( "clz %0, %1" : "=r" ( ucReturn ) : "r" ( ulBitmap ) : "memory" );
 135:../../core/ST/Middlewares/Third_Party/FreeRTOS/Source/portable/GCC/ARM_CM4F/portmacro.h **** 		return ucReturn;
 136:../../core/ST/Middlewares/Third_Party/FreeRTOS/Source/portable/GCC/ARM_CM4F/portmacro.h **** 	}
 137:../../core/ST/Middlewares/Third_Party/FreeRTOS/Source/portable/GCC/ARM_CM4F/portmacro.h **** 
 138:../../core/ST/Middlewares/Third_Party/FreeRTOS/Source/portable/GCC/ARM_CM4F/portmacro.h **** 	/* Check the configuration. */
 139:../../core/ST/Middlewares/Third_Party/FreeRTOS/Source/portable/GCC/ARM_CM4F/portmacro.h **** 	#if( configMAX_PRIORITIES > 32 )
 140:../../core/ST/Middlewares/Third_Party/FreeRTOS/Source/portable/GCC/ARM_CM4F/portmacro.h **** 		#error configUSE_PORT_OPTIMISED_TASK_SELECTION can only be set to 1 when configMAX_PRIORITIES is 
 141:../../core/ST/Middlewares/Third_Party/FreeRTOS/Source/portable/GCC/ARM_CM4F/portmacro.h **** 	#endif
 142:../../core/ST/Middlewares/Third_Party/FreeRTOS/Source/portable/GCC/ARM_CM4F/portmacro.h **** 
 143:../../core/ST/Middlewares/Third_Party/FreeRTOS/Source/portable/GCC/ARM_CM4F/portmacro.h **** 	/* Store/clear the ready priorities in a bit map. */
 144:../../core/ST/Middlewares/Third_Party/FreeRTOS/Source/portable/GCC/ARM_CM4F/portmacro.h **** 	#define portRECORD_READY_PRIORITY( uxPriority, uxReadyPriorities ) ( uxReadyPriorities ) |= ( 1UL 
 145:../../core/ST/Middlewares/Third_Party/FreeRTOS/Source/portable/GCC/ARM_CM4F/portmacro.h **** 	#define portRESET_READY_PRIORITY( uxPriority, uxReadyPriorities ) ( uxReadyPriorities ) &= ~( 1UL 
 146:../../core/ST/Middlewares/Third_Party/FreeRTOS/Source/portable/GCC/ARM_CM4F/portmacro.h **** 
 147:../../core/ST/Middlewares/Third_Party/FreeRTOS/Source/portable/GCC/ARM_CM4F/portmacro.h **** 	/*-----------------------------------------------------------*/
 148:../../core/ST/Middlewares/Third_Party/FreeRTOS/Source/portable/GCC/ARM_CM4F/portmacro.h **** 
 149:../../core/ST/Middlewares/Third_Party/FreeRTOS/Source/portable/GCC/ARM_CM4F/portmacro.h **** 	#define portGET_HIGHEST_PRIORITY( uxTopPriority, uxReadyPriorities ) uxTopPriority = ( 31UL - ( ui
 150:../../core/ST/Middlewares/Third_Party/FreeRTOS/Source/portable/GCC/ARM_CM4F/portmacro.h **** 
 151:../../core/ST/Middlewares/Third_Party/FreeRTOS/Source/portable/GCC/ARM_CM4F/portmacro.h **** #endif /* configUSE_PORT_OPTIMISED_TASK_SELECTION */
 152:../../core/ST/Middlewares/Third_Party/FreeRTOS/Source/portable/GCC/ARM_CM4F/portmacro.h **** 
 153:../../core/ST/Middlewares/Third_Party/FreeRTOS/Source/portable/GCC/ARM_CM4F/portmacro.h **** /*-----------------------------------------------------------*/
 154:../../core/ST/Middlewares/Third_Party/FreeRTOS/Source/portable/GCC/ARM_CM4F/portmacro.h **** 
 155:../../core/ST/Middlewares/Third_Party/FreeRTOS/Source/portable/GCC/ARM_CM4F/portmacro.h **** #ifdef configASSERT
ARM GAS  C:\Users\yvesk\AppData\Local\Temp\ccpIoJST.s 			page 18


 156:../../core/ST/Middlewares/Third_Party/FreeRTOS/Source/portable/GCC/ARM_CM4F/portmacro.h **** 	void vPortValidateInterruptPriority( void );
 157:../../core/ST/Middlewares/Third_Party/FreeRTOS/Source/portable/GCC/ARM_CM4F/portmacro.h **** 	#define portASSERT_IF_INTERRUPT_PRIORITY_INVALID() 	vPortValidateInterruptPriority()
 158:../../core/ST/Middlewares/Third_Party/FreeRTOS/Source/portable/GCC/ARM_CM4F/portmacro.h **** #endif
 159:../../core/ST/Middlewares/Third_Party/FreeRTOS/Source/portable/GCC/ARM_CM4F/portmacro.h **** 
 160:../../core/ST/Middlewares/Third_Party/FreeRTOS/Source/portable/GCC/ARM_CM4F/portmacro.h **** /* portNOP() is not required by this port. */
 161:../../core/ST/Middlewares/Third_Party/FreeRTOS/Source/portable/GCC/ARM_CM4F/portmacro.h **** #define portNOP()
 162:../../core/ST/Middlewares/Third_Party/FreeRTOS/Source/portable/GCC/ARM_CM4F/portmacro.h **** 
 163:../../core/ST/Middlewares/Third_Party/FreeRTOS/Source/portable/GCC/ARM_CM4F/portmacro.h **** #define portINLINE	__inline
 164:../../core/ST/Middlewares/Third_Party/FreeRTOS/Source/portable/GCC/ARM_CM4F/portmacro.h **** 
 165:../../core/ST/Middlewares/Third_Party/FreeRTOS/Source/portable/GCC/ARM_CM4F/portmacro.h **** #ifndef portFORCE_INLINE
 166:../../core/ST/Middlewares/Third_Party/FreeRTOS/Source/portable/GCC/ARM_CM4F/portmacro.h **** 	#define portFORCE_INLINE inline __attribute__(( always_inline))
 167:../../core/ST/Middlewares/Third_Party/FreeRTOS/Source/portable/GCC/ARM_CM4F/portmacro.h **** #endif
 168:../../core/ST/Middlewares/Third_Party/FreeRTOS/Source/portable/GCC/ARM_CM4F/portmacro.h **** 
 169:../../core/ST/Middlewares/Third_Party/FreeRTOS/Source/portable/GCC/ARM_CM4F/portmacro.h **** portFORCE_INLINE static BaseType_t xPortIsInsideInterrupt( void )
 170:../../core/ST/Middlewares/Third_Party/FreeRTOS/Source/portable/GCC/ARM_CM4F/portmacro.h **** {
 171:../../core/ST/Middlewares/Third_Party/FreeRTOS/Source/portable/GCC/ARM_CM4F/portmacro.h **** uint32_t ulCurrentInterrupt;
 172:../../core/ST/Middlewares/Third_Party/FreeRTOS/Source/portable/GCC/ARM_CM4F/portmacro.h **** BaseType_t xReturn;
 173:../../core/ST/Middlewares/Third_Party/FreeRTOS/Source/portable/GCC/ARM_CM4F/portmacro.h **** 
 174:../../core/ST/Middlewares/Third_Party/FreeRTOS/Source/portable/GCC/ARM_CM4F/portmacro.h **** 	/* Obtain the number of the currently executing interrupt. */
 175:../../core/ST/Middlewares/Third_Party/FreeRTOS/Source/portable/GCC/ARM_CM4F/portmacro.h **** 	__asm volatile( "mrs %0, ipsr" : "=r"( ulCurrentInterrupt ) :: "memory" );
 176:../../core/ST/Middlewares/Third_Party/FreeRTOS/Source/portable/GCC/ARM_CM4F/portmacro.h **** 
 177:../../core/ST/Middlewares/Third_Party/FreeRTOS/Source/portable/GCC/ARM_CM4F/portmacro.h **** 	if( ulCurrentInterrupt == 0 )
 178:../../core/ST/Middlewares/Third_Party/FreeRTOS/Source/portable/GCC/ARM_CM4F/portmacro.h **** 	{
 179:../../core/ST/Middlewares/Third_Party/FreeRTOS/Source/portable/GCC/ARM_CM4F/portmacro.h **** 		xReturn = pdFALSE;
 180:../../core/ST/Middlewares/Third_Party/FreeRTOS/Source/portable/GCC/ARM_CM4F/portmacro.h **** 	}
 181:../../core/ST/Middlewares/Third_Party/FreeRTOS/Source/portable/GCC/ARM_CM4F/portmacro.h **** 	else
 182:../../core/ST/Middlewares/Third_Party/FreeRTOS/Source/portable/GCC/ARM_CM4F/portmacro.h **** 	{
 183:../../core/ST/Middlewares/Third_Party/FreeRTOS/Source/portable/GCC/ARM_CM4F/portmacro.h **** 		xReturn = pdTRUE;
 184:../../core/ST/Middlewares/Third_Party/FreeRTOS/Source/portable/GCC/ARM_CM4F/portmacro.h **** 	}
 185:../../core/ST/Middlewares/Third_Party/FreeRTOS/Source/portable/GCC/ARM_CM4F/portmacro.h **** 
 186:../../core/ST/Middlewares/Third_Party/FreeRTOS/Source/portable/GCC/ARM_CM4F/portmacro.h **** 	return xReturn;
 187:../../core/ST/Middlewares/Third_Party/FreeRTOS/Source/portable/GCC/ARM_CM4F/portmacro.h **** }
 188:../../core/ST/Middlewares/Third_Party/FreeRTOS/Source/portable/GCC/ARM_CM4F/portmacro.h **** 
 189:../../core/ST/Middlewares/Third_Party/FreeRTOS/Source/portable/GCC/ARM_CM4F/portmacro.h **** /*-----------------------------------------------------------*/
 190:../../core/ST/Middlewares/Third_Party/FreeRTOS/Source/portable/GCC/ARM_CM4F/portmacro.h **** 
 191:../../core/ST/Middlewares/Third_Party/FreeRTOS/Source/portable/GCC/ARM_CM4F/portmacro.h **** portFORCE_INLINE static void vPortRaiseBASEPRI( void )
 343              		.loc 2 191 30 view .LVU118
 344              	.LBB13:
 192:../../core/ST/Middlewares/Third_Party/FreeRTOS/Source/portable/GCC/ARM_CM4F/portmacro.h **** {
 193:../../core/ST/Middlewares/Third_Party/FreeRTOS/Source/portable/GCC/ARM_CM4F/portmacro.h **** uint32_t ulNewBASEPRI;
 345              		.loc 2 193 1 view .LVU119
 194:../../core/ST/Middlewares/Third_Party/FreeRTOS/Source/portable/GCC/ARM_CM4F/portmacro.h **** 
 195:../../core/ST/Middlewares/Third_Party/FreeRTOS/Source/portable/GCC/ARM_CM4F/portmacro.h **** 	__asm volatile
 346              		.loc 2 195 2 view .LVU120
 347              		.syntax unified
 348              	@ 195 "../../core/ST/Middlewares/Third_Party/FreeRTOS/Source/portable/GCC/ARM_CM4F/portmacro.h" 1
 349 002c 4FF01003 			mov r3, #16												
 350 0030 83F31188 		msr basepri, r3											
 351 0034 BFF36F8F 		isb														
 352 0038 BFF34F8F 		dsb														
 353              	
 354              	@ 0 "" 2
 355              	.LVL29:
 356              		.thumb
 357              		.syntax unified
 358              	.L23:
 359              		.loc 2 195 2 is_stmt 0 view .LVU121
ARM GAS  C:\Users\yvesk\AppData\Local\Temp\ccpIoJST.s 			page 19


 360              	.LBE13:
 361              	.LBE12:
 149:../../core/ST/Middlewares/Third_Party/FreeRTOS/Source/portable/MemMang/heap_4.c **** 				}
 362              		.loc 1 149 6 is_stmt 1 discriminator 1 view .LVU122
 149:../../core/ST/Middlewares/Third_Party/FreeRTOS/Source/portable/MemMang/heap_4.c **** 				}
 363              		.loc 1 149 6 discriminator 1 view .LVU123
 364 003c FEE7     		b	.L23
 365              	.L38:
 124:../../core/ST/Middlewares/Third_Party/FreeRTOS/Source/portable/MemMang/heap_4.c **** 		}
 366              		.loc 1 124 4 view .LVU124
 367 003e FFF7FEFF 		bl	prvHeapInit
 368              	.LVL30:
 369 0042 E4E7     		b	.L20
 370              	.L22:
 158:../../core/ST/Middlewares/Third_Party/FreeRTOS/Source/portable/MemMang/heap_4.c **** 			}
 371              		.loc 1 158 29 view .LVU125
 161:../../core/ST/Middlewares/Third_Party/FreeRTOS/Source/portable/MemMang/heap_4.c **** 			{
 372              		.loc 1 161 4 view .LVU126
 161:../../core/ST/Middlewares/Third_Party/FreeRTOS/Source/portable/MemMang/heap_4.c **** 			{
 373              		.loc 1 161 6 is_stmt 0 view .LVU127
 374 0044 002C     		cmp	r4, #0
 375 0046 3FD0     		beq	.L33
 161:../../core/ST/Middlewares/Third_Party/FreeRTOS/Source/portable/MemMang/heap_4.c **** 			{
 376              		.loc 1 161 45 discriminator 1 view .LVU128
 377 0048 2C4B     		ldr	r3, .L39+8
 378 004a 1B68     		ldr	r3, [r3]
 161:../../core/ST/Middlewares/Third_Party/FreeRTOS/Source/portable/MemMang/heap_4.c **** 			{
 379              		.loc 1 161 28 discriminator 1 view .LVU129
 380 004c A342     		cmp	r3, r4
 381 004e 4AD3     		bcc	.L34
 165:../../core/ST/Middlewares/Third_Party/FreeRTOS/Source/portable/MemMang/heap_4.c **** 				pxBlock = xStart.pxNextFreeBlock;
 382              		.loc 1 165 5 is_stmt 1 view .LVU130
 383              	.LVL31:
 166:../../core/ST/Middlewares/Third_Party/FreeRTOS/Source/portable/MemMang/heap_4.c **** 				while( ( pxBlock->xBlockSize < xWantedSize ) && ( pxBlock->pxNextFreeBlock != NULL ) )
 384              		.loc 1 166 5 view .LVU131
 166:../../core/ST/Middlewares/Third_Party/FreeRTOS/Source/portable/MemMang/heap_4.c **** 				while( ( pxBlock->xBlockSize < xWantedSize ) && ( pxBlock->pxNextFreeBlock != NULL ) )
 385              		.loc 1 166 13 is_stmt 0 view .LVU132
 386 0050 2B4B     		ldr	r3, .L39+12
 387 0052 1D68     		ldr	r5, [r3]
 388              	.LVL32:
 167:../../core/ST/Middlewares/Third_Party/FreeRTOS/Source/portable/MemMang/heap_4.c **** 				{
 389              		.loc 1 167 5 is_stmt 1 view .LVU133
 167:../../core/ST/Middlewares/Third_Party/FreeRTOS/Source/portable/MemMang/heap_4.c **** 				{
 390              		.loc 1 167 10 is_stmt 0 view .LVU134
 391 0054 01E0     		b	.L25
 392              	.LVL33:
 393              	.L35:
 169:../../core/ST/Middlewares/Third_Party/FreeRTOS/Source/portable/MemMang/heap_4.c **** 					pxBlock = pxBlock->pxNextFreeBlock;
 394              		.loc 1 169 22 view .LVU135
 395 0056 2B46     		mov	r3, r5
 396              	.LVL34:
 170:../../core/ST/Middlewares/Third_Party/FreeRTOS/Source/portable/MemMang/heap_4.c **** 				}
 397              		.loc 1 170 14 view .LVU136
 398 0058 1546     		mov	r5, r2
 399              	.LVL35:
 400              	.L25:
 167:../../core/ST/Middlewares/Third_Party/FreeRTOS/Source/portable/MemMang/heap_4.c **** 				{
ARM GAS  C:\Users\yvesk\AppData\Local\Temp\ccpIoJST.s 			page 20


 401              		.loc 1 167 21 view .LVU137
 402 005a 6A68     		ldr	r2, [r5, #4]
 167:../../core/ST/Middlewares/Third_Party/FreeRTOS/Source/portable/MemMang/heap_4.c **** 				{
 403              		.loc 1 167 10 view .LVU138
 404 005c A242     		cmp	r2, r4
 405 005e 02D2     		bcs	.L24
 167:../../core/ST/Middlewares/Third_Party/FreeRTOS/Source/portable/MemMang/heap_4.c **** 				{
 406              		.loc 1 167 62 discriminator 1 view .LVU139
 407 0060 2A68     		ldr	r2, [r5]
 167:../../core/ST/Middlewares/Third_Party/FreeRTOS/Source/portable/MemMang/heap_4.c **** 				{
 408              		.loc 1 167 50 discriminator 1 view .LVU140
 409 0062 002A     		cmp	r2, #0
 410 0064 F7D1     		bne	.L35
 411              	.L24:
 175:../../core/ST/Middlewares/Third_Party/FreeRTOS/Source/portable/MemMang/heap_4.c **** 				{
 412              		.loc 1 175 5 is_stmt 1 view .LVU141
 175:../../core/ST/Middlewares/Third_Party/FreeRTOS/Source/portable/MemMang/heap_4.c **** 				{
 413              		.loc 1 175 17 is_stmt 0 view .LVU142
 414 0066 234A     		ldr	r2, .L39
 415 0068 1268     		ldr	r2, [r2]
 175:../../core/ST/Middlewares/Third_Party/FreeRTOS/Source/portable/MemMang/heap_4.c **** 				{
 416              		.loc 1 175 7 view .LVU143
 417 006a AA42     		cmp	r2, r5
 418 006c 3DD0     		beq	.L36
 179:../../core/ST/Middlewares/Third_Party/FreeRTOS/Source/portable/MemMang/heap_4.c **** 
 419              		.loc 1 179 6 is_stmt 1 view .LVU144
 179:../../core/ST/Middlewares/Third_Party/FreeRTOS/Source/portable/MemMang/heap_4.c **** 
 420              		.loc 1 179 61 is_stmt 0 view .LVU145
 421 006e 1E68     		ldr	r6, [r3]
 179:../../core/ST/Middlewares/Third_Party/FreeRTOS/Source/portable/MemMang/heap_4.c **** 
 422              		.loc 1 179 15 view .LVU146
 423 0070 0836     		adds	r6, r6, #8
 424              	.LVL36:
 183:../../core/ST/Middlewares/Third_Party/FreeRTOS/Source/portable/MemMang/heap_4.c **** 
 425              		.loc 1 183 6 is_stmt 1 view .LVU147
 183:../../core/ST/Middlewares/Third_Party/FreeRTOS/Source/portable/MemMang/heap_4.c **** 
 426              		.loc 1 183 48 is_stmt 0 view .LVU148
 427 0072 2A68     		ldr	r2, [r5]
 183:../../core/ST/Middlewares/Third_Party/FreeRTOS/Source/portable/MemMang/heap_4.c **** 
 428              		.loc 1 183 39 view .LVU149
 429 0074 1A60     		str	r2, [r3]
 187:../../core/ST/Middlewares/Third_Party/FreeRTOS/Source/portable/MemMang/heap_4.c **** 					{
 430              		.loc 1 187 6 is_stmt 1 view .LVU150
 187:../../core/ST/Middlewares/Third_Party/FreeRTOS/Source/portable/MemMang/heap_4.c **** 					{
 431              		.loc 1 187 19 is_stmt 0 view .LVU151
 432 0076 6B68     		ldr	r3, [r5, #4]
 433              	.LVL37:
 187:../../core/ST/Middlewares/Third_Party/FreeRTOS/Source/portable/MemMang/heap_4.c **** 					{
 434              		.loc 1 187 32 view .LVU152
 435 0078 1B1B     		subs	r3, r3, r4
 187:../../core/ST/Middlewares/Third_Party/FreeRTOS/Source/portable/MemMang/heap_4.c **** 					{
 436              		.loc 1 187 8 view .LVU153
 437 007a 102B     		cmp	r3, #16
 438 007c 10D9     		bls	.L26
 193:../../core/ST/Middlewares/Third_Party/FreeRTOS/Source/portable/MemMang/heap_4.c **** 						configASSERT( ( ( ( size_t ) pxNewBlockLink ) & portBYTE_ALIGNMENT_MASK ) == 0 );
 439              		.loc 1 193 7 is_stmt 1 view .LVU154
 193:../../core/ST/Middlewares/Third_Party/FreeRTOS/Source/portable/MemMang/heap_4.c **** 						configASSERT( ( ( ( size_t ) pxNewBlockLink ) & portBYTE_ALIGNMENT_MASK ) == 0 );
ARM GAS  C:\Users\yvesk\AppData\Local\Temp\ccpIoJST.s 			page 21


 440              		.loc 1 193 22 is_stmt 0 view .LVU155
 441 007e 2819     		adds	r0, r5, r4
 442              	.LVL38:
 194:../../core/ST/Middlewares/Third_Party/FreeRTOS/Source/portable/MemMang/heap_4.c **** 
 443              		.loc 1 194 7 is_stmt 1 view .LVU156
 444 0080 10F0070F 		tst	r0, #7
 445 0084 08D0     		beq	.L27
 194:../../core/ST/Middlewares/Third_Party/FreeRTOS/Source/portable/MemMang/heap_4.c **** 
 446              		.loc 1 194 7 view .LVU157
 447              	.LBB14:
 448              	.LBI14:
 191:../../core/ST/Middlewares/Third_Party/FreeRTOS/Source/portable/GCC/ARM_CM4F/portmacro.h **** {
 449              		.loc 2 191 30 view .LVU158
 450              	.LBB15:
 193:../../core/ST/Middlewares/Third_Party/FreeRTOS/Source/portable/GCC/ARM_CM4F/portmacro.h **** 
 451              		.loc 2 193 1 view .LVU159
 452              		.loc 2 195 2 view .LVU160
 453              		.syntax unified
 454              	@ 195 "../../core/ST/Middlewares/Third_Party/FreeRTOS/Source/portable/GCC/ARM_CM4F/portmacro.h" 1
 455 0086 4FF01003 			mov r3, #16												
 456 008a 83F31188 		msr basepri, r3											
 457 008e BFF36F8F 		isb														
 458 0092 BFF34F8F 		dsb														
 459              	
 460              	@ 0 "" 2
 461              	.LVL39:
 462              		.thumb
 463              		.syntax unified
 464              	.L28:
 465              		.loc 2 195 2 is_stmt 0 view .LVU161
 466              	.LBE15:
 467              	.LBE14:
 194:../../core/ST/Middlewares/Third_Party/FreeRTOS/Source/portable/MemMang/heap_4.c **** 
 468              		.loc 1 194 7 is_stmt 1 discriminator 3 view .LVU162
 194:../../core/ST/Middlewares/Third_Party/FreeRTOS/Source/portable/MemMang/heap_4.c **** 
 469              		.loc 1 194 7 discriminator 3 view .LVU163
 470 0096 FEE7     		b	.L28
 471              	.L27:
 194:../../core/ST/Middlewares/Third_Party/FreeRTOS/Source/portable/MemMang/heap_4.c **** 
 472              		.loc 1 194 87 discriminator 2 view .LVU164
 198:../../core/ST/Middlewares/Third_Party/FreeRTOS/Source/portable/MemMang/heap_4.c **** 						pxBlock->xBlockSize = xWantedSize;
 473              		.loc 1 198 7 discriminator 2 view .LVU165
 198:../../core/ST/Middlewares/Third_Party/FreeRTOS/Source/portable/MemMang/heap_4.c **** 						pxBlock->xBlockSize = xWantedSize;
 474              		.loc 1 198 34 is_stmt 0 discriminator 2 view .LVU166
 475 0098 4360     		str	r3, [r0, #4]
 199:../../core/ST/Middlewares/Third_Party/FreeRTOS/Source/portable/MemMang/heap_4.c **** 
 476              		.loc 1 199 7 is_stmt 1 discriminator 2 view .LVU167
 199:../../core/ST/Middlewares/Third_Party/FreeRTOS/Source/portable/MemMang/heap_4.c **** 
 477              		.loc 1 199 27 is_stmt 0 discriminator 2 view .LVU168
 478 009a 6C60     		str	r4, [r5, #4]
 202:../../core/ST/Middlewares/Third_Party/FreeRTOS/Source/portable/MemMang/heap_4.c **** 					}
 479              		.loc 1 202 7 is_stmt 1 discriminator 2 view .LVU169
 480 009c FFF7FEFF 		bl	prvInsertBlockIntoFreeList
 481              	.LVL40:
 482              	.L26:
 206:../../core/ST/Middlewares/Third_Party/FreeRTOS/Source/portable/MemMang/heap_4.c **** 					}
 483              		.loc 1 206 31 view .LVU170
ARM GAS  C:\Users\yvesk\AppData\Local\Temp\ccpIoJST.s 			page 22


 209:../../core/ST/Middlewares/Third_Party/FreeRTOS/Source/portable/MemMang/heap_4.c **** 
 484              		.loc 1 209 6 view .LVU171
 209:../../core/ST/Middlewares/Third_Party/FreeRTOS/Source/portable/MemMang/heap_4.c **** 
 485              		.loc 1 209 36 is_stmt 0 view .LVU172
 486 00a0 6A68     		ldr	r2, [r5, #4]
 209:../../core/ST/Middlewares/Third_Party/FreeRTOS/Source/portable/MemMang/heap_4.c **** 
 487              		.loc 1 209 26 view .LVU173
 488 00a2 1649     		ldr	r1, .L39+8
 489 00a4 0B68     		ldr	r3, [r1]
 490 00a6 9B1A     		subs	r3, r3, r2
 491 00a8 0B60     		str	r3, [r1]
 211:../../core/ST/Middlewares/Third_Party/FreeRTOS/Source/portable/MemMang/heap_4.c **** 					{
 492              		.loc 1 211 6 is_stmt 1 view .LVU174
 211:../../core/ST/Middlewares/Third_Party/FreeRTOS/Source/portable/MemMang/heap_4.c **** 					{
 493              		.loc 1 211 30 is_stmt 0 view .LVU175
 494 00aa 1649     		ldr	r1, .L39+16
 495 00ac 0968     		ldr	r1, [r1]
 211:../../core/ST/Middlewares/Third_Party/FreeRTOS/Source/portable/MemMang/heap_4.c **** 					{
 496              		.loc 1 211 8 view .LVU176
 497 00ae 8B42     		cmp	r3, r1
 498 00b0 01D2     		bcs	.L29
 213:../../core/ST/Middlewares/Third_Party/FreeRTOS/Source/portable/MemMang/heap_4.c **** 					}
 499              		.loc 1 213 7 is_stmt 1 view .LVU177
 213:../../core/ST/Middlewares/Third_Party/FreeRTOS/Source/portable/MemMang/heap_4.c **** 					}
 500              		.loc 1 213 38 is_stmt 0 view .LVU178
 501 00b2 1449     		ldr	r1, .L39+16
 502 00b4 0B60     		str	r3, [r1]
 503              	.L29:
 217:../../core/ST/Middlewares/Third_Party/FreeRTOS/Source/portable/MemMang/heap_4.c **** 					}
 504              		.loc 1 217 31 is_stmt 1 view .LVU179
 222:../../core/ST/Middlewares/Third_Party/FreeRTOS/Source/portable/MemMang/heap_4.c **** 					pxBlock->pxNextFreeBlock = NULL;
 505              		.loc 1 222 6 view .LVU180
 222:../../core/ST/Middlewares/Third_Party/FreeRTOS/Source/portable/MemMang/heap_4.c **** 					pxBlock->pxNextFreeBlock = NULL;
 506              		.loc 1 222 26 is_stmt 0 view .LVU181
 507 00b6 104B     		ldr	r3, .L39+4
 508 00b8 1B68     		ldr	r3, [r3]
 509 00ba 1343     		orrs	r3, r3, r2
 510 00bc 6B60     		str	r3, [r5, #4]
 223:../../core/ST/Middlewares/Third_Party/FreeRTOS/Source/portable/MemMang/heap_4.c **** 				}
 511              		.loc 1 223 6 is_stmt 1 view .LVU182
 223:../../core/ST/Middlewares/Third_Party/FreeRTOS/Source/portable/MemMang/heap_4.c **** 				}
 512              		.loc 1 223 31 is_stmt 0 view .LVU183
 513 00be 0023     		movs	r3, #0
 514 00c0 2B60     		str	r3, [r5]
 515 00c2 02E0     		b	.L21
 516              	.LVL41:
 517              	.L32:
 116:../../core/ST/Middlewares/Third_Party/FreeRTOS/Source/portable/MemMang/heap_4.c **** 
 518              		.loc 1 116 7 view .LVU184
 519 00c4 0026     		movs	r6, #0
 520 00c6 00E0     		b	.L21
 521              	.L33:
 116:../../core/ST/Middlewares/Third_Party/FreeRTOS/Source/portable/MemMang/heap_4.c **** 
 522              		.loc 1 116 7 view .LVU185
 523 00c8 0026     		movs	r6, #0
 524              	.LVL42:
 525              	.L21:
ARM GAS  C:\Users\yvesk\AppData\Local\Temp\ccpIoJST.s 			page 23


 237:../../core/ST/Middlewares/Third_Party/FreeRTOS/Source/portable/MemMang/heap_4.c **** 		}
 526              		.loc 1 237 28 is_stmt 1 view .LVU186
 240:../../core/ST/Middlewares/Third_Party/FreeRTOS/Source/portable/MemMang/heap_4.c **** 	}
 527              		.loc 1 240 39 view .LVU187
 242:../../core/ST/Middlewares/Third_Party/FreeRTOS/Source/portable/MemMang/heap_4.c **** 
 528              		.loc 1 242 2 view .LVU188
 242:../../core/ST/Middlewares/Third_Party/FreeRTOS/Source/portable/MemMang/heap_4.c **** 
 529              		.loc 1 242 11 is_stmt 0 view .LVU189
 530 00ca FFF7FEFF 		bl	xTaskResumeAll
 531              	.LVL43:
 258:../../core/ST/Middlewares/Third_Party/FreeRTOS/Source/portable/MemMang/heap_4.c **** 	return pvReturn;
 532              		.loc 1 258 2 is_stmt 1 view .LVU190
 533 00ce 16F0070F 		tst	r6, #7
 534 00d2 0CD0     		beq	.L19
 258:../../core/ST/Middlewares/Third_Party/FreeRTOS/Source/portable/MemMang/heap_4.c **** 	return pvReturn;
 535              		.loc 1 258 2 view .LVU191
 536              	.LBB16:
 537              	.LBI16:
 191:../../core/ST/Middlewares/Third_Party/FreeRTOS/Source/portable/GCC/ARM_CM4F/portmacro.h **** {
 538              		.loc 2 191 30 view .LVU192
 539              	.LBB17:
 193:../../core/ST/Middlewares/Third_Party/FreeRTOS/Source/portable/GCC/ARM_CM4F/portmacro.h **** 
 540              		.loc 2 193 1 view .LVU193
 541              		.loc 2 195 2 view .LVU194
 542              		.syntax unified
 543              	@ 195 "../../core/ST/Middlewares/Third_Party/FreeRTOS/Source/portable/GCC/ARM_CM4F/portmacro.h" 1
 544 00d4 4FF01003 			mov r3, #16												
 545 00d8 83F31188 		msr basepri, r3											
 546 00dc BFF36F8F 		isb														
 547 00e0 BFF34F8F 		dsb														
 548              	
 549              	@ 0 "" 2
 550              	.LVL44:
 551              		.thumb
 552              		.syntax unified
 553              	.L31:
 554              		.loc 2 195 2 is_stmt 0 view .LVU195
 555              	.LBE17:
 556              	.LBE16:
 258:../../core/ST/Middlewares/Third_Party/FreeRTOS/Source/portable/MemMang/heap_4.c **** 	return pvReturn;
 557              		.loc 1 258 2 is_stmt 1 discriminator 5 view .LVU196
 258:../../core/ST/Middlewares/Third_Party/FreeRTOS/Source/portable/MemMang/heap_4.c **** 	return pvReturn;
 558              		.loc 1 258 2 discriminator 5 view .LVU197
 559 00e4 FEE7     		b	.L31
 560              	.LVL45:
 561              	.L34:
 116:../../core/ST/Middlewares/Third_Party/FreeRTOS/Source/portable/MemMang/heap_4.c **** 
 562              		.loc 1 116 7 is_stmt 0 view .LVU198
 563 00e6 0026     		movs	r6, #0
 564 00e8 EFE7     		b	.L21
 565              	.LVL46:
 566              	.L36:
 116:../../core/ST/Middlewares/Third_Party/FreeRTOS/Source/portable/MemMang/heap_4.c **** 
 567              		.loc 1 116 7 view .LVU199
 568 00ea 0026     		movs	r6, #0
 569 00ec EDE7     		b	.L21
 570              	.LVL47:
ARM GAS  C:\Users\yvesk\AppData\Local\Temp\ccpIoJST.s 			page 24


 571              	.L19:
 260:../../core/ST/Middlewares/Third_Party/FreeRTOS/Source/portable/MemMang/heap_4.c **** /*-----------------------------------------------------------*/
 572              		.loc 1 260 1 view .LVU200
 573 00ee 3046     		mov	r0, r6
 574 00f0 70BD     		pop	{r4, r5, r6, pc}
 575              	.LVL48:
 576              	.L40:
 260:../../core/ST/Middlewares/Third_Party/FreeRTOS/Source/portable/MemMang/heap_4.c **** /*-----------------------------------------------------------*/
 577              		.loc 1 260 1 view .LVU201
 578 00f2 00BF     		.align	2
 579              	.L39:
 580 00f4 00000000 		.word	.LANCHOR1
 581 00f8 00000000 		.word	.LANCHOR4
 582 00fc 00000000 		.word	.LANCHOR3
 583 0100 00000000 		.word	.LANCHOR0
 584 0104 00000000 		.word	.LANCHOR2
 585              		.cfi_endproc
 586              	.LFE5:
 588              		.section	.text.vPortFree,"ax",%progbits
 589              		.align	1
 590              		.global	vPortFree
 591              		.syntax unified
 592              		.thumb
 593              		.thumb_func
 594              		.fpu fpv4-sp-d16
 596              	vPortFree:
 597              	.LVL49:
 598              	.LFB6:
 264:../../core/ST/Middlewares/Third_Party/FreeRTOS/Source/portable/MemMang/heap_4.c **** uint8_t *puc = ( uint8_t * ) pv;
 599              		.loc 1 264 1 is_stmt 1 view -0
 600              		.cfi_startproc
 601              		@ args = 0, pretend = 0, frame = 0
 602              		@ frame_needed = 0, uses_anonymous_args = 0
 265:../../core/ST/Middlewares/Third_Party/FreeRTOS/Source/portable/MemMang/heap_4.c **** BlockLink_t *pxLink;
 603              		.loc 1 265 1 view .LVU203
 266:../../core/ST/Middlewares/Third_Party/FreeRTOS/Source/portable/MemMang/heap_4.c **** 
 604              		.loc 1 266 1 view .LVU204
 268:../../core/ST/Middlewares/Third_Party/FreeRTOS/Source/portable/MemMang/heap_4.c **** 	{
 605              		.loc 1 268 2 view .LVU205
 268:../../core/ST/Middlewares/Third_Party/FreeRTOS/Source/portable/MemMang/heap_4.c **** 	{
 606              		.loc 1 268 4 is_stmt 0 view .LVU206
 607 0000 80B3     		cbz	r0, .L48
 264:../../core/ST/Middlewares/Third_Party/FreeRTOS/Source/portable/MemMang/heap_4.c **** uint8_t *puc = ( uint8_t * ) pv;
 608              		.loc 1 264 1 view .LVU207
 609 0002 38B5     		push	{r3, r4, r5, lr}
 610              	.LCFI4:
 611              		.cfi_def_cfa_offset 16
 612              		.cfi_offset 3, -16
 613              		.cfi_offset 4, -12
 614              		.cfi_offset 5, -8
 615              		.cfi_offset 14, -4
 616 0004 0446     		mov	r4, r0
 272:../../core/ST/Middlewares/Third_Party/FreeRTOS/Source/portable/MemMang/heap_4.c **** 
 617              		.loc 1 272 3 is_stmt 1 view .LVU208
 272:../../core/ST/Middlewares/Third_Party/FreeRTOS/Source/portable/MemMang/heap_4.c **** 
 618              		.loc 1 272 7 is_stmt 0 view .LVU209
 619 0006 A0F10805 		sub	r5, r0, #8
ARM GAS  C:\Users\yvesk\AppData\Local\Temp\ccpIoJST.s 			page 25


 620              	.LVL50:
 275:../../core/ST/Middlewares/Third_Party/FreeRTOS/Source/portable/MemMang/heap_4.c **** 
 621              		.loc 1 275 3 is_stmt 1 view .LVU210
 278:../../core/ST/Middlewares/Third_Party/FreeRTOS/Source/portable/MemMang/heap_4.c **** 		configASSERT( pxLink->pxNextFreeBlock == NULL );
 622              		.loc 1 278 3 view .LVU211
 623 000a 50F8042C 		ldr	r2, [r0, #-4]
 624 000e 1649     		ldr	r1, .L51
 625 0010 0968     		ldr	r1, [r1]
 626 0012 0A42     		tst	r2, r1
 627 0014 08D1     		bne	.L43
 278:../../core/ST/Middlewares/Third_Party/FreeRTOS/Source/portable/MemMang/heap_4.c **** 		configASSERT( pxLink->pxNextFreeBlock == NULL );
 628              		.loc 1 278 3 view .LVU212
 629              	.LBB18:
 630              	.LBI18:
 191:../../core/ST/Middlewares/Third_Party/FreeRTOS/Source/portable/GCC/ARM_CM4F/portmacro.h **** {
 631              		.loc 2 191 30 view .LVU213
 632              	.LBB19:
 193:../../core/ST/Middlewares/Third_Party/FreeRTOS/Source/portable/GCC/ARM_CM4F/portmacro.h **** 
 633              		.loc 2 193 1 view .LVU214
 634              		.loc 2 195 2 view .LVU215
 635              		.syntax unified
 636              	@ 195 "../../core/ST/Middlewares/Third_Party/FreeRTOS/Source/portable/GCC/ARM_CM4F/portmacro.h" 1
 637 0016 4FF01003 			mov r3, #16												
 638 001a 83F31188 		msr basepri, r3											
 639 001e BFF36F8F 		isb														
 640 0022 BFF34F8F 		dsb														
 641              	
 642              	@ 0 "" 2
 643              	.LVL51:
 644              		.thumb
 645              		.syntax unified
 646              	.L44:
 647              		.loc 2 195 2 is_stmt 0 view .LVU216
 648              	.LBE19:
 649              	.LBE18:
 278:../../core/ST/Middlewares/Third_Party/FreeRTOS/Source/portable/MemMang/heap_4.c **** 		configASSERT( pxLink->pxNextFreeBlock == NULL );
 650              		.loc 1 278 3 is_stmt 1 discriminator 1 view .LVU217
 278:../../core/ST/Middlewares/Third_Party/FreeRTOS/Source/portable/MemMang/heap_4.c **** 		configASSERT( pxLink->pxNextFreeBlock == NULL );
 651              		.loc 1 278 3 discriminator 1 view .LVU218
 652 0026 FEE7     		b	.L44
 653              	.L43:
 278:../../core/ST/Middlewares/Third_Party/FreeRTOS/Source/portable/MemMang/heap_4.c **** 		configASSERT( pxLink->pxNextFreeBlock == NULL );
 654              		.loc 1 278 67 discriminator 2 view .LVU219
 279:../../core/ST/Middlewares/Third_Party/FreeRTOS/Source/portable/MemMang/heap_4.c **** 
 655              		.loc 1 279 3 discriminator 2 view .LVU220
 656 0028 50F8080C 		ldr	r0, [r0, #-8]
 657              	.LVL52:
 279:../../core/ST/Middlewares/Third_Party/FreeRTOS/Source/portable/MemMang/heap_4.c **** 
 658              		.loc 1 279 3 is_stmt 0 discriminator 2 view .LVU221
 659 002c 40B1     		cbz	r0, .L45
 279:../../core/ST/Middlewares/Third_Party/FreeRTOS/Source/portable/MemMang/heap_4.c **** 
 660              		.loc 1 279 3 is_stmt 1 view .LVU222
 661              	.LBB20:
 662              	.LBI20:
 191:../../core/ST/Middlewares/Third_Party/FreeRTOS/Source/portable/GCC/ARM_CM4F/portmacro.h **** {
 663              		.loc 2 191 30 view .LVU223
 664              	.LBB21:
ARM GAS  C:\Users\yvesk\AppData\Local\Temp\ccpIoJST.s 			page 26


 193:../../core/ST/Middlewares/Third_Party/FreeRTOS/Source/portable/GCC/ARM_CM4F/portmacro.h **** 
 665              		.loc 2 193 1 view .LVU224
 666              		.loc 2 195 2 view .LVU225
 667              		.syntax unified
 668              	@ 195 "../../core/ST/Middlewares/Third_Party/FreeRTOS/Source/portable/GCC/ARM_CM4F/portmacro.h" 1
 669 002e 4FF01003 			mov r3, #16												
 670 0032 83F31188 		msr basepri, r3											
 671 0036 BFF36F8F 		isb														
 672 003a BFF34F8F 		dsb														
 673              	
 674              	@ 0 "" 2
 675              	.LVL53:
 676              		.thumb
 677              		.syntax unified
 678              	.L46:
 679              		.loc 2 195 2 is_stmt 0 view .LVU226
 680              	.LBE21:
 681              	.LBE20:
 279:../../core/ST/Middlewares/Third_Party/FreeRTOS/Source/portable/MemMang/heap_4.c **** 
 682              		.loc 1 279 3 is_stmt 1 discriminator 2 view .LVU227
 279:../../core/ST/Middlewares/Third_Party/FreeRTOS/Source/portable/MemMang/heap_4.c **** 
 683              		.loc 1 279 3 discriminator 2 view .LVU228
 684 003e FEE7     		b	.L46
 685              	.L45:
 279:../../core/ST/Middlewares/Third_Party/FreeRTOS/Source/portable/MemMang/heap_4.c **** 
 686              		.loc 1 279 50 view .LVU229
 281:../../core/ST/Middlewares/Third_Party/FreeRTOS/Source/portable/MemMang/heap_4.c **** 		{
 687              		.loc 1 281 3 view .LVU230
 283:../../core/ST/Middlewares/Third_Party/FreeRTOS/Source/portable/MemMang/heap_4.c **** 			{
 688              		.loc 1 283 4 view .LVU231
 287:../../core/ST/Middlewares/Third_Party/FreeRTOS/Source/portable/MemMang/heap_4.c **** 
 689              		.loc 1 287 5 view .LVU232
 287:../../core/ST/Middlewares/Third_Party/FreeRTOS/Source/portable/MemMang/heap_4.c **** 
 690              		.loc 1 287 24 is_stmt 0 view .LVU233
 691 0040 22EA0102 		bic	r2, r2, r1
 692 0044 44F8042C 		str	r2, [r4, #-4]
 289:../../core/ST/Middlewares/Third_Party/FreeRTOS/Source/portable/MemMang/heap_4.c **** 				{
 693              		.loc 1 289 5 is_stmt 1 view .LVU234
 694 0048 FFF7FEFF 		bl	vTaskSuspendAll
 695              	.LVL54:
 292:../../core/ST/Middlewares/Third_Party/FreeRTOS/Source/portable/MemMang/heap_4.c **** 					traceFREE( pv, pxLink->xBlockSize );
 696              		.loc 1 292 6 view .LVU235
 292:../../core/ST/Middlewares/Third_Party/FreeRTOS/Source/portable/MemMang/heap_4.c **** 					traceFREE( pv, pxLink->xBlockSize );
 697              		.loc 1 292 35 is_stmt 0 view .LVU236
 698 004c 54F8041C 		ldr	r1, [r4, #-4]
 292:../../core/ST/Middlewares/Third_Party/FreeRTOS/Source/portable/MemMang/heap_4.c **** 					traceFREE( pv, pxLink->xBlockSize );
 699              		.loc 1 292 26 view .LVU237
 700 0050 064A     		ldr	r2, .L51+4
 701 0052 1368     		ldr	r3, [r2]
 702 0054 0B44     		add	r3, r3, r1
 703 0056 1360     		str	r3, [r2]
 293:../../core/ST/Middlewares/Third_Party/FreeRTOS/Source/portable/MemMang/heap_4.c **** 					prvInsertBlockIntoFreeList( ( ( BlockLink_t * ) pxLink ) );
 704              		.loc 1 293 41 is_stmt 1 view .LVU238
 294:../../core/ST/Middlewares/Third_Party/FreeRTOS/Source/portable/MemMang/heap_4.c **** 				}
 705              		.loc 1 294 6 view .LVU239
 706 0058 2846     		mov	r0, r5
 707 005a FFF7FEFF 		bl	prvInsertBlockIntoFreeList
ARM GAS  C:\Users\yvesk\AppData\Local\Temp\ccpIoJST.s 			page 27


 708              	.LVL55:
 296:../../core/ST/Middlewares/Third_Party/FreeRTOS/Source/portable/MemMang/heap_4.c **** 			}
 709              		.loc 1 296 5 view .LVU240
 296:../../core/ST/Middlewares/Third_Party/FreeRTOS/Source/portable/MemMang/heap_4.c **** 			}
 710              		.loc 1 296 14 is_stmt 0 view .LVU241
 711 005e FFF7FEFF 		bl	xTaskResumeAll
 712              	.LVL56:
 305:../../core/ST/Middlewares/Third_Party/FreeRTOS/Source/portable/MemMang/heap_4.c **** 		}
 713              		.loc 1 305 28 is_stmt 1 view .LVU242
 308:../../core/ST/Middlewares/Third_Party/FreeRTOS/Source/portable/MemMang/heap_4.c **** /*-----------------------------------------------------------*/
 714              		.loc 1 308 1 is_stmt 0 view .LVU243
 715 0062 38BD     		pop	{r3, r4, r5, pc}
 716              	.LVL57:
 717              	.L48:
 718              	.LCFI5:
 719              		.cfi_def_cfa_offset 0
 720              		.cfi_restore 3
 721              		.cfi_restore 4
 722              		.cfi_restore 5
 723              		.cfi_restore 14
 308:../../core/ST/Middlewares/Third_Party/FreeRTOS/Source/portable/MemMang/heap_4.c **** /*-----------------------------------------------------------*/
 724              		.loc 1 308 1 view .LVU244
 725 0064 7047     		bx	lr
 726              	.L52:
 727 0066 00BF     		.align	2
 728              	.L51:
 729 0068 00000000 		.word	.LANCHOR4
 730 006c 00000000 		.word	.LANCHOR3
 731              		.cfi_endproc
 732              	.LFE6:
 734              		.section	.text.xPortGetFreeHeapSize,"ax",%progbits
 735              		.align	1
 736              		.global	xPortGetFreeHeapSize
 737              		.syntax unified
 738              		.thumb
 739              		.thumb_func
 740              		.fpu fpv4-sp-d16
 742              	xPortGetFreeHeapSize:
 743              	.LFB7:
 312:../../core/ST/Middlewares/Third_Party/FreeRTOS/Source/portable/MemMang/heap_4.c **** 	return xFreeBytesRemaining;
 744              		.loc 1 312 1 is_stmt 1 view -0
 745              		.cfi_startproc
 746              		@ args = 0, pretend = 0, frame = 0
 747              		@ frame_needed = 0, uses_anonymous_args = 0
 748              		@ link register save eliminated.
 313:../../core/ST/Middlewares/Third_Party/FreeRTOS/Source/portable/MemMang/heap_4.c **** }
 749              		.loc 1 313 2 view .LVU246
 314:../../core/ST/Middlewares/Third_Party/FreeRTOS/Source/portable/MemMang/heap_4.c **** /*-----------------------------------------------------------*/
 750              		.loc 1 314 1 is_stmt 0 view .LVU247
 751 0000 014B     		ldr	r3, .L54
 752 0002 1868     		ldr	r0, [r3]
 753 0004 7047     		bx	lr
 754              	.L55:
 755 0006 00BF     		.align	2
 756              	.L54:
 757 0008 00000000 		.word	.LANCHOR3
 758              		.cfi_endproc
ARM GAS  C:\Users\yvesk\AppData\Local\Temp\ccpIoJST.s 			page 28


 759              	.LFE7:
 761              		.section	.text.xPortGetMinimumEverFreeHeapSize,"ax",%progbits
 762              		.align	1
 763              		.global	xPortGetMinimumEverFreeHeapSize
 764              		.syntax unified
 765              		.thumb
 766              		.thumb_func
 767              		.fpu fpv4-sp-d16
 769              	xPortGetMinimumEverFreeHeapSize:
 770              	.LFB8:
 318:../../core/ST/Middlewares/Third_Party/FreeRTOS/Source/portable/MemMang/heap_4.c **** 	return xMinimumEverFreeBytesRemaining;
 771              		.loc 1 318 1 is_stmt 1 view -0
 772              		.cfi_startproc
 773              		@ args = 0, pretend = 0, frame = 0
 774              		@ frame_needed = 0, uses_anonymous_args = 0
 775              		@ link register save eliminated.
 319:../../core/ST/Middlewares/Third_Party/FreeRTOS/Source/portable/MemMang/heap_4.c **** }
 776              		.loc 1 319 2 view .LVU249
 320:../../core/ST/Middlewares/Third_Party/FreeRTOS/Source/portable/MemMang/heap_4.c **** /*-----------------------------------------------------------*/
 777              		.loc 1 320 1 is_stmt 0 view .LVU250
 778 0000 014B     		ldr	r3, .L57
 779 0002 1868     		ldr	r0, [r3]
 780 0004 7047     		bx	lr
 781              	.L58:
 782 0006 00BF     		.align	2
 783              	.L57:
 784 0008 00000000 		.word	.LANCHOR2
 785              		.cfi_endproc
 786              	.LFE8:
 788              		.section	.text.vPortInitialiseBlocks,"ax",%progbits
 789              		.align	1
 790              		.global	vPortInitialiseBlocks
 791              		.syntax unified
 792              		.thumb
 793              		.thumb_func
 794              		.fpu fpv4-sp-d16
 796              	vPortInitialiseBlocks:
 797              	.LFB9:
 324:../../core/ST/Middlewares/Third_Party/FreeRTOS/Source/portable/MemMang/heap_4.c **** 	/* This just exists to keep the linker quiet. */
 798              		.loc 1 324 1 is_stmt 1 view -0
 799              		.cfi_startproc
 800              		@ args = 0, pretend = 0, frame = 0
 801              		@ frame_needed = 0, uses_anonymous_args = 0
 802              		@ link register save eliminated.
 326:../../core/ST/Middlewares/Third_Party/FreeRTOS/Source/portable/MemMang/heap_4.c **** /*-----------------------------------------------------------*/
 803              		.loc 1 326 1 view .LVU252
 804 0000 7047     		bx	lr
 805              		.cfi_endproc
 806              	.LFE9:
 808              		.section	.bss.pxEnd,"aw",%nobits
 809              		.align	2
 810              		.set	.LANCHOR1,. + 0
 813              	pxEnd:
 814 0000 00000000 		.space	4
 815              		.section	.bss.ucHeap,"aw",%nobits
 816              		.align	2
 819              	ucHeap:
ARM GAS  C:\Users\yvesk\AppData\Local\Temp\ccpIoJST.s 			page 29


 820 0000 00000000 		.space	147456
 820      00000000 
 820      00000000 
 820      00000000 
 820      00000000 
 821              		.section	.bss.xBlockAllocatedBit,"aw",%nobits
 822              		.align	2
 823              		.set	.LANCHOR4,. + 0
 826              	xBlockAllocatedBit:
 827 0000 00000000 		.space	4
 828              		.section	.bss.xFreeBytesRemaining,"aw",%nobits
 829              		.align	2
 830              		.set	.LANCHOR3,. + 0
 833              	xFreeBytesRemaining:
 834 0000 00000000 		.space	4
 835              		.section	.bss.xMinimumEverFreeBytesRemaining,"aw",%nobits
 836              		.align	2
 837              		.set	.LANCHOR2,. + 0
 840              	xMinimumEverFreeBytesRemaining:
 841 0000 00000000 		.space	4
 842              		.section	.bss.xStart,"aw",%nobits
 843              		.align	2
 844              		.set	.LANCHOR0,. + 0
 847              	xStart:
 848 0000 00000000 		.space	8
 848      00000000 
 849              		.text
 850              	.Letext0:
 851              		.file 3 "c:\\program files (x86)\\gnu tools arm embedded\\8 2019-q3-update\\lib\\gcc\\arm-none-eab
 852              		.file 4 "c:\\program files (x86)\\gnu tools arm embedded\\8 2019-q3-update\\arm-none-eabi\\include
 853              		.file 5 "c:\\program files (x86)\\gnu tools arm embedded\\8 2019-q3-update\\arm-none-eabi\\include
 854              		.file 6 "c:\\program files (x86)\\gnu tools arm embedded\\8 2019-q3-update\\arm-none-eabi\\include
 855              		.file 7 "c:\\program files (x86)\\gnu tools arm embedded\\8 2019-q3-update\\arm-none-eabi\\include
 856              		.file 8 "c:\\program files (x86)\\gnu tools arm embedded\\8 2019-q3-update\\arm-none-eabi\\include
 857              		.file 9 "c:\\program files (x86)\\gnu tools arm embedded\\8 2019-q3-update\\arm-none-eabi\\include
 858              		.file 10 "../../core/platform/octa/inc/FreeRTOSConfig.h"
 859              		.file 11 "../../core/ST/Middlewares/Third_Party/FreeRTOS/Source/include/task.h"
ARM GAS  C:\Users\yvesk\AppData\Local\Temp\ccpIoJST.s 			page 30

