ARM GAS  C:\Users\yvesk\AppData\Local\Temp\cctrlrm4.s 			page 1


   1              		.cpu cortex-m4
   2              		.eabi_attribute 27, 1
   3              		.eabi_attribute 28, 1
   4              		.eabi_attribute 20, 1
   5              		.eabi_attribute 21, 1
   6              		.eabi_attribute 23, 3
   7              		.eabi_attribute 24, 1
   8              		.eabi_attribute 25, 1
   9              		.eabi_attribute 26, 1
  10              		.eabi_attribute 30, 1
  11              		.eabi_attribute 34, 1
  12              		.eabi_attribute 18, 4
  13              		.file	"LSM303AGRSensor.c"
  14              		.text
  15              	.Ltext0:
  16              		.cfi_sections	.debug_frame
  17              		.section	.text.LSM303AGR_setI2CInterface,"ax",%progbits
  18              		.align	1
  19              		.global	LSM303AGR_setI2CInterface
  20              		.arch armv7e-m
  21              		.syntax unified
  22              		.thumb
  23              		.thumb_func
  24              		.fpu fpv4-sp-d16
  26              	LSM303AGR_setI2CInterface:
  27              	.LVL0:
  28              	.LFB123:
  29              		.file 1 "../../core/drivers/LSM303AGR/src/LSM303AGRSensor.c"
   1:../../core/drivers/LSM303AGR/src/LSM303AGRSensor.c **** #include "LSM303AGRSensor.h"
   2:../../core/drivers/LSM303AGR/src/LSM303AGRSensor.c **** 
   3:../../core/drivers/LSM303AGR/src/LSM303AGRSensor.c **** 
   4:../../core/drivers/LSM303AGR/src/LSM303AGRSensor.c **** /**
   5:../../core/drivers/LSM303AGR/src/LSM303AGRSensor.c ****  * Sets the I2C interface for the LSM303AGR
   6:../../core/drivers/LSM303AGR/src/LSM303AGRSensor.c ****  * @param hi2c: the I2C interface
   7:../../core/drivers/LSM303AGR/src/LSM303AGRSensor.c ****  */
   8:../../core/drivers/LSM303AGR/src/LSM303AGRSensor.c **** void LSM303AGR_setI2CInterface(I2C_HandleTypeDef *hi2c) {
  30              		.loc 1 8 57 view -0
  31              		.cfi_startproc
  32              		@ args = 0, pretend = 0, frame = 0
  33              		@ frame_needed = 0, uses_anonymous_args = 0
  34              		@ link register save eliminated.
   9:../../core/drivers/LSM303AGR/src/LSM303AGRSensor.c **** 
  10:../../core/drivers/LSM303AGR/src/LSM303AGRSensor.c **** 	LSM303AGR_hi2c = hi2c;
  35              		.loc 1 10 2 view .LVU1
  36              		.loc 1 10 17 is_stmt 0 view .LVU2
  37 0000 014B     		ldr	r3, .L2
  38 0002 1860     		str	r0, [r3]
  11:../../core/drivers/LSM303AGR/src/LSM303AGRSensor.c **** }
  39              		.loc 1 11 1 view .LVU3
  40 0004 7047     		bx	lr
  41              	.L3:
  42 0006 00BF     		.align	2
  43              	.L2:
  44 0008 00000000 		.word	LSM303AGR_hi2c
  45              		.cfi_endproc
  46              	.LFE123:
  48              		.section	.text.LSM303AGR_readRegister,"ax",%progbits
ARM GAS  C:\Users\yvesk\AppData\Local\Temp\cctrlrm4.s 			page 2


  49              		.align	1
  50              		.global	LSM303AGR_readRegister
  51              		.syntax unified
  52              		.thumb
  53              		.thumb_func
  54              		.fpu fpv4-sp-d16
  56              	LSM303AGR_readRegister:
  57              	.LVL1:
  58              	.LFB124:
  12:../../core/drivers/LSM303AGR/src/LSM303AGRSensor.c **** 
  13:../../core/drivers/LSM303AGR/src/LSM303AGRSensor.c **** /**
  14:../../core/drivers/LSM303AGR/src/LSM303AGRSensor.c ****  * Read a certain register of the LSM303AGR depending on the value of ACC_MAG:
  15:../../core/drivers/LSM303AGR/src/LSM303AGRSensor.c ****  * 		- if this value is 0: read out a register of the accelerometer
  16:../../core/drivers/LSM303AGR/src/LSM303AGRSensor.c ****  * 		- if this value is 1: read out a register of the magnetormeter
  17:../../core/drivers/LSM303AGR/src/LSM303AGRSensor.c ****  * The standard HAL library values are used for the size of the register and time-out.
  18:../../core/drivers/LSM303AGR/src/LSM303AGRSensor.c ****  * @param LSM303AGR_reg: the register that needs to be read of the LSM303AGR
  19:../../core/drivers/LSM303AGR/src/LSM303AGRSensor.c ****  * @param LSM303AGR_data: a pointer where the data of the register needs to be stored
  20:../../core/drivers/LSM303AGR/src/LSM303AGRSensor.c ****  * @param ACC_MAG: depending on the value a value a register of the accelerometer of magnetometer a
  21:../../core/drivers/LSM303AGR/src/LSM303AGRSensor.c ****  * @return returns the status of the I2C transfer
  22:../../core/drivers/LSM303AGR/src/LSM303AGRSensor.c ****  */
  23:../../core/drivers/LSM303AGR/src/LSM303AGRSensor.c **** HAL_StatusTypeDef LSM303AGR_readRegister(uint8_t LSM303AGR_reg,
  24:../../core/drivers/LSM303AGR/src/LSM303AGRSensor.c **** 		uint8_t LSM303AGR_data, uint8_t ACC_MAG) {
  59              		.loc 1 24 44 is_stmt 1 view -0
  60              		.cfi_startproc
  61              		@ args = 0, pretend = 0, frame = 8
  62              		@ frame_needed = 0, uses_anonymous_args = 0
  63              		.loc 1 24 44 is_stmt 0 view .LVU5
  64 0000 00B5     		push	{lr}
  65              	.LCFI0:
  66              		.cfi_def_cfa_offset 4
  67              		.cfi_offset 14, -4
  68 0002 87B0     		sub	sp, sp, #28
  69              	.LCFI1:
  70              		.cfi_def_cfa_offset 32
  71 0004 8DF81710 		strb	r1, [sp, #23]
  25:../../core/drivers/LSM303AGR/src/LSM303AGRSensor.c **** 
  26:../../core/drivers/LSM303AGR/src/LSM303AGRSensor.c **** 	if (ACC_MAG == 0) {
  72              		.loc 1 26 2 is_stmt 1 view .LVU6
  73              		.loc 1 26 5 is_stmt 0 view .LVU7
  74 0008 8AB9     		cbnz	r2, .L5
  27:../../core/drivers/LSM303AGR/src/LSM303AGRSensor.c **** 		HAL_I2C_Mem_Read(LSM303AGR_hi2c, LSM303AGR_ACC_I2C_ADDRESS,
  75              		.loc 1 27 3 is_stmt 1 view .LVU8
  76 000a 4FF0FF33 		mov	r3, #-1
  77 000e 0293     		str	r3, [sp, #8]
  78 0010 0123     		movs	r3, #1
  79 0012 0193     		str	r3, [sp, #4]
  80 0014 0DF11702 		add	r2, sp, #23
  81              	.LVL2:
  82              		.loc 1 27 3 is_stmt 0 view .LVU9
  83 0018 0092     		str	r2, [sp]
  84 001a 0246     		mov	r2, r0
  85 001c 3221     		movs	r1, #50
  86              	.LVL3:
  87              		.loc 1 27 3 view .LVU10
  88 001e 0B48     		ldr	r0, .L8
  89              	.LVL4:
  90              		.loc 1 27 3 view .LVU11
ARM GAS  C:\Users\yvesk\AppData\Local\Temp\cctrlrm4.s 			page 3


  91 0020 0068     		ldr	r0, [r0]
  92 0022 FFF7FEFF 		bl	HAL_I2C_Mem_Read
  93              	.LVL5:
  94              	.L6:
  28:../../core/drivers/LSM303AGR/src/LSM303AGRSensor.c **** 				LSM303AGR_reg, I2C_MEMADD_SIZE_8BIT, &LSM303AGR_data,
  29:../../core/drivers/LSM303AGR/src/LSM303AGRSensor.c **** 				sizeof(LSM303AGR_data), HAL_MAX_DELAY);
  30:../../core/drivers/LSM303AGR/src/LSM303AGRSensor.c **** 	} else {
  31:../../core/drivers/LSM303AGR/src/LSM303AGRSensor.c **** 		HAL_I2C_Mem_Read(LSM303AGR_hi2c, LSM303AGR_MAG_I2C_ADDRESS,
  32:../../core/drivers/LSM303AGR/src/LSM303AGRSensor.c **** 				LSM303AGR_reg, I2C_MEMADD_SIZE_8BIT, &LSM303AGR_data,
  33:../../core/drivers/LSM303AGR/src/LSM303AGRSensor.c **** 				sizeof(LSM303AGR_data), HAL_MAX_DELAY);
  34:../../core/drivers/LSM303AGR/src/LSM303AGRSensor.c **** 	}
  35:../../core/drivers/LSM303AGR/src/LSM303AGRSensor.c **** 
  36:../../core/drivers/LSM303AGR/src/LSM303AGRSensor.c **** 	return HAL_OK;
  95              		.loc 1 36 2 is_stmt 1 view .LVU12
  37:../../core/drivers/LSM303AGR/src/LSM303AGRSensor.c **** }
  96              		.loc 1 37 1 is_stmt 0 view .LVU13
  97 0026 0020     		movs	r0, #0
  98 0028 07B0     		add	sp, sp, #28
  99              	.LCFI2:
 100              		.cfi_remember_state
 101              		.cfi_def_cfa_offset 4
 102              		@ sp needed
 103 002a 5DF804FB 		ldr	pc, [sp], #4
 104              	.LVL6:
 105              	.L5:
 106              	.LCFI3:
 107              		.cfi_restore_state
  31:../../core/drivers/LSM303AGR/src/LSM303AGRSensor.c **** 				LSM303AGR_reg, I2C_MEMADD_SIZE_8BIT, &LSM303AGR_data,
 108              		.loc 1 31 3 is_stmt 1 view .LVU14
 109 002e 4FF0FF33 		mov	r3, #-1
 110 0032 0293     		str	r3, [sp, #8]
 111 0034 0123     		movs	r3, #1
 112 0036 0193     		str	r3, [sp, #4]
 113 0038 0DF11702 		add	r2, sp, #23
 114              	.LVL7:
  31:../../core/drivers/LSM303AGR/src/LSM303AGRSensor.c **** 				LSM303AGR_reg, I2C_MEMADD_SIZE_8BIT, &LSM303AGR_data,
 115              		.loc 1 31 3 is_stmt 0 view .LVU15
 116 003c 0092     		str	r2, [sp]
 117 003e 0246     		mov	r2, r0
 118 0040 3C21     		movs	r1, #60
 119              	.LVL8:
  31:../../core/drivers/LSM303AGR/src/LSM303AGRSensor.c **** 				LSM303AGR_reg, I2C_MEMADD_SIZE_8BIT, &LSM303AGR_data,
 120              		.loc 1 31 3 view .LVU16
 121 0042 0248     		ldr	r0, .L8
 122              	.LVL9:
  31:../../core/drivers/LSM303AGR/src/LSM303AGRSensor.c **** 				LSM303AGR_reg, I2C_MEMADD_SIZE_8BIT, &LSM303AGR_data,
 123              		.loc 1 31 3 view .LVU17
 124 0044 0068     		ldr	r0, [r0]
 125 0046 FFF7FEFF 		bl	HAL_I2C_Mem_Read
 126              	.LVL10:
  31:../../core/drivers/LSM303AGR/src/LSM303AGRSensor.c **** 				LSM303AGR_reg, I2C_MEMADD_SIZE_8BIT, &LSM303AGR_data,
 127              		.loc 1 31 3 view .LVU18
 128 004a ECE7     		b	.L6
 129              	.L9:
 130              		.align	2
 131              	.L8:
 132 004c 00000000 		.word	LSM303AGR_hi2c
ARM GAS  C:\Users\yvesk\AppData\Local\Temp\cctrlrm4.s 			page 4


 133              		.cfi_endproc
 134              	.LFE124:
 136              		.section	.text.LSM303AGR_writeRegister,"ax",%progbits
 137              		.align	1
 138              		.global	LSM303AGR_writeRegister
 139              		.syntax unified
 140              		.thumb
 141              		.thumb_func
 142              		.fpu fpv4-sp-d16
 144              	LSM303AGR_writeRegister:
 145              	.LVL11:
 146              	.LFB125:
  38:../../core/drivers/LSM303AGR/src/LSM303AGRSensor.c **** 
  39:../../core/drivers/LSM303AGR/src/LSM303AGRSensor.c **** /**
  40:../../core/drivers/LSM303AGR/src/LSM303AGRSensor.c ****  * Writes a cerain value to a certain register of the LSM303AGR depending on the value of ACC_MAG:
  41:../../core/drivers/LSM303AGR/src/LSM303AGRSensor.c ****  *   	- if this value is 0: write to a register of the accelerometer
  42:../../core/drivers/LSM303AGR/src/LSM303AGRSensor.c ****  * 		- if this value is 1: write to a register of the magnetormeter
  43:../../core/drivers/LSM303AGR/src/LSM303AGRSensor.c ****  * the standard HAL library values are used for the size of the register and time-out.
  44:../../core/drivers/LSM303AGR/src/LSM303AGRSensor.c ****  * @param LSM303AGR_reg: the register where data needs to be written to
  45:../../core/drivers/LSM303AGR/src/LSM303AGRSensor.c ****  * @param LSM303AGR_data: a pointer to the data that needs to be written
  46:../../core/drivers/LSM303AGR/src/LSM303AGRSensor.c ****  * @param ACC_MAG: depending on the value, a write is performed to the accelerometer of magnetomete
  47:../../core/drivers/LSM303AGR/src/LSM303AGRSensor.c ****  * @return returns the status of the I2C transfer
  48:../../core/drivers/LSM303AGR/src/LSM303AGRSensor.c ****  */
  49:../../core/drivers/LSM303AGR/src/LSM303AGRSensor.c **** HAL_StatusTypeDef LSM303AGR_writeRegister(uint8_t LSM303AGR_reg,
  50:../../core/drivers/LSM303AGR/src/LSM303AGRSensor.c **** 		uint8_t LSM303AGR_data, uint8_t ACC_MAG) {
 147              		.loc 1 50 44 is_stmt 1 view -0
 148              		.cfi_startproc
 149              		@ args = 0, pretend = 0, frame = 8
 150              		@ frame_needed = 0, uses_anonymous_args = 0
 151              		.loc 1 50 44 is_stmt 0 view .LVU20
 152 0000 00B5     		push	{lr}
 153              	.LCFI4:
 154              		.cfi_def_cfa_offset 4
 155              		.cfi_offset 14, -4
 156 0002 87B0     		sub	sp, sp, #28
 157              	.LCFI5:
 158              		.cfi_def_cfa_offset 32
 159 0004 8DF81710 		strb	r1, [sp, #23]
  51:../../core/drivers/LSM303AGR/src/LSM303AGRSensor.c **** 
  52:../../core/drivers/LSM303AGR/src/LSM303AGRSensor.c **** 	if (ACC_MAG == 0) {
 160              		.loc 1 52 2 is_stmt 1 view .LVU21
 161              		.loc 1 52 5 is_stmt 0 view .LVU22
 162 0008 8AB9     		cbnz	r2, .L11
  53:../../core/drivers/LSM303AGR/src/LSM303AGRSensor.c **** 		HAL_I2C_Mem_Write(LSM303AGR_hi2c, LSM303AGR_ACC_I2C_ADDRESS,
 163              		.loc 1 53 3 is_stmt 1 view .LVU23
 164 000a 4FF0FF33 		mov	r3, #-1
 165 000e 0293     		str	r3, [sp, #8]
 166 0010 0123     		movs	r3, #1
 167 0012 0193     		str	r3, [sp, #4]
 168 0014 0DF11702 		add	r2, sp, #23
 169              	.LVL12:
 170              		.loc 1 53 3 is_stmt 0 view .LVU24
 171 0018 0092     		str	r2, [sp]
 172 001a 0246     		mov	r2, r0
 173 001c 3221     		movs	r1, #50
 174              	.LVL13:
 175              		.loc 1 53 3 view .LVU25
ARM GAS  C:\Users\yvesk\AppData\Local\Temp\cctrlrm4.s 			page 5


 176 001e 0B48     		ldr	r0, .L14
 177              	.LVL14:
 178              		.loc 1 53 3 view .LVU26
 179 0020 0068     		ldr	r0, [r0]
 180 0022 FFF7FEFF 		bl	HAL_I2C_Mem_Write
 181              	.LVL15:
 182              	.L12:
  54:../../core/drivers/LSM303AGR/src/LSM303AGRSensor.c **** 				LSM303AGR_reg, I2C_MEMADD_SIZE_8BIT, &LSM303AGR_data,
  55:../../core/drivers/LSM303AGR/src/LSM303AGRSensor.c **** 				sizeof(LSM303AGR_data), HAL_MAX_DELAY);
  56:../../core/drivers/LSM303AGR/src/LSM303AGRSensor.c **** 	} else {
  57:../../core/drivers/LSM303AGR/src/LSM303AGRSensor.c **** 		HAL_I2C_Mem_Write(LSM303AGR_hi2c, LSM303AGR_MAG_I2C_ADDRESS,
  58:../../core/drivers/LSM303AGR/src/LSM303AGRSensor.c **** 				LSM303AGR_reg, I2C_MEMADD_SIZE_8BIT, &LSM303AGR_data,
  59:../../core/drivers/LSM303AGR/src/LSM303AGRSensor.c **** 				sizeof(LSM303AGR_setting), HAL_MAX_DELAY);
  60:../../core/drivers/LSM303AGR/src/LSM303AGRSensor.c **** 	}
  61:../../core/drivers/LSM303AGR/src/LSM303AGRSensor.c **** 
  62:../../core/drivers/LSM303AGR/src/LSM303AGRSensor.c **** 	return HAL_OK;
 183              		.loc 1 62 2 is_stmt 1 view .LVU27
  63:../../core/drivers/LSM303AGR/src/LSM303AGRSensor.c **** 
  64:../../core/drivers/LSM303AGR/src/LSM303AGRSensor.c **** }
 184              		.loc 1 64 1 is_stmt 0 view .LVU28
 185 0026 0020     		movs	r0, #0
 186 0028 07B0     		add	sp, sp, #28
 187              	.LCFI6:
 188              		.cfi_remember_state
 189              		.cfi_def_cfa_offset 4
 190              		@ sp needed
 191 002a 5DF804FB 		ldr	pc, [sp], #4
 192              	.LVL16:
 193              	.L11:
 194              	.LCFI7:
 195              		.cfi_restore_state
  57:../../core/drivers/LSM303AGR/src/LSM303AGRSensor.c **** 				LSM303AGR_reg, I2C_MEMADD_SIZE_8BIT, &LSM303AGR_data,
 196              		.loc 1 57 3 is_stmt 1 view .LVU29
 197 002e 4FF0FF33 		mov	r3, #-1
 198 0032 0293     		str	r3, [sp, #8]
 199 0034 0123     		movs	r3, #1
 200 0036 0193     		str	r3, [sp, #4]
 201 0038 0DF11702 		add	r2, sp, #23
 202              	.LVL17:
  57:../../core/drivers/LSM303AGR/src/LSM303AGRSensor.c **** 				LSM303AGR_reg, I2C_MEMADD_SIZE_8BIT, &LSM303AGR_data,
 203              		.loc 1 57 3 is_stmt 0 view .LVU30
 204 003c 0092     		str	r2, [sp]
 205 003e 0246     		mov	r2, r0
 206 0040 3C21     		movs	r1, #60
 207              	.LVL18:
  57:../../core/drivers/LSM303AGR/src/LSM303AGRSensor.c **** 				LSM303AGR_reg, I2C_MEMADD_SIZE_8BIT, &LSM303AGR_data,
 208              		.loc 1 57 3 view .LVU31
 209 0042 0248     		ldr	r0, .L14
 210              	.LVL19:
  57:../../core/drivers/LSM303AGR/src/LSM303AGRSensor.c **** 				LSM303AGR_reg, I2C_MEMADD_SIZE_8BIT, &LSM303AGR_data,
 211              		.loc 1 57 3 view .LVU32
 212 0044 0068     		ldr	r0, [r0]
 213 0046 FFF7FEFF 		bl	HAL_I2C_Mem_Write
 214              	.LVL20:
  57:../../core/drivers/LSM303AGR/src/LSM303AGRSensor.c **** 				LSM303AGR_reg, I2C_MEMADD_SIZE_8BIT, &LSM303AGR_data,
 215              		.loc 1 57 3 view .LVU33
 216 004a ECE7     		b	.L12
ARM GAS  C:\Users\yvesk\AppData\Local\Temp\cctrlrm4.s 			page 6


 217              	.L15:
 218              		.align	2
 219              	.L14:
 220 004c 00000000 		.word	LSM303AGR_hi2c
 221              		.cfi_endproc
 222              	.LFE125:
 224              		.section	.text.LSM303AGR_init,"ax",%progbits
 225              		.align	1
 226              		.global	LSM303AGR_init
 227              		.syntax unified
 228              		.thumb
 229              		.thumb_func
 230              		.fpu fpv4-sp-d16
 232              	LSM303AGR_init:
 233              	.LFB126:
  65:../../core/drivers/LSM303AGR/src/LSM303AGRSensor.c **** 
  66:../../core/drivers/LSM303AGR/src/LSM303AGRSensor.c **** /**
  67:../../core/drivers/LSM303AGR/src/LSM303AGRSensor.c ****  * Initialization of the LSM303AGR accelerometer and magnetometer.
  68:../../core/drivers/LSM303AGR/src/LSM303AGRSensor.c ****  * The accelerometer is initialized with the following values:
  69:../../core/drivers/LSM303AGR/src/LSM303AGRSensor.c ****  * 		- Powerdown,
  70:../../core/drivers/LSM303AGR/src/LSM303AGRSensor.c ****  * 		- X, Y and Z-axes enabled
  71:../../core/drivers/LSM303AGR/src/LSM303AGRSensor.c ****  * 		- BDU enabled (output registers are not updated until the MSB and LSB have been read)
  72:../../core/drivers/LSM303AGR/src/LSM303AGRSensor.c ****  *
  73:../../core/drivers/LSM303AGR/src/LSM303AGRSensor.c ****  * The magnetometer is initialized with the following values:
  74:../../core/drivers/LSM303AGR/src/LSM303AGRSensor.c ****  * 		- Idle mode,
  75:../../core/drivers/LSM303AGR/src/LSM303AGRSensor.c ****  * 		- Temperature compensation enabled,
  76:../../core/drivers/LSM303AGR/src/LSM303AGRSensor.c ****  * 		- Low-power mode enabled,
  77:../../core/drivers/LSM303AGR/src/LSM303AGRSensor.c ****  * 		- Offset cancelation enabled,
  78:../../core/drivers/LSM303AGR/src/LSM303AGRSensor.c ****  * 		- Low pass filter enabled,
  79:../../core/drivers/LSM303AGR/src/LSM303AGRSensor.c ****  * 		- BDU enabled
  80:../../core/drivers/LSM303AGR/src/LSM303AGRSensor.c ****  */
  81:../../core/drivers/LSM303AGR/src/LSM303AGRSensor.c **** void LSM303AGR_init() {
 234              		.loc 1 81 23 is_stmt 1 view -0
 235              		.cfi_startproc
 236              		@ args = 0, pretend = 0, frame = 0
 237              		@ frame_needed = 0, uses_anonymous_args = 0
 238 0000 08B5     		push	{r3, lr}
 239              	.LCFI8:
 240              		.cfi_def_cfa_offset 8
 241              		.cfi_offset 3, -8
 242              		.cfi_offset 14, -4
  82:../../core/drivers/LSM303AGR/src/LSM303AGRSensor.c **** 
  83:../../core/drivers/LSM303AGR/src/LSM303AGRSensor.c **** 	//ga naar de application node op de site en daar staat alle registers die je moet instellen voor i
  84:../../core/drivers/LSM303AGR/src/LSM303AGRSensor.c **** 
  85:../../core/drivers/LSM303AGR/src/LSM303AGRSensor.c **** 	//normal interrupt
  86:../../core/drivers/LSM303AGR/src/LSM303AGRSensor.c **** 
  87:../../core/drivers/LSM303AGR/src/LSM303AGRSensor.c **** 	/* LSM303AGR_writeRegister(LSM303AGR_ACC_CTRL_REG1, 0xA7, 0);  //enable/turn on xyz, ODR = 100Hz (
  88:../../core/drivers/LSM303AGR/src/LSM303AGRSensor.c **** 
  89:../../core/drivers/LSM303AGR/src/LSM303AGRSensor.c **** 	LSM303AGR_writeRegister(LSM303AGR_ACC_CTRL_REG2, 0x00 , 0); //highpass filter disable (got undesir
  90:../../core/drivers/LSM303AGR/src/LSM303AGRSensor.c **** 
  91:../../core/drivers/LSM303AGR/src/LSM303AGRSensor.c **** 	LSM303AGR_writeRegister(LSM303AGR_ACC_CTRL_REG3, 0x40 , 0); //gewone interrupt op int lijn 1 zette
  92:../../core/drivers/LSM303AGR/src/LSM303AGRSensor.c **** 
  93:../../core/drivers/LSM303AGR/src/LSM303AGRSensor.c **** 	LSM303AGR_writeRegister(LSM303AGR_ACC_CTRL_REG4, 0x00 , 0); //FS=2G, wil zeggen laagste treshold, 
  94:../../core/drivers/LSM303AGR/src/LSM303AGRSensor.c **** 
  95:../../core/drivers/LSM303AGR/src/LSM303AGRSensor.c **** 	LSM303AGR_writeRegister(LSM303AGR_ACC_CTRL_REG5, 0x00 , 0); //no latching, alles disablen
  96:../../core/drivers/LSM303AGR/src/LSM303AGRSensor.c **** 
  97:../../core/drivers/LSM303AGR/src/LSM303AGRSensor.c **** 	LSM303AGR_writeRegister(LSM303AGR_ACC_INT1_THS, 0x10 , 0);	//set treshold, maximum threshold en de
ARM GAS  C:\Users\yvesk\AppData\Local\Temp\cctrlrm4.s 			page 7


  98:../../core/drivers/LSM303AGR/src/LSM303AGRSensor.c **** 
  99:../../core/drivers/LSM303AGR/src/LSM303AGRSensor.c **** 	LSM303AGR_writeRegister(LSM303AGR_ACC_INT1_DUR, 0x7F , 0);  //duration van de interrupt. Ook weer 
 100:../../core/drivers/LSM303AGR/src/LSM303AGRSensor.c **** 
 101:../../core/drivers/LSM303AGR/src/LSM303AGRSensor.c **** 	LSM303AGR_writeRegister(LSM303AGR_ACC_INT1_CFG, 0x0A , 0);  //INT1_CFG_A enable xh & yH interrupt 
 102:../../core/drivers/LSM303AGR/src/LSM303AGRSensor.c **** 
 103:../../core/drivers/LSM303AGR/src/LSM303AGRSensor.c **** 
 104:../../core/drivers/LSM303AGR/src/LSM303AGRSensor.c **** 	/* //click single interrupt
 105:../../core/drivers/LSM303AGR/src/LSM303AGRSensor.c **** 
 106:../../core/drivers/LSM303AGR/src/LSM303AGRSensor.c **** 	LSM303AGR_writeRegister(LSM303AGR_ACC_CTRL_REG1, 0x2F, 0);  //enable/turn on xyz, ODR = 10Hz (norm
 107:../../core/drivers/LSM303AGR/src/LSM303AGRSensor.c **** 
 108:../../core/drivers/LSM303AGR/src/LSM303AGRSensor.c **** 	LSM303AGR_writeRegister(LSM303AGR_ACC_CTRL_REG2, 0x00 , 0); //highpass filter disable (got undesir
 109:../../core/drivers/LSM303AGR/src/LSM303AGRSensor.c **** 
 110:../../core/drivers/LSM303AGR/src/LSM303AGRSensor.c **** 	LSM303AGR_writeRegister(LSM303AGR_ACC_CTRL_REG3, 0x80 , 0); //put de click interrupt on int line 1
 111:../../core/drivers/LSM303AGR/src/LSM303AGRSensor.c **** 
 112:../../core/drivers/LSM303AGR/src/LSM303AGRSensor.c **** 	LSM303AGR_writeRegister(LSM303AGR_ACC_CTRL_REG4, 0x00 , 0); //FS=2G, wil zeggen laagste treshold, 
 113:../../core/drivers/LSM303AGR/src/LSM303AGRSensor.c **** 
 114:../../core/drivers/LSM303AGR/src/LSM303AGRSensor.c **** 	LSM303AGR_writeRegister(LSM303AGR_ACC_CTRL_REG5, 0x00 , 0); //no latching, alles disablen
 115:../../core/drivers/LSM303AGR/src/LSM303AGRSensor.c **** 
 116:../../core/drivers/LSM303AGR/src/LSM303AGRSensor.c **** 	LSM303AGR_writeRegister(LSM303AGR_ACC_CLICK_CFG, 0x01 , 0); //enablen single click on x-axis
 117:../../core/drivers/LSM303AGR/src/LSM303AGRSensor.c **** 
 118:../../core/drivers/LSM303AGR/src/LSM303AGRSensor.c **** 	LSM303AGR_writeRegister(LSM303AGR_ACC_CLICK_SRC, 0x10 , 0); //single click enable
 119:../../core/drivers/LSM303AGR/src/LSM303AGRSensor.c **** 
 120:../../core/drivers/LSM303AGR/src/LSM303AGRSensor.c **** 	LSM303AGR_writeRegister(LSM303AGR_ACC_CLICK_THS, 0x20 , 0);	//set treshold  
 121:../../core/drivers/LSM303AGR/src/LSM303AGRSensor.c **** 
 122:../../core/drivers/LSM303AGR/src/LSM303AGRSensor.c **** 	LSM303AGR_writeRegister(LSM303AGR_ACC_CLICK_LATENCY, 0x00 , 0);  //set how long the interrupt last
 123:../../core/drivers/LSM303AGR/src/LSM303AGRSensor.c **** 
 124:../../core/drivers/LSM303AGR/src/LSM303AGRSensor.c **** 	LSM303AGR_writeRegister(LSM303AGR_ACC_CLICK_TIME, 0x7F , 0);  	 //time limiit = value * 1/ODR so m
 125:../../core/drivers/LSM303AGR/src/LSM303AGRSensor.c **** 
 126:../../core/drivers/LSM303AGR/src/LSM303AGRSensor.c **** 
 127:../../core/drivers/LSM303AGR/src/LSM303AGRSensor.c **** 
 128:../../core/drivers/LSM303AGR/src/LSM303AGRSensor.c **** 	//click double interrupt
 129:../../core/drivers/LSM303AGR/src/LSM303AGRSensor.c **** 
 130:../../core/drivers/LSM303AGR/src/LSM303AGRSensor.c **** 	LSM303AGR_writeRegister(LSM303AGR_ACC_CTRL_REG1, 0x2F, 0);  //enable/turn on xyz, ODR = 10Hz (norm
 243              		.loc 1 130 2 view .LVU35
 244 0002 0022     		movs	r2, #0
 245 0004 2F21     		movs	r1, #47
 246 0006 2020     		movs	r0, #32
 247 0008 FFF7FEFF 		bl	LSM303AGR_writeRegister
 248              	.LVL21:
 131:../../core/drivers/LSM303AGR/src/LSM303AGRSensor.c **** 
 132:../../core/drivers/LSM303AGR/src/LSM303AGRSensor.c **** 	LSM303AGR_writeRegister(LSM303AGR_ACC_CTRL_REG2, 0x00 , 0); //highpass filter disable (got undesir
 249              		.loc 1 132 2 view .LVU36
 250 000c 0022     		movs	r2, #0
 251 000e 1146     		mov	r1, r2
 252 0010 2120     		movs	r0, #33
 253 0012 FFF7FEFF 		bl	LSM303AGR_writeRegister
 254              	.LVL22:
 133:../../core/drivers/LSM303AGR/src/LSM303AGRSensor.c **** 
 134:../../core/drivers/LSM303AGR/src/LSM303AGRSensor.c **** 	LSM303AGR_writeRegister(LSM303AGR_ACC_CTRL_REG3, 0x80 , 0); //put de click interrupt on int line 1
 255              		.loc 1 134 2 view .LVU37
 256 0016 0022     		movs	r2, #0
 257 0018 8021     		movs	r1, #128
 258 001a 2220     		movs	r0, #34
 259 001c FFF7FEFF 		bl	LSM303AGR_writeRegister
 260              	.LVL23:
 135:../../core/drivers/LSM303AGR/src/LSM303AGRSensor.c **** 
 136:../../core/drivers/LSM303AGR/src/LSM303AGRSensor.c **** 	LSM303AGR_writeRegister(LSM303AGR_ACC_CTRL_REG4, 0x00 , 0); //FS=2G, wil zeggen laagste treshold, 
ARM GAS  C:\Users\yvesk\AppData\Local\Temp\cctrlrm4.s 			page 8


 261              		.loc 1 136 2 view .LVU38
 262 0020 0022     		movs	r2, #0
 263 0022 1146     		mov	r1, r2
 264 0024 2320     		movs	r0, #35
 265 0026 FFF7FEFF 		bl	LSM303AGR_writeRegister
 266              	.LVL24:
 137:../../core/drivers/LSM303AGR/src/LSM303AGRSensor.c **** 
 138:../../core/drivers/LSM303AGR/src/LSM303AGRSensor.c **** 	LSM303AGR_writeRegister(LSM303AGR_ACC_CTRL_REG5, 0x00 , 0); //no latching, alles disablen
 267              		.loc 1 138 2 view .LVU39
 268 002a 0022     		movs	r2, #0
 269 002c 1146     		mov	r1, r2
 270 002e 2420     		movs	r0, #36
 271 0030 FFF7FEFF 		bl	LSM303AGR_writeRegister
 272              	.LVL25:
 139:../../core/drivers/LSM303AGR/src/LSM303AGRSensor.c **** 
 140:../../core/drivers/LSM303AGR/src/LSM303AGRSensor.c **** 	LSM303AGR_writeRegister(LSM303AGR_ACC_CLICK_CFG, 0x02 , 0); //enablen double click on x-axis
 273              		.loc 1 140 2 view .LVU40
 274 0034 0022     		movs	r2, #0
 275 0036 0221     		movs	r1, #2
 276 0038 3820     		movs	r0, #56
 277 003a FFF7FEFF 		bl	LSM303AGR_writeRegister
 278              	.LVL26:
 141:../../core/drivers/LSM303AGR/src/LSM303AGRSensor.c **** 
 142:../../core/drivers/LSM303AGR/src/LSM303AGRSensor.c **** 	LSM303AGR_writeRegister(LSM303AGR_ACC_CLICK_SRC, 0x20 , 0); //double click enable
 279              		.loc 1 142 2 view .LVU41
 280 003e 0022     		movs	r2, #0
 281 0040 2021     		movs	r1, #32
 282 0042 3920     		movs	r0, #57
 283 0044 FFF7FEFF 		bl	LSM303AGR_writeRegister
 284              	.LVL27:
 143:../../core/drivers/LSM303AGR/src/LSM303AGRSensor.c **** 
 144:../../core/drivers/LSM303AGR/src/LSM303AGRSensor.c **** 	LSM303AGR_writeRegister(LSM303AGR_ACC_CLICK_THS, 0x20 , 0);	//set treshold  
 285              		.loc 1 144 2 view .LVU42
 286 0048 0022     		movs	r2, #0
 287 004a 2021     		movs	r1, #32
 288 004c 3A20     		movs	r0, #58
 289 004e FFF7FEFF 		bl	LSM303AGR_writeRegister
 290              	.LVL28:
 145:../../core/drivers/LSM303AGR/src/LSM303AGRSensor.c **** 
 146:../../core/drivers/LSM303AGR/src/LSM303AGRSensor.c **** 	LSM303AGR_writeRegister(LSM303AGR_ACC_CLICK_LATENCY, 0x00 , 0);  //set how long the interrupt last
 291              		.loc 1 146 2 view .LVU43
 292 0052 0022     		movs	r2, #0
 293 0054 1146     		mov	r1, r2
 294 0056 3C20     		movs	r0, #60
 295 0058 FFF7FEFF 		bl	LSM303AGR_writeRegister
 296              	.LVL29:
 147:../../core/drivers/LSM303AGR/src/LSM303AGRSensor.c **** 
 148:../../core/drivers/LSM303AGR/src/LSM303AGRSensor.c **** 	LSM303AGR_writeRegister(LSM303AGR_ACC_CLICK_TIME, 0x7F , 0);  	 //time limiit = value * 1/ODR so m
 297              		.loc 1 148 2 view .LVU44
 298 005c 0022     		movs	r2, #0
 299 005e 7F21     		movs	r1, #127
 300 0060 3B20     		movs	r0, #59
 301 0062 FFF7FEFF 		bl	LSM303AGR_writeRegister
 302              	.LVL30:
 149:../../core/drivers/LSM303AGR/src/LSM303AGRSensor.c **** 
 150:../../core/drivers/LSM303AGR/src/LSM303AGRSensor.c **** 	LSM303AGR_writeRegister(LSM303AGR_ACC_CLICK_WINDOW, 0x0A , 0);  	 //max time in between 2 clicks. 
 303              		.loc 1 150 2 view .LVU45
ARM GAS  C:\Users\yvesk\AppData\Local\Temp\cctrlrm4.s 			page 9


 304 0066 0022     		movs	r2, #0
 305 0068 0A21     		movs	r1, #10
 306 006a 3D20     		movs	r0, #61
 307 006c FFF7FEFF 		bl	LSM303AGR_writeRegister
 308              	.LVL31:
 151:../../core/drivers/LSM303AGR/src/LSM303AGRSensor.c **** 
 152:../../core/drivers/LSM303AGR/src/LSM303AGRSensor.c **** 
 153:../../core/drivers/LSM303AGR/src/LSM303AGRSensor.c **** }
 309              		.loc 1 153 1 is_stmt 0 view .LVU46
 310 0070 08BD     		pop	{r3, pc}
 311              		.cfi_endproc
 312              	.LFE126:
 314              		.section	.text.LSM303AGR_initDouble,"ax",%progbits
 315              		.align	1
 316              		.global	LSM303AGR_initDouble
 317              		.syntax unified
 318              		.thumb
 319              		.thumb_func
 320              		.fpu fpv4-sp-d16
 322              	LSM303AGR_initDouble:
 323              	.LFB127:
 154:../../core/drivers/LSM303AGR/src/LSM303AGRSensor.c **** 
 155:../../core/drivers/LSM303AGR/src/LSM303AGRSensor.c **** void LSM303AGR_initDouble(){
 324              		.loc 1 155 28 is_stmt 1 view -0
 325              		.cfi_startproc
 326              		@ args = 0, pretend = 0, frame = 0
 327              		@ frame_needed = 0, uses_anonymous_args = 0
 328 0000 08B5     		push	{r3, lr}
 329              	.LCFI9:
 330              		.cfi_def_cfa_offset 8
 331              		.cfi_offset 3, -8
 332              		.cfi_offset 14, -4
 156:../../core/drivers/LSM303AGR/src/LSM303AGRSensor.c **** 	//Trigger interrupt whenever we double click
 157:../../core/drivers/LSM303AGR/src/LSM303AGRSensor.c **** 
 158:../../core/drivers/LSM303AGR/src/LSM303AGRSensor.c **** 	LSM303AGR_writeRegister(LSM303AGR_ACC_CTRL_REG1, 0x2F, 0);  //enable/turn on xyz, ODR = 10Hz (norm
 333              		.loc 1 158 2 view .LVU48
 334 0002 0022     		movs	r2, #0
 335 0004 2F21     		movs	r1, #47
 336 0006 2020     		movs	r0, #32
 337 0008 FFF7FEFF 		bl	LSM303AGR_writeRegister
 338              	.LVL32:
 159:../../core/drivers/LSM303AGR/src/LSM303AGRSensor.c **** 
 160:../../core/drivers/LSM303AGR/src/LSM303AGRSensor.c **** 	LSM303AGR_writeRegister(LSM303AGR_ACC_CTRL_REG2, 0x00 , 0); //highpass filter disable (got undesir
 339              		.loc 1 160 2 view .LVU49
 340 000c 0022     		movs	r2, #0
 341 000e 1146     		mov	r1, r2
 342 0010 2120     		movs	r0, #33
 343 0012 FFF7FEFF 		bl	LSM303AGR_writeRegister
 344              	.LVL33:
 161:../../core/drivers/LSM303AGR/src/LSM303AGRSensor.c **** 
 162:../../core/drivers/LSM303AGR/src/LSM303AGRSensor.c **** 	LSM303AGR_writeRegister(LSM303AGR_ACC_CTRL_REG3, 0x80 , 0); //put de click interrupt on int line 1
 345              		.loc 1 162 2 view .LVU50
 346 0016 0022     		movs	r2, #0
 347 0018 8021     		movs	r1, #128
 348 001a 2220     		movs	r0, #34
 349 001c FFF7FEFF 		bl	LSM303AGR_writeRegister
 350              	.LVL34:
ARM GAS  C:\Users\yvesk\AppData\Local\Temp\cctrlrm4.s 			page 10


 163:../../core/drivers/LSM303AGR/src/LSM303AGRSensor.c **** 
 164:../../core/drivers/LSM303AGR/src/LSM303AGRSensor.c **** 	LSM303AGR_writeRegister(LSM303AGR_ACC_CTRL_REG4, 0x00 , 0); //FS=2G, wil zeggen laagste treshold, 
 351              		.loc 1 164 2 view .LVU51
 352 0020 0022     		movs	r2, #0
 353 0022 1146     		mov	r1, r2
 354 0024 2320     		movs	r0, #35
 355 0026 FFF7FEFF 		bl	LSM303AGR_writeRegister
 356              	.LVL35:
 165:../../core/drivers/LSM303AGR/src/LSM303AGRSensor.c **** 
 166:../../core/drivers/LSM303AGR/src/LSM303AGRSensor.c **** 	LSM303AGR_writeRegister(LSM303AGR_ACC_CTRL_REG5, 0x00 , 0); //no latching, alles disablen
 357              		.loc 1 166 2 view .LVU52
 358 002a 0022     		movs	r2, #0
 359 002c 1146     		mov	r1, r2
 360 002e 2420     		movs	r0, #36
 361 0030 FFF7FEFF 		bl	LSM303AGR_writeRegister
 362              	.LVL36:
 167:../../core/drivers/LSM303AGR/src/LSM303AGRSensor.c **** 
 168:../../core/drivers/LSM303AGR/src/LSM303AGRSensor.c **** 	LSM303AGR_writeRegister(LSM303AGR_ACC_CLICK_CFG, 0x02 , 0); //enablen double click on x-axis
 363              		.loc 1 168 2 view .LVU53
 364 0034 0022     		movs	r2, #0
 365 0036 0221     		movs	r1, #2
 366 0038 3820     		movs	r0, #56
 367 003a FFF7FEFF 		bl	LSM303AGR_writeRegister
 368              	.LVL37:
 169:../../core/drivers/LSM303AGR/src/LSM303AGRSensor.c **** 
 170:../../core/drivers/LSM303AGR/src/LSM303AGRSensor.c **** 	LSM303AGR_writeRegister(LSM303AGR_ACC_CLICK_SRC, 0x20 , 0); //double click enable
 369              		.loc 1 170 2 view .LVU54
 370 003e 0022     		movs	r2, #0
 371 0040 2021     		movs	r1, #32
 372 0042 3920     		movs	r0, #57
 373 0044 FFF7FEFF 		bl	LSM303AGR_writeRegister
 374              	.LVL38:
 171:../../core/drivers/LSM303AGR/src/LSM303AGRSensor.c **** 
 172:../../core/drivers/LSM303AGR/src/LSM303AGRSensor.c **** 	LSM303AGR_writeRegister(LSM303AGR_ACC_CLICK_THS, 0x20 , 0);	//set treshold  
 375              		.loc 1 172 2 view .LVU55
 376 0048 0022     		movs	r2, #0
 377 004a 2021     		movs	r1, #32
 378 004c 3A20     		movs	r0, #58
 379 004e FFF7FEFF 		bl	LSM303AGR_writeRegister
 380              	.LVL39:
 173:../../core/drivers/LSM303AGR/src/LSM303AGRSensor.c **** 
 174:../../core/drivers/LSM303AGR/src/LSM303AGRSensor.c **** 	LSM303AGR_writeRegister(LSM303AGR_ACC_CLICK_LATENCY, 0x00 , 0);  //set how long the interrupt last
 381              		.loc 1 174 2 view .LVU56
 382 0052 0022     		movs	r2, #0
 383 0054 1146     		mov	r1, r2
 384 0056 3C20     		movs	r0, #60
 385 0058 FFF7FEFF 		bl	LSM303AGR_writeRegister
 386              	.LVL40:
 175:../../core/drivers/LSM303AGR/src/LSM303AGRSensor.c **** 
 176:../../core/drivers/LSM303AGR/src/LSM303AGRSensor.c **** 	LSM303AGR_writeRegister(LSM303AGR_ACC_CLICK_TIME, 0x7F , 0);  	 //time limiit = value * 1/ODR so m
 387              		.loc 1 176 2 view .LVU57
 388 005c 0022     		movs	r2, #0
 389 005e 7F21     		movs	r1, #127
 390 0060 3B20     		movs	r0, #59
 391 0062 FFF7FEFF 		bl	LSM303AGR_writeRegister
 392              	.LVL41:
 177:../../core/drivers/LSM303AGR/src/LSM303AGRSensor.c **** 
ARM GAS  C:\Users\yvesk\AppData\Local\Temp\cctrlrm4.s 			page 11


 178:../../core/drivers/LSM303AGR/src/LSM303AGRSensor.c **** 	LSM303AGR_writeRegister(LSM303AGR_ACC_CLICK_WINDOW, 0x0A , 0);  	 //max time in between 2 clicks. 
 393              		.loc 1 178 2 view .LVU58
 394 0066 0022     		movs	r2, #0
 395 0068 0A21     		movs	r1, #10
 396 006a 3D20     		movs	r0, #61
 397 006c FFF7FEFF 		bl	LSM303AGR_writeRegister
 398              	.LVL42:
 179:../../core/drivers/LSM303AGR/src/LSM303AGRSensor.c **** 
 180:../../core/drivers/LSM303AGR/src/LSM303AGRSensor.c **** }
 399              		.loc 1 180 1 is_stmt 0 view .LVU59
 400 0070 08BD     		pop	{r3, pc}
 401              		.cfi_endproc
 402              	.LFE127:
 404              		.section	.text.LSM303AGR_initDefault,"ax",%progbits
 405              		.align	1
 406              		.global	LSM303AGR_initDefault
 407              		.syntax unified
 408              		.thumb
 409              		.thumb_func
 410              		.fpu fpv4-sp-d16
 412              	LSM303AGR_initDefault:
 413              	.LFB128:
 181:../../core/drivers/LSM303AGR/src/LSM303AGRSensor.c **** 
 182:../../core/drivers/LSM303AGR/src/LSM303AGRSensor.c **** void LSM303AGR_initDefault(){
 414              		.loc 1 182 29 is_stmt 1 view -0
 415              		.cfi_startproc
 416              		@ args = 0, pretend = 0, frame = 0
 417              		@ frame_needed = 0, uses_anonymous_args = 0
 418 0000 08B5     		push	{r3, lr}
 419              	.LCFI10:
 420              		.cfi_def_cfa_offset 8
 421              		.cfi_offset 3, -8
 422              		.cfi_offset 14, -4
 183:../../core/drivers/LSM303AGR/src/LSM303AGRSensor.c **** 	//Trigger interrupt whenever the accelerometer has moved
 184:../../core/drivers/LSM303AGR/src/LSM303AGRSensor.c **** 
 185:../../core/drivers/LSM303AGR/src/LSM303AGRSensor.c **** 	LSM303AGR_writeRegister(LSM303AGR_ACC_CTRL_REG1, 0xA7, 0);  //enable/turn on xyz, ODR = 100Hz (geg
 423              		.loc 1 185 2 view .LVU61
 424 0002 0022     		movs	r2, #0
 425 0004 A721     		movs	r1, #167
 426 0006 2020     		movs	r0, #32
 427 0008 FFF7FEFF 		bl	LSM303AGR_writeRegister
 428              	.LVL43:
 186:../../core/drivers/LSM303AGR/src/LSM303AGRSensor.c **** 
 187:../../core/drivers/LSM303AGR/src/LSM303AGRSensor.c **** 	LSM303AGR_writeRegister(LSM303AGR_ACC_CTRL_REG2, 0x00 , 0); //highpass filter disable (got undesir
 429              		.loc 1 187 2 view .LVU62
 430 000c 0022     		movs	r2, #0
 431 000e 1146     		mov	r1, r2
 432 0010 2120     		movs	r0, #33
 433 0012 FFF7FEFF 		bl	LSM303AGR_writeRegister
 434              	.LVL44:
 188:../../core/drivers/LSM303AGR/src/LSM303AGRSensor.c **** 
 189:../../core/drivers/LSM303AGR/src/LSM303AGRSensor.c **** 	LSM303AGR_writeRegister(LSM303AGR_ACC_CTRL_REG3, 0x40 , 0); //gewone interrupt op int lijn 1 zette
 435              		.loc 1 189 2 view .LVU63
 436 0016 0022     		movs	r2, #0
 437 0018 4021     		movs	r1, #64
 438 001a 2220     		movs	r0, #34
 439 001c FFF7FEFF 		bl	LSM303AGR_writeRegister
ARM GAS  C:\Users\yvesk\AppData\Local\Temp\cctrlrm4.s 			page 12


 440              	.LVL45:
 190:../../core/drivers/LSM303AGR/src/LSM303AGRSensor.c **** 
 191:../../core/drivers/LSM303AGR/src/LSM303AGRSensor.c **** 	LSM303AGR_writeRegister(LSM303AGR_ACC_CTRL_REG4, 0x00 , 0); //FS=2G, wil zeggen laagste treshold, 
 441              		.loc 1 191 2 view .LVU64
 442 0020 0022     		movs	r2, #0
 443 0022 1146     		mov	r1, r2
 444 0024 2320     		movs	r0, #35
 445 0026 FFF7FEFF 		bl	LSM303AGR_writeRegister
 446              	.LVL46:
 192:../../core/drivers/LSM303AGR/src/LSM303AGRSensor.c **** 
 193:../../core/drivers/LSM303AGR/src/LSM303AGRSensor.c **** 	LSM303AGR_writeRegister(LSM303AGR_ACC_CTRL_REG5, 0x00 , 0); //no latching, alles disablen
 447              		.loc 1 193 2 view .LVU65
 448 002a 0022     		movs	r2, #0
 449 002c 1146     		mov	r1, r2
 450 002e 2420     		movs	r0, #36
 451 0030 FFF7FEFF 		bl	LSM303AGR_writeRegister
 452              	.LVL47:
 194:../../core/drivers/LSM303AGR/src/LSM303AGRSensor.c **** 
 195:../../core/drivers/LSM303AGR/src/LSM303AGRSensor.c **** 	LSM303AGR_writeRegister(LSM303AGR_ACC_INT1_THS, 0x10 , 0);	//set treshold, maximum threshold en de
 453              		.loc 1 195 2 view .LVU66
 454 0034 0022     		movs	r2, #0
 455 0036 1021     		movs	r1, #16
 456 0038 3220     		movs	r0, #50
 457 003a FFF7FEFF 		bl	LSM303AGR_writeRegister
 458              	.LVL48:
 196:../../core/drivers/LSM303AGR/src/LSM303AGRSensor.c **** 
 197:../../core/drivers/LSM303AGR/src/LSM303AGRSensor.c **** 	LSM303AGR_writeRegister(LSM303AGR_ACC_INT1_DUR, 0x7F , 0);  //duration van de interrupt. Ook weer 
 459              		.loc 1 197 2 view .LVU67
 460 003e 0022     		movs	r2, #0
 461 0040 7F21     		movs	r1, #127
 462 0042 3320     		movs	r0, #51
 463 0044 FFF7FEFF 		bl	LSM303AGR_writeRegister
 464              	.LVL49:
 198:../../core/drivers/LSM303AGR/src/LSM303AGRSensor.c **** 
 199:../../core/drivers/LSM303AGR/src/LSM303AGRSensor.c **** 	LSM303AGR_writeRegister(LSM303AGR_ACC_INT1_CFG, 0x0A , 0);  //INT1_CFG_A enable xh & yH interrupt 
 465              		.loc 1 199 2 view .LVU68
 466 0048 0022     		movs	r2, #0
 467 004a 0A21     		movs	r1, #10
 468 004c 3020     		movs	r0, #48
 469 004e FFF7FEFF 		bl	LSM303AGR_writeRegister
 470              	.LVL50:
 200:../../core/drivers/LSM303AGR/src/LSM303AGRSensor.c **** }
 471              		.loc 1 200 1 is_stmt 0 view .LVU69
 472 0052 08BD     		pop	{r3, pc}
 473              		.cfi_endproc
 474              	.LFE128:
 476              		.section	.text.LSM303AGR_ACC_reset,"ax",%progbits
 477              		.align	1
 478              		.global	LSM303AGR_ACC_reset
 479              		.syntax unified
 480              		.thumb
 481              		.thumb_func
 482              		.fpu fpv4-sp-d16
 484              	LSM303AGR_ACC_reset:
 485              	.LFB129:
 201:../../core/drivers/LSM303AGR/src/LSM303AGRSensor.c **** 
 202:../../core/drivers/LSM303AGR/src/LSM303AGRSensor.c **** /**
ARM GAS  C:\Users\yvesk\AppData\Local\Temp\cctrlrm4.s 			page 13


 203:../../core/drivers/LSM303AGR/src/LSM303AGRSensor.c ****  * Resets the LSM303AGR accelerometer
 204:../../core/drivers/LSM303AGR/src/LSM303AGRSensor.c ****  */
 205:../../core/drivers/LSM303AGR/src/LSM303AGRSensor.c **** void LSM303AGR_ACC_reset() {
 486              		.loc 1 205 28 is_stmt 1 view -0
 487              		.cfi_startproc
 488              		@ args = 0, pretend = 0, frame = 0
 489              		@ frame_needed = 0, uses_anonymous_args = 0
 490 0000 08B5     		push	{r3, lr}
 491              	.LCFI11:
 492              		.cfi_def_cfa_offset 8
 493              		.cfi_offset 3, -8
 494              		.cfi_offset 14, -4
 206:../../core/drivers/LSM303AGR/src/LSM303AGRSensor.c **** 	LSM303AGR_setting = LSM303AGR_ACC_BOOT;
 495              		.loc 1 206 2 view .LVU71
 496              		.loc 1 206 20 is_stmt 0 view .LVU72
 497 0002 8021     		movs	r1, #128
 498 0004 034B     		ldr	r3, .L24
 499 0006 1970     		strb	r1, [r3]
 207:../../core/drivers/LSM303AGR/src/LSM303AGRSensor.c **** 	LSM303AGR_writeRegister(LSM303AGR_ACC_CTRL_REG5, LSM303AGR_setting, 0);
 500              		.loc 1 207 2 is_stmt 1 view .LVU73
 501 0008 0022     		movs	r2, #0
 502 000a 2420     		movs	r0, #36
 503 000c FFF7FEFF 		bl	LSM303AGR_writeRegister
 504              	.LVL51:
 208:../../core/drivers/LSM303AGR/src/LSM303AGRSensor.c **** }
 505              		.loc 1 208 1 is_stmt 0 view .LVU74
 506 0010 08BD     		pop	{r3, pc}
 507              	.L25:
 508 0012 00BF     		.align	2
 509              	.L24:
 510 0014 00000000 		.word	LSM303AGR_setting
 511              		.cfi_endproc
 512              	.LFE129:
 514              		.section	.text.LSM303AGR_MAG_reset,"ax",%progbits
 515              		.align	1
 516              		.global	LSM303AGR_MAG_reset
 517              		.syntax unified
 518              		.thumb
 519              		.thumb_func
 520              		.fpu fpv4-sp-d16
 522              	LSM303AGR_MAG_reset:
 523              	.LFB130:
 209:../../core/drivers/LSM303AGR/src/LSM303AGRSensor.c **** 
 210:../../core/drivers/LSM303AGR/src/LSM303AGRSensor.c **** /**
 211:../../core/drivers/LSM303AGR/src/LSM303AGRSensor.c ****  * Resets the LSM303AGR magnetometer
 212:../../core/drivers/LSM303AGR/src/LSM303AGRSensor.c ****  */
 213:../../core/drivers/LSM303AGR/src/LSM303AGRSensor.c **** void LSM303AGR_MAG_reset() {
 524              		.loc 1 213 28 is_stmt 1 view -0
 525              		.cfi_startproc
 526              		@ args = 0, pretend = 0, frame = 0
 527              		@ frame_needed = 0, uses_anonymous_args = 0
 528 0000 08B5     		push	{r3, lr}
 529              	.LCFI12:
 530              		.cfi_def_cfa_offset 8
 531              		.cfi_offset 3, -8
 532              		.cfi_offset 14, -4
 214:../../core/drivers/LSM303AGR/src/LSM303AGRSensor.c **** 
ARM GAS  C:\Users\yvesk\AppData\Local\Temp\cctrlrm4.s 			page 14


 215:../../core/drivers/LSM303AGR/src/LSM303AGRSensor.c **** 	LSM303AGR_setting = LSM303AGR_MAG_SOFT_RST;
 533              		.loc 1 215 2 view .LVU76
 534              		.loc 1 215 20 is_stmt 0 view .LVU77
 535 0002 2021     		movs	r1, #32
 536 0004 034B     		ldr	r3, .L28
 537 0006 1970     		strb	r1, [r3]
 216:../../core/drivers/LSM303AGR/src/LSM303AGRSensor.c **** 	LSM303AGR_writeRegister(LSM303AGR_MAG_CFG_REG_A, LSM303AGR_setting, 1);
 538              		.loc 1 216 2 is_stmt 1 view .LVU78
 539 0008 0122     		movs	r2, #1
 540 000a 6020     		movs	r0, #96
 541 000c FFF7FEFF 		bl	LSM303AGR_writeRegister
 542              	.LVL52:
 217:../../core/drivers/LSM303AGR/src/LSM303AGRSensor.c **** 
 218:../../core/drivers/LSM303AGR/src/LSM303AGRSensor.c **** }
 543              		.loc 1 218 1 is_stmt 0 view .LVU79
 544 0010 08BD     		pop	{r3, pc}
 545              	.L29:
 546 0012 00BF     		.align	2
 547              	.L28:
 548 0014 00000000 		.word	LSM303AGR_setting
 549              		.cfi_endproc
 550              	.LFE130:
 552              		.section	.text.LSM303AGR_powerDownAccelerometer,"ax",%progbits
 553              		.align	1
 554              		.global	LSM303AGR_powerDownAccelerometer
 555              		.syntax unified
 556              		.thumb
 557              		.thumb_func
 558              		.fpu fpv4-sp-d16
 560              	LSM303AGR_powerDownAccelerometer:
 561              	.LFB131:
 219:../../core/drivers/LSM303AGR/src/LSM303AGRSensor.c **** 
 220:../../core/drivers/LSM303AGR/src/LSM303AGRSensor.c **** /**
 221:../../core/drivers/LSM303AGR/src/LSM303AGRSensor.c ****  * Put the accelerometer in power-down mode
 222:../../core/drivers/LSM303AGR/src/LSM303AGRSensor.c ****  */
 223:../../core/drivers/LSM303AGR/src/LSM303AGRSensor.c **** void LSM303AGR_powerDownAccelerometer() {
 562              		.loc 1 223 41 is_stmt 1 view -0
 563              		.cfi_startproc
 564              		@ args = 0, pretend = 0, frame = 0
 565              		@ frame_needed = 0, uses_anonymous_args = 0
 566 0000 08B5     		push	{r3, lr}
 567              	.LCFI13:
 568              		.cfi_def_cfa_offset 8
 569              		.cfi_offset 3, -8
 570              		.cfi_offset 14, -4
 224:../../core/drivers/LSM303AGR/src/LSM303AGRSensor.c **** 
 225:../../core/drivers/LSM303AGR/src/LSM303AGRSensor.c **** 	LSM303AGR_setting = LSM303AGR_ACC_ODR_POWERDOWN | LSM303AGR_ACC_X_EN
 571              		.loc 1 225 2 view .LVU81
 572              		.loc 1 225 20 is_stmt 0 view .LVU82
 573 0002 0721     		movs	r1, #7
 574 0004 034B     		ldr	r3, .L32
 575 0006 1970     		strb	r1, [r3]
 226:../../core/drivers/LSM303AGR/src/LSM303AGRSensor.c **** 			| LSM303AGR_ACC_Y_EN | LSM303AGR_ACC_Z_EN;
 227:../../core/drivers/LSM303AGR/src/LSM303AGRSensor.c **** 	LSM303AGR_writeRegister(LSM303AGR_ACC_CTRL_REG1, LSM303AGR_setting, 0);
 576              		.loc 1 227 2 is_stmt 1 view .LVU83
 577 0008 0022     		movs	r2, #0
 578 000a 2020     		movs	r0, #32
ARM GAS  C:\Users\yvesk\AppData\Local\Temp\cctrlrm4.s 			page 15


 579 000c FFF7FEFF 		bl	LSM303AGR_writeRegister
 580              	.LVL53:
 228:../../core/drivers/LSM303AGR/src/LSM303AGRSensor.c **** 
 229:../../core/drivers/LSM303AGR/src/LSM303AGRSensor.c **** }
 581              		.loc 1 229 1 is_stmt 0 view .LVU84
 582 0010 08BD     		pop	{r3, pc}
 583              	.L33:
 584 0012 00BF     		.align	2
 585              	.L32:
 586 0014 00000000 		.word	LSM303AGR_setting
 587              		.cfi_endproc
 588              	.LFE131:
 590              		.section	.text.LSM303AGR_powerDownMagnetometer,"ax",%progbits
 591              		.align	1
 592              		.global	LSM303AGR_powerDownMagnetometer
 593              		.syntax unified
 594              		.thumb
 595              		.thumb_func
 596              		.fpu fpv4-sp-d16
 598              	LSM303AGR_powerDownMagnetometer:
 599              	.LFB132:
 230:../../core/drivers/LSM303AGR/src/LSM303AGRSensor.c **** 
 231:../../core/drivers/LSM303AGR/src/LSM303AGRSensor.c **** /**
 232:../../core/drivers/LSM303AGR/src/LSM303AGRSensor.c ****  * Put the magnetometer in idle mode
 233:../../core/drivers/LSM303AGR/src/LSM303AGRSensor.c ****  */
 234:../../core/drivers/LSM303AGR/src/LSM303AGRSensor.c **** void LSM303AGR_powerDownMagnetometer() {
 600              		.loc 1 234 40 is_stmt 1 view -0
 601              		.cfi_startproc
 602              		@ args = 0, pretend = 0, frame = 0
 603              		@ frame_needed = 0, uses_anonymous_args = 0
 604 0000 08B5     		push	{r3, lr}
 605              	.LCFI14:
 606              		.cfi_def_cfa_offset 8
 607              		.cfi_offset 3, -8
 608              		.cfi_offset 14, -4
 235:../../core/drivers/LSM303AGR/src/LSM303AGRSensor.c **** 
 236:../../core/drivers/LSM303AGR/src/LSM303AGRSensor.c **** 	LSM303AGR_setting = LSM303AGR_MAG_COMP_TEMP_EN | LSM303AGR_MAG_LP_EN
 609              		.loc 1 236 2 view .LVU86
 610              		.loc 1 236 20 is_stmt 0 view .LVU87
 611 0002 9221     		movs	r1, #146
 612 0004 034B     		ldr	r3, .L36
 613 0006 1970     		strb	r1, [r3]
 237:../../core/drivers/LSM303AGR/src/LSM303AGRSensor.c **** 			| LSM303AGR_MAG_ODR_10HZ | LSM303AGR_MAG_MD_IDLE;
 238:../../core/drivers/LSM303AGR/src/LSM303AGRSensor.c **** 	LSM303AGR_writeRegister(LSM303AGR_MAG_CFG_REG_A, LSM303AGR_setting, 1);
 614              		.loc 1 238 2 is_stmt 1 view .LVU88
 615 0008 0122     		movs	r2, #1
 616 000a 6020     		movs	r0, #96
 617 000c FFF7FEFF 		bl	LSM303AGR_writeRegister
 618              	.LVL54:
 239:../../core/drivers/LSM303AGR/src/LSM303AGRSensor.c **** }
 619              		.loc 1 239 1 is_stmt 0 view .LVU89
 620 0010 08BD     		pop	{r3, pc}
 621              	.L37:
 622 0012 00BF     		.align	2
 623              	.L36:
 624 0014 00000000 		.word	LSM303AGR_setting
 625              		.cfi_endproc
ARM GAS  C:\Users\yvesk\AppData\Local\Temp\cctrlrm4.s 			page 16


 626              	.LFE132:
 628              		.section	.text.LSM303AGR_wakeUpAccelerometer,"ax",%progbits
 629              		.align	1
 630              		.global	LSM303AGR_wakeUpAccelerometer
 631              		.syntax unified
 632              		.thumb
 633              		.thumb_func
 634              		.fpu fpv4-sp-d16
 636              	LSM303AGR_wakeUpAccelerometer:
 637              	.LFB133:
 240:../../core/drivers/LSM303AGR/src/LSM303AGRSensor.c **** 
 241:../../core/drivers/LSM303AGR/src/LSM303AGRSensor.c **** /**
 242:../../core/drivers/LSM303AGR/src/LSM303AGRSensor.c ****  * Wake up the accelerometer from powerdown mode
 243:../../core/drivers/LSM303AGR/src/LSM303AGRSensor.c ****  */
 244:../../core/drivers/LSM303AGR/src/LSM303AGRSensor.c **** void LSM303AGR_wakeUpAccelerometer() {
 638              		.loc 1 244 38 is_stmt 1 view -0
 639              		.cfi_startproc
 640              		@ args = 0, pretend = 0, frame = 0
 641              		@ frame_needed = 0, uses_anonymous_args = 0
 642 0000 08B5     		push	{r3, lr}
 643              	.LCFI15:
 644              		.cfi_def_cfa_offset 8
 645              		.cfi_offset 3, -8
 646              		.cfi_offset 14, -4
 245:../../core/drivers/LSM303AGR/src/LSM303AGRSensor.c **** 
 246:../../core/drivers/LSM303AGR/src/LSM303AGRSensor.c **** 	LSM303AGR_setting = LSM303AGR_ACC_ODR_10HZ | LSM303AGR_ACC_X_EN
 647              		.loc 1 246 2 view .LVU91
 648              		.loc 1 246 20 is_stmt 0 view .LVU92
 649 0002 2721     		movs	r1, #39
 650 0004 034B     		ldr	r3, .L40
 651 0006 1970     		strb	r1, [r3]
 247:../../core/drivers/LSM303AGR/src/LSM303AGRSensor.c **** 			| LSM303AGR_ACC_Y_EN | LSM303AGR_ACC_Z_EN;
 248:../../core/drivers/LSM303AGR/src/LSM303AGRSensor.c **** 	LSM303AGR_writeRegister(LSM303AGR_ACC_CTRL_REG1, LSM303AGR_setting, 0);
 652              		.loc 1 248 2 is_stmt 1 view .LVU93
 653 0008 0022     		movs	r2, #0
 654 000a 2020     		movs	r0, #32
 655 000c FFF7FEFF 		bl	LSM303AGR_writeRegister
 656              	.LVL55:
 249:../../core/drivers/LSM303AGR/src/LSM303AGRSensor.c **** 
 250:../../core/drivers/LSM303AGR/src/LSM303AGRSensor.c **** }
 657              		.loc 1 250 1 is_stmt 0 view .LVU94
 658 0010 08BD     		pop	{r3, pc}
 659              	.L41:
 660 0012 00BF     		.align	2
 661              	.L40:
 662 0014 00000000 		.word	LSM303AGR_setting
 663              		.cfi_endproc
 664              	.LFE133:
 666              		.section	.text.LSM303AGR_wakeUpMagnetometer,"ax",%progbits
 667              		.align	1
 668              		.global	LSM303AGR_wakeUpMagnetometer
 669              		.syntax unified
 670              		.thumb
 671              		.thumb_func
 672              		.fpu fpv4-sp-d16
 674              	LSM303AGR_wakeUpMagnetometer:
 675              	.LFB134:
ARM GAS  C:\Users\yvesk\AppData\Local\Temp\cctrlrm4.s 			page 17


 251:../../core/drivers/LSM303AGR/src/LSM303AGRSensor.c **** 
 252:../../core/drivers/LSM303AGR/src/LSM303AGRSensor.c **** /**
 253:../../core/drivers/LSM303AGR/src/LSM303AGRSensor.c ****  * Wake up the magnetometer from idle mode
 254:../../core/drivers/LSM303AGR/src/LSM303AGRSensor.c ****  */
 255:../../core/drivers/LSM303AGR/src/LSM303AGRSensor.c **** void LSM303AGR_wakeUpMagnetometer() {
 676              		.loc 1 255 37 is_stmt 1 view -0
 677              		.cfi_startproc
 678              		@ args = 0, pretend = 0, frame = 0
 679              		@ frame_needed = 0, uses_anonymous_args = 0
 680 0000 08B5     		push	{r3, lr}
 681              	.LCFI16:
 682              		.cfi_def_cfa_offset 8
 683              		.cfi_offset 3, -8
 684              		.cfi_offset 14, -4
 256:../../core/drivers/LSM303AGR/src/LSM303AGRSensor.c **** 
 257:../../core/drivers/LSM303AGR/src/LSM303AGRSensor.c **** 	LSM303AGR_setting = LSM303AGR_MAG_COMP_TEMP_EN | LSM303AGR_MAG_LP_EN
 685              		.loc 1 257 2 view .LVU96
 686              		.loc 1 257 20 is_stmt 0 view .LVU97
 687 0002 9021     		movs	r1, #144
 688 0004 034B     		ldr	r3, .L44
 689 0006 1970     		strb	r1, [r3]
 258:../../core/drivers/LSM303AGR/src/LSM303AGRSensor.c **** 			| LSM303AGR_MAG_ODR_10HZ | LSM303AGR_MAG_MD_CONT;
 259:../../core/drivers/LSM303AGR/src/LSM303AGRSensor.c **** 	LSM303AGR_writeRegister(LSM303AGR_MAG_CFG_REG_A, LSM303AGR_setting, 1);
 690              		.loc 1 259 2 is_stmt 1 view .LVU98
 691 0008 0122     		movs	r2, #1
 692 000a 6020     		movs	r0, #96
 693 000c FFF7FEFF 		bl	LSM303AGR_writeRegister
 694              	.LVL56:
 260:../../core/drivers/LSM303AGR/src/LSM303AGRSensor.c **** 
 261:../../core/drivers/LSM303AGR/src/LSM303AGRSensor.c **** }
 695              		.loc 1 261 1 is_stmt 0 view .LVU99
 696 0010 08BD     		pop	{r3, pc}
 697              	.L45:
 698 0012 00BF     		.align	2
 699              	.L44:
 700 0014 00000000 		.word	LSM303AGR_setting
 701              		.cfi_endproc
 702              	.LFE134:
 704              		.section	.text.LSM303AGR_ACC_readAccelerationData,"ax",%progbits
 705              		.align	1
 706              		.global	LSM303AGR_ACC_readAccelerationData
 707              		.syntax unified
 708              		.thumb
 709              		.thumb_func
 710              		.fpu fpv4-sp-d16
 712              	LSM303AGR_ACC_readAccelerationData:
 713              	.LVL57:
 714              	.LFB135:
 262:../../core/drivers/LSM303AGR/src/LSM303AGRSensor.c **** 
 263:../../core/drivers/LSM303AGR/src/LSM303AGRSensor.c **** /**
 264:../../core/drivers/LSM303AGR/src/LSM303AGRSensor.c ****  * Reads the output registers of the accelerometer
 265:../../core/drivers/LSM303AGR/src/LSM303AGRSensor.c ****  * @param pData: a pointer to where the data needs to be stored
 266:../../core/drivers/LSM303AGR/src/LSM303AGRSensor.c ****  */
 267:../../core/drivers/LSM303AGR/src/LSM303AGRSensor.c **** void LSM303AGR_ACC_readAccelerationData(int32_t *pData) {
 715              		.loc 1 267 57 is_stmt 1 view -0
 716              		.cfi_startproc
 717              		@ args = 0, pretend = 0, frame = 0
ARM GAS  C:\Users\yvesk\AppData\Local\Temp\cctrlrm4.s 			page 18


 718              		@ frame_needed = 0, uses_anonymous_args = 0
 719              		.loc 1 267 57 is_stmt 0 view .LVU101
 720 0000 30B5     		push	{r4, r5, lr}
 721              	.LCFI17:
 722              		.cfi_def_cfa_offset 12
 723              		.cfi_offset 4, -12
 724              		.cfi_offset 5, -8
 725              		.cfi_offset 14, -4
 726 0002 85B0     		sub	sp, sp, #20
 727              	.LCFI18:
 728              		.cfi_def_cfa_offset 32
 729 0004 0446     		mov	r4, r0
 268:../../core/drivers/LSM303AGR/src/LSM303AGRSensor.c **** 	//accRegisterData[6];
 269:../../core/drivers/LSM303AGR/src/LSM303AGRSensor.c **** 	//accRawData[3];
 270:../../core/drivers/LSM303AGR/src/LSM303AGRSensor.c **** 
 271:../../core/drivers/LSM303AGR/src/LSM303AGRSensor.c **** 	//magRegisterData[6];
 272:../../core/drivers/LSM303AGR/src/LSM303AGRSensor.c **** 	//magRawData[3];
 273:../../core/drivers/LSM303AGR/src/LSM303AGRSensor.c **** 	//LSM303AGR_ACC_TEMP_DATA rawData;
 274:../../core/drivers/LSM303AGR/src/LSM303AGRSensor.c **** 
 275:../../core/drivers/LSM303AGR/src/LSM303AGRSensor.c **** 	HAL_I2C_Mem_Read(LSM303AGR_hi2c, LSM303AGR_ACC_I2C_ADDRESS,	LSM303AGR_ACC_MULTI_READ, I2C_MEMADD_S
 730              		.loc 1 275 2 is_stmt 1 view .LVU102
 731 0006 4FF0FF33 		mov	r3, #-1
 732 000a 0293     		str	r3, [sp, #8]
 733 000c 0623     		movs	r3, #6
 734 000e 0193     		str	r3, [sp, #4]
 735 0010 214D     		ldr	r5, .L48
 736 0012 0095     		str	r5, [sp]
 737 0014 0123     		movs	r3, #1
 738 0016 A822     		movs	r2, #168
 739 0018 3221     		movs	r1, #50
 740 001a 2048     		ldr	r0, .L48+4
 741              	.LVL58:
 742              		.loc 1 275 2 is_stmt 0 view .LVU103
 743 001c 0068     		ldr	r0, [r0]
 744 001e FFF7FEFF 		bl	HAL_I2C_Mem_Read
 745              	.LVL59:
 276:../../core/drivers/LSM303AGR/src/LSM303AGRSensor.c **** 
 277:../../core/drivers/LSM303AGR/src/LSM303AGRSensor.c **** 	accRawData[0] = (accRegisterData[1] << 8)	| accRegisterData[0];
 746              		.loc 1 277 2 is_stmt 1 view .LVU104
 747              		.loc 1 277 34 is_stmt 0 view .LVU105
 748 0022 6A78     		ldrb	r2, [r5, #1]	@ zero_extendqisi2
 749              		.loc 1 277 61 view .LVU106
 750 0024 2B78     		ldrb	r3, [r5]	@ zero_extendqisi2
 751              		.loc 1 277 44 view .LVU107
 752 0026 43EA0223 		orr	r3, r3, r2, lsl #8
 753 002a 1BB2     		sxth	r3, r3
 754              		.loc 1 277 16 view .LVU108
 755 002c 1C49     		ldr	r1, .L48+8
 756 002e 0B80     		strh	r3, [r1]	@ movhi
 278:../../core/drivers/LSM303AGR/src/LSM303AGRSensor.c **** 	accRawData[1] = (accRegisterData[3] << 8)| accRegisterData[2];
 757              		.loc 1 278 2 is_stmt 1 view .LVU109
 758              		.loc 1 278 34 is_stmt 0 view .LVU110
 759 0030 E878     		ldrb	r0, [r5, #3]	@ zero_extendqisi2
 760              		.loc 1 278 60 view .LVU111
 761 0032 AA78     		ldrb	r2, [r5, #2]	@ zero_extendqisi2
 762              		.loc 1 278 43 view .LVU112
 763 0034 42EA0022 		orr	r2, r2, r0, lsl #8
ARM GAS  C:\Users\yvesk\AppData\Local\Temp\cctrlrm4.s 			page 19


 764              		.loc 1 278 16 view .LVU113
 765 0038 4A80     		strh	r2, [r1, #2]	@ movhi
 279:../../core/drivers/LSM303AGR/src/LSM303AGRSensor.c **** 	accRawData[2] = (accRegisterData[5] << 8)| accRegisterData[4];
 766              		.loc 1 279 2 is_stmt 1 view .LVU114
 767              		.loc 1 279 34 is_stmt 0 view .LVU115
 768 003a 6879     		ldrb	r0, [r5, #5]	@ zero_extendqisi2
 769              		.loc 1 279 60 view .LVU116
 770 003c 2A79     		ldrb	r2, [r5, #4]	@ zero_extendqisi2
 771              		.loc 1 279 43 view .LVU117
 772 003e 42EA0022 		orr	r2, r2, r0, lsl #8
 773              		.loc 1 279 16 view .LVU118
 774 0042 8A80     		strh	r2, [r1, #4]	@ movhi
 280:../../core/drivers/LSM303AGR/src/LSM303AGRSensor.c **** 
 281:../../core/drivers/LSM303AGR/src/LSM303AGRSensor.c **** 	/* Apply proper shift and sensitivity */
 282:../../core/drivers/LSM303AGR/src/LSM303AGRSensor.c **** 	// Normal mode 10-bit, shift = 6 and FS = 2
 283:../../core/drivers/LSM303AGR/src/LSM303AGRSensor.c **** 	pData[0] = (int32_t) (((accRawData[0] >> 6) * 3900 + 500) / 1000);
 775              		.loc 1 283 2 is_stmt 1 view .LVU119
 776              		.loc 1 283 40 is_stmt 0 view .LVU120
 777 0044 9B11     		asrs	r3, r3, #6
 778              		.loc 1 283 46 view .LVU121
 779 0046 40F63C72 		movw	r2, #3900
 780 004a 02FB03F3 		mul	r3, r2, r3
 781              		.loc 1 283 53 view .LVU122
 782 004e 03F5FA73 		add	r3, r3, #500
 783              		.loc 1 283 60 view .LVU123
 784 0052 1448     		ldr	r0, .L48+12
 785 0054 80FB03C5 		smull	ip, r5, r0, r3
 786 0058 DB17     		asrs	r3, r3, #31
 787 005a C3EBA513 		rsb	r3, r3, r5, asr #6
 788              		.loc 1 283 11 view .LVU124
 789 005e 2360     		str	r3, [r4]
 284:../../core/drivers/LSM303AGR/src/LSM303AGRSensor.c **** 	pData[1] = (int32_t) (((accRawData[1] >> 6) * 3900 + 500) / 1000);
 790              		.loc 1 284 2 is_stmt 1 view .LVU125
 791              		.loc 1 284 36 is_stmt 0 view .LVU126
 792 0060 B1F90230 		ldrsh	r3, [r1, #2]
 793              		.loc 1 284 40 view .LVU127
 794 0064 9B11     		asrs	r3, r3, #6
 795              		.loc 1 284 46 view .LVU128
 796 0066 02FB03F3 		mul	r3, r2, r3
 797              		.loc 1 284 53 view .LVU129
 798 006a 03F5FA73 		add	r3, r3, #500
 799              		.loc 1 284 60 view .LVU130
 800 006e 80FB03C5 		smull	ip, r5, r0, r3
 801 0072 DB17     		asrs	r3, r3, #31
 802 0074 C3EBA513 		rsb	r3, r3, r5, asr #6
 803              		.loc 1 284 11 view .LVU131
 804 0078 6360     		str	r3, [r4, #4]
 285:../../core/drivers/LSM303AGR/src/LSM303AGRSensor.c **** 	pData[2] = (int32_t) (((accRawData[2] >> 6) * 3900 + 500) / 1000);
 805              		.loc 1 285 2 is_stmt 1 view .LVU132
 806              		.loc 1 285 36 is_stmt 0 view .LVU133
 807 007a B1F90430 		ldrsh	r3, [r1, #4]
 808              		.loc 1 285 40 view .LVU134
 809 007e 9B11     		asrs	r3, r3, #6
 810              		.loc 1 285 46 view .LVU135
 811 0080 02FB03F2 		mul	r2, r2, r3
 812              		.loc 1 285 53 view .LVU136
 813 0084 02F5FA72 		add	r2, r2, #500
ARM GAS  C:\Users\yvesk\AppData\Local\Temp\cctrlrm4.s 			page 20


 814              		.loc 1 285 60 view .LVU137
 815 0088 80FB0230 		smull	r3, r0, r0, r2
 816 008c D217     		asrs	r2, r2, #31
 817 008e C2EBA012 		rsb	r2, r2, r0, asr #6
 818              		.loc 1 285 11 view .LVU138
 819 0092 A260     		str	r2, [r4, #8]
 286:../../core/drivers/LSM303AGR/src/LSM303AGRSensor.c **** 
 287:../../core/drivers/LSM303AGR/src/LSM303AGRSensor.c **** }
 820              		.loc 1 287 1 view .LVU139
 821 0094 05B0     		add	sp, sp, #20
 822              	.LCFI19:
 823              		.cfi_def_cfa_offset 12
 824              		@ sp needed
 825 0096 30BD     		pop	{r4, r5, pc}
 826              	.LVL60:
 827              	.L49:
 828              		.loc 1 287 1 view .LVU140
 829              		.align	2
 830              	.L48:
 831 0098 00000000 		.word	accRegisterData
 832 009c 00000000 		.word	LSM303AGR_hi2c
 833 00a0 00000000 		.word	accRawData
 834 00a4 D34D6210 		.word	274877907
 835              		.cfi_endproc
 836              	.LFE135:
 838              		.section	.text.LSM303AGR_MAG_readMagneticData,"ax",%progbits
 839              		.align	1
 840              		.global	LSM303AGR_MAG_readMagneticData
 841              		.syntax unified
 842              		.thumb
 843              		.thumb_func
 844              		.fpu fpv4-sp-d16
 846              	LSM303AGR_MAG_readMagneticData:
 847              	.LVL61:
 848              	.LFB136:
 288:../../core/drivers/LSM303AGR/src/LSM303AGRSensor.c **** 
 289:../../core/drivers/LSM303AGR/src/LSM303AGRSensor.c **** /**
 290:../../core/drivers/LSM303AGR/src/LSM303AGRSensor.c ****  * Reads the output registers of the magnetometer and applies the sensitivity
 291:../../core/drivers/LSM303AGR/src/LSM303AGRSensor.c ****  * @param pData: a pointer to where the data needs to be stored
 292:../../core/drivers/LSM303AGR/src/LSM303AGRSensor.c ****  */
 293:../../core/drivers/LSM303AGR/src/LSM303AGRSensor.c **** void LSM303AGR_MAG_readMagneticData(int32_t *pData) {
 849              		.loc 1 293 53 is_stmt 1 view -0
 850              		.cfi_startproc
 851              		@ args = 0, pretend = 0, frame = 0
 852              		@ frame_needed = 0, uses_anonymous_args = 0
 853              		.loc 1 293 53 is_stmt 0 view .LVU142
 854 0000 30B5     		push	{r4, r5, lr}
 855              	.LCFI20:
 856              		.cfi_def_cfa_offset 12
 857              		.cfi_offset 4, -12
 858              		.cfi_offset 5, -8
 859              		.cfi_offset 14, -4
 860 0002 85B0     		sub	sp, sp, #20
 861              	.LCFI21:
 862              		.cfi_def_cfa_offset 32
 863 0004 0446     		mov	r4, r0
 294:../../core/drivers/LSM303AGR/src/LSM303AGRSensor.c **** 	//magRegisterData[6];
ARM GAS  C:\Users\yvesk\AppData\Local\Temp\cctrlrm4.s 			page 21


 295:../../core/drivers/LSM303AGR/src/LSM303AGRSensor.c **** 		//magRawData[3];
 296:../../core/drivers/LSM303AGR/src/LSM303AGRSensor.c **** 		//LSM303AGR_ACC_TEMP_DATA rawData;
 297:../../core/drivers/LSM303AGR/src/LSM303AGRSensor.c **** 
 298:../../core/drivers/LSM303AGR/src/LSM303AGRSensor.c **** 	//LSM303AGR_MAG_TEMP_DATA rawData;
 299:../../core/drivers/LSM303AGR/src/LSM303AGRSensor.c **** 
 300:../../core/drivers/LSM303AGR/src/LSM303AGRSensor.c **** 	HAL_I2C_Mem_Read(LSM303AGR_hi2c, LSM303AGR_MAG_I2C_ADDRESS,
 864              		.loc 1 300 2 is_stmt 1 view .LVU143
 865 0006 4FF0FF33 		mov	r3, #-1
 866 000a 0293     		str	r3, [sp, #8]
 867 000c 0623     		movs	r3, #6
 868 000e 0193     		str	r3, [sp, #4]
 869 0010 1F4D     		ldr	r5, .L52
 870 0012 0095     		str	r5, [sp]
 871 0014 0123     		movs	r3, #1
 872 0016 E822     		movs	r2, #232
 873 0018 3C21     		movs	r1, #60
 874 001a 1E48     		ldr	r0, .L52+4
 875              	.LVL62:
 876              		.loc 1 300 2 is_stmt 0 view .LVU144
 877 001c 0068     		ldr	r0, [r0]
 878 001e FFF7FEFF 		bl	HAL_I2C_Mem_Read
 879              	.LVL63:
 301:../../core/drivers/LSM303AGR/src/LSM303AGRSensor.c **** 	LSM303AGR_MAG_MULTI_READ, I2C_MEMADD_SIZE_8BIT, magRegisterData,
 302:../../core/drivers/LSM303AGR/src/LSM303AGRSensor.c **** 			sizeof(magRegisterData), HAL_MAX_DELAY);
 303:../../core/drivers/LSM303AGR/src/LSM303AGRSensor.c **** 
 304:../../core/drivers/LSM303AGR/src/LSM303AGRSensor.c **** 	magRawData[0] = (magRegisterData[1] << 8)
 880              		.loc 1 304 2 is_stmt 1 view .LVU145
 881              		.loc 1 304 34 is_stmt 0 view .LVU146
 882 0022 6A78     		ldrb	r2, [r5, #1]	@ zero_extendqisi2
 305:../../core/drivers/LSM303AGR/src/LSM303AGRSensor.c **** 			| magRegisterData[0];
 883              		.loc 1 305 21 view .LVU147
 884 0024 2B78     		ldrb	r3, [r5]	@ zero_extendqisi2
 885              		.loc 1 305 4 view .LVU148
 886 0026 43EA0223 		orr	r3, r3, r2, lsl #8
 887 002a 1BB2     		sxth	r3, r3
 304:../../core/drivers/LSM303AGR/src/LSM303AGRSensor.c **** 			| magRegisterData[0];
 888              		.loc 1 304 16 view .LVU149
 889 002c 1A4A     		ldr	r2, .L52+8
 890 002e 1380     		strh	r3, [r2]	@ movhi
 306:../../core/drivers/LSM303AGR/src/LSM303AGRSensor.c **** 	magRawData[1] = (magRegisterData[3] << 8)
 891              		.loc 1 306 2 is_stmt 1 view .LVU150
 892              		.loc 1 306 34 is_stmt 0 view .LVU151
 893 0030 E878     		ldrb	r0, [r5, #3]	@ zero_extendqisi2
 307:../../core/drivers/LSM303AGR/src/LSM303AGRSensor.c **** 			| magRegisterData[2];
 894              		.loc 1 307 21 view .LVU152
 895 0032 A978     		ldrb	r1, [r5, #2]	@ zero_extendqisi2
 896              		.loc 1 307 4 view .LVU153
 897 0034 41EA0021 		orr	r1, r1, r0, lsl #8
 306:../../core/drivers/LSM303AGR/src/LSM303AGRSensor.c **** 	magRawData[1] = (magRegisterData[3] << 8)
 898              		.loc 1 306 16 view .LVU154
 899 0038 5180     		strh	r1, [r2, #2]	@ movhi
 308:../../core/drivers/LSM303AGR/src/LSM303AGRSensor.c **** 	magRawData[2] = (magRegisterData[5] << 8)
 900              		.loc 1 308 2 is_stmt 1 view .LVU155
 901              		.loc 1 308 34 is_stmt 0 view .LVU156
 902 003a 6879     		ldrb	r0, [r5, #5]	@ zero_extendqisi2
 309:../../core/drivers/LSM303AGR/src/LSM303AGRSensor.c **** 			| magRegisterData[4];
 903              		.loc 1 309 21 view .LVU157
ARM GAS  C:\Users\yvesk\AppData\Local\Temp\cctrlrm4.s 			page 22


 904 003c 2979     		ldrb	r1, [r5, #4]	@ zero_extendqisi2
 905              		.loc 1 309 4 view .LVU158
 906 003e 41EA0021 		orr	r1, r1, r0, lsl #8
 308:../../core/drivers/LSM303AGR/src/LSM303AGRSensor.c **** 	magRawData[2] = (magRegisterData[5] << 8)
 907              		.loc 1 308 16 view .LVU159
 908 0042 9180     		strh	r1, [r2, #4]	@ movhi
 310:../../core/drivers/LSM303AGR/src/LSM303AGRSensor.c **** 
 311:../../core/drivers/LSM303AGR/src/LSM303AGRSensor.c **** 	/* Calculate the data. */
 312:../../core/drivers/LSM303AGR/src/LSM303AGRSensor.c **** 	pData[0] = (int32_t) (magRawData[0] * 1.5f);
 909              		.loc 1 312 2 is_stmt 1 view .LVU160
 910              		.loc 1 312 38 is_stmt 0 view .LVU161
 911 0044 07EE903A 		vmov	s15, r3	@ int
 912 0048 F8EEE77A 		vcvt.f32.s32	s15, s15
 913 004c F7EE086A 		vmov.f32	s13, #1.5e+0
 914 0050 67EEA67A 		vmul.f32	s15, s15, s13
 915              		.loc 1 312 13 view .LVU162
 916 0054 FDEEE77A 		vcvt.s32.f32	s15, s15
 917              		.loc 1 312 11 view .LVU163
 918 0058 C4ED007A 		vstr.32	s15, [r4]	@ int
 313:../../core/drivers/LSM303AGR/src/LSM303AGRSensor.c **** 	pData[1] = (int32_t) (magRawData[1] * 1.5f);
 919              		.loc 1 313 2 is_stmt 1 view .LVU164
 920              		.loc 1 313 34 is_stmt 0 view .LVU165
 921 005c B2F90230 		ldrsh	r3, [r2, #2]
 922 0060 07EE103A 		vmov	s14, r3	@ int
 923              		.loc 1 313 38 view .LVU166
 924 0064 B8EEC77A 		vcvt.f32.s32	s14, s14
 925 0068 27EE267A 		vmul.f32	s14, s14, s13
 926              		.loc 1 313 13 view .LVU167
 927 006c BDEEC77A 		vcvt.s32.f32	s14, s14
 928              		.loc 1 313 11 view .LVU168
 929 0070 84ED017A 		vstr.32	s14, [r4, #4]	@ int
 314:../../core/drivers/LSM303AGR/src/LSM303AGRSensor.c **** 	pData[2] = (int32_t) (magRawData[2] * 1.5f);
 930              		.loc 1 314 2 is_stmt 1 view .LVU169
 931              		.loc 1 314 34 is_stmt 0 view .LVU170
 932 0074 B2F90430 		ldrsh	r3, [r2, #4]
 933 0078 07EE903A 		vmov	s15, r3	@ int
 934              		.loc 1 314 38 view .LVU171
 935 007c F8EEE77A 		vcvt.f32.s32	s15, s15
 936 0080 67EEA67A 		vmul.f32	s15, s15, s13
 937              		.loc 1 314 13 view .LVU172
 938 0084 FDEEE77A 		vcvt.s32.f32	s15, s15
 939              		.loc 1 314 11 view .LVU173
 940 0088 C4ED027A 		vstr.32	s15, [r4, #8]	@ int
 315:../../core/drivers/LSM303AGR/src/LSM303AGRSensor.c **** 
 316:../../core/drivers/LSM303AGR/src/LSM303AGRSensor.c **** }
 941              		.loc 1 316 1 view .LVU174
 942 008c 05B0     		add	sp, sp, #20
 943              	.LCFI22:
 944              		.cfi_def_cfa_offset 12
 945              		@ sp needed
 946 008e 30BD     		pop	{r4, r5, pc}
 947              	.LVL64:
 948              	.L53:
 949              		.loc 1 316 1 view .LVU175
 950              		.align	2
 951              	.L52:
 952 0090 00000000 		.word	magRegisterData
ARM GAS  C:\Users\yvesk\AppData\Local\Temp\cctrlrm4.s 			page 23


 953 0094 00000000 		.word	LSM303AGR_hi2c
 954 0098 00000000 		.word	magRawData
 955              		.cfi_endproc
 956              	.LFE136:
 958              		.section	.text.LSM303AGR_MAG_readMagneticRawData,"ax",%progbits
 959              		.align	1
 960              		.global	LSM303AGR_MAG_readMagneticRawData
 961              		.syntax unified
 962              		.thumb
 963              		.thumb_func
 964              		.fpu fpv4-sp-d16
 966              	LSM303AGR_MAG_readMagneticRawData:
 967              	.LVL65:
 968              	.LFB137:
 317:../../core/drivers/LSM303AGR/src/LSM303AGRSensor.c **** 
 318:../../core/drivers/LSM303AGR/src/LSM303AGRSensor.c **** /**
 319:../../core/drivers/LSM303AGR/src/LSM303AGRSensor.c ****  * Read the output registers of the magnetometer
 320:../../core/drivers/LSM303AGR/src/LSM303AGRSensor.c ****  * @param pData: a pointer to where the data needs to be stored
 321:../../core/drivers/LSM303AGR/src/LSM303AGRSensor.c ****  */
 322:../../core/drivers/LSM303AGR/src/LSM303AGRSensor.c **** void LSM303AGR_MAG_readMagneticRawData(uint16_t *pData) {
 969              		.loc 1 322 57 is_stmt 1 view -0
 970              		.cfi_startproc
 971              		@ args = 0, pretend = 0, frame = 0
 972              		@ frame_needed = 0, uses_anonymous_args = 0
 973              		.loc 1 322 57 is_stmt 0 view .LVU177
 974 0000 30B5     		push	{r4, r5, lr}
 975              	.LCFI23:
 976              		.cfi_def_cfa_offset 12
 977              		.cfi_offset 4, -12
 978              		.cfi_offset 5, -8
 979              		.cfi_offset 14, -4
 980 0002 85B0     		sub	sp, sp, #20
 981              	.LCFI24:
 982              		.cfi_def_cfa_offset 32
 983 0004 0546     		mov	r5, r0
 323:../../core/drivers/LSM303AGR/src/LSM303AGRSensor.c **** 	//magRegisterData[6];
 324:../../core/drivers/LSM303AGR/src/LSM303AGRSensor.c **** 			//magRawData[3];
 325:../../core/drivers/LSM303AGR/src/LSM303AGRSensor.c **** 	//LSM303AGR_MAG_TEMP_DATA rawData;
 326:../../core/drivers/LSM303AGR/src/LSM303AGRSensor.c **** 
 327:../../core/drivers/LSM303AGR/src/LSM303AGRSensor.c **** 	HAL_I2C_Mem_Read(LSM303AGR_hi2c, LSM303AGR_MAG_I2C_ADDRESS,
 984              		.loc 1 327 2 is_stmt 1 view .LVU178
 985 0006 4FF0FF33 		mov	r3, #-1
 986 000a 0293     		str	r3, [sp, #8]
 987 000c 0623     		movs	r3, #6
 988 000e 0193     		str	r3, [sp, #4]
 989 0010 0C4C     		ldr	r4, .L56
 990 0012 0094     		str	r4, [sp]
 991 0014 0123     		movs	r3, #1
 992 0016 E822     		movs	r2, #232
 993 0018 3C21     		movs	r1, #60
 994 001a 0B48     		ldr	r0, .L56+4
 995              	.LVL66:
 996              		.loc 1 327 2 is_stmt 0 view .LVU179
 997 001c 0068     		ldr	r0, [r0]
 998 001e FFF7FEFF 		bl	HAL_I2C_Mem_Read
 999              	.LVL67:
 328:../../core/drivers/LSM303AGR/src/LSM303AGRSensor.c **** 	LSM303AGR_MAG_MULTI_READ, I2C_MEMADD_SIZE_8BIT, magRegisterData,
ARM GAS  C:\Users\yvesk\AppData\Local\Temp\cctrlrm4.s 			page 24


 329:../../core/drivers/LSM303AGR/src/LSM303AGRSensor.c **** 			sizeof(magRegisterData), HAL_MAX_DELAY);
 330:../../core/drivers/LSM303AGR/src/LSM303AGRSensor.c **** 
 331:../../core/drivers/LSM303AGR/src/LSM303AGRSensor.c **** 	pData[0] = (magRegisterData[1] << 8)
 1000              		.loc 1 331 2 is_stmt 1 view .LVU180
 1001              		.loc 1 331 29 is_stmt 0 view .LVU181
 1002 0022 6278     		ldrb	r2, [r4, #1]	@ zero_extendqisi2
 332:../../core/drivers/LSM303AGR/src/LSM303AGRSensor.c **** 			| magRegisterData[0];
 1003              		.loc 1 332 21 view .LVU182
 1004 0024 2378     		ldrb	r3, [r4]	@ zero_extendqisi2
 1005              		.loc 1 332 4 view .LVU183
 1006 0026 43EA0223 		orr	r3, r3, r2, lsl #8
 331:../../core/drivers/LSM303AGR/src/LSM303AGRSensor.c **** 			| magRegisterData[0];
 1007              		.loc 1 331 11 view .LVU184
 1008 002a 2B80     		strh	r3, [r5]	@ movhi
 333:../../core/drivers/LSM303AGR/src/LSM303AGRSensor.c **** 	pData[1] = (magRegisterData[3] << 8)
 1009              		.loc 1 333 2 is_stmt 1 view .LVU185
 1010              		.loc 1 333 29 is_stmt 0 view .LVU186
 1011 002c E278     		ldrb	r2, [r4, #3]	@ zero_extendqisi2
 334:../../core/drivers/LSM303AGR/src/LSM303AGRSensor.c **** 			| magRegisterData[2];
 1012              		.loc 1 334 21 view .LVU187
 1013 002e A378     		ldrb	r3, [r4, #2]	@ zero_extendqisi2
 1014              		.loc 1 334 4 view .LVU188
 1015 0030 43EA0223 		orr	r3, r3, r2, lsl #8
 333:../../core/drivers/LSM303AGR/src/LSM303AGRSensor.c **** 	pData[1] = (magRegisterData[3] << 8)
 1016              		.loc 1 333 11 view .LVU189
 1017 0034 6B80     		strh	r3, [r5, #2]	@ movhi
 335:../../core/drivers/LSM303AGR/src/LSM303AGRSensor.c **** 	pData[2] = (magRegisterData[5] << 8)
 1018              		.loc 1 335 2 is_stmt 1 view .LVU190
 1019              		.loc 1 335 29 is_stmt 0 view .LVU191
 1020 0036 6279     		ldrb	r2, [r4, #5]	@ zero_extendqisi2
 336:../../core/drivers/LSM303AGR/src/LSM303AGRSensor.c **** 			| magRegisterData[4];
 1021              		.loc 1 336 21 view .LVU192
 1022 0038 2379     		ldrb	r3, [r4, #4]	@ zero_extendqisi2
 1023              		.loc 1 336 4 view .LVU193
 1024 003a 43EA0223 		orr	r3, r3, r2, lsl #8
 335:../../core/drivers/LSM303AGR/src/LSM303AGRSensor.c **** 	pData[2] = (magRegisterData[5] << 8)
 1025              		.loc 1 335 11 view .LVU194
 1026 003e AB80     		strh	r3, [r5, #4]	@ movhi
 337:../../core/drivers/LSM303AGR/src/LSM303AGRSensor.c **** 
 338:../../core/drivers/LSM303AGR/src/LSM303AGRSensor.c **** 
 339:../../core/drivers/LSM303AGR/src/LSM303AGRSensor.c **** }
 1027              		.loc 1 339 1 view .LVU195
 1028 0040 05B0     		add	sp, sp, #20
 1029              	.LCFI25:
 1030              		.cfi_def_cfa_offset 12
 1031              		@ sp needed
 1032 0042 30BD     		pop	{r4, r5, pc}
 1033              	.LVL68:
 1034              	.L57:
 1035              		.loc 1 339 1 view .LVU196
 1036              		.align	2
 1037              	.L56:
 1038 0044 00000000 		.word	magRegisterData
 1039 0048 00000000 		.word	LSM303AGR_hi2c
 1040              		.cfi_endproc
 1041              	.LFE137:
 1043              		.section	.text.LSM303AGR_ACC_readAccelerationRawData,"ax",%progbits
ARM GAS  C:\Users\yvesk\AppData\Local\Temp\cctrlrm4.s 			page 25


 1044              		.align	1
 1045              		.global	LSM303AGR_ACC_readAccelerationRawData
 1046              		.syntax unified
 1047              		.thumb
 1048              		.thumb_func
 1049              		.fpu fpv4-sp-d16
 1051              	LSM303AGR_ACC_readAccelerationRawData:
 1052              	.LVL69:
 1053              	.LFB138:
 340:../../core/drivers/LSM303AGR/src/LSM303AGRSensor.c **** 
 341:../../core/drivers/LSM303AGR/src/LSM303AGRSensor.c **** void LSM303AGR_ACC_readAccelerationRawData(uint16_t *pData) {
 1054              		.loc 1 341 61 is_stmt 1 view -0
 1055              		.cfi_startproc
 1056              		@ args = 0, pretend = 0, frame = 0
 1057              		@ frame_needed = 0, uses_anonymous_args = 0
 1058              		.loc 1 341 61 is_stmt 0 view .LVU198
 1059 0000 30B5     		push	{r4, r5, lr}
 1060              	.LCFI26:
 1061              		.cfi_def_cfa_offset 12
 1062              		.cfi_offset 4, -12
 1063              		.cfi_offset 5, -8
 1064              		.cfi_offset 14, -4
 1065 0002 85B0     		sub	sp, sp, #20
 1066              	.LCFI27:
 1067              		.cfi_def_cfa_offset 32
 1068 0004 0546     		mov	r5, r0
 342:../../core/drivers/LSM303AGR/src/LSM303AGRSensor.c **** 	//accRegisterData[6];
 343:../../core/drivers/LSM303AGR/src/LSM303AGRSensor.c **** 	//accRawData[3];
 344:../../core/drivers/LSM303AGR/src/LSM303AGRSensor.c **** 
 345:../../core/drivers/LSM303AGR/src/LSM303AGRSensor.c **** 	//magRegisterData[6];
 346:../../core/drivers/LSM303AGR/src/LSM303AGRSensor.c **** 	//magRawData[3];
 347:../../core/drivers/LSM303AGR/src/LSM303AGRSensor.c **** 	//LSM303AGR_ACC_TEMP_DATA rawData;
 348:../../core/drivers/LSM303AGR/src/LSM303AGRSensor.c **** 
 349:../../core/drivers/LSM303AGR/src/LSM303AGRSensor.c **** 	HAL_I2C_Mem_Read(LSM303AGR_hi2c, LSM303AGR_ACC_I2C_ADDRESS,	LSM303AGR_ACC_MULTI_READ, I2C_MEMADD_S
 1069              		.loc 1 349 2 is_stmt 1 view .LVU199
 1070 0006 4FF0FF33 		mov	r3, #-1
 1071 000a 0293     		str	r3, [sp, #8]
 1072 000c 0623     		movs	r3, #6
 1073 000e 0193     		str	r3, [sp, #4]
 1074 0010 0C4C     		ldr	r4, .L60
 1075 0012 0094     		str	r4, [sp]
 1076 0014 0123     		movs	r3, #1
 1077 0016 A822     		movs	r2, #168
 1078 0018 3221     		movs	r1, #50
 1079 001a 0B48     		ldr	r0, .L60+4
 1080              	.LVL70:
 1081              		.loc 1 349 2 is_stmt 0 view .LVU200
 1082 001c 0068     		ldr	r0, [r0]
 1083 001e FFF7FEFF 		bl	HAL_I2C_Mem_Read
 1084              	.LVL71:
 350:../../core/drivers/LSM303AGR/src/LSM303AGRSensor.c **** 
 351:../../core/drivers/LSM303AGR/src/LSM303AGRSensor.c **** 	pData[0] = (accRegisterData[1] << 8)	| accRegisterData[0];
 1085              		.loc 1 351 2 is_stmt 1 view .LVU201
 1086              		.loc 1 351 29 is_stmt 0 view .LVU202
 1087 0022 6278     		ldrb	r2, [r4, #1]	@ zero_extendqisi2
 1088              		.loc 1 351 56 view .LVU203
 1089 0024 2378     		ldrb	r3, [r4]	@ zero_extendqisi2
ARM GAS  C:\Users\yvesk\AppData\Local\Temp\cctrlrm4.s 			page 26


 1090              		.loc 1 351 39 view .LVU204
 1091 0026 43EA0223 		orr	r3, r3, r2, lsl #8
 1092              		.loc 1 351 11 view .LVU205
 1093 002a 2B80     		strh	r3, [r5]	@ movhi
 352:../../core/drivers/LSM303AGR/src/LSM303AGRSensor.c **** 	pData[1] = (accRegisterData[3] << 8)| accRegisterData[2];
 1094              		.loc 1 352 2 is_stmt 1 view .LVU206
 1095              		.loc 1 352 29 is_stmt 0 view .LVU207
 1096 002c E278     		ldrb	r2, [r4, #3]	@ zero_extendqisi2
 1097              		.loc 1 352 55 view .LVU208
 1098 002e A378     		ldrb	r3, [r4, #2]	@ zero_extendqisi2
 1099              		.loc 1 352 38 view .LVU209
 1100 0030 43EA0223 		orr	r3, r3, r2, lsl #8
 1101              		.loc 1 352 11 view .LVU210
 1102 0034 6B80     		strh	r3, [r5, #2]	@ movhi
 353:../../core/drivers/LSM303AGR/src/LSM303AGRSensor.c **** 	pData[2] = (accRegisterData[5] << 8)| accRegisterData[4];
 1103              		.loc 1 353 2 is_stmt 1 view .LVU211
 1104              		.loc 1 353 29 is_stmt 0 view .LVU212
 1105 0036 6279     		ldrb	r2, [r4, #5]	@ zero_extendqisi2
 1106              		.loc 1 353 55 view .LVU213
 1107 0038 2379     		ldrb	r3, [r4, #4]	@ zero_extendqisi2
 1108              		.loc 1 353 38 view .LVU214
 1109 003a 43EA0223 		orr	r3, r3, r2, lsl #8
 1110              		.loc 1 353 11 view .LVU215
 1111 003e AB80     		strh	r3, [r5, #4]	@ movhi
 354:../../core/drivers/LSM303AGR/src/LSM303AGRSensor.c **** 
 355:../../core/drivers/LSM303AGR/src/LSM303AGRSensor.c **** 	/* Apply proper shift and sensitivity */
 356:../../core/drivers/LSM303AGR/src/LSM303AGRSensor.c **** 	// Normal mode 10-bit, shift = 6 and FS = 2
 357:../../core/drivers/LSM303AGR/src/LSM303AGRSensor.c **** 	//pData[0] = (int32_t) (((accRawData[0] >> 6) * 3900 + 500) / 1000);
 358:../../core/drivers/LSM303AGR/src/LSM303AGRSensor.c **** 	//pData[1] = (int32_t) (((accRawData[1] >> 6) * 3900 + 500) / 1000);
 359:../../core/drivers/LSM303AGR/src/LSM303AGRSensor.c **** 	//pData[2] = (int32_t) (((accRawData[2] >> 6) * 3900 + 500) / 1000);
 360:../../core/drivers/LSM303AGR/src/LSM303AGRSensor.c **** 
 361:../../core/drivers/LSM303AGR/src/LSM303AGRSensor.c **** }
 1112              		.loc 1 361 1 view .LVU216
 1113 0040 05B0     		add	sp, sp, #20
 1114              	.LCFI28:
 1115              		.cfi_def_cfa_offset 12
 1116              		@ sp needed
 1117 0042 30BD     		pop	{r4, r5, pc}
 1118              	.LVL72:
 1119              	.L61:
 1120              		.loc 1 361 1 view .LVU217
 1121              		.align	2
 1122              	.L60:
 1123 0044 00000000 		.word	accRegisterData
 1124 0048 00000000 		.word	LSM303AGR_hi2c
 1125              		.cfi_endproc
 1126              	.LFE138:
 1128              		.comm	magRawData,6,4
 1129              		.comm	magRegisterData,6,4
 1130              		.comm	accRawData,6,4
 1131              		.comm	accRegisterData,6,4
 1132              		.comm	LSM303AGR_hi2c,4,4
 1133              		.comm	LSM303AGR_setting,1,1
 1134              		.text
 1135              	.Letext0:
 1136              		.file 2 "c:\\program files (x86)\\gnu tools arm embedded\\8 2019-q3-update\\arm-none-eabi\\include
 1137              		.file 3 "c:\\program files (x86)\\gnu tools arm embedded\\8 2019-q3-update\\arm-none-eabi\\include
ARM GAS  C:\Users\yvesk\AppData\Local\Temp\cctrlrm4.s 			page 27


 1138              		.file 4 "../../core/ST/CMSIS/Include/core_cm4.h"
 1139              		.file 5 "../../core/ST/CMSIS/Device/ST/STM32L4xx/Include/system_stm32l4xx.h"
 1140              		.file 6 "../../core/ST/CMSIS/Device/ST/STM32L4xx/Include/stm32l496xx.h"
 1141              		.file 7 "../../core/ST/STM32L4xx_HAL_Driver/Inc/stm32l4xx_hal_def.h"
 1142              		.file 8 "../../core/ST/STM32L4xx_HAL_Driver/Inc/stm32l4xx_hal_dma.h"
 1143              		.file 9 "../../core/ST/STM32L4xx_HAL_Driver/Inc/stm32l4xx_hal_i2c.h"
 1144              		.file 10 "../../core/ST/STM32L4xx_HAL_Driver/Inc/stm32l4xx_hal.h"
 1145              		.file 11 "../../core/drivers/LSM303AGR/inc/LSM303AGRSensor.h"
ARM GAS  C:\Users\yvesk\AppData\Local\Temp\cctrlrm4.s 			page 28

