ARM GAS  C:\Users\Wouter\AppData\Local\Temp\ccV4kzSc.s 			page 1


   1              		.cpu cortex-m4
   2              		.eabi_attribute 27, 1
   3              		.eabi_attribute 28, 1
   4              		.eabi_attribute 20, 1
   5              		.eabi_attribute 21, 1
   6              		.eabi_attribute 23, 3
   7              		.eabi_attribute 24, 1
   8              		.eabi_attribute 25, 1
   9              		.eabi_attribute 26, 1
  10              		.eabi_attribute 30, 1
  11              		.eabi_attribute 34, 1
  12              		.eabi_attribute 18, 4
  13              		.file	"murata-dualstack-example-ns.c"
  14              		.text
  15              	.Ltext0:
  16              		.cfi_sections	.debug_frame
  17              		.section	.text.LoRaWAN_send,"ax",%progbits
  18              		.align	1
  19              		.global	LoRaWAN_send
  20              		.arch armv7e-m
  21              		.syntax unified
  22              		.thumb
  23              		.thumb_func
  24              		.fpu fpv4-sp-d16
  26              	LoRaWAN_send:
  27              	.LVL0:
  28              	.LFB133:
  29              		.file 1 "../../applications/murata-dualstack-example-ns/src/murata-dualstack-example-ns.c"
   1:../../applications/murata-dualstack-example-ns/src/murata-dualstack-example-ns.c **** /* USER CODE BEGIN Header */
   2:../../applications/murata-dualstack-example-ns/src/murata-dualstack-example-ns.c **** /**
   3:../../applications/murata-dualstack-example-ns/src/murata-dualstack-example-ns.c ****   ******************************************************************************
   4:../../applications/murata-dualstack-example-ns/src/murata-dualstack-example-ns.c ****   * @file           : main.c
   5:../../applications/murata-dualstack-example-ns/src/murata-dualstack-example-ns.c ****   * @brief          : Main program body
   6:../../applications/murata-dualstack-example-ns/src/murata-dualstack-example-ns.c ****   ******************************************************************************
   7:../../applications/murata-dualstack-example-ns/src/murata-dualstack-example-ns.c ****   * This notice applies to any and all portions of this file
   8:../../applications/murata-dualstack-example-ns/src/murata-dualstack-example-ns.c ****   * that are not between comment pairs USER CODE BEGIN and
   9:../../applications/murata-dualstack-example-ns/src/murata-dualstack-example-ns.c ****   * USER CODE END. Other portions of this file, whether 
  10:../../applications/murata-dualstack-example-ns/src/murata-dualstack-example-ns.c ****   * inserted by the user or by software development tools
  11:../../applications/murata-dualstack-example-ns/src/murata-dualstack-example-ns.c ****   * are owned by their respective copyright owners.
  12:../../applications/murata-dualstack-example-ns/src/murata-dualstack-example-ns.c ****   *
  13:../../applications/murata-dualstack-example-ns/src/murata-dualstack-example-ns.c ****   * Copyright (c) 2019 STMicroelectronics International N.V. 
  14:../../applications/murata-dualstack-example-ns/src/murata-dualstack-example-ns.c ****   * All rights reserved.
  15:../../applications/murata-dualstack-example-ns/src/murata-dualstack-example-ns.c ****   *
  16:../../applications/murata-dualstack-example-ns/src/murata-dualstack-example-ns.c ****   * Redistribution and use in source and binary forms, with or without 
  17:../../applications/murata-dualstack-example-ns/src/murata-dualstack-example-ns.c ****   * modification, are permitted, provided that the following conditions are met:
  18:../../applications/murata-dualstack-example-ns/src/murata-dualstack-example-ns.c ****   *
  19:../../applications/murata-dualstack-example-ns/src/murata-dualstack-example-ns.c ****   * 1. Redistribution of source code must retain the above copyright notice, 
  20:../../applications/murata-dualstack-example-ns/src/murata-dualstack-example-ns.c ****   *    this list of conditions and the following disclaimer.
  21:../../applications/murata-dualstack-example-ns/src/murata-dualstack-example-ns.c ****   * 2. Redistributions in binary form must reproduce the above copyright notice,
  22:../../applications/murata-dualstack-example-ns/src/murata-dualstack-example-ns.c ****   *    this list of conditions and the following disclaimer in the documentation
  23:../../applications/murata-dualstack-example-ns/src/murata-dualstack-example-ns.c ****   *    and/or other materials provided with the distribution.
  24:../../applications/murata-dualstack-example-ns/src/murata-dualstack-example-ns.c ****   * 3. Neither the name of STMicroelectronics nor the names of other 
  25:../../applications/murata-dualstack-example-ns/src/murata-dualstack-example-ns.c ****   *    contributors to this software may be used to endorse or promote products 
  26:../../applications/murata-dualstack-example-ns/src/murata-dualstack-example-ns.c ****   *    derived from this software without specific written permission.
  27:../../applications/murata-dualstack-example-ns/src/murata-dualstack-example-ns.c ****   * 4. This software, including modifications and/or derivative works of this 
  28:../../applications/murata-dualstack-example-ns/src/murata-dualstack-example-ns.c ****   *    software, must execute solely and exclusively on microcontroller or
  29:../../applications/murata-dualstack-example-ns/src/murata-dualstack-example-ns.c ****   *    microprocessor devices manufactured by or for STMicroelectronics.
ARM GAS  C:\Users\Wouter\AppData\Local\Temp\ccV4kzSc.s 			page 2


  30:../../applications/murata-dualstack-example-ns/src/murata-dualstack-example-ns.c ****   * 5. Redistribution and use of this software other than as permitted under 
  31:../../applications/murata-dualstack-example-ns/src/murata-dualstack-example-ns.c ****   *    this license is void and will automatically terminate your rights under 
  32:../../applications/murata-dualstack-example-ns/src/murata-dualstack-example-ns.c ****   *    this license. 
  33:../../applications/murata-dualstack-example-ns/src/murata-dualstack-example-ns.c ****   *
  34:../../applications/murata-dualstack-example-ns/src/murata-dualstack-example-ns.c ****   * THIS SOFTWARE IS PROVIDED BY STMICROELECTRONICS AND CONTRIBUTORS "AS IS" 
  35:../../applications/murata-dualstack-example-ns/src/murata-dualstack-example-ns.c ****   * AND ANY EXPRESS, IMPLIED OR STATUTORY WARRANTIES, INCLUDING, BUT NOT 
  36:../../applications/murata-dualstack-example-ns/src/murata-dualstack-example-ns.c ****   * LIMITED TO, THE IMPLIED WARRANTIES OF MERCHANTABILITY, FITNESS FOR A 
  37:../../applications/murata-dualstack-example-ns/src/murata-dualstack-example-ns.c ****   * PARTICULAR PURPOSE AND NON-INFRINGEMENT OF THIRD PARTY INTELLECTUAL PROPERTY
  38:../../applications/murata-dualstack-example-ns/src/murata-dualstack-example-ns.c ****   * RIGHTS ARE DISCLAIMED TO THE FULLEST EXTENT PERMITTED BY LAW. IN NO EVENT 
  39:../../applications/murata-dualstack-example-ns/src/murata-dualstack-example-ns.c ****   * SHALL STMICROELECTRONICS OR CONTRIBUTORS BE LIABLE FOR ANY DIRECT, INDIRECT,
  40:../../applications/murata-dualstack-example-ns/src/murata-dualstack-example-ns.c ****   * INCIDENTAL, SPECIAL, EXEMPLARY, OR CONSEQUENTIAL DAMAGES (INCLUDING, BUT NOT
  41:../../applications/murata-dualstack-example-ns/src/murata-dualstack-example-ns.c ****   * LIMITED TO, PROCUREMENT OF SUBSTITUTE GOODS OR SERVICES; LOSS OF USE, DATA, 
  42:../../applications/murata-dualstack-example-ns/src/murata-dualstack-example-ns.c ****   * OR PROFITS; OR BUSINESS INTERRUPTION) HOWEVER CAUSED AND ON ANY THEORY OF 
  43:../../applications/murata-dualstack-example-ns/src/murata-dualstack-example-ns.c ****   * LIABILITY, WHETHER IN CONTRACT, STRICT LIABILITY, OR TORT (INCLUDING 
  44:../../applications/murata-dualstack-example-ns/src/murata-dualstack-example-ns.c ****   * NEGLIGENCE OR OTHERWISE) ARISING IN ANY WAY OUT OF THE USE OF THIS SOFTWARE,
  45:../../applications/murata-dualstack-example-ns/src/murata-dualstack-example-ns.c ****   * EVEN IF ADVISED OF THE POSSIBILITY OF SUCH DAMAGE.
  46:../../applications/murata-dualstack-example-ns/src/murata-dualstack-example-ns.c ****   *
  47:../../applications/murata-dualstack-example-ns/src/murata-dualstack-example-ns.c ****   ******************************************************************************
  48:../../applications/murata-dualstack-example-ns/src/murata-dualstack-example-ns.c ****   */
  49:../../applications/murata-dualstack-example-ns/src/murata-dualstack-example-ns.c **** /* USER CODE END Header */
  50:../../applications/murata-dualstack-example-ns/src/murata-dualstack-example-ns.c **** 
  51:../../applications/murata-dualstack-example-ns/src/murata-dualstack-example-ns.c **** /* Includes ------------------------------------------------------------------*/
  52:../../applications/murata-dualstack-example-ns/src/murata-dualstack-example-ns.c **** #include "murata-dualstack-example-ns.h"
  53:../../applications/murata-dualstack-example-ns/src/murata-dualstack-example-ns.c **** 
  54:../../applications/murata-dualstack-example-ns/src/murata-dualstack-example-ns.c **** /* Private includes ----------------------------------------------------------*/
  55:../../applications/murata-dualstack-example-ns/src/murata-dualstack-example-ns.c **** /* USER CODE BEGIN Includes */
  56:../../applications/murata-dualstack-example-ns/src/murata-dualstack-example-ns.c **** //#include "murata.h"
  57:../../applications/murata-dualstack-example-ns/src/murata-dualstack-example-ns.c **** #include <LSM303AGRSensor.h>
  58:../../applications/murata-dualstack-example-ns/src/murata-dualstack-example-ns.c **** #include <stdio.h>
  59:../../applications/murata-dualstack-example-ns/src/murata-dualstack-example-ns.c **** #include <murata.h>
  60:../../applications/murata-dualstack-example-ns/src/murata-dualstack-example-ns.c **** //#include "murata.h"
  61:../../applications/murata-dualstack-example-ns/src/murata-dualstack-example-ns.c **** 
  62:../../applications/murata-dualstack-example-ns/src/murata-dualstack-example-ns.c **** /* USER CODE END Includes */
  63:../../applications/murata-dualstack-example-ns/src/murata-dualstack-example-ns.c **** 
  64:../../applications/murata-dualstack-example-ns/src/murata-dualstack-example-ns.c **** /* Private typedef -----------------------------------------------------------*/
  65:../../applications/murata-dualstack-example-ns/src/murata-dualstack-example-ns.c **** /* USER CODE BEGIN PTD */
  66:../../applications/murata-dualstack-example-ns/src/murata-dualstack-example-ns.c **** 
  67:../../applications/murata-dualstack-example-ns/src/murata-dualstack-example-ns.c **** /* USER CODE END PTD */
  68:../../applications/murata-dualstack-example-ns/src/murata-dualstack-example-ns.c **** 
  69:../../applications/murata-dualstack-example-ns/src/murata-dualstack-example-ns.c **** /* Private define ------------------------------------------------------------*/
  70:../../applications/murata-dualstack-example-ns/src/murata-dualstack-example-ns.c **** /* USER CODE BEGIN PD */
  71:../../applications/murata-dualstack-example-ns/src/murata-dualstack-example-ns.c **** #define IWDG_INTERVAL           5    //seconds
  72:../../applications/murata-dualstack-example-ns/src/murata-dualstack-example-ns.c **** #define LORAWAN_INTERVAL        60   //seconds
  73:../../applications/murata-dualstack-example-ns/src/murata-dualstack-example-ns.c **** #define DASH7_INTERVAL          20  //seconds
  74:../../applications/murata-dualstack-example-ns/src/murata-dualstack-example-ns.c **** #define MODULE_CHECK_INTERVAL   3600 //seconds
  75:../../applications/murata-dualstack-example-ns/src/murata-dualstack-example-ns.c **** 
  76:../../applications/murata-dualstack-example-ns/src/murata-dualstack-example-ns.c **** #define HAL_EXTI_MODULE_ENABLED
  77:../../applications/murata-dualstack-example-ns/src/murata-dualstack-example-ns.c **** #define temp_hum_timer    3
  78:../../applications/murata-dualstack-example-ns/src/murata-dualstack-example-ns.c **** 
  79:../../applications/murata-dualstack-example-ns/src/murata-dualstack-example-ns.c **** /* USER CODE END PD */
  80:../../applications/murata-dualstack-example-ns/src/murata-dualstack-example-ns.c **** 
  81:../../applications/murata-dualstack-example-ns/src/murata-dualstack-example-ns.c **** /* Private macro -------------------------------------------------------------*/
  82:../../applications/murata-dualstack-example-ns/src/murata-dualstack-example-ns.c **** /* USER CODE BEGIN PM */
  83:../../applications/murata-dualstack-example-ns/src/murata-dualstack-example-ns.c **** 
  84:../../applications/murata-dualstack-example-ns/src/murata-dualstack-example-ns.c **** /* USER CODE END PM */
  85:../../applications/murata-dualstack-example-ns/src/murata-dualstack-example-ns.c **** 
  86:../../applications/murata-dualstack-example-ns/src/murata-dualstack-example-ns.c **** /* Private user code ---------------------------------------------------------*/
ARM GAS  C:\Users\Wouter\AppData\Local\Temp\ccV4kzSc.s 			page 3


  87:../../applications/murata-dualstack-example-ns/src/murata-dualstack-example-ns.c **** /* USER CODE BEGIN 0 */
  88:../../applications/murata-dualstack-example-ns/src/murata-dualstack-example-ns.c **** uint16_t LoRaWAN_Counter = 0;
  89:../../applications/murata-dualstack-example-ns/src/murata-dualstack-example-ns.c **** uint16_t DASH7_Counter = 0;
  90:../../applications/murata-dualstack-example-ns/src/murata-dualstack-example-ns.c **** uint8_t murata_init = 0;
  91:../../applications/murata-dualstack-example-ns/src/murata-dualstack-example-ns.c **** uint64_t short_UID;
  92:../../applications/murata-dualstack-example-ns/src/murata-dualstack-example-ns.c **** uint8_t murata_data_ready = 0;
  93:../../applications/murata-dualstack-example-ns/src/murata-dualstack-example-ns.c **** 
  94:../../applications/murata-dualstack-example-ns/src/murata-dualstack-example-ns.c **** //Zelf
  95:../../applications/murata-dualstack-example-ns/src/murata-dualstack-example-ns.c **** uint16_t rep_counter = 0; 
  96:../../applications/murata-dualstack-example-ns/src/murata-dualstack-example-ns.c **** float SHTData[2];
  97:../../applications/murata-dualstack-example-ns/src/murata-dualstack-example-ns.c **** uint8_t data; 
  98:../../applications/murata-dualstack-example-ns/src/murata-dualstack-example-ns.c **** volatile _Bool temperatureflag=0; 
  99:../../applications/murata-dualstack-example-ns/src/murata-dualstack-example-ns.c **** /* USER CODE END 0 */
 100:../../applications/murata-dualstack-example-ns/src/murata-dualstack-example-ns.c **** 
 101:../../applications/murata-dualstack-example-ns/src/murata-dualstack-example-ns.c **** /**
 102:../../applications/murata-dualstack-example-ns/src/murata-dualstack-example-ns.c ****   * @brief  The application entry point.
 103:../../applications/murata-dualstack-example-ns/src/murata-dualstack-example-ns.c ****   * @retval int
 104:../../applications/murata-dualstack-example-ns/src/murata-dualstack-example-ns.c ****   */
 105:../../applications/murata-dualstack-example-ns/src/murata-dualstack-example-ns.c **** int main(void)
 106:../../applications/murata-dualstack-example-ns/src/murata-dualstack-example-ns.c **** {
 107:../../applications/murata-dualstack-example-ns/src/murata-dualstack-example-ns.c ****   /* USER CODE BEGIN 1 */
 108:../../applications/murata-dualstack-example-ns/src/murata-dualstack-example-ns.c **** 
 109:../../applications/murata-dualstack-example-ns/src/murata-dualstack-example-ns.c ****   /* USER CODE END 1 */
 110:../../applications/murata-dualstack-example-ns/src/murata-dualstack-example-ns.c **** 
 111:../../applications/murata-dualstack-example-ns/src/murata-dualstack-example-ns.c ****   /* MCU Configuration--------------------------------------------------------*/
 112:../../applications/murata-dualstack-example-ns/src/murata-dualstack-example-ns.c **** 
 113:../../applications/murata-dualstack-example-ns/src/murata-dualstack-example-ns.c ****   /* Reset of all peripherals, Initializes the Flash interface and the Systick. */
 114:../../applications/murata-dualstack-example-ns/src/murata-dualstack-example-ns.c ****   HAL_Init();
 115:../../applications/murata-dualstack-example-ns/src/murata-dualstack-example-ns.c **** 
 116:../../applications/murata-dualstack-example-ns/src/murata-dualstack-example-ns.c ****   /* USER CODE BEGIN Init */
 117:../../applications/murata-dualstack-example-ns/src/murata-dualstack-example-ns.c **** 
 118:../../applications/murata-dualstack-example-ns/src/murata-dualstack-example-ns.c ****   /* USER CODE END Init */
 119:../../applications/murata-dualstack-example-ns/src/murata-dualstack-example-ns.c **** 
 120:../../applications/murata-dualstack-example-ns/src/murata-dualstack-example-ns.c ****   /* Configure the system clock */
 121:../../applications/murata-dualstack-example-ns/src/murata-dualstack-example-ns.c ****   SystemClock_Config();
 122:../../applications/murata-dualstack-example-ns/src/murata-dualstack-example-ns.c **** 
 123:../../applications/murata-dualstack-example-ns/src/murata-dualstack-example-ns.c ****   /* USER CODE BEGIN SysInit */
 124:../../applications/murata-dualstack-example-ns/src/murata-dualstack-example-ns.c **** 
 125:../../applications/murata-dualstack-example-ns/src/murata-dualstack-example-ns.c ****   /* USER CODE END SysInit */
 126:../../applications/murata-dualstack-example-ns/src/murata-dualstack-example-ns.c **** 
 127:../../applications/murata-dualstack-example-ns/src/murata-dualstack-example-ns.c ****   /* Initialize the platform, OCTA in this case */
 128:../../applications/murata-dualstack-example-ns/src/murata-dualstack-example-ns.c ****   Initialize_Platform();
 129:../../applications/murata-dualstack-example-ns/src/murata-dualstack-example-ns.c ****   /* USER CODE BEGIN 2 */
 130:../../applications/murata-dualstack-example-ns/src/murata-dualstack-example-ns.c **** 
 131:../../applications/murata-dualstack-example-ns/src/murata-dualstack-example-ns.c ****   // Get Unique ID of octa
 132:../../applications/murata-dualstack-example-ns/src/murata-dualstack-example-ns.c ****   short_UID = get_UID();
 133:../../applications/murata-dualstack-example-ns/src/murata-dualstack-example-ns.c **** 
 134:../../applications/murata-dualstack-example-ns/src/murata-dualstack-example-ns.c ****   //LSM30AGR (accelerometer)
 135:../../applications/murata-dualstack-example-ns/src/murata-dualstack-example-ns.c ****   LSM303AGR_setI2CInterface(&common_I2C);
 136:../../applications/murata-dualstack-example-ns/src/murata-dualstack-example-ns.c ****   setI2CInterface_SHT31(&common_I2C);
 137:../../applications/murata-dualstack-example-ns/src/murata-dualstack-example-ns.c ****   SHT31_begin(); 
 138:../../applications/murata-dualstack-example-ns/src/murata-dualstack-example-ns.c ****   LSM303AGR_init();
 139:../../applications/murata-dualstack-example-ns/src/murata-dualstack-example-ns.c **** 
 140:../../applications/murata-dualstack-example-ns/src/murata-dualstack-example-ns.c ****   // Print Welcome Message
 141:../../applications/murata-dualstack-example-ns/src/murata-dualstack-example-ns.c ****   printWelcome();
 142:../../applications/murata-dualstack-example-ns/src/murata-dualstack-example-ns.c ****   
 143:../../applications/murata-dualstack-example-ns/src/murata-dualstack-example-ns.c ****   // LORAWAN
ARM GAS  C:\Users\Wouter\AppData\Local\Temp\ccV4kzSc.s 			page 4


 144:../../applications/murata-dualstack-example-ns/src/murata-dualstack-example-ns.c ****   murata_init = Murata_Initialize(short_UID, 0);
 145:../../applications/murata-dualstack-example-ns/src/murata-dualstack-example-ns.c **** 
 146:../../applications/murata-dualstack-example-ns/src/murata-dualstack-example-ns.c ****   if (murata_init)
 147:../../applications/murata-dualstack-example-ns/src/murata-dualstack-example-ns.c ****   {
 148:../../applications/murata-dualstack-example-ns/src/murata-dualstack-example-ns.c ****     printf("Murata dualstack module init OK\r\n\r\n");
 149:../../applications/murata-dualstack-example-ns/src/murata-dualstack-example-ns.c ****   }
 150:../../applications/murata-dualstack-example-ns/src/murata-dualstack-example-ns.c **** 
 151:../../applications/murata-dualstack-example-ns/src/murata-dualstack-example-ns.c **** 
 152:../../applications/murata-dualstack-example-ns/src/murata-dualstack-example-ns.c ****   /* USER CODE END 2 */
 153:../../applications/murata-dualstack-example-ns/src/murata-dualstack-example-ns.c **** 
 154:../../applications/murata-dualstack-example-ns/src/murata-dualstack-example-ns.c ****   /* USER CODE BEGIN RTOS_MUTEX */
 155:../../applications/murata-dualstack-example-ns/src/murata-dualstack-example-ns.c ****   /* add mutexes, ... */
 156:../../applications/murata-dualstack-example-ns/src/murata-dualstack-example-ns.c **** 
 157:../../applications/murata-dualstack-example-ns/src/murata-dualstack-example-ns.c ****   // TX MUTEX ensuring no transmits are happening at the same time
 158:../../applications/murata-dualstack-example-ns/src/murata-dualstack-example-ns.c **** 
 159:../../applications/murata-dualstack-example-ns/src/murata-dualstack-example-ns.c ****   /* USER CODE END RTOS_MUTEX */
 160:../../applications/murata-dualstack-example-ns/src/murata-dualstack-example-ns.c **** 
 161:../../applications/murata-dualstack-example-ns/src/murata-dualstack-example-ns.c ****   /* USER CODE BEGIN RTOS_SEMAPHORES */
 162:../../applications/murata-dualstack-example-ns/src/murata-dualstack-example-ns.c ****   /* add semaphores, ... */
 163:../../applications/murata-dualstack-example-ns/src/murata-dualstack-example-ns.c ****   /* USER CODE END RTOS_SEMAPHORES */
 164:../../applications/murata-dualstack-example-ns/src/murata-dualstack-example-ns.c **** 
 165:../../applications/murata-dualstack-example-ns/src/murata-dualstack-example-ns.c ****   /* Create the thread(s) */
 166:../../applications/murata-dualstack-example-ns/src/murata-dualstack-example-ns.c **** 
 167:../../applications/murata-dualstack-example-ns/src/murata-dualstack-example-ns.c ****   /* USER CODE BEGIN RTOS_TIMERS */
 168:../../applications/murata-dualstack-example-ns/src/murata-dualstack-example-ns.c ****   /* start timers, add new ones, ... */
 169:../../applications/murata-dualstack-example-ns/src/murata-dualstack-example-ns.c **** 
 170:../../applications/murata-dualstack-example-ns/src/murata-dualstack-example-ns.c ****   //feed IWDG every 5 seconds
 171:../../applications/murata-dualstack-example-ns/src/murata-dualstack-example-ns.c ****   IWDG_feed(NULL);
 172:../../applications/murata-dualstack-example-ns/src/murata-dualstack-example-ns.c **** 
 173:../../applications/murata-dualstack-example-ns/src/murata-dualstack-example-ns.c ****   /* USER CODE END RTOS_TIMERS */
 174:../../applications/murata-dualstack-example-ns/src/murata-dualstack-example-ns.c **** 
 175:../../applications/murata-dualstack-example-ns/src/murata-dualstack-example-ns.c ****   /* USER CODE BEGIN RTOS_THREADS */
 176:../../applications/murata-dualstack-example-ns/src/murata-dualstack-example-ns.c ****   /* add threads, ... */
 177:../../applications/murata-dualstack-example-ns/src/murata-dualstack-example-ns.c **** 
 178:../../applications/murata-dualstack-example-ns/src/murata-dualstack-example-ns.c ****   /* USER CODE END RTOS_THREADS */
 179:../../applications/murata-dualstack-example-ns/src/murata-dualstack-example-ns.c **** 
 180:../../applications/murata-dualstack-example-ns/src/murata-dualstack-example-ns.c ****   /* USER CODE BEGIN RTOS_QUEUES */
 181:../../applications/murata-dualstack-example-ns/src/murata-dualstack-example-ns.c ****   /* add queues, ... */
 182:../../applications/murata-dualstack-example-ns/src/murata-dualstack-example-ns.c ****   /* USER CODE END RTOS_QUEUES */
 183:../../applications/murata-dualstack-example-ns/src/murata-dualstack-example-ns.c **** 
 184:../../applications/murata-dualstack-example-ns/src/murata-dualstack-example-ns.c ****   /* Start scheduler */
 185:../../applications/murata-dualstack-example-ns/src/murata-dualstack-example-ns.c **** 
 186:../../applications/murata-dualstack-example-ns/src/murata-dualstack-example-ns.c ****   /* We should never get here as control is now taken by the scheduler */
 187:../../applications/murata-dualstack-example-ns/src/murata-dualstack-example-ns.c **** 
 188:../../applications/murata-dualstack-example-ns/src/murata-dualstack-example-ns.c ****   /* Infinite loop */
 189:../../applications/murata-dualstack-example-ns/src/murata-dualstack-example-ns.c ****   uint8_t counter = 0;
 190:../../applications/murata-dualstack-example-ns/src/murata-dualstack-example-ns.c ****   uint8_t use_lora = 1;
 191:../../applications/murata-dualstack-example-ns/src/murata-dualstack-example-ns.c ****   /* USER CODE BEGIN WHILE */
 192:../../applications/murata-dualstack-example-ns/src/murata-dualstack-example-ns.c ****   while (1)
 193:../../applications/murata-dualstack-example-ns/src/murata-dualstack-example-ns.c ****   { 
 194:../../applications/murata-dualstack-example-ns/src/murata-dualstack-example-ns.c ****     IWDG_feed(NULL);
 195:../../applications/murata-dualstack-example-ns/src/murata-dualstack-example-ns.c **** 
 196:../../applications/murata-dualstack-example-ns/src/murata-dualstack-example-ns.c ****     if(murata_data_ready)
 197:../../applications/murata-dualstack-example-ns/src/murata-dualstack-example-ns.c ****     {
 198:../../applications/murata-dualstack-example-ns/src/murata-dualstack-example-ns.c ****       printf("processing murata fifo\r\n");
 199:../../applications/murata-dualstack-example-ns/src/murata-dualstack-example-ns.c ****       murata_data_ready = !Murata_process_fifo();
 200:../../applications/murata-dualstack-example-ns/src/murata-dualstack-example-ns.c ****     }
ARM GAS  C:\Users\Wouter\AppData\Local\Temp\ccV4kzSc.s 			page 5


 201:../../applications/murata-dualstack-example-ns/src/murata-dualstack-example-ns.c **** 
 202:../../applications/murata-dualstack-example-ns/src/murata-dualstack-example-ns.c **** 
 203:../../applications/murata-dualstack-example-ns/src/murata-dualstack-example-ns.c ****     //------gekopieerd van no-scheduler-example------
 204:../../applications/murata-dualstack-example-ns/src/murata-dualstack-example-ns.c ****      IWDG_feed(NULL); 
 205:../../applications/murata-dualstack-example-ns/src/murata-dualstack-example-ns.c ****     
 206:../../applications/murata-dualstack-example-ns/src/murata-dualstack-example-ns.c ****     //LSM303AGR_readRegister(0x31, data, 0);
 207:../../applications/murata-dualstack-example-ns/src/murata-dualstack-example-ns.c **** 
 208:../../applications/murata-dualstack-example-ns/src/murata-dualstack-example-ns.c ****     //de interrupt zal zorgen dat de flag op 1 staat, dan doen we een measurement van temp
 209:../../applications/murata-dualstack-example-ns/src/murata-dualstack-example-ns.c ****     if (temperatureflag==1) {
 210:../../applications/murata-dualstack-example-ns/src/murata-dualstack-example-ns.c ****       // Request to enter SLEEP mode
 211:../../applications/murata-dualstack-example-ns/src/murata-dualstack-example-ns.c **** 
 212:../../applications/murata-dualstack-example-ns/src/murata-dualstack-example-ns.c ****       rep_counter++; 
 213:../../applications/murata-dualstack-example-ns/src/murata-dualstack-example-ns.c ****       printf("%d,\r\n\r\n",rep_counter);
 214:../../applications/murata-dualstack-example-ns/src/murata-dualstack-example-ns.c **** 
 215:../../applications/murata-dualstack-example-ns/src/murata-dualstack-example-ns.c **** 
 216:../../applications/murata-dualstack-example-ns/src/murata-dualstack-example-ns.c ****       if (rep_counter==4) {
 217:../../applications/murata-dualstack-example-ns/src/murata-dualstack-example-ns.c ****         printf("going into sleepmode\r\n"); 
 218:../../applications/murata-dualstack-example-ns/src/murata-dualstack-example-ns.c ****       //HAL_PWR_EnterSLEEPMode(PWR_MAINREGULATOR_ON, PWR_SLEEPENTRY_WFI);
 219:../../applications/murata-dualstack-example-ns/src/murata-dualstack-example-ns.c ****       printf(" into sleepmode gegaan\r\n"); 
 220:../../applications/murata-dualstack-example-ns/src/murata-dualstack-example-ns.c ****       }
 221:../../applications/murata-dualstack-example-ns/src/murata-dualstack-example-ns.c **** 
 222:../../applications/murata-dualstack-example-ns/src/murata-dualstack-example-ns.c ****       murata_init=Murata_Initialize(short_UID,0);
 223:../../applications/murata-dualstack-example-ns/src/murata-dualstack-example-ns.c **** 
 224:../../applications/murata-dualstack-example-ns/src/murata-dualstack-example-ns.c ****       if (murata_init) {
 225:../../applications/murata-dualstack-example-ns/src/murata-dualstack-example-ns.c ****         printf("Lorawan module init ok\r\n\r\n");
 226:../../applications/murata-dualstack-example-ns/src/murata-dualstack-example-ns.c ****       
 227:../../applications/murata-dualstack-example-ns/src/murata-dualstack-example-ns.c ****           temp_hum_measurement();
 228:../../applications/murata-dualstack-example-ns/src/murata-dualstack-example-ns.c ****           //LoRaWAN_send(&payload);
 229:../../applications/murata-dualstack-example-ns/src/murata-dualstack-example-ns.c ****         //LoRaWAN_send_self();
 230:../../applications/murata-dualstack-example-ns/src/murata-dualstack-example-ns.c ****       }
 231:../../applications/murata-dualstack-example-ns/src/murata-dualstack-example-ns.c ****       
 232:../../applications/murata-dualstack-example-ns/src/murata-dualstack-example-ns.c ****         
 233:../../applications/murata-dualstack-example-ns/src/murata-dualstack-example-ns.c ****         //murata_process_rx_response();
 234:../../applications/murata-dualstack-example-ns/src/murata-dualstack-example-ns.c ****           temperatureflag=0; 
 235:../../applications/murata-dualstack-example-ns/src/murata-dualstack-example-ns.c ****     //     lora_init=Murata_Initialize(short_UID);
 236:../../applications/murata-dualstack-example-ns/src/murata-dualstack-example-ns.c ****     } 
 237:../../applications/murata-dualstack-example-ns/src/murata-dualstack-example-ns.c ****     
 238:../../applications/murata-dualstack-example-ns/src/murata-dualstack-example-ns.c ****     // SEND 5 D7 messages, every 10 sec.
 239:../../applications/murata-dualstack-example-ns/src/murata-dualstack-example-ns.c ****     // Afterwards, send 3 LoRaWAN messages, every minute
 240:../../applications/murata-dualstack-example-ns/src/murata-dualstack-example-ns.c ****     if(DASH7_Counter<5)
 241:../../applications/murata-dualstack-example-ns/src/murata-dualstack-example-ns.c ****     {
 242:../../applications/murata-dualstack-example-ns/src/murata-dualstack-example-ns.c ****       if(counter==DASH7_INTERVAL)
 243:../../applications/murata-dualstack-example-ns/src/murata-dualstack-example-ns.c ****       {
 244:../../applications/murata-dualstack-example-ns/src/murata-dualstack-example-ns.c ****         Dash7_send(NULL);
 245:../../applications/murata-dualstack-example-ns/src/murata-dualstack-example-ns.c ****         counter = 0;
 246:../../applications/murata-dualstack-example-ns/src/murata-dualstack-example-ns.c ****       }
 247:../../applications/murata-dualstack-example-ns/src/murata-dualstack-example-ns.c ****     }
 248:../../applications/murata-dualstack-example-ns/src/murata-dualstack-example-ns.c ****     else
 249:../../applications/murata-dualstack-example-ns/src/murata-dualstack-example-ns.c ****     { 
 250:../../applications/murata-dualstack-example-ns/src/murata-dualstack-example-ns.c ****       if(LoRaWAN_Counter == 0)
 251:../../applications/murata-dualstack-example-ns/src/murata-dualstack-example-ns.c ****         Murata_LoRaWAN_Join();
 252:../../applications/murata-dualstack-example-ns/src/murata-dualstack-example-ns.c ****       if(LoRaWAN_Counter<3)
 253:../../applications/murata-dualstack-example-ns/src/murata-dualstack-example-ns.c ****       {
 254:../../applications/murata-dualstack-example-ns/src/murata-dualstack-example-ns.c ****         if (counter == LORAWAN_INTERVAL)
 255:../../applications/murata-dualstack-example-ns/src/murata-dualstack-example-ns.c ****         {
 256:../../applications/murata-dualstack-example-ns/src/murata-dualstack-example-ns.c ****           LoRaWAN_send(NULL);
 257:../../applications/murata-dualstack-example-ns/src/murata-dualstack-example-ns.c ****           counter = 0;
ARM GAS  C:\Users\Wouter\AppData\Local\Temp\ccV4kzSc.s 			page 6


 258:../../applications/murata-dualstack-example-ns/src/murata-dualstack-example-ns.c ****         }
 259:../../applications/murata-dualstack-example-ns/src/murata-dualstack-example-ns.c ****       }
 260:../../applications/murata-dualstack-example-ns/src/murata-dualstack-example-ns.c ****       if(LoRaWAN_Counter == 3)
 261:../../applications/murata-dualstack-example-ns/src/murata-dualstack-example-ns.c ****       {
 262:../../applications/murata-dualstack-example-ns/src/murata-dualstack-example-ns.c ****         //reset counters to restart flow
 263:../../applications/murata-dualstack-example-ns/src/murata-dualstack-example-ns.c ****         DASH7_Counter = 0;
 264:../../applications/murata-dualstack-example-ns/src/murata-dualstack-example-ns.c ****         LoRaWAN_Counter = 0;
 265:../../applications/murata-dualstack-example-ns/src/murata-dualstack-example-ns.c ****       }
 266:../../applications/murata-dualstack-example-ns/src/murata-dualstack-example-ns.c ****     }
 267:../../applications/murata-dualstack-example-ns/src/murata-dualstack-example-ns.c ****    
 268:../../applications/murata-dualstack-example-ns/src/murata-dualstack-example-ns.c ****     counter++;
 269:../../applications/murata-dualstack-example-ns/src/murata-dualstack-example-ns.c ****     HAL_Delay(1000);
 270:../../applications/murata-dualstack-example-ns/src/murata-dualstack-example-ns.c ****     
 271:../../applications/murata-dualstack-example-ns/src/murata-dualstack-example-ns.c **** 
 272:../../applications/murata-dualstack-example-ns/src/murata-dualstack-example-ns.c ****     /* USER CODE END WHILE */
 273:../../applications/murata-dualstack-example-ns/src/murata-dualstack-example-ns.c ****     
 274:../../applications/murata-dualstack-example-ns/src/murata-dualstack-example-ns.c ****     /* USER CODE BEGIN 3 */
 275:../../applications/murata-dualstack-example-ns/src/murata-dualstack-example-ns.c ****   }
 276:../../applications/murata-dualstack-example-ns/src/murata-dualstack-example-ns.c ****   /* USER CODE END 3 */
 277:../../applications/murata-dualstack-example-ns/src/murata-dualstack-example-ns.c **** }
 278:../../applications/murata-dualstack-example-ns/src/murata-dualstack-example-ns.c **** 
 279:../../applications/murata-dualstack-example-ns/src/murata-dualstack-example-ns.c **** 
 280:../../applications/murata-dualstack-example-ns/src/murata-dualstack-example-ns.c **** void LoRaWAN_send(void const *argument)
 281:../../applications/murata-dualstack-example-ns/src/murata-dualstack-example-ns.c **** {
  30              		.loc 1 281 1 view -0
  31              		.cfi_startproc
  32              		@ args = 0, pretend = 0, frame = 8
  33              		@ frame_needed = 0, uses_anonymous_args = 0
  34              		.loc 1 281 1 is_stmt 0 view .LVU1
  35 0000 00B5     		push	{lr}
  36              	.LCFI0:
  37              		.cfi_def_cfa_offset 4
  38              		.cfi_offset 14, -4
  39 0002 83B0     		sub	sp, sp, #12
  40              	.LCFI1:
  41              		.cfi_def_cfa_offset 16
 282:../../applications/murata-dualstack-example-ns/src/murata-dualstack-example-ns.c ****   if (murata_init)
  42              		.loc 1 282 3 is_stmt 1 view .LVU2
  43              		.loc 1 282 7 is_stmt 0 view .LVU3
  44 0004 124B     		ldr	r3, .L7
  45 0006 1B78     		ldrb	r3, [r3]	@ zero_extendqisi2
  46              		.loc 1 282 6 view .LVU4
  47 0008 EBB1     		cbz	r3, .L2
  48              	.LBB2:
 283:../../applications/murata-dualstack-example-ns/src/murata-dualstack-example-ns.c ****   {
 284:../../applications/murata-dualstack-example-ns/src/murata-dualstack-example-ns.c ****     uint8_t loraMessage[5];
  49              		.loc 1 284 5 is_stmt 1 view .LVU5
 285:../../applications/murata-dualstack-example-ns/src/murata-dualstack-example-ns.c ****     uint8_t i = 0;
  50              		.loc 1 285 5 view .LVU6
  51              	.LVL1:
 286:../../applications/murata-dualstack-example-ns/src/murata-dualstack-example-ns.c ****     //uint16 counter to uint8 array (little endian)
 287:../../applications/murata-dualstack-example-ns/src/murata-dualstack-example-ns.c ****     //counter (large) type byte
 288:../../applications/murata-dualstack-example-ns/src/murata-dualstack-example-ns.c ****     loraMessage[i++] = 0x14;
  52              		.loc 1 288 5 view .LVU7
  53              		.loc 1 288 22 is_stmt 0 view .LVU8
  54 000a 1423     		movs	r3, #20
  55 000c 8DF80030 		strb	r3, [sp]
ARM GAS  C:\Users\Wouter\AppData\Local\Temp\ccV4kzSc.s 			page 7


 289:../../applications/murata-dualstack-example-ns/src/murata-dualstack-example-ns.c ****     loraMessage[i++] = LoRaWAN_Counter;
  56              		.loc 1 289 5 is_stmt 1 view .LVU9
  57              		.loc 1 289 22 is_stmt 0 view .LVU10
  58 0010 104B     		ldr	r3, .L7+4
  59 0012 1B88     		ldrh	r3, [r3]
  60              	.LVL2:
  61              		.loc 1 289 22 view .LVU11
  62 0014 8DF80130 		strb	r3, [sp, #1]
 290:../../applications/murata-dualstack-example-ns/src/murata-dualstack-example-ns.c ****     loraMessage[i++] = LoRaWAN_Counter >> 8;
  63              		.loc 1 290 5 is_stmt 1 view .LVU12
  64              	.LVL3:
  65              		.loc 1 290 22 is_stmt 0 view .LVU13
  66 0018 1B0A     		lsrs	r3, r3, #8
  67 001a 8DF80230 		strb	r3, [sp, #2]
 291:../../applications/murata-dualstack-example-ns/src/murata-dualstack-example-ns.c ****     //osMutexWait(txMutexId, osWaitForever);
 292:../../applications/murata-dualstack-example-ns/src/murata-dualstack-example-ns.c ****     if(!Murata_LoRaWAN_Send((uint8_t *)loraMessage, i))
  68              		.loc 1 292 5 is_stmt 1 view .LVU14
  69              		.loc 1 292 9 is_stmt 0 view .LVU15
  70 001e 0321     		movs	r1, #3
  71 0020 6846     		mov	r0, sp
  72              	.LVL4:
  73              		.loc 1 292 9 view .LVU16
  74 0022 FFF7FEFF 		bl	Murata_LoRaWAN_Send
  75              	.LVL5:
  76              		.loc 1 292 7 view .LVU17
  77 0026 50B9     		cbnz	r0, .L3
 293:../../applications/murata-dualstack-example-ns/src/murata-dualstack-example-ns.c ****     {
 294:../../applications/murata-dualstack-example-ns/src/murata-dualstack-example-ns.c ****       murata_init++;
  78              		.loc 1 294 7 is_stmt 1 view .LVU18
  79              		.loc 1 294 18 is_stmt 0 view .LVU19
  80 0028 094A     		ldr	r2, .L7
  81 002a 1378     		ldrb	r3, [r2]	@ zero_extendqisi2
  82 002c 0133     		adds	r3, r3, #1
  83 002e 1370     		strb	r3, [r2]
 295:../../applications/murata-dualstack-example-ns/src/murata-dualstack-example-ns.c ****       if(murata_init == 10)
  84              		.loc 1 295 7 is_stmt 1 view .LVU20
  85              	.L4:
 296:../../applications/murata-dualstack-example-ns/src/murata-dualstack-example-ns.c ****         murata_init == 0;
 297:../../applications/murata-dualstack-example-ns/src/murata-dualstack-example-ns.c ****     }
 298:../../applications/murata-dualstack-example-ns/src/murata-dualstack-example-ns.c ****     else
 299:../../applications/murata-dualstack-example-ns/src/murata-dualstack-example-ns.c ****     {
 300:../../applications/murata-dualstack-example-ns/src/murata-dualstack-example-ns.c ****       murata_init = 1;
 301:../../applications/murata-dualstack-example-ns/src/murata-dualstack-example-ns.c ****     }
 302:../../applications/murata-dualstack-example-ns/src/murata-dualstack-example-ns.c ****     //BLOCK TX MUTEX FOR 3s
 303:../../applications/murata-dualstack-example-ns/src/murata-dualstack-example-ns.c ****     //osDelay(3000);
 304:../../applications/murata-dualstack-example-ns/src/murata-dualstack-example-ns.c ****     //osMutexRelease(txMutexId);
 305:../../applications/murata-dualstack-example-ns/src/murata-dualstack-example-ns.c ****     LoRaWAN_Counter++;
  86              		.loc 1 305 5 discriminator 1 view .LVU21
  87              		.loc 1 305 20 is_stmt 0 discriminator 1 view .LVU22
  88 0030 084A     		ldr	r2, .L7+4
  89 0032 1388     		ldrh	r3, [r2]
  90 0034 0133     		adds	r3, r3, #1
  91 0036 1380     		strh	r3, [r2]	@ movhi
  92              	.LVL6:
  93              	.L1:
  94              		.loc 1 305 20 discriminator 1 view .LVU23
  95              	.LBE2:
ARM GAS  C:\Users\Wouter\AppData\Local\Temp\ccV4kzSc.s 			page 8


 306:../../applications/murata-dualstack-example-ns/src/murata-dualstack-example-ns.c ****   }
 307:../../applications/murata-dualstack-example-ns/src/murata-dualstack-example-ns.c ****   else{
 308:../../applications/murata-dualstack-example-ns/src/murata-dualstack-example-ns.c ****     printf("murata not initialized, not sending\r\n");
 309:../../applications/murata-dualstack-example-ns/src/murata-dualstack-example-ns.c ****   }
 310:../../applications/murata-dualstack-example-ns/src/murata-dualstack-example-ns.c **** }
  96              		.loc 1 310 1 view .LVU24
  97 0038 03B0     		add	sp, sp, #12
  98              	.LCFI2:
  99              		.cfi_remember_state
 100              		.cfi_def_cfa_offset 4
 101              		@ sp needed
 102 003a 5DF804FB 		ldr	pc, [sp], #4
 103              	.LVL7:
 104              	.L3:
 105              	.LCFI3:
 106              		.cfi_restore_state
 107              	.LBB3:
 300:../../applications/murata-dualstack-example-ns/src/murata-dualstack-example-ns.c ****     }
 108              		.loc 1 300 7 is_stmt 1 view .LVU25
 300:../../applications/murata-dualstack-example-ns/src/murata-dualstack-example-ns.c ****     }
 109              		.loc 1 300 19 is_stmt 0 view .LVU26
 110 003e 044B     		ldr	r3, .L7
 111 0040 0122     		movs	r2, #1
 112 0042 1A70     		strb	r2, [r3]
 113 0044 F4E7     		b	.L4
 114              	.LVL8:
 115              	.L2:
 300:../../applications/murata-dualstack-example-ns/src/murata-dualstack-example-ns.c ****     }
 116              		.loc 1 300 19 view .LVU27
 117              	.LBE3:
 308:../../applications/murata-dualstack-example-ns/src/murata-dualstack-example-ns.c ****   }
 118              		.loc 1 308 5 is_stmt 1 view .LVU28
 119 0046 0448     		ldr	r0, .L7+8
 120              	.LVL9:
 308:../../applications/murata-dualstack-example-ns/src/murata-dualstack-example-ns.c ****   }
 121              		.loc 1 308 5 is_stmt 0 view .LVU29
 122 0048 FFF7FEFF 		bl	puts
 123              	.LVL10:
 124              		.loc 1 310 1 view .LVU30
 125 004c F4E7     		b	.L1
 126              	.L8:
 127 004e 00BF     		.align	2
 128              	.L7:
 129 0050 00000000 		.word	.LANCHOR0
 130 0054 00000000 		.word	.LANCHOR1
 131 0058 00000000 		.word	.LC0
 132              		.cfi_endproc
 133              	.LFE133:
 135              		.section	.text.Dash7_send,"ax",%progbits
 136              		.align	1
 137              		.global	Dash7_send
 138              		.syntax unified
 139              		.thumb
 140              		.thumb_func
 141              		.fpu fpv4-sp-d16
 143              	Dash7_send:
 144              	.LVL11:
ARM GAS  C:\Users\Wouter\AppData\Local\Temp\ccV4kzSc.s 			page 9


 145              	.LFB134:
 311:../../applications/murata-dualstack-example-ns/src/murata-dualstack-example-ns.c **** 
 312:../../applications/murata-dualstack-example-ns/src/murata-dualstack-example-ns.c **** void Dash7_send(void const *argument)
 313:../../applications/murata-dualstack-example-ns/src/murata-dualstack-example-ns.c **** {
 146              		.loc 1 313 1 is_stmt 1 view -0
 147              		.cfi_startproc
 148              		@ args = 0, pretend = 0, frame = 8
 149              		@ frame_needed = 0, uses_anonymous_args = 0
 150              		.loc 1 313 1 is_stmt 0 view .LVU32
 151 0000 00B5     		push	{lr}
 152              	.LCFI4:
 153              		.cfi_def_cfa_offset 4
 154              		.cfi_offset 14, -4
 155 0002 83B0     		sub	sp, sp, #12
 156              	.LCFI5:
 157              		.cfi_def_cfa_offset 16
 314:../../applications/murata-dualstack-example-ns/src/murata-dualstack-example-ns.c ****   if (murata_init)
 158              		.loc 1 314 3 is_stmt 1 view .LVU33
 159              		.loc 1 314 7 is_stmt 0 view .LVU34
 160 0004 124B     		ldr	r3, .L15
 161 0006 1B78     		ldrb	r3, [r3]	@ zero_extendqisi2
 162              		.loc 1 314 6 view .LVU35
 163 0008 EBB1     		cbz	r3, .L10
 164              	.LBB4:
 315:../../applications/murata-dualstack-example-ns/src/murata-dualstack-example-ns.c ****   {
 316:../../applications/murata-dualstack-example-ns/src/murata-dualstack-example-ns.c ****     uint8_t dash7Message[5];
 165              		.loc 1 316 5 is_stmt 1 view .LVU36
 317:../../applications/murata-dualstack-example-ns/src/murata-dualstack-example-ns.c ****     uint8_t i = 0;
 166              		.loc 1 317 5 view .LVU37
 167              	.LVL12:
 318:../../applications/murata-dualstack-example-ns/src/murata-dualstack-example-ns.c ****     //uint16 counter to uint8 array (little endian)
 319:../../applications/murata-dualstack-example-ns/src/murata-dualstack-example-ns.c ****     //counter (large) type byte
 320:../../applications/murata-dualstack-example-ns/src/murata-dualstack-example-ns.c ****     dash7Message[i++] = 0x14;
 168              		.loc 1 320 5 view .LVU38
 169              		.loc 1 320 23 is_stmt 0 view .LVU39
 170 000a 1423     		movs	r3, #20
 171 000c 8DF80030 		strb	r3, [sp]
 321:../../applications/murata-dualstack-example-ns/src/murata-dualstack-example-ns.c ****     dash7Message[i++] = DASH7_Counter;
 172              		.loc 1 321 5 is_stmt 1 view .LVU40
 173              		.loc 1 321 23 is_stmt 0 view .LVU41
 174 0010 104B     		ldr	r3, .L15+4
 175 0012 1B88     		ldrh	r3, [r3]
 176              	.LVL13:
 177              		.loc 1 321 23 view .LVU42
 178 0014 8DF80130 		strb	r3, [sp, #1]
 322:../../applications/murata-dualstack-example-ns/src/murata-dualstack-example-ns.c ****     dash7Message[i++] = DASH7_Counter >> 8;
 179              		.loc 1 322 5 is_stmt 1 view .LVU43
 180              	.LVL14:
 181              		.loc 1 322 23 is_stmt 0 view .LVU44
 182 0018 1B0A     		lsrs	r3, r3, #8
 183 001a 8DF80230 		strb	r3, [sp, #2]
 323:../../applications/murata-dualstack-example-ns/src/murata-dualstack-example-ns.c ****     //osMutexWait(txMutexId, osWaitForever);
 324:../../applications/murata-dualstack-example-ns/src/murata-dualstack-example-ns.c ****     if(!Murata_Dash7_Send((uint8_t *)dash7Message, i))
 184              		.loc 1 324 5 is_stmt 1 view .LVU45
 185              		.loc 1 324 9 is_stmt 0 view .LVU46
 186 001e 0321     		movs	r1, #3
 187 0020 6846     		mov	r0, sp
ARM GAS  C:\Users\Wouter\AppData\Local\Temp\ccV4kzSc.s 			page 10


 188              	.LVL15:
 189              		.loc 1 324 9 view .LVU47
 190 0022 FFF7FEFF 		bl	Murata_Dash7_Send
 191              	.LVL16:
 192              		.loc 1 324 7 view .LVU48
 193 0026 50B9     		cbnz	r0, .L11
 325:../../applications/murata-dualstack-example-ns/src/murata-dualstack-example-ns.c ****     {
 326:../../applications/murata-dualstack-example-ns/src/murata-dualstack-example-ns.c ****       murata_init++;
 194              		.loc 1 326 7 is_stmt 1 view .LVU49
 195              		.loc 1 326 18 is_stmt 0 view .LVU50
 196 0028 094A     		ldr	r2, .L15
 197 002a 1378     		ldrb	r3, [r2]	@ zero_extendqisi2
 198 002c 0133     		adds	r3, r3, #1
 199 002e 1370     		strb	r3, [r2]
 327:../../applications/murata-dualstack-example-ns/src/murata-dualstack-example-ns.c ****       if(murata_init == 10)
 200              		.loc 1 327 7 is_stmt 1 view .LVU51
 201              	.L12:
 328:../../applications/murata-dualstack-example-ns/src/murata-dualstack-example-ns.c ****         murata_init == 0;
 329:../../applications/murata-dualstack-example-ns/src/murata-dualstack-example-ns.c ****     }
 330:../../applications/murata-dualstack-example-ns/src/murata-dualstack-example-ns.c ****     else
 331:../../applications/murata-dualstack-example-ns/src/murata-dualstack-example-ns.c ****     {
 332:../../applications/murata-dualstack-example-ns/src/murata-dualstack-example-ns.c ****       murata_init = 1;
 333:../../applications/murata-dualstack-example-ns/src/murata-dualstack-example-ns.c ****     }
 334:../../applications/murata-dualstack-example-ns/src/murata-dualstack-example-ns.c ****     //BLOCK TX MUTEX FOR 3s
 335:../../applications/murata-dualstack-example-ns/src/murata-dualstack-example-ns.c ****     //osDelay(3000);
 336:../../applications/murata-dualstack-example-ns/src/murata-dualstack-example-ns.c ****     //osMutexRelease(txMutexId);
 337:../../applications/murata-dualstack-example-ns/src/murata-dualstack-example-ns.c ****     DASH7_Counter++;
 202              		.loc 1 337 5 discriminator 1 view .LVU52
 203              		.loc 1 337 18 is_stmt 0 discriminator 1 view .LVU53
 204 0030 084A     		ldr	r2, .L15+4
 205 0032 1388     		ldrh	r3, [r2]
 206 0034 0133     		adds	r3, r3, #1
 207 0036 1380     		strh	r3, [r2]	@ movhi
 208              	.LVL17:
 209              	.L9:
 210              		.loc 1 337 18 discriminator 1 view .LVU54
 211              	.LBE4:
 338:../../applications/murata-dualstack-example-ns/src/murata-dualstack-example-ns.c ****   }
 339:../../applications/murata-dualstack-example-ns/src/murata-dualstack-example-ns.c ****   else{
 340:../../applications/murata-dualstack-example-ns/src/murata-dualstack-example-ns.c ****     printf("murata not initialized, not sending\r\n");
 341:../../applications/murata-dualstack-example-ns/src/murata-dualstack-example-ns.c ****   }
 342:../../applications/murata-dualstack-example-ns/src/murata-dualstack-example-ns.c **** }
 212              		.loc 1 342 1 view .LVU55
 213 0038 03B0     		add	sp, sp, #12
 214              	.LCFI6:
 215              		.cfi_remember_state
 216              		.cfi_def_cfa_offset 4
 217              		@ sp needed
 218 003a 5DF804FB 		ldr	pc, [sp], #4
 219              	.LVL18:
 220              	.L11:
 221              	.LCFI7:
 222              		.cfi_restore_state
 223              	.LBB5:
 332:../../applications/murata-dualstack-example-ns/src/murata-dualstack-example-ns.c ****     }
 224              		.loc 1 332 7 is_stmt 1 view .LVU56
 332:../../applications/murata-dualstack-example-ns/src/murata-dualstack-example-ns.c ****     }
ARM GAS  C:\Users\Wouter\AppData\Local\Temp\ccV4kzSc.s 			page 11


 225              		.loc 1 332 19 is_stmt 0 view .LVU57
 226 003e 044B     		ldr	r3, .L15
 227 0040 0122     		movs	r2, #1
 228 0042 1A70     		strb	r2, [r3]
 229 0044 F4E7     		b	.L12
 230              	.LVL19:
 231              	.L10:
 332:../../applications/murata-dualstack-example-ns/src/murata-dualstack-example-ns.c ****     }
 232              		.loc 1 332 19 view .LVU58
 233              	.LBE5:
 340:../../applications/murata-dualstack-example-ns/src/murata-dualstack-example-ns.c ****   }
 234              		.loc 1 340 5 is_stmt 1 view .LVU59
 235 0046 0448     		ldr	r0, .L15+8
 236              	.LVL20:
 340:../../applications/murata-dualstack-example-ns/src/murata-dualstack-example-ns.c ****   }
 237              		.loc 1 340 5 is_stmt 0 view .LVU60
 238 0048 FFF7FEFF 		bl	puts
 239              	.LVL21:
 240              		.loc 1 342 1 view .LVU61
 241 004c F4E7     		b	.L9
 242              	.L16:
 243 004e 00BF     		.align	2
 244              	.L15:
 245 0050 00000000 		.word	.LANCHOR0
 246 0054 00000000 		.word	.LANCHOR2
 247 0058 00000000 		.word	.LC0
 248              		.cfi_endproc
 249              	.LFE134:
 251              		.global	__aeabi_f2d
 252              		.section	.text.print_temp_hum,"ax",%progbits
 253              		.align	1
 254              		.global	print_temp_hum
 255              		.syntax unified
 256              		.thumb
 257              		.thumb_func
 258              		.fpu fpv4-sp-d16
 260              	print_temp_hum:
 261              	.LFB135:
 343:../../applications/murata-dualstack-example-ns/src/murata-dualstack-example-ns.c **** 
 344:../../applications/murata-dualstack-example-ns/src/murata-dualstack-example-ns.c **** void print_temp_hum(void){
 262              		.loc 1 344 26 is_stmt 1 view -0
 263              		.cfi_startproc
 264              		@ args = 0, pretend = 0, frame = 0
 265              		@ frame_needed = 0, uses_anonymous_args = 0
 266 0000 38B5     		push	{r3, r4, r5, lr}
 267              	.LCFI8:
 268              		.cfi_def_cfa_offset 16
 269              		.cfi_offset 3, -16
 270              		.cfi_offset 4, -12
 271              		.cfi_offset 5, -8
 272              		.cfi_offset 14, -4
 345:../../applications/murata-dualstack-example-ns/src/murata-dualstack-example-ns.c ****   printf("\r\n");
 273              		.loc 1 345 3 view .LVU63
 274 0002 0C4C     		ldr	r4, .L19
 275 0004 2046     		mov	r0, r4
 276 0006 FFF7FEFF 		bl	puts
 277              	.LVL22:
ARM GAS  C:\Users\Wouter\AppData\Local\Temp\ccV4kzSc.s 			page 12


 346:../../applications/murata-dualstack-example-ns/src/murata-dualstack-example-ns.c ****   printf("Temperature: %.2f C  \r\n", SHTData[0]);
 278              		.loc 1 346 3 view .LVU64
 279              		.loc 1 346 48 is_stmt 0 view .LVU65
 280 000a 0B4D     		ldr	r5, .L19+4
 281              		.loc 1 346 3 view .LVU66
 282 000c 2868     		ldr	r0, [r5]	@ float
 283 000e FFF7FEFF 		bl	__aeabi_f2d
 284              	.LVL23:
 285 0012 0246     		mov	r2, r0
 286 0014 0B46     		mov	r3, r1
 287 0016 0948     		ldr	r0, .L19+8
 288 0018 FFF7FEFF 		bl	printf
 289              	.LVL24:
 347:../../applications/murata-dualstack-example-ns/src/murata-dualstack-example-ns.c ****   printf("Humidity: %.2f %% \r\n", SHTData[1]);
 290              		.loc 1 347 3 is_stmt 1 view .LVU67
 291 001c 6868     		ldr	r0, [r5, #4]	@ float
 292 001e FFF7FEFF 		bl	__aeabi_f2d
 293              	.LVL25:
 294 0022 0246     		mov	r2, r0
 295 0024 0B46     		mov	r3, r1
 296 0026 0648     		ldr	r0, .L19+12
 297 0028 FFF7FEFF 		bl	printf
 298              	.LVL26:
 348:../../applications/murata-dualstack-example-ns/src/murata-dualstack-example-ns.c ****   printf("\r\n");
 299              		.loc 1 348 3 view .LVU68
 300 002c 2046     		mov	r0, r4
 301 002e FFF7FEFF 		bl	puts
 302              	.LVL27:
 349:../../applications/murata-dualstack-example-ns/src/murata-dualstack-example-ns.c **** }
 303              		.loc 1 349 1 is_stmt 0 view .LVU69
 304 0032 38BD     		pop	{r3, r4, r5, pc}
 305              	.L20:
 306              		.align	2
 307              	.L19:
 308 0034 00000000 		.word	.LC1
 309 0038 00000000 		.word	SHTData
 310 003c 04000000 		.word	.LC2
 311 0040 20000000 		.word	.LC3
 312              		.cfi_endproc
 313              	.LFE135:
 315              		.section	.text.temp_hum_measurement,"ax",%progbits
 316              		.align	1
 317              		.global	temp_hum_measurement
 318              		.syntax unified
 319              		.thumb
 320              		.thumb_func
 321              		.fpu fpv4-sp-d16
 323              	temp_hum_measurement:
 324              	.LFB136:
 350:../../applications/murata-dualstack-example-ns/src/murata-dualstack-example-ns.c **** 
 351:../../applications/murata-dualstack-example-ns/src/murata-dualstack-example-ns.c **** void temp_hum_measurement(void){
 325              		.loc 1 351 32 is_stmt 1 view -0
 326              		.cfi_startproc
 327              		@ args = 0, pretend = 0, frame = 0
 328              		@ frame_needed = 0, uses_anonymous_args = 0
 329 0000 08B5     		push	{r3, lr}
 330              	.LCFI9:
ARM GAS  C:\Users\Wouter\AppData\Local\Temp\ccV4kzSc.s 			page 13


 331              		.cfi_def_cfa_offset 8
 332              		.cfi_offset 3, -8
 333              		.cfi_offset 14, -4
 352:../../applications/murata-dualstack-example-ns/src/murata-dualstack-example-ns.c **** 
 353:../../applications/murata-dualstack-example-ns/src/murata-dualstack-example-ns.c ****   SHT31_get_temp_hum(SHTData);
 334              		.loc 1 353 3 view .LVU71
 335 0002 0348     		ldr	r0, .L23
 336 0004 FFF7FEFF 		bl	SHT31_get_temp_hum
 337              	.LVL28:
 354:../../applications/murata-dualstack-example-ns/src/murata-dualstack-example-ns.c ****   print_temp_hum();
 338              		.loc 1 354 3 view .LVU72
 339 0008 FFF7FEFF 		bl	print_temp_hum
 340              	.LVL29:
 355:../../applications/murata-dualstack-example-ns/src/murata-dualstack-example-ns.c **** }
 341              		.loc 1 355 1 is_stmt 0 view .LVU73
 342 000c 08BD     		pop	{r3, pc}
 343              	.L24:
 344 000e 00BF     		.align	2
 345              	.L23:
 346 0010 00000000 		.word	SHTData
 347              		.cfi_endproc
 348              	.LFE136:
 350              		.section	.text.HAL_UART_RxCpltCallback,"ax",%progbits
 351              		.align	1
 352              		.global	HAL_UART_RxCpltCallback
 353              		.syntax unified
 354              		.thumb
 355              		.thumb_func
 356              		.fpu fpv4-sp-d16
 358              	HAL_UART_RxCpltCallback:
 359              	.LVL30:
 360              	.LFB137:
 356:../../applications/murata-dualstack-example-ns/src/murata-dualstack-example-ns.c **** 
 357:../../applications/murata-dualstack-example-ns/src/murata-dualstack-example-ns.c **** // UART RX CALLBACK
 358:../../applications/murata-dualstack-example-ns/src/murata-dualstack-example-ns.c **** void HAL_UART_RxCpltCallback(UART_HandleTypeDef *huart)
 359:../../applications/murata-dualstack-example-ns/src/murata-dualstack-example-ns.c **** {
 361              		.loc 1 359 1 is_stmt 1 view -0
 362              		.cfi_startproc
 363              		@ args = 0, pretend = 0, frame = 0
 364              		@ frame_needed = 0, uses_anonymous_args = 0
 365              		.loc 1 359 1 is_stmt 0 view .LVU75
 366 0000 08B5     		push	{r3, lr}
 367              	.LCFI10:
 368              		.cfi_def_cfa_offset 8
 369              		.cfi_offset 3, -8
 370              		.cfi_offset 14, -4
 360:../../applications/murata-dualstack-example-ns/src/murata-dualstack-example-ns.c ****   if (huart == &P1_UART)
 371              		.loc 1 360 3 is_stmt 1 view .LVU76
 372              		.loc 1 360 6 is_stmt 0 view .LVU77
 373 0002 054B     		ldr	r3, .L29
 374 0004 8342     		cmp	r3, r0
 375 0006 00D0     		beq	.L28
 376              	.LVL31:
 377              	.L25:
 361:../../applications/murata-dualstack-example-ns/src/murata-dualstack-example-ns.c ****   {
 362:../../applications/murata-dualstack-example-ns/src/murata-dualstack-example-ns.c ****     Murata_rxCallback();
 363:../../applications/murata-dualstack-example-ns/src/murata-dualstack-example-ns.c ****     murata_data_ready = 1;
ARM GAS  C:\Users\Wouter\AppData\Local\Temp\ccV4kzSc.s 			page 14


 364:../../applications/murata-dualstack-example-ns/src/murata-dualstack-example-ns.c ****   }
 365:../../applications/murata-dualstack-example-ns/src/murata-dualstack-example-ns.c **** }
 378              		.loc 1 365 1 view .LVU78
 379 0008 08BD     		pop	{r3, pc}
 380              	.LVL32:
 381              	.L28:
 362:../../applications/murata-dualstack-example-ns/src/murata-dualstack-example-ns.c ****     murata_data_ready = 1;
 382              		.loc 1 362 5 is_stmt 1 view .LVU79
 383 000a FFF7FEFF 		bl	Murata_rxCallback
 384              	.LVL33:
 363:../../applications/murata-dualstack-example-ns/src/murata-dualstack-example-ns.c ****   }
 385              		.loc 1 363 5 view .LVU80
 363:../../applications/murata-dualstack-example-ns/src/murata-dualstack-example-ns.c ****   }
 386              		.loc 1 363 23 is_stmt 0 view .LVU81
 387 000e 034B     		ldr	r3, .L29+4
 388 0010 0122     		movs	r2, #1
 389 0012 1A70     		strb	r2, [r3]
 390              		.loc 1 365 1 view .LVU82
 391 0014 F8E7     		b	.L25
 392              	.L30:
 393 0016 00BF     		.align	2
 394              	.L29:
 395 0018 00000000 		.word	P1_UART
 396 001c 00000000 		.word	.LANCHOR3
 397              		.cfi_endproc
 398              	.LFE137:
 400              		.section	.text.vApplicationIdleHook,"ax",%progbits
 401              		.align	1
 402              		.global	vApplicationIdleHook
 403              		.syntax unified
 404              		.thumb
 405              		.thumb_func
 406              		.fpu fpv4-sp-d16
 408              	vApplicationIdleHook:
 409              	.LFB138:
 366:../../applications/murata-dualstack-example-ns/src/murata-dualstack-example-ns.c **** 
 367:../../applications/murata-dualstack-example-ns/src/murata-dualstack-example-ns.c **** void vApplicationIdleHook(){
 410              		.loc 1 367 28 is_stmt 1 view -0
 411              		.cfi_startproc
 412              		@ args = 0, pretend = 0, frame = 0
 413              		@ frame_needed = 0, uses_anonymous_args = 0
 414              		@ link register save eliminated.
 368:../../applications/murata-dualstack-example-ns/src/murata-dualstack-example-ns.c ****   #if LOW_POWER
 369:../../applications/murata-dualstack-example-ns/src/murata-dualstack-example-ns.c ****     HAL_PWR_EnterSLEEPMode(PWR_MAINREGULATOR_ON, PWR_SLEEPENTRY_WFE);
 370:../../applications/murata-dualstack-example-ns/src/murata-dualstack-example-ns.c ****   #endif
 371:../../applications/murata-dualstack-example-ns/src/murata-dualstack-example-ns.c **** }
 415              		.loc 1 371 1 view .LVU84
 416 0000 7047     		bx	lr
 417              		.cfi_endproc
 418              	.LFE138:
 420              		.section	.text.printWelcome,"ax",%progbits
 421              		.align	1
 422              		.global	printWelcome
 423              		.syntax unified
 424              		.thumb
 425              		.thumb_func
 426              		.fpu fpv4-sp-d16
ARM GAS  C:\Users\Wouter\AppData\Local\Temp\ccV4kzSc.s 			page 15


 428              	printWelcome:
 429              	.LFB139:
 372:../../applications/murata-dualstack-example-ns/src/murata-dualstack-example-ns.c **** 
 373:../../applications/murata-dualstack-example-ns/src/murata-dualstack-example-ns.c **** void printWelcome(void)
 374:../../applications/murata-dualstack-example-ns/src/murata-dualstack-example-ns.c **** {
 430              		.loc 1 374 1 view -0
 431              		.cfi_startproc
 432              		@ args = 0, pretend = 0, frame = 8
 433              		@ frame_needed = 0, uses_anonymous_args = 0
 434 0000 30B5     		push	{r4, r5, lr}
 435              	.LCFI11:
 436              		.cfi_def_cfa_offset 12
 437              		.cfi_offset 4, -12
 438              		.cfi_offset 5, -8
 439              		.cfi_offset 14, -4
 440 0002 83B0     		sub	sp, sp, #12
 441              	.LCFI12:
 442              		.cfi_def_cfa_offset 24
 375:../../applications/murata-dualstack-example-ns/src/murata-dualstack-example-ns.c ****   printf("\r\n");
 443              		.loc 1 375 3 view .LVU86
 444 0004 1A4C     		ldr	r4, .L37
 445 0006 2046     		mov	r0, r4
 446 0008 FFF7FEFF 		bl	puts
 447              	.LVL34:
 376:../../applications/murata-dualstack-example-ns/src/murata-dualstack-example-ns.c ****   printf("*****************************************\r\n");
 448              		.loc 1 376 3 view .LVU87
 449 000c 194D     		ldr	r5, .L37+4
 450 000e 2846     		mov	r0, r5
 451 0010 FFF7FEFF 		bl	puts
 452              	.LVL35:
 377:../../applications/murata-dualstack-example-ns/src/murata-dualstack-example-ns.c ****   printf("Murata Dual Stack example without scheduler\r\n");
 453              		.loc 1 377 3 view .LVU88
 454 0014 1848     		ldr	r0, .L37+8
 455 0016 FFF7FEFF 		bl	puts
 456              	.LVL36:
 378:../../applications/murata-dualstack-example-ns/src/murata-dualstack-example-ns.c ****   printf("*****************************************\r\n");
 457              		.loc 1 378 3 view .LVU89
 458 001a 2846     		mov	r0, r5
 459 001c FFF7FEFF 		bl	puts
 460              	.LVL37:
 379:../../applications/murata-dualstack-example-ns/src/murata-dualstack-example-ns.c ****   printf("\r\n");
 461              		.loc 1 379 3 view .LVU90
 462 0020 2046     		mov	r0, r4
 463 0022 FFF7FEFF 		bl	puts
 464              	.LVL38:
 380:../../applications/murata-dualstack-example-ns/src/murata-dualstack-example-ns.c ****   char UIDString[sizeof(short_UID)];
 465              		.loc 1 380 3 view .LVU91
 381:../../applications/murata-dualstack-example-ns/src/murata-dualstack-example-ns.c ****   memcpy(UIDString, &short_UID, sizeof(short_UID));
 466              		.loc 1 381 3 view .LVU92
 467 0026 154B     		ldr	r3, .L37+12
 468 0028 6C46     		mov	r4, sp
 469 002a 93E80300 		ldm	r3, {r0, r1}
 470 002e 84E80300 		stm	r4, {r0, r1}
 382:../../applications/murata-dualstack-example-ns/src/murata-dualstack-example-ns.c ****   printf("octa ID: ");
 471              		.loc 1 382 3 view .LVU93
 472 0032 1348     		ldr	r0, .L37+16
 473 0034 FFF7FEFF 		bl	printf
ARM GAS  C:\Users\Wouter\AppData\Local\Temp\ccV4kzSc.s 			page 16


 474              	.LVL39:
 383:../../applications/murata-dualstack-example-ns/src/murata-dualstack-example-ns.c ****   for (const char* p = UIDString; *p; ++p)
 475              		.loc 1 383 3 view .LVU94
 476              	.LBB6:
 477              		.loc 1 383 8 view .LVU95
 478              	.L33:
 479              		.loc 1 383 35 is_stmt 0 discriminator 1 view .LVU96
 480 0038 2178     		ldrb	r1, [r4]	@ zero_extendqisi2
 481              		.loc 1 383 3 discriminator 1 view .LVU97
 482 003a 21B1     		cbz	r1, .L36
 384:../../applications/murata-dualstack-example-ns/src/murata-dualstack-example-ns.c ****     {
 385:../../applications/murata-dualstack-example-ns/src/murata-dualstack-example-ns.c ****         printf("%02x", *p);
 483              		.loc 1 385 9 is_stmt 1 discriminator 3 view .LVU98
 484 003c 1148     		ldr	r0, .L37+20
 485 003e FFF7FEFF 		bl	printf
 486              	.LVL40:
 383:../../applications/murata-dualstack-example-ns/src/murata-dualstack-example-ns.c ****   for (const char* p = UIDString; *p; ++p)
 487              		.loc 1 383 39 is_stmt 0 discriminator 3 view .LVU99
 488 0042 0134     		adds	r4, r4, #1
 489              	.LVL41:
 383:../../applications/murata-dualstack-example-ns/src/murata-dualstack-example-ns.c ****   for (const char* p = UIDString; *p; ++p)
 490              		.loc 1 383 39 discriminator 3 view .LVU100
 491 0044 F8E7     		b	.L33
 492              	.L36:
 383:../../applications/murata-dualstack-example-ns/src/murata-dualstack-example-ns.c ****   for (const char* p = UIDString; *p; ++p)
 493              		.loc 1 383 39 discriminator 3 view .LVU101
 494              	.LBE6:
 386:../../applications/murata-dualstack-example-ns/src/murata-dualstack-example-ns.c ****     }
 387:../../applications/murata-dualstack-example-ns/src/murata-dualstack-example-ns.c ****   printf("\r\n\r\n");
 495              		.loc 1 387 3 is_stmt 1 view .LVU102
 496 0046 1048     		ldr	r0, .L37+24
 497 0048 FFF7FEFF 		bl	puts
 498              	.LVL42:
 388:../../applications/murata-dualstack-example-ns/src/murata-dualstack-example-ns.c ****   HAL_GPIO_TogglePin(OCTA_BLED_GPIO_Port, OCTA_BLED_Pin);
 499              		.loc 1 388 3 view .LVU103
 500 004c 0F4C     		ldr	r4, .L37+28
 501              	.LVL43:
 502              		.loc 1 388 3 is_stmt 0 view .LVU104
 503 004e 4FF40041 		mov	r1, #32768
 504 0052 2046     		mov	r0, r4
 505 0054 FFF7FEFF 		bl	HAL_GPIO_TogglePin
 506              	.LVL44:
 389:../../applications/murata-dualstack-example-ns/src/murata-dualstack-example-ns.c ****   HAL_Delay(2000);
 507              		.loc 1 389 3 is_stmt 1 view .LVU105
 508 0058 4FF4FA60 		mov	r0, #2000
 509 005c FFF7FEFF 		bl	HAL_Delay
 510              	.LVL45:
 390:../../applications/murata-dualstack-example-ns/src/murata-dualstack-example-ns.c ****   HAL_GPIO_TogglePin(OCTA_BLED_GPIO_Port, OCTA_BLED_Pin);
 511              		.loc 1 390 3 view .LVU106
 512 0060 4FF40041 		mov	r1, #32768
 513 0064 2046     		mov	r0, r4
 514 0066 FFF7FEFF 		bl	HAL_GPIO_TogglePin
 515              	.LVL46:
 391:../../applications/murata-dualstack-example-ns/src/murata-dualstack-example-ns.c **** }
 516              		.loc 1 391 1 is_stmt 0 view .LVU107
 517 006a 03B0     		add	sp, sp, #12
 518              	.LCFI13:
ARM GAS  C:\Users\Wouter\AppData\Local\Temp\ccV4kzSc.s 			page 17


 519              		.cfi_def_cfa_offset 12
 520              		@ sp needed
 521 006c 30BD     		pop	{r4, r5, pc}
 522              	.L38:
 523 006e 00BF     		.align	2
 524              	.L37:
 525 0070 00000000 		.word	.LC1
 526 0074 00000000 		.word	.LC4
 527 0078 2C000000 		.word	.LC5
 528 007c 00000000 		.word	short_UID
 529 0080 5C000000 		.word	.LC6
 530 0084 68000000 		.word	.LC7
 531 0088 70000000 		.word	.LC8
 532 008c 000C0048 		.word	1207962624
 533              		.cfi_endproc
 534              	.LFE139:
 536              		.section	.text.main,"ax",%progbits
 537              		.align	1
 538              		.global	main
 539              		.syntax unified
 540              		.thumb
 541              		.thumb_func
 542              		.fpu fpv4-sp-d16
 544              	main:
 545              	.LFB132:
 106:../../applications/murata-dualstack-example-ns/src/murata-dualstack-example-ns.c ****   /* USER CODE BEGIN 1 */
 546              		.loc 1 106 1 is_stmt 1 view -0
 547              		.cfi_startproc
 548              		@ args = 0, pretend = 0, frame = 0
 549              		@ frame_needed = 0, uses_anonymous_args = 0
 550 0000 38B5     		push	{r3, r4, r5, lr}
 551              	.LCFI14:
 552              		.cfi_def_cfa_offset 16
 553              		.cfi_offset 3, -16
 554              		.cfi_offset 4, -12
 555              		.cfi_offset 5, -8
 556              		.cfi_offset 14, -4
 114:../../applications/murata-dualstack-example-ns/src/murata-dualstack-example-ns.c **** 
 557              		.loc 1 114 3 view .LVU109
 558 0002 FFF7FEFF 		bl	HAL_Init
 559              	.LVL47:
 121:../../applications/murata-dualstack-example-ns/src/murata-dualstack-example-ns.c **** 
 560              		.loc 1 121 3 view .LVU110
 561 0006 FFF7FEFF 		bl	SystemClock_Config
 562              	.LVL48:
 128:../../applications/murata-dualstack-example-ns/src/murata-dualstack-example-ns.c ****   /* USER CODE BEGIN 2 */
 563              		.loc 1 128 3 view .LVU111
 564 000a FFF7FEFF 		bl	Initialize_Platform
 565              	.LVL49:
 132:../../applications/murata-dualstack-example-ns/src/murata-dualstack-example-ns.c **** 
 566              		.loc 1 132 3 view .LVU112
 132:../../applications/murata-dualstack-example-ns/src/murata-dualstack-example-ns.c **** 
 567              		.loc 1 132 15 is_stmt 0 view .LVU113
 568 000e FFF7FEFF 		bl	get_UID
 569              	.LVL50:
 132:../../applications/murata-dualstack-example-ns/src/murata-dualstack-example-ns.c **** 
 570              		.loc 1 132 13 view .LVU114
ARM GAS  C:\Users\Wouter\AppData\Local\Temp\ccV4kzSc.s 			page 18


 571 0012 454C     		ldr	r4, .L59
 572 0014 C4E90001 		strd	r0, [r4]
 135:../../applications/murata-dualstack-example-ns/src/murata-dualstack-example-ns.c ****   setI2CInterface_SHT31(&common_I2C);
 573              		.loc 1 135 3 is_stmt 1 view .LVU115
 574 0018 444D     		ldr	r5, .L59+4
 575 001a 2846     		mov	r0, r5
 576 001c FFF7FEFF 		bl	LSM303AGR_setI2CInterface
 577              	.LVL51:
 136:../../applications/murata-dualstack-example-ns/src/murata-dualstack-example-ns.c ****   SHT31_begin(); 
 578              		.loc 1 136 3 view .LVU116
 579 0020 2846     		mov	r0, r5
 580 0022 FFF7FEFF 		bl	setI2CInterface_SHT31
 581              	.LVL52:
 137:../../applications/murata-dualstack-example-ns/src/murata-dualstack-example-ns.c ****   LSM303AGR_init();
 582              		.loc 1 137 3 view .LVU117
 583 0026 FFF7FEFF 		bl	SHT31_begin
 584              	.LVL53:
 138:../../applications/murata-dualstack-example-ns/src/murata-dualstack-example-ns.c **** 
 585              		.loc 1 138 3 view .LVU118
 586 002a FFF7FEFF 		bl	LSM303AGR_init
 587              	.LVL54:
 141:../../applications/murata-dualstack-example-ns/src/murata-dualstack-example-ns.c ****   
 588              		.loc 1 141 3 view .LVU119
 589 002e FFF7FEFF 		bl	printWelcome
 590              	.LVL55:
 144:../../applications/murata-dualstack-example-ns/src/murata-dualstack-example-ns.c **** 
 591              		.loc 1 144 3 view .LVU120
 144:../../applications/murata-dualstack-example-ns/src/murata-dualstack-example-ns.c **** 
 592              		.loc 1 144 17 is_stmt 0 view .LVU121
 593 0032 0022     		movs	r2, #0
 594 0034 D4E90001 		ldrd	r0, [r4]
 595 0038 FFF7FEFF 		bl	Murata_Initialize
 596              	.LVL56:
 144:../../applications/murata-dualstack-example-ns/src/murata-dualstack-example-ns.c **** 
 597              		.loc 1 144 15 view .LVU122
 598 003c 3C4B     		ldr	r3, .L59+8
 599 003e 1870     		strb	r0, [r3]
 146:../../applications/murata-dualstack-example-ns/src/murata-dualstack-example-ns.c ****   {
 600              		.loc 1 146 3 is_stmt 1 view .LVU123
 146:../../applications/murata-dualstack-example-ns/src/murata-dualstack-example-ns.c ****   {
 601              		.loc 1 146 6 is_stmt 0 view .LVU124
 602 0040 20B9     		cbnz	r0, .L51
 603              	.L40:
 171:../../applications/murata-dualstack-example-ns/src/murata-dualstack-example-ns.c **** 
 604              		.loc 1 171 3 is_stmt 1 view .LVU125
 605 0042 0020     		movs	r0, #0
 606 0044 FFF7FEFF 		bl	IWDG_feed
 607              	.LVL57:
 189:../../applications/murata-dualstack-example-ns/src/murata-dualstack-example-ns.c ****   uint8_t use_lora = 1;
 608              		.loc 1 189 3 view .LVU126
 190:../../applications/murata-dualstack-example-ns/src/murata-dualstack-example-ns.c ****   /* USER CODE BEGIN WHILE */
 609              		.loc 1 190 3 view .LVU127
 189:../../applications/murata-dualstack-example-ns/src/murata-dualstack-example-ns.c ****   uint8_t use_lora = 1;
 610              		.loc 1 189 11 is_stmt 0 view .LVU128
 611 0048 0024     		movs	r4, #0
 612 004a 46E0     		b	.L49
 613              	.LVL58:
ARM GAS  C:\Users\Wouter\AppData\Local\Temp\ccV4kzSc.s 			page 19


 614              	.L51:
 148:../../applications/murata-dualstack-example-ns/src/murata-dualstack-example-ns.c ****   }
 615              		.loc 1 148 5 is_stmt 1 view .LVU129
 616 004c 3948     		ldr	r0, .L59+12
 617 004e FFF7FEFF 		bl	puts
 618              	.LVL59:
 619 0052 F6E7     		b	.L40
 620              	.LVL60:
 621              	.L57:
 198:../../applications/murata-dualstack-example-ns/src/murata-dualstack-example-ns.c ****       murata_data_ready = !Murata_process_fifo();
 622              		.loc 1 198 7 view .LVU130
 623 0054 3848     		ldr	r0, .L59+16
 624 0056 FFF7FEFF 		bl	puts
 625              	.LVL61:
 199:../../applications/murata-dualstack-example-ns/src/murata-dualstack-example-ns.c ****     }
 626              		.loc 1 199 7 view .LVU131
 199:../../applications/murata-dualstack-example-ns/src/murata-dualstack-example-ns.c ****     }
 627              		.loc 1 199 28 is_stmt 0 view .LVU132
 628 005a FFF7FEFF 		bl	Murata_process_fifo
 629              	.LVL62:
 199:../../applications/murata-dualstack-example-ns/src/murata-dualstack-example-ns.c ****     }
 630              		.loc 1 199 27 view .LVU133
 631 005e B0FA80F0 		clz	r0, r0
 632 0062 4009     		lsrs	r0, r0, #5
 199:../../applications/murata-dualstack-example-ns/src/murata-dualstack-example-ns.c ****     }
 633              		.loc 1 199 25 view .LVU134
 634 0064 354B     		ldr	r3, .L59+20
 635 0066 1870     		strb	r0, [r3]
 636 0068 3EE0     		b	.L41
 637              	.L58:
 212:../../applications/murata-dualstack-example-ns/src/murata-dualstack-example-ns.c ****       printf("%d,\r\n\r\n",rep_counter);
 638              		.loc 1 212 7 is_stmt 1 view .LVU135
 212:../../applications/murata-dualstack-example-ns/src/murata-dualstack-example-ns.c ****       printf("%d,\r\n\r\n",rep_counter);
 639              		.loc 1 212 18 is_stmt 0 view .LVU136
 640 006a 354D     		ldr	r5, .L59+24
 641 006c 2988     		ldrh	r1, [r5]
 642 006e 0131     		adds	r1, r1, #1
 643 0070 89B2     		uxth	r1, r1
 644 0072 2980     		strh	r1, [r5]	@ movhi
 213:../../applications/murata-dualstack-example-ns/src/murata-dualstack-example-ns.c **** 
 645              		.loc 1 213 7 is_stmt 1 view .LVU137
 646 0074 3348     		ldr	r0, .L59+28
 647 0076 FFF7FEFF 		bl	printf
 648              	.LVL63:
 216:../../applications/murata-dualstack-example-ns/src/murata-dualstack-example-ns.c ****         printf("going into sleepmode\r\n"); 
 649              		.loc 1 216 7 view .LVU138
 216:../../applications/murata-dualstack-example-ns/src/murata-dualstack-example-ns.c ****         printf("going into sleepmode\r\n"); 
 650              		.loc 1 216 22 is_stmt 0 view .LVU139
 651 007a 2B88     		ldrh	r3, [r5]
 216:../../applications/murata-dualstack-example-ns/src/murata-dualstack-example-ns.c ****         printf("going into sleepmode\r\n"); 
 652              		.loc 1 216 10 view .LVU140
 653 007c 042B     		cmp	r3, #4
 654 007e 0CD0     		beq	.L52
 655              	.L43:
 222:../../applications/murata-dualstack-example-ns/src/murata-dualstack-example-ns.c **** 
 656              		.loc 1 222 7 is_stmt 1 view .LVU141
 222:../../applications/murata-dualstack-example-ns/src/murata-dualstack-example-ns.c **** 
ARM GAS  C:\Users\Wouter\AppData\Local\Temp\ccV4kzSc.s 			page 20


 657              		.loc 1 222 19 is_stmt 0 view .LVU142
 658 0080 0022     		movs	r2, #0
 659 0082 294B     		ldr	r3, .L59
 660 0084 D3E90001 		ldrd	r0, [r3]
 661 0088 FFF7FEFF 		bl	Murata_Initialize
 662              	.LVL64:
 222:../../applications/murata-dualstack-example-ns/src/murata-dualstack-example-ns.c **** 
 663              		.loc 1 222 18 view .LVU143
 664 008c 284B     		ldr	r3, .L59+8
 665 008e 1870     		strb	r0, [r3]
 224:../../applications/murata-dualstack-example-ns/src/murata-dualstack-example-ns.c ****         printf("Lorawan module init ok\r\n\r\n");
 666              		.loc 1 224 7 is_stmt 1 view .LVU144
 224:../../applications/murata-dualstack-example-ns/src/murata-dualstack-example-ns.c ****         printf("Lorawan module init ok\r\n\r\n");
 667              		.loc 1 224 10 is_stmt 0 view .LVU145
 668 0090 50B9     		cbnz	r0, .L53
 669              	.L44:
 234:../../applications/murata-dualstack-example-ns/src/murata-dualstack-example-ns.c ****     //     lora_init=Murata_Initialize(short_UID);
 670              		.loc 1 234 11 is_stmt 1 view .LVU146
 234:../../applications/murata-dualstack-example-ns/src/murata-dualstack-example-ns.c ****     //     lora_init=Murata_Initialize(short_UID);
 671              		.loc 1 234 26 is_stmt 0 view .LVU147
 672 0092 2D4B     		ldr	r3, .L59+32
 673 0094 0022     		movs	r2, #0
 674 0096 1A70     		strb	r2, [r3]
 675 0098 2DE0     		b	.L42
 676              	.L52:
 217:../../applications/murata-dualstack-example-ns/src/murata-dualstack-example-ns.c ****       //HAL_PWR_EnterSLEEPMode(PWR_MAINREGULATOR_ON, PWR_SLEEPENTRY_WFI);
 677              		.loc 1 217 9 is_stmt 1 view .LVU148
 678 009a 2C48     		ldr	r0, .L59+36
 679 009c FFF7FEFF 		bl	puts
 680              	.LVL65:
 219:../../applications/murata-dualstack-example-ns/src/murata-dualstack-example-ns.c ****       }
 681              		.loc 1 219 7 view .LVU149
 682 00a0 2B48     		ldr	r0, .L59+40
 683 00a2 FFF7FEFF 		bl	puts
 684              	.LVL66:
 685 00a6 EBE7     		b	.L43
 686              	.L53:
 687              	.LBB7:
 225:../../applications/murata-dualstack-example-ns/src/murata-dualstack-example-ns.c ****       
 688              		.loc 1 225 9 view .LVU150
 689 00a8 2A48     		ldr	r0, .L59+44
 690 00aa FFF7FEFF 		bl	puts
 691              	.LVL67:
 227:../../applications/murata-dualstack-example-ns/src/murata-dualstack-example-ns.c ****           //LoRaWAN_send(&payload);
 692              		.loc 1 227 11 view .LVU151
 693 00ae FFF7FEFF 		bl	temp_hum_measurement
 694              	.LVL68:
 695 00b2 EEE7     		b	.L44
 696              	.L45:
 697              	.LBE7:
 250:../../applications/murata-dualstack-example-ns/src/murata-dualstack-example-ns.c ****         Murata_LoRaWAN_Join();
 698              		.loc 1 250 7 view .LVU152
 250:../../applications/murata-dualstack-example-ns/src/murata-dualstack-example-ns.c ****         Murata_LoRaWAN_Join();
 699              		.loc 1 250 26 is_stmt 0 view .LVU153
 700 00b4 284B     		ldr	r3, .L59+48
 701 00b6 1B88     		ldrh	r3, [r3]
 250:../../applications/murata-dualstack-example-ns/src/murata-dualstack-example-ns.c ****         Murata_LoRaWAN_Join();
ARM GAS  C:\Users\Wouter\AppData\Local\Temp\ccV4kzSc.s 			page 21


 702              		.loc 1 250 9 view .LVU154
 703 00b8 43B3     		cbz	r3, .L54
 704              	.L47:
 252:../../applications/murata-dualstack-example-ns/src/murata-dualstack-example-ns.c ****       {
 705              		.loc 1 252 7 is_stmt 1 view .LVU155
 252:../../applications/murata-dualstack-example-ns/src/murata-dualstack-example-ns.c ****       {
 706              		.loc 1 252 25 is_stmt 0 view .LVU156
 707 00ba 274B     		ldr	r3, .L59+48
 708 00bc 1B88     		ldrh	r3, [r3]
 252:../../applications/murata-dualstack-example-ns/src/murata-dualstack-example-ns.c ****       {
 709              		.loc 1 252 9 view .LVU157
 710 00be 022B     		cmp	r3, #2
 711 00c0 01D8     		bhi	.L48
 254:../../applications/murata-dualstack-example-ns/src/murata-dualstack-example-ns.c ****         {
 712              		.loc 1 254 9 is_stmt 1 view .LVU158
 254:../../applications/murata-dualstack-example-ns/src/murata-dualstack-example-ns.c ****         {
 713              		.loc 1 254 12 is_stmt 0 view .LVU159
 714 00c2 3C2C     		cmp	r4, #60
 715 00c4 25D0     		beq	.L55
 716              	.LVL69:
 717              	.L48:
 260:../../applications/murata-dualstack-example-ns/src/murata-dualstack-example-ns.c ****       {
 718              		.loc 1 260 7 is_stmt 1 view .LVU160
 260:../../applications/murata-dualstack-example-ns/src/murata-dualstack-example-ns.c ****       {
 719              		.loc 1 260 26 is_stmt 0 view .LVU161
 720 00c6 244B     		ldr	r3, .L59+48
 721 00c8 1B88     		ldrh	r3, [r3]
 260:../../applications/murata-dualstack-example-ns/src/murata-dualstack-example-ns.c ****       {
 722              		.loc 1 260 9 view .LVU162
 723 00ca 032B     		cmp	r3, #3
 724 00cc 26D0     		beq	.L56
 725              	.LVL70:
 726              	.L46:
 268:../../applications/murata-dualstack-example-ns/src/murata-dualstack-example-ns.c ****     HAL_Delay(1000);
 727              		.loc 1 268 5 is_stmt 1 view .LVU163
 268:../../applications/murata-dualstack-example-ns/src/murata-dualstack-example-ns.c ****     HAL_Delay(1000);
 728              		.loc 1 268 12 is_stmt 0 view .LVU164
 729 00ce 0134     		adds	r4, r4, #1
 730              	.LVL71:
 268:../../applications/murata-dualstack-example-ns/src/murata-dualstack-example-ns.c ****     HAL_Delay(1000);
 731              		.loc 1 268 12 view .LVU165
 732 00d0 E4B2     		uxtb	r4, r4
 733              	.LVL72:
 269:../../applications/murata-dualstack-example-ns/src/murata-dualstack-example-ns.c ****     
 734              		.loc 1 269 5 is_stmt 1 view .LVU166
 735 00d2 4FF47A70 		mov	r0, #1000
 736 00d6 FFF7FEFF 		bl	HAL_Delay
 737              	.LVL73:
 738              	.L49:
 192:../../applications/murata-dualstack-example-ns/src/murata-dualstack-example-ns.c ****   { 
 739              		.loc 1 192 3 view .LVU167
 194:../../applications/murata-dualstack-example-ns/src/murata-dualstack-example-ns.c **** 
 740              		.loc 1 194 5 view .LVU168
 741 00da 0020     		movs	r0, #0
 742 00dc FFF7FEFF 		bl	IWDG_feed
 743              	.LVL74:
 196:../../applications/murata-dualstack-example-ns/src/murata-dualstack-example-ns.c ****     {
ARM GAS  C:\Users\Wouter\AppData\Local\Temp\ccV4kzSc.s 			page 22


 744              		.loc 1 196 5 view .LVU169
 196:../../applications/murata-dualstack-example-ns/src/murata-dualstack-example-ns.c ****     {
 745              		.loc 1 196 8 is_stmt 0 view .LVU170
 746 00e0 164B     		ldr	r3, .L59+20
 747 00e2 1B78     		ldrb	r3, [r3]	@ zero_extendqisi2
 196:../../applications/murata-dualstack-example-ns/src/murata-dualstack-example-ns.c ****     {
 748              		.loc 1 196 7 view .LVU171
 749 00e4 002B     		cmp	r3, #0
 750 00e6 B5D1     		bne	.L57
 751              	.L41:
 204:../../applications/murata-dualstack-example-ns/src/murata-dualstack-example-ns.c ****     
 752              		.loc 1 204 6 is_stmt 1 view .LVU172
 753 00e8 0020     		movs	r0, #0
 754 00ea FFF7FEFF 		bl	IWDG_feed
 755              	.LVL75:
 209:../../applications/murata-dualstack-example-ns/src/murata-dualstack-example-ns.c ****       // Request to enter SLEEP mode
 756              		.loc 1 209 5 view .LVU173
 209:../../applications/murata-dualstack-example-ns/src/murata-dualstack-example-ns.c ****       // Request to enter SLEEP mode
 757              		.loc 1 209 24 is_stmt 0 view .LVU174
 758 00ee 164B     		ldr	r3, .L59+32
 759 00f0 1B78     		ldrb	r3, [r3]	@ zero_extendqisi2
 209:../../applications/murata-dualstack-example-ns/src/murata-dualstack-example-ns.c ****       // Request to enter SLEEP mode
 760              		.loc 1 209 8 view .LVU175
 761 00f2 002B     		cmp	r3, #0
 762 00f4 B9D1     		bne	.L58
 763              	.L42:
 240:../../applications/murata-dualstack-example-ns/src/murata-dualstack-example-ns.c ****     {
 764              		.loc 1 240 5 is_stmt 1 view .LVU176
 240:../../applications/murata-dualstack-example-ns/src/murata-dualstack-example-ns.c ****     {
 765              		.loc 1 240 21 is_stmt 0 view .LVU177
 766 00f6 194B     		ldr	r3, .L59+52
 767 00f8 1B88     		ldrh	r3, [r3]
 240:../../applications/murata-dualstack-example-ns/src/murata-dualstack-example-ns.c ****     {
 768              		.loc 1 240 7 view .LVU178
 769 00fa 042B     		cmp	r3, #4
 770 00fc DAD8     		bhi	.L45
 242:../../applications/murata-dualstack-example-ns/src/murata-dualstack-example-ns.c ****       {
 771              		.loc 1 242 7 is_stmt 1 view .LVU179
 242:../../applications/murata-dualstack-example-ns/src/murata-dualstack-example-ns.c ****       {
 772              		.loc 1 242 9 is_stmt 0 view .LVU180
 773 00fe 142C     		cmp	r4, #20
 774 0100 E5D1     		bne	.L46
 244:../../applications/murata-dualstack-example-ns/src/murata-dualstack-example-ns.c ****         counter = 0;
 775              		.loc 1 244 9 is_stmt 1 view .LVU181
 776 0102 0020     		movs	r0, #0
 777 0104 FFF7FEFF 		bl	Dash7_send
 778              	.LVL76:
 245:../../applications/murata-dualstack-example-ns/src/murata-dualstack-example-ns.c ****       }
 779              		.loc 1 245 9 view .LVU182
 245:../../applications/murata-dualstack-example-ns/src/murata-dualstack-example-ns.c ****       }
 780              		.loc 1 245 17 is_stmt 0 view .LVU183
 781 0108 0024     		movs	r4, #0
 782 010a E0E7     		b	.L46
 783              	.LVL77:
 784              	.L54:
 251:../../applications/murata-dualstack-example-ns/src/murata-dualstack-example-ns.c ****       if(LoRaWAN_Counter<3)
 785              		.loc 1 251 9 is_stmt 1 view .LVU184
ARM GAS  C:\Users\Wouter\AppData\Local\Temp\ccV4kzSc.s 			page 23


 786 010c FFF7FEFF 		bl	Murata_LoRaWAN_Join
 787              	.LVL78:
 788 0110 D3E7     		b	.L47
 789              	.L55:
 256:../../applications/murata-dualstack-example-ns/src/murata-dualstack-example-ns.c ****           counter = 0;
 790              		.loc 1 256 11 view .LVU185
 791 0112 0020     		movs	r0, #0
 792 0114 FFF7FEFF 		bl	LoRaWAN_send
 793              	.LVL79:
 257:../../applications/murata-dualstack-example-ns/src/murata-dualstack-example-ns.c ****         }
 794              		.loc 1 257 11 view .LVU186
 257:../../applications/murata-dualstack-example-ns/src/murata-dualstack-example-ns.c ****         }
 795              		.loc 1 257 19 is_stmt 0 view .LVU187
 796 0118 0024     		movs	r4, #0
 797 011a D4E7     		b	.L48
 798              	.LVL80:
 799              	.L56:
 263:../../applications/murata-dualstack-example-ns/src/murata-dualstack-example-ns.c ****         LoRaWAN_Counter = 0;
 800              		.loc 1 263 9 is_stmt 1 view .LVU188
 263:../../applications/murata-dualstack-example-ns/src/murata-dualstack-example-ns.c ****         LoRaWAN_Counter = 0;
 801              		.loc 1 263 23 is_stmt 0 view .LVU189
 802 011c 0023     		movs	r3, #0
 803 011e 0F4A     		ldr	r2, .L59+52
 804 0120 1380     		strh	r3, [r2]	@ movhi
 264:../../applications/murata-dualstack-example-ns/src/murata-dualstack-example-ns.c ****       }
 805              		.loc 1 264 9 is_stmt 1 view .LVU190
 264:../../applications/murata-dualstack-example-ns/src/murata-dualstack-example-ns.c ****       }
 806              		.loc 1 264 25 is_stmt 0 view .LVU191
 807 0122 0D4A     		ldr	r2, .L59+48
 808 0124 1380     		strh	r3, [r2]	@ movhi
 809 0126 D2E7     		b	.L46
 810              	.L60:
 811              		.align	2
 812              	.L59:
 813 0128 00000000 		.word	short_UID
 814 012c 00000000 		.word	common_I2C
 815 0130 00000000 		.word	.LANCHOR0
 816 0134 00000000 		.word	.LC9
 817 0138 24000000 		.word	.LC10
 818 013c 00000000 		.word	.LANCHOR3
 819 0140 00000000 		.word	.LANCHOR5
 820 0144 3C000000 		.word	.LC11
 821 0148 00000000 		.word	.LANCHOR4
 822 014c 44000000 		.word	.LC12
 823 0150 5C000000 		.word	.LC13
 824 0154 74000000 		.word	.LC14
 825 0158 00000000 		.word	.LANCHOR1
 826 015c 00000000 		.word	.LANCHOR2
 827              		.cfi_endproc
 828              	.LFE132:
 830              		.section	.text.LoRaWAN_send_self,"ax",%progbits
 831              		.align	1
 832              		.global	LoRaWAN_send_self
 833              		.syntax unified
 834              		.thumb
 835              		.thumb_func
 836              		.fpu fpv4-sp-d16
ARM GAS  C:\Users\Wouter\AppData\Local\Temp\ccV4kzSc.s 			page 24


 838              	LoRaWAN_send_self:
 839              	.LFB140:
 392:../../applications/murata-dualstack-example-ns/src/murata-dualstack-example-ns.c **** 
 393:../../applications/murata-dualstack-example-ns/src/murata-dualstack-example-ns.c **** /* USER CODE END 4 */
 394:../../applications/murata-dualstack-example-ns/src/murata-dualstack-example-ns.c **** 
 395:../../applications/murata-dualstack-example-ns/src/murata-dualstack-example-ns.c **** 
 396:../../applications/murata-dualstack-example-ns/src/murata-dualstack-example-ns.c **** void LoRaWAN_send_self()
 397:../../applications/murata-dualstack-example-ns/src/murata-dualstack-example-ns.c **** {
 840              		.loc 1 397 1 is_stmt 1 view -0
 841              		.cfi_startproc
 842              		@ args = 0, pretend = 0, frame = 8
 843              		@ frame_needed = 0, uses_anonymous_args = 0
 844 0000 00B5     		push	{lr}
 845              	.LCFI15:
 846              		.cfi_def_cfa_offset 4
 847              		.cfi_offset 14, -4
 848 0002 83B0     		sub	sp, sp, #12
 849              	.LCFI16:
 850              		.cfi_def_cfa_offset 16
 398:../../applications/murata-dualstack-example-ns/src/murata-dualstack-example-ns.c ****   if (murata_init)
 851              		.loc 1 398 3 view .LVU193
 852              		.loc 1 398 7 is_stmt 0 view .LVU194
 853 0004 194B     		ldr	r3, .L68
 854 0006 1B78     		ldrb	r3, [r3]	@ zero_extendqisi2
 855              		.loc 1 398 6 view .LVU195
 856 0008 63B3     		cbz	r3, .L62
 857              	.LBB8:
 399:../../applications/murata-dualstack-example-ns/src/murata-dualstack-example-ns.c ****   {
 400:../../applications/murata-dualstack-example-ns/src/murata-dualstack-example-ns.c ****     uint8_t loraMessage[5];
 858              		.loc 1 400 5 is_stmt 1 view .LVU196
 401:../../applications/murata-dualstack-example-ns/src/murata-dualstack-example-ns.c ****     uint8_t i = 0;
 859              		.loc 1 401 5 view .LVU197
 860              	.LVL81:
 402:../../applications/murata-dualstack-example-ns/src/murata-dualstack-example-ns.c ****     //uint16 counter to uint8 array (little endian)
 403:../../applications/murata-dualstack-example-ns/src/murata-dualstack-example-ns.c ****     //counter (large) type byte
 404:../../applications/murata-dualstack-example-ns/src/murata-dualstack-example-ns.c **** 
 405:../../applications/murata-dualstack-example-ns/src/murata-dualstack-example-ns.c ****     //first data transfer works, but afterwards it stays in a kind of 'transmitted' loop. Find wher
 406:../../applications/murata-dualstack-example-ns/src/murata-dualstack-example-ns.c ****     loraMessage[i++] = SHTData[0];
 861              		.loc 1 406 5 view .LVU198
 862              		.loc 1 406 31 is_stmt 0 view .LVU199
 863 000a 194A     		ldr	r2, .L68+4
 864 000c D2ED007A 		vldr.32	s15, [r2]
 865              	.LVL82:
 866              		.loc 1 406 22 view .LVU200
 867 0010 FCEEE77A 		vcvt.u32.f32	s15, s15
 868 0014 17EE903A 		vmov	r3, s15	@ int
 869 0018 8DF80030 		strb	r3, [sp]
 407:../../applications/murata-dualstack-example-ns/src/murata-dualstack-example-ns.c ****     loraMessage[i++] = SHTData[1];
 870              		.loc 1 407 5 is_stmt 1 view .LVU201
 871              		.loc 1 407 31 is_stmt 0 view .LVU202
 872 001c D2ED017A 		vldr.32	s15, [r2, #4]
 873              	.LVL83:
 874              		.loc 1 407 22 view .LVU203
 875 0020 FCEEE77A 		vcvt.u32.f32	s15, s15
 876 0024 17EE903A 		vmov	r3, s15	@ int
 877 0028 8DF80130 		strb	r3, [sp, #1]
 408:../../applications/murata-dualstack-example-ns/src/murata-dualstack-example-ns.c ****     loraMessage[i++] = LoRaWAN_Counter >> 8;
ARM GAS  C:\Users\Wouter\AppData\Local\Temp\ccV4kzSc.s 			page 25


 878              		.loc 1 408 5 is_stmt 1 view .LVU204
 879              	.LVL84:
 880              		.loc 1 408 22 is_stmt 0 view .LVU205
 881 002c 114B     		ldr	r3, .L68+8
 882 002e 1B88     		ldrh	r3, [r3]
 883 0030 1B0A     		lsrs	r3, r3, #8
 884 0032 8DF80230 		strb	r3, [sp, #2]
 409:../../applications/murata-dualstack-example-ns/src/murata-dualstack-example-ns.c ****    // osMutexWait(txMutexId, osWaitForever);
 410:../../applications/murata-dualstack-example-ns/src/murata-dualstack-example-ns.c ****     if(!Murata_LoRaWAN_Send((uint8_t *)loraMessage, i))
 885              		.loc 1 410 5 is_stmt 1 view .LVU206
 886              		.loc 1 410 9 is_stmt 0 view .LVU207
 887 0036 0321     		movs	r1, #3
 888 0038 6846     		mov	r0, sp
 889 003a FFF7FEFF 		bl	Murata_LoRaWAN_Send
 890              	.LVL85:
 891              		.loc 1 410 7 view .LVU208
 892 003e 48B1     		cbz	r0, .L67
 411:../../applications/murata-dualstack-example-ns/src/murata-dualstack-example-ns.c ****     {
 412:../../applications/murata-dualstack-example-ns/src/murata-dualstack-example-ns.c ****       printf("tis ni gelukt :( ");
 413:../../applications/murata-dualstack-example-ns/src/murata-dualstack-example-ns.c ****       murata_init++;
 414:../../applications/murata-dualstack-example-ns/src/murata-dualstack-example-ns.c ****       if(murata_init == 10)
 415:../../applications/murata-dualstack-example-ns/src/murata-dualstack-example-ns.c ****         murata_init == 0;
 416:../../applications/murata-dualstack-example-ns/src/murata-dualstack-example-ns.c ****     }
 417:../../applications/murata-dualstack-example-ns/src/murata-dualstack-example-ns.c ****     else
 418:../../applications/murata-dualstack-example-ns/src/murata-dualstack-example-ns.c ****     {
 419:../../applications/murata-dualstack-example-ns/src/murata-dualstack-example-ns.c ****       murata_init = 1;
 893              		.loc 1 419 7 is_stmt 1 view .LVU209
 894              		.loc 1 419 19 is_stmt 0 view .LVU210
 895 0040 0A4B     		ldr	r3, .L68
 896 0042 0122     		movs	r2, #1
 897 0044 1A70     		strb	r2, [r3]
 898              	.L64:
 420:../../applications/murata-dualstack-example-ns/src/murata-dualstack-example-ns.c ****     }
 421:../../applications/murata-dualstack-example-ns/src/murata-dualstack-example-ns.c ****     //BLOCK TX MUTEX FOR 3s
 422:../../applications/murata-dualstack-example-ns/src/murata-dualstack-example-ns.c ****     // osDelay(3000);
 423:../../applications/murata-dualstack-example-ns/src/murata-dualstack-example-ns.c ****     // osMutexRelease(txMutexId);
 424:../../applications/murata-dualstack-example-ns/src/murata-dualstack-example-ns.c ****     LoRaWAN_Counter++;
 899              		.loc 1 424 5 is_stmt 1 discriminator 1 view .LVU211
 900              		.loc 1 424 20 is_stmt 0 discriminator 1 view .LVU212
 901 0046 0B4A     		ldr	r2, .L68+8
 902 0048 1388     		ldrh	r3, [r2]
 903 004a 0133     		adds	r3, r3, #1
 904 004c 1380     		strh	r3, [r2]	@ movhi
 905              	.LVL86:
 906              	.L61:
 907              		.loc 1 424 20 discriminator 1 view .LVU213
 908              	.LBE8:
 425:../../applications/murata-dualstack-example-ns/src/murata-dualstack-example-ns.c ****   }
 426:../../applications/murata-dualstack-example-ns/src/murata-dualstack-example-ns.c ****   else{
 427:../../applications/murata-dualstack-example-ns/src/murata-dualstack-example-ns.c ****     printf("murata not initialized, not sending\r\n");
 428:../../applications/murata-dualstack-example-ns/src/murata-dualstack-example-ns.c ****   }
 429:../../applications/murata-dualstack-example-ns/src/murata-dualstack-example-ns.c **** }
 909              		.loc 1 429 1 view .LVU214
 910 004e 03B0     		add	sp, sp, #12
 911              	.LCFI17:
 912              		.cfi_remember_state
 913              		.cfi_def_cfa_offset 4
ARM GAS  C:\Users\Wouter\AppData\Local\Temp\ccV4kzSc.s 			page 26


 914              		@ sp needed
 915 0050 5DF804FB 		ldr	pc, [sp], #4
 916              	.LVL87:
 917              	.L67:
 918              	.LCFI18:
 919              		.cfi_restore_state
 920              	.LBB9:
 412:../../applications/murata-dualstack-example-ns/src/murata-dualstack-example-ns.c ****       murata_init++;
 921              		.loc 1 412 7 is_stmt 1 view .LVU215
 922 0054 0848     		ldr	r0, .L68+12
 923 0056 FFF7FEFF 		bl	printf
 924              	.LVL88:
 413:../../applications/murata-dualstack-example-ns/src/murata-dualstack-example-ns.c ****       if(murata_init == 10)
 925              		.loc 1 413 7 view .LVU216
 413:../../applications/murata-dualstack-example-ns/src/murata-dualstack-example-ns.c ****       if(murata_init == 10)
 926              		.loc 1 413 18 is_stmt 0 view .LVU217
 927 005a 044A     		ldr	r2, .L68
 928 005c 1378     		ldrb	r3, [r2]	@ zero_extendqisi2
 929 005e 0133     		adds	r3, r3, #1
 930 0060 1370     		strb	r3, [r2]
 414:../../applications/murata-dualstack-example-ns/src/murata-dualstack-example-ns.c ****         murata_init == 0;
 931              		.loc 1 414 7 is_stmt 1 view .LVU218
 932 0062 F0E7     		b	.L64
 933              	.LVL89:
 934              	.L62:
 414:../../applications/murata-dualstack-example-ns/src/murata-dualstack-example-ns.c ****         murata_init == 0;
 935              		.loc 1 414 7 is_stmt 0 view .LVU219
 936              	.LBE9:
 427:../../applications/murata-dualstack-example-ns/src/murata-dualstack-example-ns.c ****   }
 937              		.loc 1 427 5 is_stmt 1 view .LVU220
 938 0064 0548     		ldr	r0, .L68+16
 939 0066 FFF7FEFF 		bl	puts
 940              	.LVL90:
 941              		.loc 1 429 1 is_stmt 0 view .LVU221
 942 006a F0E7     		b	.L61
 943              	.L69:
 944              		.align	2
 945              	.L68:
 946 006c 00000000 		.word	.LANCHOR0
 947 0070 00000000 		.word	SHTData
 948 0074 00000000 		.word	.LANCHOR1
 949 0078 00000000 		.word	.LC15
 950 007c 00000000 		.word	.LC0
 951              		.cfi_endproc
 952              	.LFE140:
 954              		.section	.text.HAL_GPIO_EXTI_Callback,"ax",%progbits
 955              		.align	1
 956              		.global	HAL_GPIO_EXTI_Callback
 957              		.syntax unified
 958              		.thumb
 959              		.thumb_func
 960              		.fpu fpv4-sp-d16
 962              	HAL_GPIO_EXTI_Callback:
 963              	.LVL91:
 964              	.LFB141:
 430:../../applications/murata-dualstack-example-ns/src/murata-dualstack-example-ns.c **** 
 431:../../applications/murata-dualstack-example-ns/src/murata-dualstack-example-ns.c **** //See platform>octa>stm32l4xx_it.c there we placed exti15_10 function to capture interrupts on one 
ARM GAS  C:\Users\Wouter\AppData\Local\Temp\ccV4kzSc.s 			page 27


 432:../../applications/murata-dualstack-example-ns/src/murata-dualstack-example-ns.c **** // (see slides of Mr weyn for the exact function name). In this function we call the "HAL_GPIO_EXTI
 433:../../applications/murata-dualstack-example-ns/src/murata-dualstack-example-ns.c **** // file. In this function the "HAL_GPIO_EXTI_Callback" is called, which we define below 
 434:../../applications/murata-dualstack-example-ns/src/murata-dualstack-example-ns.c **** void HAL_GPIO_EXTI_Callback(uint16_t GPIO_Pin) {
 965              		.loc 1 434 48 is_stmt 1 view -0
 966              		.cfi_startproc
 967              		@ args = 0, pretend = 0, frame = 0
 968              		@ frame_needed = 0, uses_anonymous_args = 0
 435:../../applications/murata-dualstack-example-ns/src/murata-dualstack-example-ns.c ****   if (GPIO_Pin==GPIO_Pin_13) {
 969              		.loc 1 435 3 view .LVU223
 970              		.loc 1 435 6 is_stmt 0 view .LVU224
 971 0000 B0F5005F 		cmp	r0, #8192
 972 0004 00D0     		beq	.L76
 973 0006 7047     		bx	lr
 974              	.L76:
 434:../../applications/murata-dualstack-example-ns/src/murata-dualstack-example-ns.c ****   if (GPIO_Pin==GPIO_Pin_13) {
 975              		.loc 1 434 48 view .LVU225
 976 0008 08B5     		push	{r3, lr}
 977              	.LCFI19:
 978              		.cfi_def_cfa_offset 8
 979              		.cfi_offset 3, -8
 980              		.cfi_offset 14, -4
 436:../../applications/murata-dualstack-example-ns/src/murata-dualstack-example-ns.c ****   temperatureflag = 1; 
 981              		.loc 1 436 3 is_stmt 1 view .LVU226
 982              		.loc 1 436 19 is_stmt 0 view .LVU227
 983 000a 034B     		ldr	r3, .L77
 984 000c 0122     		movs	r2, #1
 985 000e 1A70     		strb	r2, [r3]
 437:../../applications/murata-dualstack-example-ns/src/murata-dualstack-example-ns.c ****   printf("interrupt accelerometer! \r\n");
 986              		.loc 1 437 3 is_stmt 1 view .LVU228
 987 0010 0248     		ldr	r0, .L77+4
 988              	.LVL92:
 989              		.loc 1 437 3 is_stmt 0 view .LVU229
 990 0012 FFF7FEFF 		bl	puts
 991              	.LVL93:
 438:../../applications/murata-dualstack-example-ns/src/murata-dualstack-example-ns.c ****   // we work with a flag so as to make sure that we don't stay in the callback for too long. This w
 439:../../applications/murata-dualstack-example-ns/src/murata-dualstack-example-ns.c ****   // the flag will call the measurement function in de while loop
 440:../../applications/murata-dualstack-example-ns/src/murata-dualstack-example-ns.c ****   } 
 441:../../applications/murata-dualstack-example-ns/src/murata-dualstack-example-ns.c **** }
 992              		.loc 1 441 1 view .LVU230
 993 0016 08BD     		pop	{r3, pc}
 994              	.L78:
 995              		.align	2
 996              	.L77:
 997 0018 00000000 		.word	.LANCHOR4
 998 001c 00000000 		.word	.LC16
 999              		.cfi_endproc
 1000              	.LFE141:
 1002              		.section	.text.HAL_TIM_PeriodElapsedCallback,"ax",%progbits
 1003              		.align	1
 1004              		.global	HAL_TIM_PeriodElapsedCallback
 1005              		.syntax unified
 1006              		.thumb
 1007              		.thumb_func
 1008              		.fpu fpv4-sp-d16
 1010              	HAL_TIM_PeriodElapsedCallback:
 1011              	.LVL94:
 1012              	.LFB142:
ARM GAS  C:\Users\Wouter\AppData\Local\Temp\ccV4kzSc.s 			page 28


 442:../../applications/murata-dualstack-example-ns/src/murata-dualstack-example-ns.c **** 
 443:../../applications/murata-dualstack-example-ns/src/murata-dualstack-example-ns.c **** 
 444:../../applications/murata-dualstack-example-ns/src/murata-dualstack-example-ns.c **** /**
 445:../../applications/murata-dualstack-example-ns/src/murata-dualstack-example-ns.c ****   * @brief  Period elapsed callback in non blocking mode
 446:../../applications/murata-dualstack-example-ns/src/murata-dualstack-example-ns.c ****   * @note   This function is called  when TIM1 interrupt took place, inside
 447:../../applications/murata-dualstack-example-ns/src/murata-dualstack-example-ns.c ****   * HAL_TIM_IRQHandler(). It makes a direct call to HAL_IncTick() to increment
 448:../../applications/murata-dualstack-example-ns/src/murata-dualstack-example-ns.c ****   * a global variable "uwTick" used as application time base.
 449:../../applications/murata-dualstack-example-ns/src/murata-dualstack-example-ns.c ****   * @param  htim : TIM handle
 450:../../applications/murata-dualstack-example-ns/src/murata-dualstack-example-ns.c ****   * @retval None
 451:../../applications/murata-dualstack-example-ns/src/murata-dualstack-example-ns.c ****   */
 452:../../applications/murata-dualstack-example-ns/src/murata-dualstack-example-ns.c **** void HAL_TIM_PeriodElapsedCallback(TIM_HandleTypeDef *htim)
 453:../../applications/murata-dualstack-example-ns/src/murata-dualstack-example-ns.c **** {
 1013              		.loc 1 453 1 is_stmt 1 view -0
 1014              		.cfi_startproc
 1015              		@ args = 0, pretend = 0, frame = 0
 1016              		@ frame_needed = 0, uses_anonymous_args = 0
 1017              		.loc 1 453 1 is_stmt 0 view .LVU232
 1018 0000 08B5     		push	{r3, lr}
 1019              	.LCFI20:
 1020              		.cfi_def_cfa_offset 8
 1021              		.cfi_offset 3, -8
 1022              		.cfi_offset 14, -4
 454:../../applications/murata-dualstack-example-ns/src/murata-dualstack-example-ns.c ****   /* USER CODE BEGIN Callback 0 */
 455:../../applications/murata-dualstack-example-ns/src/murata-dualstack-example-ns.c **** 
 456:../../applications/murata-dualstack-example-ns/src/murata-dualstack-example-ns.c ****   /* USER CODE END Callback 0 */
 457:../../applications/murata-dualstack-example-ns/src/murata-dualstack-example-ns.c ****   if (htim->Instance == TIM1)
 1023              		.loc 1 457 3 is_stmt 1 view .LVU233
 1024              		.loc 1 457 11 is_stmt 0 view .LVU234
 1025 0002 0268     		ldr	r2, [r0]
 1026              		.loc 1 457 6 view .LVU235
 1027 0004 034B     		ldr	r3, .L83
 1028 0006 9A42     		cmp	r2, r3
 1029 0008 00D0     		beq	.L82
 1030              	.LVL95:
 1031              	.L79:
 458:../../applications/murata-dualstack-example-ns/src/murata-dualstack-example-ns.c ****   {
 459:../../applications/murata-dualstack-example-ns/src/murata-dualstack-example-ns.c ****     HAL_IncTick();
 460:../../applications/murata-dualstack-example-ns/src/murata-dualstack-example-ns.c ****   }
 461:../../applications/murata-dualstack-example-ns/src/murata-dualstack-example-ns.c ****   /* USER CODE BEGIN Callback 1 */
 462:../../applications/murata-dualstack-example-ns/src/murata-dualstack-example-ns.c **** 
 463:../../applications/murata-dualstack-example-ns/src/murata-dualstack-example-ns.c ****   /* USER CODE END Callback 1 */
 464:../../applications/murata-dualstack-example-ns/src/murata-dualstack-example-ns.c **** }
 1032              		.loc 1 464 1 view .LVU236
 1033 000a 08BD     		pop	{r3, pc}
 1034              	.LVL96:
 1035              	.L82:
 459:../../applications/murata-dualstack-example-ns/src/murata-dualstack-example-ns.c ****   }
 1036              		.loc 1 459 5 is_stmt 1 view .LVU237
 1037 000c FFF7FEFF 		bl	HAL_IncTick
 1038              	.LVL97:
 1039              		.loc 1 464 1 is_stmt 0 view .LVU238
 1040 0010 FBE7     		b	.L79
 1041              	.L84:
 1042 0012 00BF     		.align	2
 1043              	.L83:
 1044 0014 002C0140 		.word	1073818624
 1045              		.cfi_endproc
ARM GAS  C:\Users\Wouter\AppData\Local\Temp\ccV4kzSc.s 			page 29


 1046              	.LFE142:
 1048              		.section	.text.Error_Handler,"ax",%progbits
 1049              		.align	1
 1050              		.global	Error_Handler
 1051              		.syntax unified
 1052              		.thumb
 1053              		.thumb_func
 1054              		.fpu fpv4-sp-d16
 1056              	Error_Handler:
 1057              	.LFB143:
 465:../../applications/murata-dualstack-example-ns/src/murata-dualstack-example-ns.c **** 
 466:../../applications/murata-dualstack-example-ns/src/murata-dualstack-example-ns.c **** /**
 467:../../applications/murata-dualstack-example-ns/src/murata-dualstack-example-ns.c ****   * @brief  This function is executed in case of error occurrence.
 468:../../applications/murata-dualstack-example-ns/src/murata-dualstack-example-ns.c ****   * @retval None
 469:../../applications/murata-dualstack-example-ns/src/murata-dualstack-example-ns.c ****   */
 470:../../applications/murata-dualstack-example-ns/src/murata-dualstack-example-ns.c **** void Error_Handler(void)
 471:../../applications/murata-dualstack-example-ns/src/murata-dualstack-example-ns.c **** {
 1058              		.loc 1 471 1 is_stmt 1 view -0
 1059              		.cfi_startproc
 1060              		@ args = 0, pretend = 0, frame = 0
 1061              		@ frame_needed = 0, uses_anonymous_args = 0
 1062              		@ link register save eliminated.
 472:../../applications/murata-dualstack-example-ns/src/murata-dualstack-example-ns.c ****   /* USER CODE BEGIN Error_Handler_Debug */
 473:../../applications/murata-dualstack-example-ns/src/murata-dualstack-example-ns.c ****   /* User can add his own implementation to report the HAL error return state */
 474:../../applications/murata-dualstack-example-ns/src/murata-dualstack-example-ns.c **** 
 475:../../applications/murata-dualstack-example-ns/src/murata-dualstack-example-ns.c ****   /* USER CODE END Error_Handler_Debug */
 476:../../applications/murata-dualstack-example-ns/src/murata-dualstack-example-ns.c **** }
 1063              		.loc 1 476 1 view .LVU240
 1064 0000 7047     		bx	lr
 1065              		.cfi_endproc
 1066              	.LFE143:
 1068              		.global	temperatureflag
 1069              		.comm	data,1,1
 1070              		.comm	SHTData,8,4
 1071              		.global	rep_counter
 1072              		.global	murata_data_ready
 1073              		.comm	short_UID,8,8
 1074              		.global	murata_init
 1075              		.global	DASH7_Counter
 1076              		.global	LoRaWAN_Counter
 1077              		.comm	threadToNotify,4,4
 1078              		.comm	murata_reset_pin,4,4
 1079              		.comm	murata_wakeup_pin,4,4
 1080              		.comm	magRawData,6,4
 1081              		.comm	magRegisterData,6,4
 1082              		.comm	accRawData,6,4
 1083              		.comm	accRegisterData,6,4
 1084              		.comm	LSM303AGR_hi2c,4,4
 1085              		.comm	LSM303AGR_setting,1,1
 1086              		.comm	murata_rx_process_mutex_id,4,4
 1087              		.comm	txMutexId,4,4
 1088              		.comm	moduleCheckTimId,4,4
 1089              		.comm	dash7TimId,4,4
 1090              		.comm	loraWANTimId,4,4
 1091              		.comm	iwdgTimId,4,4
 1092              		.comm	murata_rx_processing_handle,4,4
 1093              		.comm	defaultTaskHandle,4,4
ARM GAS  C:\Users\Wouter\AppData\Local\Temp\ccV4kzSc.s 			page 30


 1094              		.comm	P3_header,44,4
 1095              		.comm	P2_header,44,4
 1096              		.comm	P1_header,44,4
 1097              		.comm	FLASH_SPI,100,4
 1098              		.comm	P3_SPI,100,4
 1099              		.comm	P2_SPI,100,4
 1100              		.comm	P1_SPI,100,4
 1101              		.comm	P3_I2C,76,4
 1102              		.comm	P2_I2C,76,4
 1103              		.comm	P1_I2C,76,4
 1104              		.comm	common_I2C,76,4
 1105              		.comm	P3_UART,120,4
 1106              		.comm	P2_UART,120,4
 1107              		.comm	P1_UART,120,4
 1108              		.comm	BLE_UART,120,4
 1109              		.comm	USB_UART,120,4
 1110              		.comm	hiwdg,16,4
 1111              		.comm	P3_DIO6,8,4
 1112              		.comm	P3_DIO5,8,4
 1113              		.comm	P3_DIO4,8,4
 1114              		.comm	P3_DIO3,8,4
 1115              		.comm	P3_DIO2,8,4
 1116              		.comm	P3_DIO1,8,4
 1117              		.comm	P2_DIO6,8,4
 1118              		.comm	P2_DIO5,8,4
 1119              		.comm	P2_DIO4,8,4
 1120              		.comm	P2_DIO3,8,4
 1121              		.comm	P2_DIO2,8,4
 1122              		.comm	P2_DIO1,8,4
 1123              		.comm	P1_DIO6,8,4
 1124              		.comm	P1_DIO5,8,4
 1125              		.comm	P1_DIO4,8,4
 1126              		.comm	P1_DIO3,8,4
 1127              		.comm	P1_DIO2,8,4
 1128              		.comm	P1_DIO1,8,4
 1129              		.section	.bss.DASH7_Counter,"aw",%nobits
 1130              		.align	1
 1131              		.set	.LANCHOR2,. + 0
 1134              	DASH7_Counter:
 1135 0000 0000     		.space	2
 1136              		.section	.bss.LoRaWAN_Counter,"aw",%nobits
 1137              		.align	1
 1138              		.set	.LANCHOR1,. + 0
 1141              	LoRaWAN_Counter:
 1142 0000 0000     		.space	2
 1143              		.section	.bss.murata_data_ready,"aw",%nobits
 1144              		.set	.LANCHOR3,. + 0
 1147              	murata_data_ready:
 1148 0000 00       		.space	1
 1149              		.section	.bss.murata_init,"aw",%nobits
 1150              		.set	.LANCHOR0,. + 0
 1153              	murata_init:
 1154 0000 00       		.space	1
 1155              		.section	.bss.rep_counter,"aw",%nobits
 1156              		.align	1
 1157              		.set	.LANCHOR5,. + 0
 1160              	rep_counter:
ARM GAS  C:\Users\Wouter\AppData\Local\Temp\ccV4kzSc.s 			page 31


 1161 0000 0000     		.space	2
 1162              		.section	.bss.temperatureflag,"aw",%nobits
 1163              		.set	.LANCHOR4,. + 0
 1166              	temperatureflag:
 1167 0000 00       		.space	1
 1168              		.section	.rodata.HAL_GPIO_EXTI_Callback.str1.4,"aMS",%progbits,1
 1169              		.align	2
 1170              	.LC16:
 1171 0000 696E7465 		.ascii	"interrupt accelerometer! \015\000"
 1171      72727570 
 1171      74206163 
 1171      63656C65 
 1171      726F6D65 
 1172              		.section	.rodata.LoRaWAN_send.str1.4,"aMS",%progbits,1
 1173              		.align	2
 1174              	.LC0:
 1175 0000 6D757261 		.ascii	"murata not initialized, not sending\015\000"
 1175      7461206E 
 1175      6F742069 
 1175      6E697469 
 1175      616C697A 
 1176              		.section	.rodata.LoRaWAN_send_self.str1.4,"aMS",%progbits,1
 1177              		.align	2
 1178              	.LC15:
 1179 0000 74697320 		.ascii	"tis ni gelukt :( \000"
 1179      6E692067 
 1179      656C756B 
 1179      74203A28 
 1179      2000
 1180              		.section	.rodata.main.str1.4,"aMS",%progbits,1
 1181              		.align	2
 1182              	.LC9:
 1183 0000 4D757261 		.ascii	"Murata dualstack module init OK\015\012\015\000"
 1183      74612064 
 1183      75616C73 
 1183      7461636B 
 1183      206D6F64 
 1184 0023 00       		.space	1
 1185              	.LC10:
 1186 0024 70726F63 		.ascii	"processing murata fifo\015\000"
 1186      65737369 
 1186      6E67206D 
 1186      75726174 
 1186      61206669 
 1187              	.LC11:
 1188 003c 25642C0D 		.ascii	"%d,\015\012\015\012\000"
 1188      0A0D0A00 
 1189              	.LC12:
 1190 0044 676F696E 		.ascii	"going into sleepmode\015\000"
 1190      6720696E 
 1190      746F2073 
 1190      6C656570 
 1190      6D6F6465 
 1191 005a 0000     		.space	2
 1192              	.LC13:
 1193 005c 20696E74 		.ascii	" into sleepmode gegaan\015\000"
 1193      6F20736C 
ARM GAS  C:\Users\Wouter\AppData\Local\Temp\ccV4kzSc.s 			page 32


 1193      6565706D 
 1193      6F646520 
 1193      67656761 
 1194              	.LC14:
 1195 0074 4C6F7261 		.ascii	"Lorawan module init ok\015\012\015\000"
 1195      77616E20 
 1195      6D6F6475 
 1195      6C652069 
 1195      6E697420 
 1196              		.section	.rodata.printWelcome.str1.4,"aMS",%progbits,1
 1197              		.align	2
 1198              	.LC4:
 1199 0000 2A2A2A2A 		.ascii	"*****************************************\015\000"
 1199      2A2A2A2A 
 1199      2A2A2A2A 
 1199      2A2A2A2A 
 1199      2A2A2A2A 
 1200 002b 00       		.space	1
 1201              	.LC5:
 1202 002c 4D757261 		.ascii	"Murata Dual Stack example without scheduler\015\000"
 1202      74612044 
 1202      75616C20 
 1202      53746163 
 1202      6B206578 
 1203 0059 000000   		.space	3
 1204              	.LC6:
 1205 005c 6F637461 		.ascii	"octa ID: \000"
 1205      2049443A 
 1205      2000
 1206 0066 0000     		.space	2
 1207              	.LC7:
 1208 0068 25303278 		.ascii	"%02x\000"
 1208      00
 1209 006d 000000   		.space	3
 1210              	.LC8:
 1211 0070 0D0A0D00 		.ascii	"\015\012\015\000"
 1212              		.section	.rodata.print_temp_hum.str1.4,"aMS",%progbits,1
 1213              		.align	2
 1214              	.LC1:
 1215 0000 0D00     		.ascii	"\015\000"
 1216 0002 0000     		.space	2
 1217              	.LC2:
 1218 0004 54656D70 		.ascii	"Temperature: %.2f \302\260C  \015\012\000"
 1218      65726174 
 1218      7572653A 
 1218      20252E32 
 1218      6620C2B0 
 1219 001e 0000     		.space	2
 1220              	.LC3:
 1221 0020 48756D69 		.ascii	"Humidity: %.2f %% \015\012\000"
 1221      64697479 
 1221      3A20252E 
 1221      32662025 
 1221      25200D0A 
 1222              		.weak	SystemClock_Config
 1223              		.text
 1224              	.Letext0:
ARM GAS  C:\Users\Wouter\AppData\Local\Temp\ccV4kzSc.s 			page 33


 1225              		.file 2 "c:\\program files (x86)\\gnu tools arm embedded\\8 2019-q3-update\\arm-none-eabi\\include
 1226              		.file 3 "c:\\program files (x86)\\gnu tools arm embedded\\8 2019-q3-update\\arm-none-eabi\\include
 1227              		.file 4 "../../core/ST/CMSIS/Include/core_cm4.h"
 1228              		.file 5 "../../core/ST/CMSIS/Device/ST/STM32L4xx/Include/system_stm32l4xx.h"
 1229              		.file 6 "../../core/ST/CMSIS/Device/ST/STM32L4xx/Include/stm32l496xx.h"
 1230              		.file 7 "../../core/ST/STM32L4xx_HAL_Driver/Inc/stm32l4xx_hal_def.h"
 1231              		.file 8 "../../core/ST/STM32L4xx_HAL_Driver/Inc/stm32l4xx_hal_dma.h"
 1232              		.file 9 "../../core/ST/STM32L4xx_HAL_Driver/Inc/stm32l4xx_hal_i2c.h"
 1233              		.file 10 "../../core/ST/STM32L4xx_HAL_Driver/Inc/stm32l4xx_hal_iwdg.h"
 1234              		.file 11 "../../core/ST/STM32L4xx_HAL_Driver/Inc/stm32l4xx_hal_spi.h"
 1235              		.file 12 "../../core/ST/STM32L4xx_HAL_Driver/Inc/stm32l4xx_hal_tim.h"
 1236              		.file 13 "../../core/ST/STM32L4xx_HAL_Driver/Inc/stm32l4xx_hal_uart.h"
 1237              		.file 14 "../../core/ST/STM32L4xx_HAL_Driver/Inc/stm32l4xx_hal.h"
 1238              		.file 15 "../../core/ST/Middlewares/Third_Party/FreeRTOS/Source/include/task.h"
 1239              		.file 16 "../../core/ST/Middlewares/Third_Party/FreeRTOS/Source/include/timers.h"
 1240              		.file 17 "../../core/ST/Middlewares/Third_Party/FreeRTOS/Source/include/queue.h"
 1241              		.file 18 "../../core/ST/Middlewares/Third_Party/FreeRTOS/Source/include/semphr.h"
 1242              		.file 19 "../../core/ST/Middlewares/Third_Party/FreeRTOS/Source/CMSIS_RTOS/cmsis_os.h"
 1243              		.file 20 "../../core/platform/octa/inc/gpio.h"
 1244              		.file 21 "../../core/platform/octa/inc/iwdg.h"
 1245              		.file 22 "../../core/platform/octa/inc/uart.h"
 1246              		.file 23 "../../core/platform/octa/inc/i2c.h"
 1247              		.file 24 "../../core/platform/octa/inc/spi.h"
 1248              		.file 25 "../../core/platform/octa/inc/octa.h"
 1249              		.file 26 "../../applications/murata-dualstack-example-ns/inc/murata-dualstack-example-ns.h"
 1250              		.file 27 "../../core/drivers/LSM303AGR/inc/LSM303AGRSensor.h"
 1251              		.file 28 "c:\\program files (x86)\\gnu tools arm embedded\\8 2019-q3-update\\lib\\gcc\\arm-none-ea
 1252              		.file 29 "c:\\program files (x86)\\gnu tools arm embedded\\8 2019-q3-update\\arm-none-eabi\\includ
 1253              		.file 30 "c:\\program files (x86)\\gnu tools arm embedded\\8 2019-q3-update\\arm-none-eabi\\includ
 1254              		.file 31 "c:\\program files (x86)\\gnu tools arm embedded\\8 2019-q3-update\\arm-none-eabi\\includ
 1255              		.file 32 "../../shields/Murata-dualstack/inc/murata.h"
 1256              		.file 33 "<built-in>"
 1257              		.file 34 "c:\\program files (x86)\\gnu tools arm embedded\\8 2019-q3-update\\arm-none-eabi\\includ
 1258              		.file 35 "../../core/ST/STM32L4xx_HAL_Driver/Inc/stm32l4xx_hal_gpio.h"
 1259              		.file 36 "../../core/platform/octa/inc/sysclock.h"
 1260              		.file 37 "../../core/platform/common/inc/platform.h"
ARM GAS  C:\Users\Wouter\AppData\Local\Temp\ccV4kzSc.s 			page 34


DEFINED SYMBOLS
                            *ABS*:00000000 murata-dualstack-example-ns.c
C:\Users\Wouter\AppData\Local\Temp\ccV4kzSc.s:18     .text.LoRaWAN_send:00000000 $t
C:\Users\Wouter\AppData\Local\Temp\ccV4kzSc.s:26     .text.LoRaWAN_send:00000000 LoRaWAN_send
C:\Users\Wouter\AppData\Local\Temp\ccV4kzSc.s:129    .text.LoRaWAN_send:00000050 $d
C:\Users\Wouter\AppData\Local\Temp\ccV4kzSc.s:136    .text.Dash7_send:00000000 $t
C:\Users\Wouter\AppData\Local\Temp\ccV4kzSc.s:143    .text.Dash7_send:00000000 Dash7_send
C:\Users\Wouter\AppData\Local\Temp\ccV4kzSc.s:245    .text.Dash7_send:00000050 $d
C:\Users\Wouter\AppData\Local\Temp\ccV4kzSc.s:253    .text.print_temp_hum:00000000 $t
C:\Users\Wouter\AppData\Local\Temp\ccV4kzSc.s:260    .text.print_temp_hum:00000000 print_temp_hum
C:\Users\Wouter\AppData\Local\Temp\ccV4kzSc.s:308    .text.print_temp_hum:00000034 $d
                            *COM*:00000008 SHTData
C:\Users\Wouter\AppData\Local\Temp\ccV4kzSc.s:316    .text.temp_hum_measurement:00000000 $t
C:\Users\Wouter\AppData\Local\Temp\ccV4kzSc.s:323    .text.temp_hum_measurement:00000000 temp_hum_measurement
C:\Users\Wouter\AppData\Local\Temp\ccV4kzSc.s:346    .text.temp_hum_measurement:00000010 $d
C:\Users\Wouter\AppData\Local\Temp\ccV4kzSc.s:351    .text.HAL_UART_RxCpltCallback:00000000 $t
C:\Users\Wouter\AppData\Local\Temp\ccV4kzSc.s:358    .text.HAL_UART_RxCpltCallback:00000000 HAL_UART_RxCpltCallback
C:\Users\Wouter\AppData\Local\Temp\ccV4kzSc.s:395    .text.HAL_UART_RxCpltCallback:00000018 $d
                            *COM*:00000078 P1_UART
C:\Users\Wouter\AppData\Local\Temp\ccV4kzSc.s:401    .text.vApplicationIdleHook:00000000 $t
C:\Users\Wouter\AppData\Local\Temp\ccV4kzSc.s:408    .text.vApplicationIdleHook:00000000 vApplicationIdleHook
C:\Users\Wouter\AppData\Local\Temp\ccV4kzSc.s:421    .text.printWelcome:00000000 $t
C:\Users\Wouter\AppData\Local\Temp\ccV4kzSc.s:428    .text.printWelcome:00000000 printWelcome
C:\Users\Wouter\AppData\Local\Temp\ccV4kzSc.s:525    .text.printWelcome:00000070 $d
                            *COM*:00000008 short_UID
C:\Users\Wouter\AppData\Local\Temp\ccV4kzSc.s:537    .text.main:00000000 $t
C:\Users\Wouter\AppData\Local\Temp\ccV4kzSc.s:544    .text.main:00000000 main
C:\Users\Wouter\AppData\Local\Temp\ccV4kzSc.s:813    .text.main:00000128 $d
                            *COM*:0000004c common_I2C
C:\Users\Wouter\AppData\Local\Temp\ccV4kzSc.s:831    .text.LoRaWAN_send_self:00000000 $t
C:\Users\Wouter\AppData\Local\Temp\ccV4kzSc.s:838    .text.LoRaWAN_send_self:00000000 LoRaWAN_send_self
C:\Users\Wouter\AppData\Local\Temp\ccV4kzSc.s:946    .text.LoRaWAN_send_self:0000006c $d
C:\Users\Wouter\AppData\Local\Temp\ccV4kzSc.s:955    .text.HAL_GPIO_EXTI_Callback:00000000 $t
C:\Users\Wouter\AppData\Local\Temp\ccV4kzSc.s:962    .text.HAL_GPIO_EXTI_Callback:00000000 HAL_GPIO_EXTI_Callback
C:\Users\Wouter\AppData\Local\Temp\ccV4kzSc.s:997    .text.HAL_GPIO_EXTI_Callback:00000018 $d
C:\Users\Wouter\AppData\Local\Temp\ccV4kzSc.s:1003   .text.HAL_TIM_PeriodElapsedCallback:00000000 $t
C:\Users\Wouter\AppData\Local\Temp\ccV4kzSc.s:1010   .text.HAL_TIM_PeriodElapsedCallback:00000000 HAL_TIM_PeriodElapsedCallback
C:\Users\Wouter\AppData\Local\Temp\ccV4kzSc.s:1044   .text.HAL_TIM_PeriodElapsedCallback:00000014 $d
C:\Users\Wouter\AppData\Local\Temp\ccV4kzSc.s:1049   .text.Error_Handler:00000000 $t
C:\Users\Wouter\AppData\Local\Temp\ccV4kzSc.s:1056   .text.Error_Handler:00000000 Error_Handler
C:\Users\Wouter\AppData\Local\Temp\ccV4kzSc.s:1166   .bss.temperatureflag:00000000 temperatureflag
                            *COM*:00000001 data
C:\Users\Wouter\AppData\Local\Temp\ccV4kzSc.s:1160   .bss.rep_counter:00000000 rep_counter
C:\Users\Wouter\AppData\Local\Temp\ccV4kzSc.s:1147   .bss.murata_data_ready:00000000 murata_data_ready
C:\Users\Wouter\AppData\Local\Temp\ccV4kzSc.s:1153   .bss.murata_init:00000000 murata_init
C:\Users\Wouter\AppData\Local\Temp\ccV4kzSc.s:1134   .bss.DASH7_Counter:00000000 DASH7_Counter
C:\Users\Wouter\AppData\Local\Temp\ccV4kzSc.s:1141   .bss.LoRaWAN_Counter:00000000 LoRaWAN_Counter
                            *COM*:00000004 threadToNotify
                            *COM*:00000004 murata_reset_pin
                            *COM*:00000004 murata_wakeup_pin
                            *COM*:00000006 magRawData
                            *COM*:00000006 magRegisterData
                            *COM*:00000006 accRawData
                            *COM*:00000006 accRegisterData
                            *COM*:00000004 LSM303AGR_hi2c
                            *COM*:00000001 LSM303AGR_setting
                            *COM*:00000004 murata_rx_process_mutex_id
ARM GAS  C:\Users\Wouter\AppData\Local\Temp\ccV4kzSc.s 			page 35


                            *COM*:00000004 txMutexId
                            *COM*:00000004 moduleCheckTimId
                            *COM*:00000004 dash7TimId
                            *COM*:00000004 loraWANTimId
                            *COM*:00000004 iwdgTimId
                            *COM*:00000004 murata_rx_processing_handle
                            *COM*:00000004 defaultTaskHandle
                            *COM*:0000002c P3_header
                            *COM*:0000002c P2_header
                            *COM*:0000002c P1_header
                            *COM*:00000064 FLASH_SPI
                            *COM*:00000064 P3_SPI
                            *COM*:00000064 P2_SPI
                            *COM*:00000064 P1_SPI
                            *COM*:0000004c P3_I2C
                            *COM*:0000004c P2_I2C
                            *COM*:0000004c P1_I2C
                            *COM*:00000078 P3_UART
                            *COM*:00000078 P2_UART
                            *COM*:00000078 BLE_UART
                            *COM*:00000078 USB_UART
                            *COM*:00000010 hiwdg
                            *COM*:00000008 P3_DIO6
                            *COM*:00000008 P3_DIO5
                            *COM*:00000008 P3_DIO4
                            *COM*:00000008 P3_DIO3
                            *COM*:00000008 P3_DIO2
                            *COM*:00000008 P3_DIO1
                            *COM*:00000008 P2_DIO6
                            *COM*:00000008 P2_DIO5
                            *COM*:00000008 P2_DIO4
                            *COM*:00000008 P2_DIO3
                            *COM*:00000008 P2_DIO2
                            *COM*:00000008 P2_DIO1
                            *COM*:00000008 P1_DIO6
                            *COM*:00000008 P1_DIO5
                            *COM*:00000008 P1_DIO4
                            *COM*:00000008 P1_DIO3
                            *COM*:00000008 P1_DIO2
                            *COM*:00000008 P1_DIO1
C:\Users\Wouter\AppData\Local\Temp\ccV4kzSc.s:1130   .bss.DASH7_Counter:00000000 $d
C:\Users\Wouter\AppData\Local\Temp\ccV4kzSc.s:1137   .bss.LoRaWAN_Counter:00000000 $d
C:\Users\Wouter\AppData\Local\Temp\ccV4kzSc.s:1148   .bss.murata_data_ready:00000000 $d
C:\Users\Wouter\AppData\Local\Temp\ccV4kzSc.s:1154   .bss.murata_init:00000000 $d
C:\Users\Wouter\AppData\Local\Temp\ccV4kzSc.s:1156   .bss.rep_counter:00000000 $d
C:\Users\Wouter\AppData\Local\Temp\ccV4kzSc.s:1167   .bss.temperatureflag:00000000 $d
C:\Users\Wouter\AppData\Local\Temp\ccV4kzSc.s:1169   .rodata.HAL_GPIO_EXTI_Callback.str1.4:00000000 $d
C:\Users\Wouter\AppData\Local\Temp\ccV4kzSc.s:1173   .rodata.LoRaWAN_send.str1.4:00000000 $d
C:\Users\Wouter\AppData\Local\Temp\ccV4kzSc.s:1177   .rodata.LoRaWAN_send_self.str1.4:00000000 $d
C:\Users\Wouter\AppData\Local\Temp\ccV4kzSc.s:1181   .rodata.main.str1.4:00000000 $d
C:\Users\Wouter\AppData\Local\Temp\ccV4kzSc.s:1197   .rodata.printWelcome.str1.4:00000000 $d
C:\Users\Wouter\AppData\Local\Temp\ccV4kzSc.s:1213   .rodata.print_temp_hum.str1.4:00000000 $d

UNDEFINED SYMBOLS
Murata_LoRaWAN_Send
puts
Murata_Dash7_Send
ARM GAS  C:\Users\Wouter\AppData\Local\Temp\ccV4kzSc.s 			page 36


__aeabi_f2d
printf
SHT31_get_temp_hum
Murata_rxCallback
HAL_GPIO_TogglePin
HAL_Delay
HAL_Init
SystemClock_Config
Initialize_Platform
get_UID
LSM303AGR_setI2CInterface
setI2CInterface_SHT31
SHT31_begin
LSM303AGR_init
Murata_Initialize
IWDG_feed
Murata_process_fifo
Murata_LoRaWAN_Join
HAL_IncTick
