ARM GAS  C:\Users\yvesk\AppData\Local\Temp\cc36v34U.s 			page 1


   1              		.cpu cortex-m4
   2              		.eabi_attribute 27, 1
   3              		.eabi_attribute 28, 1
   4              		.eabi_attribute 20, 1
   5              		.eabi_attribute 21, 1
   6              		.eabi_attribute 23, 3
   7              		.eabi_attribute 24, 1
   8              		.eabi_attribute 25, 1
   9              		.eabi_attribute 26, 1
  10              		.eabi_attribute 30, 1
  11              		.eabi_attribute 34, 1
  12              		.eabi_attribute 18, 4
  13              		.file	"murata-dualstack-example-ns.c"
  14              		.text
  15              	.Ltext0:
  16              		.cfi_sections	.debug_frame
  17              		.section	.text.InitializeTimer2,"ax",%progbits
  18              		.align	1
  19              		.global	InitializeTimer2
  20              		.arch armv7e-m
  21              		.syntax unified
  22              		.thumb
  23              		.thumb_func
  24              		.fpu fpv4-sp-d16
  26              	InitializeTimer2:
  27              	.LFB132:
  28              		.file 1 "../../applications/murata-dualstack-example-ns/src/murata-dualstack-example-ns.c"
   1:../../applications/murata-dualstack-example-ns/src/murata-dualstack-example-ns.c **** /* USER CODE BEGIN Header */
   2:../../applications/murata-dualstack-example-ns/src/murata-dualstack-example-ns.c **** /**
   3:../../applications/murata-dualstack-example-ns/src/murata-dualstack-example-ns.c ****   ******************************************************************************
   4:../../applications/murata-dualstack-example-ns/src/murata-dualstack-example-ns.c ****   * @file           : main.c
   5:../../applications/murata-dualstack-example-ns/src/murata-dualstack-example-ns.c ****   * @brief          : Main program body
   6:../../applications/murata-dualstack-example-ns/src/murata-dualstack-example-ns.c ****   ******************************************************************************
   7:../../applications/murata-dualstack-example-ns/src/murata-dualstack-example-ns.c ****   * This notice applies to any and all portions of this file
   8:../../applications/murata-dualstack-example-ns/src/murata-dualstack-example-ns.c ****   * that are not between comment pairs USER CODE BEGIN and
   9:../../applications/murata-dualstack-example-ns/src/murata-dualstack-example-ns.c ****   * USER CODE END. Other portions of this file, whether 
  10:../../applications/murata-dualstack-example-ns/src/murata-dualstack-example-ns.c ****   * inserted by the user or by software development tools
  11:../../applications/murata-dualstack-example-ns/src/murata-dualstack-example-ns.c ****   * are owned by their respective copyright owners.
  12:../../applications/murata-dualstack-example-ns/src/murata-dualstack-example-ns.c ****   *
  13:../../applications/murata-dualstack-example-ns/src/murata-dualstack-example-ns.c ****   * Copyright (c) 2019 STMicroelectronics International N.V. 
  14:../../applications/murata-dualstack-example-ns/src/murata-dualstack-example-ns.c ****   * All rights reserved.
  15:../../applications/murata-dualstack-example-ns/src/murata-dualstack-example-ns.c ****   *
  16:../../applications/murata-dualstack-example-ns/src/murata-dualstack-example-ns.c ****   * Redistribution and use in source and binary forms, with or without 
  17:../../applications/murata-dualstack-example-ns/src/murata-dualstack-example-ns.c ****   * modification, are permitted, provided that the following conditions are met:
  18:../../applications/murata-dualstack-example-ns/src/murata-dualstack-example-ns.c ****   *
  19:../../applications/murata-dualstack-example-ns/src/murata-dualstack-example-ns.c ****   * 1. Redistribution of source code must retain the above copyright notice, 
  20:../../applications/murata-dualstack-example-ns/src/murata-dualstack-example-ns.c ****   *    this list of conditions and the following disclaimer.
  21:../../applications/murata-dualstack-example-ns/src/murata-dualstack-example-ns.c ****   * 2. Redistributions in binary form must reproduce the above copyright notice,
  22:../../applications/murata-dualstack-example-ns/src/murata-dualstack-example-ns.c ****   *    this list of conditions and the following disclaimer in the documentation
  23:../../applications/murata-dualstack-example-ns/src/murata-dualstack-example-ns.c ****   *    and/or other materials provided with the distribution.
  24:../../applications/murata-dualstack-example-ns/src/murata-dualstack-example-ns.c ****   * 3. Neither the name of STMicroelectronics nor the names of other 
  25:../../applications/murata-dualstack-example-ns/src/murata-dualstack-example-ns.c ****   *    contributors to this software may be used to endorse or promote products 
  26:../../applications/murata-dualstack-example-ns/src/murata-dualstack-example-ns.c ****   *    derived from this software without specific written permission.
  27:../../applications/murata-dualstack-example-ns/src/murata-dualstack-example-ns.c ****   * 4. This software, including modifications and/or derivative works of this 
  28:../../applications/murata-dualstack-example-ns/src/murata-dualstack-example-ns.c ****   *    software, must execute solely and exclusively on microcontroller or
  29:../../applications/murata-dualstack-example-ns/src/murata-dualstack-example-ns.c ****   *    microprocessor devices manufactured by or for STMicroelectronics.
  30:../../applications/murata-dualstack-example-ns/src/murata-dualstack-example-ns.c ****   * 5. Redistribution and use of this software other than as permitted under 
ARM GAS  C:\Users\yvesk\AppData\Local\Temp\cc36v34U.s 			page 2


  31:../../applications/murata-dualstack-example-ns/src/murata-dualstack-example-ns.c ****   *    this license is void and will automatically terminate your rights under 
  32:../../applications/murata-dualstack-example-ns/src/murata-dualstack-example-ns.c ****   *    this license. 
  33:../../applications/murata-dualstack-example-ns/src/murata-dualstack-example-ns.c ****   *
  34:../../applications/murata-dualstack-example-ns/src/murata-dualstack-example-ns.c ****   * THIS SOFTWARE IS PROVIDED BY STMICROELECTRONICS AND CONTRIBUTORS "AS IS" 
  35:../../applications/murata-dualstack-example-ns/src/murata-dualstack-example-ns.c ****   * AND ANY EXPRESS, IMPLIED OR STATUTORY WARRANTIES, INCLUDING, BUT NOT 
  36:../../applications/murata-dualstack-example-ns/src/murata-dualstack-example-ns.c ****   * LIMITED TO, THE IMPLIED WARRANTIES OF MERCHANTABILITY, FITNESS FOR A 
  37:../../applications/murata-dualstack-example-ns/src/murata-dualstack-example-ns.c ****   * PARTICULAR PURPOSE AND NON-INFRINGEMENT OF THIRD PARTY INTELLECTUAL PROPERTY
  38:../../applications/murata-dualstack-example-ns/src/murata-dualstack-example-ns.c ****   * RIGHTS ARE DISCLAIMED TO THE FULLEST EXTENT PERMITTED BY LAW. IN NO EVENT 
  39:../../applications/murata-dualstack-example-ns/src/murata-dualstack-example-ns.c ****   * SHALL STMICROELECTRONICS OR CONTRIBUTORS BE LIABLE FOR ANY DIRECT, INDIRECT,
  40:../../applications/murata-dualstack-example-ns/src/murata-dualstack-example-ns.c ****   * INCIDENTAL, SPECIAL, EXEMPLARY, OR CONSEQUENTIAL DAMAGES (INCLUDING, BUT NOT
  41:../../applications/murata-dualstack-example-ns/src/murata-dualstack-example-ns.c ****   * LIMITED TO, PROCUREMENT OF SUBSTITUTE GOODS OR SERVICES; LOSS OF USE, DATA, 
  42:../../applications/murata-dualstack-example-ns/src/murata-dualstack-example-ns.c ****   * OR PROFITS; OR BUSINESS INTERRUPTION) HOWEVER CAUSED AND ON ANY THEORY OF 
  43:../../applications/murata-dualstack-example-ns/src/murata-dualstack-example-ns.c ****   * LIABILITY, WHETHER IN CONTRACT, STRICT LIABILITY, OR TORT (INCLUDING 
  44:../../applications/murata-dualstack-example-ns/src/murata-dualstack-example-ns.c ****   * NEGLIGENCE OR OTHERWISE) ARISING IN ANY WAY OUT OF THE USE OF THIS SOFTWARE,
  45:../../applications/murata-dualstack-example-ns/src/murata-dualstack-example-ns.c ****   * EVEN IF ADVISED OF THE POSSIBILITY OF SUCH DAMAGE.
  46:../../applications/murata-dualstack-example-ns/src/murata-dualstack-example-ns.c ****   *
  47:../../applications/murata-dualstack-example-ns/src/murata-dualstack-example-ns.c ****   ******************************************************************************
  48:../../applications/murata-dualstack-example-ns/src/murata-dualstack-example-ns.c ****   */
  49:../../applications/murata-dualstack-example-ns/src/murata-dualstack-example-ns.c **** /* USER CODE END Header */
  50:../../applications/murata-dualstack-example-ns/src/murata-dualstack-example-ns.c **** 
  51:../../applications/murata-dualstack-example-ns/src/murata-dualstack-example-ns.c **** /* Includes ------------------------------------------------------------------*/
  52:../../applications/murata-dualstack-example-ns/src/murata-dualstack-example-ns.c **** #include "murata-dualstack-example-ns.h"
  53:../../applications/murata-dualstack-example-ns/src/murata-dualstack-example-ns.c **** 
  54:../../applications/murata-dualstack-example-ns/src/murata-dualstack-example-ns.c **** /* Private includes ----------------------------------------------------------*/
  55:../../applications/murata-dualstack-example-ns/src/murata-dualstack-example-ns.c **** /* USER CODE BEGIN Includes */
  56:../../applications/murata-dualstack-example-ns/src/murata-dualstack-example-ns.c **** //#include "murata.h"
  57:../../applications/murata-dualstack-example-ns/src/murata-dualstack-example-ns.c **** #include <LSM303AGRSensor.h>
  58:../../applications/murata-dualstack-example-ns/src/murata-dualstack-example-ns.c **** #include <stdio.h>
  59:../../applications/murata-dualstack-example-ns/src/murata-dualstack-example-ns.c **** #include <murata.h>
  60:../../applications/murata-dualstack-example-ns/src/murata-dualstack-example-ns.c **** //#include "murata.h"
  61:../../applications/murata-dualstack-example-ns/src/murata-dualstack-example-ns.c **** 
  62:../../applications/murata-dualstack-example-ns/src/murata-dualstack-example-ns.c **** /* USER CODE END Includes */
  63:../../applications/murata-dualstack-example-ns/src/murata-dualstack-example-ns.c **** 
  64:../../applications/murata-dualstack-example-ns/src/murata-dualstack-example-ns.c **** /* Private typedef -----------------------------------------------------------*/
  65:../../applications/murata-dualstack-example-ns/src/murata-dualstack-example-ns.c **** /* USER CODE BEGIN PTD */
  66:../../applications/murata-dualstack-example-ns/src/murata-dualstack-example-ns.c **** 
  67:../../applications/murata-dualstack-example-ns/src/murata-dualstack-example-ns.c **** /* USER CODE END PTD */
  68:../../applications/murata-dualstack-example-ns/src/murata-dualstack-example-ns.c **** 
  69:../../applications/murata-dualstack-example-ns/src/murata-dualstack-example-ns.c **** /* Private define ------------------------------------------------------------*/
  70:../../applications/murata-dualstack-example-ns/src/murata-dualstack-example-ns.c **** /* USER CODE BEGIN PD */
  71:../../applications/murata-dualstack-example-ns/src/murata-dualstack-example-ns.c **** #define IWDG_INTERVAL           5    //seconds
  72:../../applications/murata-dualstack-example-ns/src/murata-dualstack-example-ns.c **** #define LORAWAN_INTERVAL        60   //seconds
  73:../../applications/murata-dualstack-example-ns/src/murata-dualstack-example-ns.c **** #define DASH7_INTERVAL          20  //seconds
  74:../../applications/murata-dualstack-example-ns/src/murata-dualstack-example-ns.c **** #define MODULE_CHECK_INTERVAL   3600 //seconds
  75:../../applications/murata-dualstack-example-ns/src/murata-dualstack-example-ns.c **** 
  76:../../applications/murata-dualstack-example-ns/src/murata-dualstack-example-ns.c **** #define HAL_EXTI_MODULE_ENABLED
  77:../../applications/murata-dualstack-example-ns/src/murata-dualstack-example-ns.c **** #define temp_hum_timer    3
  78:../../applications/murata-dualstack-example-ns/src/murata-dualstack-example-ns.c **** 
  79:../../applications/murata-dualstack-example-ns/src/murata-dualstack-example-ns.c **** /* USER CODE END PD */
  80:../../applications/murata-dualstack-example-ns/src/murata-dualstack-example-ns.c **** 
  81:../../applications/murata-dualstack-example-ns/src/murata-dualstack-example-ns.c **** /* Private macro -------------------------------------------------------------*/
  82:../../applications/murata-dualstack-example-ns/src/murata-dualstack-example-ns.c **** /* USER CODE BEGIN PM */
  83:../../applications/murata-dualstack-example-ns/src/murata-dualstack-example-ns.c **** 
  84:../../applications/murata-dualstack-example-ns/src/murata-dualstack-example-ns.c **** /* USER CODE END PM */
  85:../../applications/murata-dualstack-example-ns/src/murata-dualstack-example-ns.c **** 
  86:../../applications/murata-dualstack-example-ns/src/murata-dualstack-example-ns.c **** /* Private user code ---------------------------------------------------------*/
  87:../../applications/murata-dualstack-example-ns/src/murata-dualstack-example-ns.c **** /* USER CODE BEGIN 0 */
ARM GAS  C:\Users\yvesk\AppData\Local\Temp\cc36v34U.s 			page 3


  88:../../applications/murata-dualstack-example-ns/src/murata-dualstack-example-ns.c **** uint16_t LoRaWAN_Counter = 0;
  89:../../applications/murata-dualstack-example-ns/src/murata-dualstack-example-ns.c **** uint16_t DASH7_Counter = 0;
  90:../../applications/murata-dualstack-example-ns/src/murata-dualstack-example-ns.c **** uint8_t murata_init = 0;
  91:../../applications/murata-dualstack-example-ns/src/murata-dualstack-example-ns.c **** uint64_t short_UID;
  92:../../applications/murata-dualstack-example-ns/src/murata-dualstack-example-ns.c **** uint8_t murata_data_ready = 0;
  93:../../applications/murata-dualstack-example-ns/src/murata-dualstack-example-ns.c **** 
  94:../../applications/murata-dualstack-example-ns/src/murata-dualstack-example-ns.c **** //Zelf
  95:../../applications/murata-dualstack-example-ns/src/murata-dualstack-example-ns.c **** uint8_t rep_counter = 0; 
  96:../../applications/murata-dualstack-example-ns/src/murata-dualstack-example-ns.c **** extern volatile uint8_t failureCounter=0; 
  97:../../applications/murata-dualstack-example-ns/src/murata-dualstack-example-ns.c **** extern volatile uint8_t successCounter=0;
  98:../../applications/murata-dualstack-example-ns/src/murata-dualstack-example-ns.c **** extern volatile uint8_t messageCounter=0; 
  99:../../applications/murata-dualstack-example-ns/src/murata-dualstack-example-ns.c **** 
 100:../../applications/murata-dualstack-example-ns/src/murata-dualstack-example-ns.c **** float SHTData[2];
 101:../../applications/murata-dualstack-example-ns/src/murata-dualstack-example-ns.c **** uint8_t tmpbuf_ble[10];
 102:../../applications/murata-dualstack-example-ns/src/murata-dualstack-example-ns.c **** uint8_t data; 
 103:../../applications/murata-dualstack-example-ns/src/murata-dualstack-example-ns.c **** volatile _Bool temperatureflag=0; 
 104:../../applications/murata-dualstack-example-ns/src/murata-dualstack-example-ns.c **** volatile _Bool timer2flag=0; 
 105:../../applications/murata-dualstack-example-ns/src/murata-dualstack-example-ns.c **** volatile _Bool timer3flag=0; 
 106:../../applications/murata-dualstack-example-ns/src/murata-dualstack-example-ns.c **** volatile _Bool repFlag=0;
 107:../../applications/murata-dualstack-example-ns/src/murata-dualstack-example-ns.c **** volatile _Bool repMode=0; 
 108:../../applications/murata-dualstack-example-ns/src/murata-dualstack-example-ns.c **** _Bool changeAcceleroMode=0; 
 109:../../applications/murata-dualstack-example-ns/src/murata-dualstack-example-ns.c **** _Bool volatile messageMode=0; 
 110:../../applications/murata-dualstack-example-ns/src/murata-dualstack-example-ns.c **** volatile _Bool timer3_first=0; 
 111:../../applications/murata-dualstack-example-ns/src/murata-dualstack-example-ns.c **** volatile _Bool BLE_flag=0;
 112:../../applications/murata-dualstack-example-ns/src/murata-dualstack-example-ns.c **** 
 113:../../applications/murata-dualstack-example-ns/src/murata-dualstack-example-ns.c **** 
 114:../../applications/murata-dualstack-example-ns/src/murata-dualstack-example-ns.c **** /* USER CODE END 0 */
 115:../../applications/murata-dualstack-example-ns/src/murata-dualstack-example-ns.c **** 
 116:../../applications/murata-dualstack-example-ns/src/murata-dualstack-example-ns.c **** 
 117:../../applications/murata-dualstack-example-ns/src/murata-dualstack-example-ns.c ****  
 118:../../applications/murata-dualstack-example-ns/src/murata-dualstack-example-ns.c **** static TIM_HandleTypeDef localisation_timer = { 
 119:../../applications/murata-dualstack-example-ns/src/murata-dualstack-example-ns.c ****     .Instance = TIM2
 120:../../applications/murata-dualstack-example-ns/src/murata-dualstack-example-ns.c **** };
 121:../../applications/murata-dualstack-example-ns/src/murata-dualstack-example-ns.c **** 
 122:../../applications/murata-dualstack-example-ns/src/murata-dualstack-example-ns.c **** static TIM_HandleTypeDef inactive_timer = { 
 123:../../applications/murata-dualstack-example-ns/src/murata-dualstack-example-ns.c ****     .Instance = TIM3
 124:../../applications/murata-dualstack-example-ns/src/murata-dualstack-example-ns.c **** };
 125:../../applications/murata-dualstack-example-ns/src/murata-dualstack-example-ns.c ****  
 126:../../applications/murata-dualstack-example-ns/src/murata-dualstack-example-ns.c **** void InitializeTimer2()
 127:../../applications/murata-dualstack-example-ns/src/murata-dualstack-example-ns.c **** {
  29              		.loc 1 127 1 view -0
  30              		.cfi_startproc
  31              		@ args = 0, pretend = 0, frame = 8
  32              		@ frame_needed = 0, uses_anonymous_args = 0
  33              		@ link register save eliminated.
  34 0000 82B0     		sub	sp, sp, #8
  35              	.LCFI0:
  36              		.cfi_def_cfa_offset 8
 128:../../applications/murata-dualstack-example-ns/src/murata-dualstack-example-ns.c ****     __TIM2_CLK_ENABLE();
  37              		.loc 1 128 5 view .LVU1
  38              	.LBB2:
  39              		.loc 1 128 5 view .LVU2
  40              		.loc 1 128 5 view .LVU3
  41 0002 0B4B     		ldr	r3, .L3
  42 0004 9A6D     		ldr	r2, [r3, #88]
  43 0006 42F00102 		orr	r2, r2, #1
  44 000a 9A65     		str	r2, [r3, #88]
ARM GAS  C:\Users\yvesk\AppData\Local\Temp\cc36v34U.s 			page 4


  45              		.loc 1 128 5 view .LVU4
  46 000c 9B6D     		ldr	r3, [r3, #88]
  47 000e 03F00103 		and	r3, r3, #1
  48 0012 0193     		str	r3, [sp, #4]
  49              		.loc 1 128 5 view .LVU5
  50 0014 019B     		ldr	r3, [sp, #4]
  51              	.LBE2:
 129:../../applications/murata-dualstack-example-ns/src/murata-dualstack-example-ns.c ****     localisation_timer.Init.Prescaler = 16000;                            //1 step = clockperiod x 
  52              		.loc 1 129 5 view .LVU6
  53              		.loc 1 129 39 is_stmt 0 view .LVU7
  54 0016 074B     		ldr	r3, .L3+4
  55 0018 4FF47A52 		mov	r2, #16000
  56 001c 5A60     		str	r2, [r3, #4]
 130:../../applications/murata-dualstack-example-ns/src/murata-dualstack-example-ns.c ****     localisation_timer.Init.CounterMode = TIM_COUNTERMODE_UP;             //timer will count up
  57              		.loc 1 130 5 is_stmt 1 view .LVU8
  58              		.loc 1 130 41 is_stmt 0 view .LVU9
  59 001e 0022     		movs	r2, #0
  60 0020 9A60     		str	r2, [r3, #8]
 131:../../applications/murata-dualstack-example-ns/src/murata-dualstack-example-ns.c ****     localisation_timer.Init.Period = 60000;                                 //60000 steps of clockp
  61              		.loc 1 131 5 is_stmt 1 view .LVU10
  62              		.loc 1 131 36 is_stmt 0 view .LVU11
  63 0022 4EF66021 		movw	r1, #60000
  64 0026 D960     		str	r1, [r3, #12]
 132:../../applications/murata-dualstack-example-ns/src/murata-dualstack-example-ns.c ****     localisation_timer.Init.ClockDivision = TIM_CLOCKDIVISION_DIV1;
  65              		.loc 1 132 5 is_stmt 1 view .LVU12
  66              		.loc 1 132 43 is_stmt 0 view .LVU13
  67 0028 1A61     		str	r2, [r3, #16]
 133:../../applications/murata-dualstack-example-ns/src/murata-dualstack-example-ns.c ****     localisation_timer.Init.RepetitionCounter = 0;
  68              		.loc 1 133 5 is_stmt 1 view .LVU14
  69              		.loc 1 133 47 is_stmt 0 view .LVU15
  70 002a 5A61     		str	r2, [r3, #20]
 134:../../applications/murata-dualstack-example-ns/src/murata-dualstack-example-ns.c ****    /*  HAL_TIM_Base_Init(&localisation_timer);
 135:../../applications/murata-dualstack-example-ns/src/murata-dualstack-example-ns.c ****     HAL_TIM_Base_Start_IT(&localisation_timer);
 136:../../applications/murata-dualstack-example-ns/src/murata-dualstack-example-ns.c ****     HAL_NVIC_SetPriority(TIM2_IRQn, 0, 0);                              //set de priority of the in
 137:../../applications/murata-dualstack-example-ns/src/murata-dualstack-example-ns.c ****     HAL_NVIC_EnableIRQ(TIM2_IRQn);        */                               //enable de interrupt va
 138:../../applications/murata-dualstack-example-ns/src/murata-dualstack-example-ns.c **** } 
  71              		.loc 1 138 1 view .LVU16
  72 002c 02B0     		add	sp, sp, #8
  73              	.LCFI1:
  74              		.cfi_def_cfa_offset 0
  75              		@ sp needed
  76 002e 7047     		bx	lr
  77              	.L4:
  78              		.align	2
  79              	.L3:
  80 0030 00100240 		.word	1073876992
  81 0034 00000000 		.word	.LANCHOR0
  82              		.cfi_endproc
  83              	.LFE132:
  85              		.section	.text.InitializeTimer3,"ax",%progbits
  86              		.align	1
  87              		.global	InitializeTimer3
  88              		.syntax unified
  89              		.thumb
  90              		.thumb_func
  91              		.fpu fpv4-sp-d16
  93              	InitializeTimer3:
ARM GAS  C:\Users\yvesk\AppData\Local\Temp\cc36v34U.s 			page 5


  94              	.LFB133:
 139:../../applications/murata-dualstack-example-ns/src/murata-dualstack-example-ns.c **** 
 140:../../applications/murata-dualstack-example-ns/src/murata-dualstack-example-ns.c **** void InitializeTimer3()
 141:../../applications/murata-dualstack-example-ns/src/murata-dualstack-example-ns.c **** {
  95              		.loc 1 141 1 is_stmt 1 view -0
  96              		.cfi_startproc
  97              		@ args = 0, pretend = 0, frame = 8
  98              		@ frame_needed = 0, uses_anonymous_args = 0
  99              		@ link register save eliminated.
 100 0000 82B0     		sub	sp, sp, #8
 101              	.LCFI2:
 102              		.cfi_def_cfa_offset 8
 142:../../applications/murata-dualstack-example-ns/src/murata-dualstack-example-ns.c ****     __TIM3_CLK_ENABLE();
 103              		.loc 1 142 5 view .LVU18
 104              	.LBB3:
 105              		.loc 1 142 5 view .LVU19
 106              		.loc 1 142 5 view .LVU20
 107 0002 0B4B     		ldr	r3, .L7
 108 0004 9A6D     		ldr	r2, [r3, #88]
 109 0006 42F00202 		orr	r2, r2, #2
 110 000a 9A65     		str	r2, [r3, #88]
 111              		.loc 1 142 5 view .LVU21
 112 000c 9B6D     		ldr	r3, [r3, #88]
 113 000e 03F00203 		and	r3, r3, #2
 114 0012 0193     		str	r3, [sp, #4]
 115              		.loc 1 142 5 view .LVU22
 116 0014 019B     		ldr	r3, [sp, #4]
 117              	.LBE3:
 143:../../applications/murata-dualstack-example-ns/src/murata-dualstack-example-ns.c ****     inactive_timer.Init.Prescaler = 16000;                            //1 step = clockperiod x pres
 118              		.loc 1 143 5 view .LVU23
 119              		.loc 1 143 35 is_stmt 0 view .LVU24
 120 0016 074B     		ldr	r3, .L7+4
 121 0018 4FF47A52 		mov	r2, #16000
 122 001c 5A60     		str	r2, [r3, #4]
 144:../../applications/murata-dualstack-example-ns/src/murata-dualstack-example-ns.c ****     inactive_timer.Init.CounterMode = TIM_COUNTERMODE_UP;             //timer will count up
 123              		.loc 1 144 5 is_stmt 1 view .LVU25
 124              		.loc 1 144 37 is_stmt 0 view .LVU26
 125 001e 0022     		movs	r2, #0
 126 0020 9A60     		str	r2, [r3, #8]
 145:../../applications/murata-dualstack-example-ns/src/murata-dualstack-example-ns.c ****     inactive_timer.Init.Period = 60000;                                 //60000 steps of clockperio
 127              		.loc 1 145 5 is_stmt 1 view .LVU27
 128              		.loc 1 145 32 is_stmt 0 view .LVU28
 129 0022 4EF66021 		movw	r1, #60000
 130 0026 D960     		str	r1, [r3, #12]
 146:../../applications/murata-dualstack-example-ns/src/murata-dualstack-example-ns.c ****     inactive_timer.Init.ClockDivision = TIM_CLOCKDIVISION_DIV1;
 131              		.loc 1 146 5 is_stmt 1 view .LVU29
 132              		.loc 1 146 39 is_stmt 0 view .LVU30
 133 0028 1A61     		str	r2, [r3, #16]
 147:../../applications/murata-dualstack-example-ns/src/murata-dualstack-example-ns.c ****     inactive_timer.Init.RepetitionCounter = 0;
 134              		.loc 1 147 5 is_stmt 1 view .LVU31
 135              		.loc 1 147 43 is_stmt 0 view .LVU32
 136 002a 5A61     		str	r2, [r3, #20]
 148:../../applications/murata-dualstack-example-ns/src/murata-dualstack-example-ns.c ****     /* HAL_TIM_Base_Init(&inactive_timer);
 149:../../applications/murata-dualstack-example-ns/src/murata-dualstack-example-ns.c ****     HAL_TIM_Base_Start_IT(&inactive_timer);
 150:../../applications/murata-dualstack-example-ns/src/murata-dualstack-example-ns.c ****     HAL_NVIC_SetPriority(TIM3_IRQn, 0, 0); 
 151:../../applications/murata-dualstack-example-ns/src/murata-dualstack-example-ns.c ****     HAL_NVIC_EnableIRQ(TIM3_IRQn); */
 152:../../applications/murata-dualstack-example-ns/src/murata-dualstack-example-ns.c **** }
ARM GAS  C:\Users\yvesk\AppData\Local\Temp\cc36v34U.s 			page 6


 137              		.loc 1 152 1 view .LVU33
 138 002c 02B0     		add	sp, sp, #8
 139              	.LCFI3:
 140              		.cfi_def_cfa_offset 0
 141              		@ sp needed
 142 002e 7047     		bx	lr
 143              	.L8:
 144              		.align	2
 145              	.L7:
 146 0030 00100240 		.word	1073876992
 147 0034 00000000 		.word	.LANCHOR1
 148              		.cfi_endproc
 149              	.LFE133:
 151              		.section	.text.goToSleep,"ax",%progbits
 152              		.align	1
 153              		.global	goToSleep
 154              		.syntax unified
 155              		.thumb
 156              		.thumb_func
 157              		.fpu fpv4-sp-d16
 159              	goToSleep:
 160              	.LFB135:
 153:../../applications/murata-dualstack-example-ns/src/murata-dualstack-example-ns.c **** 
 154:../../applications/murata-dualstack-example-ns/src/murata-dualstack-example-ns.c **** /**
 155:../../applications/murata-dualstack-example-ns/src/murata-dualstack-example-ns.c ****   * @brief  The application entry point.
 156:../../applications/murata-dualstack-example-ns/src/murata-dualstack-example-ns.c ****   * @retval int
 157:../../applications/murata-dualstack-example-ns/src/murata-dualstack-example-ns.c ****   */
 158:../../applications/murata-dualstack-example-ns/src/murata-dualstack-example-ns.c **** int main(void)
 159:../../applications/murata-dualstack-example-ns/src/murata-dualstack-example-ns.c **** {
 160:../../applications/murata-dualstack-example-ns/src/murata-dualstack-example-ns.c ****   /* USER CODE BEGIN 1 */
 161:../../applications/murata-dualstack-example-ns/src/murata-dualstack-example-ns.c **** 
 162:../../applications/murata-dualstack-example-ns/src/murata-dualstack-example-ns.c ****   /* USER CODE END 1 */
 163:../../applications/murata-dualstack-example-ns/src/murata-dualstack-example-ns.c **** 
 164:../../applications/murata-dualstack-example-ns/src/murata-dualstack-example-ns.c ****   /* MCU Configuration--------------------------------------------------------*/
 165:../../applications/murata-dualstack-example-ns/src/murata-dualstack-example-ns.c **** 
 166:../../applications/murata-dualstack-example-ns/src/murata-dualstack-example-ns.c ****   /* Reset of all peripherals, Initializes the Flash interface and the Systick. */
 167:../../applications/murata-dualstack-example-ns/src/murata-dualstack-example-ns.c ****   HAL_Init();
 168:../../applications/murata-dualstack-example-ns/src/murata-dualstack-example-ns.c **** 
 169:../../applications/murata-dualstack-example-ns/src/murata-dualstack-example-ns.c ****   /* USER CODE BEGIN Init */
 170:../../applications/murata-dualstack-example-ns/src/murata-dualstack-example-ns.c **** 
 171:../../applications/murata-dualstack-example-ns/src/murata-dualstack-example-ns.c ****   /* USER CODE END Init */
 172:../../applications/murata-dualstack-example-ns/src/murata-dualstack-example-ns.c **** 
 173:../../applications/murata-dualstack-example-ns/src/murata-dualstack-example-ns.c ****   /* Configure the system clock */
 174:../../applications/murata-dualstack-example-ns/src/murata-dualstack-example-ns.c ****   SystemClock_Config();
 175:../../applications/murata-dualstack-example-ns/src/murata-dualstack-example-ns.c **** 
 176:../../applications/murata-dualstack-example-ns/src/murata-dualstack-example-ns.c ****   /* USER CODE BEGIN SysInit */
 177:../../applications/murata-dualstack-example-ns/src/murata-dualstack-example-ns.c **** 
 178:../../applications/murata-dualstack-example-ns/src/murata-dualstack-example-ns.c ****   /* USER CODE END SysInit */
 179:../../applications/murata-dualstack-example-ns/src/murata-dualstack-example-ns.c **** 
 180:../../applications/murata-dualstack-example-ns/src/murata-dualstack-example-ns.c ****   /* Initialize the platform, OCTA in this case */
 181:../../applications/murata-dualstack-example-ns/src/murata-dualstack-example-ns.c ****   Initialize_Platform();
 182:../../applications/murata-dualstack-example-ns/src/murata-dualstack-example-ns.c **** 
 183:../../applications/murata-dualstack-example-ns/src/murata-dualstack-example-ns.c ****   /* Initialize the the timer */
 184:../../applications/murata-dualstack-example-ns/src/murata-dualstack-example-ns.c ****   InitializeTimer2();
 185:../../applications/murata-dualstack-example-ns/src/murata-dualstack-example-ns.c ****   InitializeTimer3(); 
 186:../../applications/murata-dualstack-example-ns/src/murata-dualstack-example-ns.c **** 
 187:../../applications/murata-dualstack-example-ns/src/murata-dualstack-example-ns.c ****   /* USER CODE BEGIN 2 */
ARM GAS  C:\Users\yvesk\AppData\Local\Temp\cc36v34U.s 			page 7


 188:../../applications/murata-dualstack-example-ns/src/murata-dualstack-example-ns.c **** 
 189:../../applications/murata-dualstack-example-ns/src/murata-dualstack-example-ns.c ****   // Get Unique ID of octa
 190:../../applications/murata-dualstack-example-ns/src/murata-dualstack-example-ns.c ****   short_UID = get_UID();
 191:../../applications/murata-dualstack-example-ns/src/murata-dualstack-example-ns.c **** 
 192:../../applications/murata-dualstack-example-ns/src/murata-dualstack-example-ns.c ****   //LSM30AGR (accelerometer)
 193:../../applications/murata-dualstack-example-ns/src/murata-dualstack-example-ns.c ****   LSM303AGR_setI2CInterface(&common_I2C);
 194:../../applications/murata-dualstack-example-ns/src/murata-dualstack-example-ns.c ****   setI2CInterface_SHT31(&common_I2C);
 195:../../applications/murata-dualstack-example-ns/src/murata-dualstack-example-ns.c ****   SHT31_begin(); 
 196:../../applications/murata-dualstack-example-ns/src/murata-dualstack-example-ns.c ****   LSM303AGR_initDefault();
 197:../../applications/murata-dualstack-example-ns/src/murata-dualstack-example-ns.c **** 
 198:../../applications/murata-dualstack-example-ns/src/murata-dualstack-example-ns.c ****   //initialize BLE
 199:../../applications/murata-dualstack-example-ns/src/murata-dualstack-example-ns.c ****   HAL_UART_Receive_IT(&BLE_UART, (uint8_t *)tmpbuf_ble, 10); 
 200:../../applications/murata-dualstack-example-ns/src/murata-dualstack-example-ns.c **** 
 201:../../applications/murata-dualstack-example-ns/src/murata-dualstack-example-ns.c ****   /* EXTI interrupt init*/
 202:../../applications/murata-dualstack-example-ns/src/murata-dualstack-example-ns.c ****   HAL_NVIC_SetPriority(EXTI1_IRQn, 0, 0);
 203:../../applications/murata-dualstack-example-ns/src/murata-dualstack-example-ns.c ****   HAL_NVIC_EnableIRQ(EXTI1_IRQn);
 204:../../applications/murata-dualstack-example-ns/src/murata-dualstack-example-ns.c **** 
 205:../../applications/murata-dualstack-example-ns/src/murata-dualstack-example-ns.c ****   // Print Welcome Message
 206:../../applications/murata-dualstack-example-ns/src/murata-dualstack-example-ns.c ****   printWelcome();
 207:../../applications/murata-dualstack-example-ns/src/murata-dualstack-example-ns.c ****   
 208:../../applications/murata-dualstack-example-ns/src/murata-dualstack-example-ns.c ****   // LORAWAN
 209:../../applications/murata-dualstack-example-ns/src/murata-dualstack-example-ns.c ****   murata_init = Murata_Initialize(short_UID, 0);
 210:../../applications/murata-dualstack-example-ns/src/murata-dualstack-example-ns.c **** 
 211:../../applications/murata-dualstack-example-ns/src/murata-dualstack-example-ns.c ****   if (murata_init)
 212:../../applications/murata-dualstack-example-ns/src/murata-dualstack-example-ns.c ****   {
 213:../../applications/murata-dualstack-example-ns/src/murata-dualstack-example-ns.c ****     printf("Murata dualstack module init OK\r\n\r\n");
 214:../../applications/murata-dualstack-example-ns/src/murata-dualstack-example-ns.c ****   }
 215:../../applications/murata-dualstack-example-ns/src/murata-dualstack-example-ns.c **** 
 216:../../applications/murata-dualstack-example-ns/src/murata-dualstack-example-ns.c **** 
 217:../../applications/murata-dualstack-example-ns/src/murata-dualstack-example-ns.c ****   /* USER CODE END 2 */
 218:../../applications/murata-dualstack-example-ns/src/murata-dualstack-example-ns.c **** 
 219:../../applications/murata-dualstack-example-ns/src/murata-dualstack-example-ns.c ****   /* USER CODE BEGIN RTOS_MUTEX */
 220:../../applications/murata-dualstack-example-ns/src/murata-dualstack-example-ns.c ****   /* add mutexes, ... */
 221:../../applications/murata-dualstack-example-ns/src/murata-dualstack-example-ns.c **** 
 222:../../applications/murata-dualstack-example-ns/src/murata-dualstack-example-ns.c ****   // TX MUTEX ensuring no transmits are happening at the same time
 223:../../applications/murata-dualstack-example-ns/src/murata-dualstack-example-ns.c **** 
 224:../../applications/murata-dualstack-example-ns/src/murata-dualstack-example-ns.c ****   /* USER CODE END RTOS_MUTEX */
 225:../../applications/murata-dualstack-example-ns/src/murata-dualstack-example-ns.c **** 
 226:../../applications/murata-dualstack-example-ns/src/murata-dualstack-example-ns.c ****   /* USER CODE BEGIN RTOS_SEMAPHORES */
 227:../../applications/murata-dualstack-example-ns/src/murata-dualstack-example-ns.c ****   /* add semaphores, ... */
 228:../../applications/murata-dualstack-example-ns/src/murata-dualstack-example-ns.c ****   /* USER CODE END RTOS_SEMAPHORES */
 229:../../applications/murata-dualstack-example-ns/src/murata-dualstack-example-ns.c **** 
 230:../../applications/murata-dualstack-example-ns/src/murata-dualstack-example-ns.c ****   /* Create the thread(s) */
 231:../../applications/murata-dualstack-example-ns/src/murata-dualstack-example-ns.c **** 
 232:../../applications/murata-dualstack-example-ns/src/murata-dualstack-example-ns.c ****   /* USER CODE BEGIN RTOS_TIMERS */
 233:../../applications/murata-dualstack-example-ns/src/murata-dualstack-example-ns.c ****   /* start timers, add new ones, ... */
 234:../../applications/murata-dualstack-example-ns/src/murata-dualstack-example-ns.c **** 
 235:../../applications/murata-dualstack-example-ns/src/murata-dualstack-example-ns.c ****   //feed IWDG every 5 seconds
 236:../../applications/murata-dualstack-example-ns/src/murata-dualstack-example-ns.c ****   //IWDG_feed(NULL);
 237:../../applications/murata-dualstack-example-ns/src/murata-dualstack-example-ns.c **** 
 238:../../applications/murata-dualstack-example-ns/src/murata-dualstack-example-ns.c ****   /* USER CODE END RTOS_TIMERS */
 239:../../applications/murata-dualstack-example-ns/src/murata-dualstack-example-ns.c **** 
 240:../../applications/murata-dualstack-example-ns/src/murata-dualstack-example-ns.c ****   /* USER CODE BEGIN RTOS_THREADS */
 241:../../applications/murata-dualstack-example-ns/src/murata-dualstack-example-ns.c ****   /* add threads, ... */
 242:../../applications/murata-dualstack-example-ns/src/murata-dualstack-example-ns.c **** 
 243:../../applications/murata-dualstack-example-ns/src/murata-dualstack-example-ns.c ****   /* USER CODE END RTOS_THREADS */
 244:../../applications/murata-dualstack-example-ns/src/murata-dualstack-example-ns.c **** 
ARM GAS  C:\Users\yvesk\AppData\Local\Temp\cc36v34U.s 			page 8


 245:../../applications/murata-dualstack-example-ns/src/murata-dualstack-example-ns.c ****   /* USER CODE BEGIN RTOS_QUEUES */
 246:../../applications/murata-dualstack-example-ns/src/murata-dualstack-example-ns.c ****   /* add queues, ... */
 247:../../applications/murata-dualstack-example-ns/src/murata-dualstack-example-ns.c ****   /* USER CODE END RTOS_QUEUES */
 248:../../applications/murata-dualstack-example-ns/src/murata-dualstack-example-ns.c **** 
 249:../../applications/murata-dualstack-example-ns/src/murata-dualstack-example-ns.c ****   /* Start scheduler */
 250:../../applications/murata-dualstack-example-ns/src/murata-dualstack-example-ns.c **** 
 251:../../applications/murata-dualstack-example-ns/src/murata-dualstack-example-ns.c ****   /* We should never get here as control is now taken by the scheduler */
 252:../../applications/murata-dualstack-example-ns/src/murata-dualstack-example-ns.c ****   //HAL_Delay(10000);
 253:../../applications/murata-dualstack-example-ns/src/murata-dualstack-example-ns.c ****   /* Infinite loop */
 254:../../applications/murata-dualstack-example-ns/src/murata-dualstack-example-ns.c ****   uint8_t counter = 0;
 255:../../applications/murata-dualstack-example-ns/src/murata-dualstack-example-ns.c ****   uint8_t use_lora = 1;
 256:../../applications/murata-dualstack-example-ns/src/murata-dualstack-example-ns.c ****   uint8_t timerValue = 0; 
 257:../../applications/murata-dualstack-example-ns/src/murata-dualstack-example-ns.c ****   /* USER CODE BEGIN WHILE */
 258:../../applications/murata-dualstack-example-ns/src/murata-dualstack-example-ns.c ****   while (1)
 259:../../applications/murata-dualstack-example-ns/src/murata-dualstack-example-ns.c ****   { 
 260:../../applications/murata-dualstack-example-ns/src/murata-dualstack-example-ns.c ****      IWDG_feed(NULL);
 261:../../applications/murata-dualstack-example-ns/src/murata-dualstack-example-ns.c ****     //HAL_Delay(5000);
 262:../../applications/murata-dualstack-example-ns/src/murata-dualstack-example-ns.c ****     if(murata_data_ready)
 263:../../applications/murata-dualstack-example-ns/src/murata-dualstack-example-ns.c ****     {
 264:../../applications/murata-dualstack-example-ns/src/murata-dualstack-example-ns.c ****       printf("processing murata fifo\r\n");
 265:../../applications/murata-dualstack-example-ns/src/murata-dualstack-example-ns.c ****       murata_data_ready = !Murata_process_fifo();
 266:../../applications/murata-dualstack-example-ns/src/murata-dualstack-example-ns.c ****     }
 267:../../applications/murata-dualstack-example-ns/src/murata-dualstack-example-ns.c **** 
 268:../../applications/murata-dualstack-example-ns/src/murata-dualstack-example-ns.c **** 
 269:../../applications/murata-dualstack-example-ns/src/murata-dualstack-example-ns.c ****     //------gekopieerd van no-scheduler-example------
 270:../../applications/murata-dualstack-example-ns/src/murata-dualstack-example-ns.c ****      IWDG_feed(NULL); 
 271:../../applications/murata-dualstack-example-ns/src/murata-dualstack-example-ns.c ****     
 272:../../applications/murata-dualstack-example-ns/src/murata-dualstack-example-ns.c ****     //LSM303AGR_readRegister(0x31, data, 0);
 273:../../applications/murata-dualstack-example-ns/src/murata-dualstack-example-ns.c **** 
 274:../../applications/murata-dualstack-example-ns/src/murata-dualstack-example-ns.c ****     //als op de button wordt gedrukt zal in de interrupthandler de changeAcceleroMode op 1 worden g
 275:../../applications/murata-dualstack-example-ns/src/murata-dualstack-example-ns.c ****     if(changeAcceleroMode==1){
 276:../../applications/murata-dualstack-example-ns/src/murata-dualstack-example-ns.c **** 
 277:../../applications/murata-dualstack-example-ns/src/murata-dualstack-example-ns.c ****       if(repMode==1){
 278:../../applications/murata-dualstack-example-ns/src/murata-dualstack-example-ns.c ****         // send dash7 message with all info when user starts repping
 279:../../applications/murata-dualstack-example-ns/src/murata-dualstack-example-ns.c ****         LSM303AGR_initDouble();         //vanaf laten we de accelorometer enkel interrupten bij een
 280:../../applications/murata-dualstack-example-ns/src/murata-dualstack-example-ns.c ****         printf("Started Repping\r\n");
 281:../../applications/murata-dualstack-example-ns/src/murata-dualstack-example-ns.c ****         printf("LSM in double click mode \r\n");
 282:../../applications/murata-dualstack-example-ns/src/murata-dualstack-example-ns.c ****         if (murata_init) {
 283:../../applications/murata-dualstack-example-ns/src/murata-dualstack-example-ns.c ****           printf("Sending D7 Message with BLE info + temp + hum\r\n");
 284:../../applications/murata-dualstack-example-ns/src/murata-dualstack-example-ns.c ****           temp_hum_measurement();
 285:../../applications/murata-dualstack-example-ns/src/murata-dualstack-example-ns.c ****           send_message(1);
 286:../../applications/murata-dualstack-example-ns/src/murata-dualstack-example-ns.c ****           //LoRaWAN_send(NULL);
 287:../../applications/murata-dualstack-example-ns/src/murata-dualstack-example-ns.c ****           printf("Failure counter = %d\r\n",failureCounter);
 288:../../applications/murata-dualstack-example-ns/src/murata-dualstack-example-ns.c **** 
 289:../../applications/murata-dualstack-example-ns/src/murata-dualstack-example-ns.c ****         //TODO: Send BLE info
 290:../../applications/murata-dualstack-example-ns/src/murata-dualstack-example-ns.c ****         }
 291:../../applications/murata-dualstack-example-ns/src/murata-dualstack-example-ns.c ****         
 292:../../applications/murata-dualstack-example-ns/src/murata-dualstack-example-ns.c ****       }else{
 293:../../applications/murata-dualstack-example-ns/src/murata-dualstack-example-ns.c ****         // send dash7 message with all info when user stopped repping
 294:../../applications/murata-dualstack-example-ns/src/murata-dualstack-example-ns.c ****         LSM303AGR_initDefault();    //vanaf nu laten we de accelerometer interrupten bij elke beweg
 295:../../applications/murata-dualstack-example-ns/src/murata-dualstack-example-ns.c ****         printf("Stopped Repping\nLSM in default mode \r\n\n");
 296:../../applications/murata-dualstack-example-ns/src/murata-dualstack-example-ns.c ****         if (murata_init) {
 297:../../applications/murata-dualstack-example-ns/src/murata-dualstack-example-ns.c ****           printf("Sending D7 Message with BLE info + temp + hum + amount of reps\r\n");
 298:../../applications/murata-dualstack-example-ns/src/murata-dualstack-example-ns.c ****           temp_hum_measurement();
 299:../../applications/murata-dualstack-example-ns/src/murata-dualstack-example-ns.c ****         //Dash7_send_temphum();
 300:../../applications/murata-dualstack-example-ns/src/murata-dualstack-example-ns.c ****           send_message(2); 
 301:../../applications/murata-dualstack-example-ns/src/murata-dualstack-example-ns.c ****           //LoRaWAN_send(NULL);
ARM GAS  C:\Users\yvesk\AppData\Local\Temp\cc36v34U.s 			page 9


 302:../../applications/murata-dualstack-example-ns/src/murata-dualstack-example-ns.c **** 
 303:../../applications/murata-dualstack-example-ns/src/murata-dualstack-example-ns.c ****         //TODO: Also send BLE info and reps
 304:../../applications/murata-dualstack-example-ns/src/murata-dualstack-example-ns.c **** 
 305:../../applications/murata-dualstack-example-ns/src/murata-dualstack-example-ns.c ****         //Set reps to zero again, for the next user
 306:../../applications/murata-dualstack-example-ns/src/murata-dualstack-example-ns.c ****         }
 307:../../applications/murata-dualstack-example-ns/src/murata-dualstack-example-ns.c ****         rep_counter=0;  //reset the rep counter
 308:../../applications/murata-dualstack-example-ns/src/murata-dualstack-example-ns.c ****       }
 309:../../applications/murata-dualstack-example-ns/src/murata-dualstack-example-ns.c ****       changeAcceleroMode=0; //set acceleromode flag back to zero
 310:../../applications/murata-dualstack-example-ns/src/murata-dualstack-example-ns.c **** 
 311:../../applications/murata-dualstack-example-ns/src/murata-dualstack-example-ns.c ****     }
 312:../../applications/murata-dualstack-example-ns/src/murata-dualstack-example-ns.c **** 
 313:../../applications/murata-dualstack-example-ns/src/murata-dualstack-example-ns.c ****     //de interrupt zal zorgen dat de flag op 1 staat, dan doen we een measurement van temp
 314:../../applications/murata-dualstack-example-ns/src/murata-dualstack-example-ns.c ****     if (repFlag==1) {
 315:../../applications/murata-dualstack-example-ns/src/murata-dualstack-example-ns.c ****       if (repMode==1) {
 316:../../applications/murata-dualstack-example-ns/src/murata-dualstack-example-ns.c ****       // Request to enter SLEEP mode
 317:../../applications/murata-dualstack-example-ns/src/murata-dualstack-example-ns.c ****       timerValue = __HAL_TIM_GET_COUNTER(&localisation_timer);
 318:../../applications/murata-dualstack-example-ns/src/murata-dualstack-example-ns.c ****       printf("Timer value: %d,\r\n\r\n",timerValue);
 319:../../applications/murata-dualstack-example-ns/src/murata-dualstack-example-ns.c ****       rep_counter++; 
 320:../../applications/murata-dualstack-example-ns/src/murata-dualstack-example-ns.c ****       printf("Rep counter: %d,\r\n\r\n",rep_counter);
 321:../../applications/murata-dualstack-example-ns/src/murata-dualstack-example-ns.c **** 
 322:../../applications/murata-dualstack-example-ns/src/murata-dualstack-example-ns.c ****       } 
 323:../../applications/murata-dualstack-example-ns/src/murata-dualstack-example-ns.c ****         //reset de inactive timer want accelerometer interrupt
 324:../../applications/murata-dualstack-example-ns/src/murata-dualstack-example-ns.c ****         // HAL_TIM_Base_Stop_IT(&inactive_timer);    
 325:../../applications/murata-dualstack-example-ns/src/murata-dualstack-example-ns.c ****  
 326:../../applications/murata-dualstack-example-ns/src/murata-dualstack-example-ns.c **** 
 327:../../applications/murata-dualstack-example-ns/src/murata-dualstack-example-ns.c ****       //  __HAL_TIM_SET_COUNTER(&inactive_timer, 0);
 328:../../applications/murata-dualstack-example-ns/src/murata-dualstack-example-ns.c ****  
 329:../../applications/murata-dualstack-example-ns/src/murata-dualstack-example-ns.c **** 
 330:../../applications/murata-dualstack-example-ns/src/murata-dualstack-example-ns.c ****         //HAL_TIM_Base_Start_IT(&inactive_timer);         
 331:../../applications/murata-dualstack-example-ns/src/murata-dualstack-example-ns.c **** 
 332:../../applications/murata-dualstack-example-ns/src/murata-dualstack-example-ns.c ****       
 333:../../applications/murata-dualstack-example-ns/src/murata-dualstack-example-ns.c ****       
 334:../../applications/murata-dualstack-example-ns/src/murata-dualstack-example-ns.c ****           repFlag=0; 
 335:../../applications/murata-dualstack-example-ns/src/murata-dualstack-example-ns.c ****     }  
 336:../../applications/murata-dualstack-example-ns/src/murata-dualstack-example-ns.c **** 
 337:../../applications/murata-dualstack-example-ns/src/murata-dualstack-example-ns.c **** 
 338:../../applications/murata-dualstack-example-ns/src/murata-dualstack-example-ns.c **** 
 339:../../applications/murata-dualstack-example-ns/src/murata-dualstack-example-ns.c ****     if(timer2flag==1) {
 340:../../applications/murata-dualstack-example-ns/src/murata-dualstack-example-ns.c ****        //send dash7 localisation message
 341:../../applications/murata-dualstack-example-ns/src/murata-dualstack-example-ns.c ****       if (murata_init) {
 342:../../applications/murata-dualstack-example-ns/src/murata-dualstack-example-ns.c ****         printf("Sending dash7 localisation message (once per minute)\r\n\r\n");
 343:../../applications/murata-dualstack-example-ns/src/murata-dualstack-example-ns.c ****           temp_hum_measurement();
 344:../../applications/murata-dualstack-example-ns/src/murata-dualstack-example-ns.c ****         send_message(1);
 345:../../applications/murata-dualstack-example-ns/src/murata-dualstack-example-ns.c ****          
 346:../../applications/murata-dualstack-example-ns/src/murata-dualstack-example-ns.c ****       }
 347:../../applications/murata-dualstack-example-ns/src/murata-dualstack-example-ns.c ****      timer2flag=0;
 348:../../applications/murata-dualstack-example-ns/src/murata-dualstack-example-ns.c ****     }
 349:../../applications/murata-dualstack-example-ns/src/murata-dualstack-example-ns.c ****     // go to sleep
 350:../../applications/murata-dualstack-example-ns/src/murata-dualstack-example-ns.c ****      if(timer3flag==1) {
 351:../../applications/murata-dualstack-example-ns/src/murata-dualstack-example-ns.c ****       
 352:../../applications/murata-dualstack-example-ns/src/murata-dualstack-example-ns.c ****       if (murata_init) {
 353:../../applications/murata-dualstack-example-ns/src/murata-dualstack-example-ns.c ****         
 354:../../applications/murata-dualstack-example-ns/src/murata-dualstack-example-ns.c ****         printf("Sending dash7 go to sleep message (once per minute)\r\n\r\n");
 355:../../applications/murata-dualstack-example-ns/src/murata-dualstack-example-ns.c ****         temp_hum_measurement();
 356:../../applications/murata-dualstack-example-ns/src/murata-dualstack-example-ns.c ****         send_message(1); 
 357:../../applications/murata-dualstack-example-ns/src/murata-dualstack-example-ns.c ****         goToSleep(); 
 358:../../applications/murata-dualstack-example-ns/src/murata-dualstack-example-ns.c ****       }
ARM GAS  C:\Users\yvesk\AppData\Local\Temp\cc36v34U.s 			page 10


 359:../../applications/murata-dualstack-example-ns/src/murata-dualstack-example-ns.c ****      timer3flag=0;
 360:../../applications/murata-dualstack-example-ns/src/murata-dualstack-example-ns.c ****     } 
 361:../../applications/murata-dualstack-example-ns/src/murata-dualstack-example-ns.c **** 
 362:../../applications/murata-dualstack-example-ns/src/murata-dualstack-example-ns.c ****     if (failureCounter==3) {
 363:../../applications/murata-dualstack-example-ns/src/murata-dualstack-example-ns.c ****       printf("Going to LoRaWAN mode\r\n\r\n");
 364:../../applications/murata-dualstack-example-ns/src/murata-dualstack-example-ns.c ****       messageMode=1;      //go to lorawanmode
 365:../../applications/murata-dualstack-example-ns/src/murata-dualstack-example-ns.c ****       successCounter=0;
 366:../../applications/murata-dualstack-example-ns/src/murata-dualstack-example-ns.c ****       failureCounter=4; 
 367:../../applications/murata-dualstack-example-ns/src/murata-dualstack-example-ns.c ****     }
 368:../../applications/murata-dualstack-example-ns/src/murata-dualstack-example-ns.c **** 
 369:../../applications/murata-dualstack-example-ns/src/murata-dualstack-example-ns.c ****      if (successCounter==1) {
 370:../../applications/murata-dualstack-example-ns/src/murata-dualstack-example-ns.c ****       printf("Going to dash7 mode\r\n\r\n");
 371:../../applications/murata-dualstack-example-ns/src/murata-dualstack-example-ns.c ****       messageMode=0;    //go to dash7mode
 372:../../applications/murata-dualstack-example-ns/src/murata-dualstack-example-ns.c ****       successCounter=2;     //step over the 1 value so that between messages this if isn't accessed
 373:../../applications/murata-dualstack-example-ns/src/murata-dualstack-example-ns.c ****     }
 374:../../applications/murata-dualstack-example-ns/src/murata-dualstack-example-ns.c **** 
 375:../../applications/murata-dualstack-example-ns/src/murata-dualstack-example-ns.c **** 
 376:../../applications/murata-dualstack-example-ns/src/murata-dualstack-example-ns.c ****     if (BLE_flag) {
 377:../../applications/murata-dualstack-example-ns/src/murata-dualstack-example-ns.c ****       ble_callback(); 
 378:../../applications/murata-dualstack-example-ns/src/murata-dualstack-example-ns.c ****       BLE_flag = 0; 
 379:../../applications/murata-dualstack-example-ns/src/murata-dualstack-example-ns.c ****       printf("callback flag \r\n");
 380:../../applications/murata-dualstack-example-ns/src/murata-dualstack-example-ns.c ****     }
 381:../../applications/murata-dualstack-example-ns/src/murata-dualstack-example-ns.c **** 
 382:../../applications/murata-dualstack-example-ns/src/murata-dualstack-example-ns.c ****     // SEND 5 D7 messages, every 10 sec.
 383:../../applications/murata-dualstack-example-ns/src/murata-dualstack-example-ns.c ****     // Afterwards, send 3 LoRaWAN messages, every minute
 384:../../applications/murata-dualstack-example-ns/src/murata-dualstack-example-ns.c ****    /*  if(DASH7_Counter<5)
 385:../../applications/murata-dualstack-example-ns/src/murata-dualstack-example-ns.c ****     {
 386:../../applications/murata-dualstack-example-ns/src/murata-dualstack-example-ns.c ****       if(counter==DASH7_INTERVAL)
 387:../../applications/murata-dualstack-example-ns/src/murata-dualstack-example-ns.c ****       {
 388:../../applications/murata-dualstack-example-ns/src/murata-dualstack-example-ns.c ****         Dash7_send(NULL);
 389:../../applications/murata-dualstack-example-ns/src/murata-dualstack-example-ns.c ****         counter = 0;
 390:../../applications/murata-dualstack-example-ns/src/murata-dualstack-example-ns.c ****       }
 391:../../applications/murata-dualstack-example-ns/src/murata-dualstack-example-ns.c ****     }
 392:../../applications/murata-dualstack-example-ns/src/murata-dualstack-example-ns.c ****     else
 393:../../applications/murata-dualstack-example-ns/src/murata-dualstack-example-ns.c ****     { 
 394:../../applications/murata-dualstack-example-ns/src/murata-dualstack-example-ns.c ****       if(LoRaWAN_Counter == 0)
 395:../../applications/murata-dualstack-example-ns/src/murata-dualstack-example-ns.c ****         Murata_LoRaWAN_Join();
 396:../../applications/murata-dualstack-example-ns/src/murata-dualstack-example-ns.c ****       if(LoRaWAN_Counter<3)
 397:../../applications/murata-dualstack-example-ns/src/murata-dualstack-example-ns.c ****       {
 398:../../applications/murata-dualstack-example-ns/src/murata-dualstack-example-ns.c ****         if (counter == LORAWAN_INTERVAL)
 399:../../applications/murata-dualstack-example-ns/src/murata-dualstack-example-ns.c ****         {
 400:../../applications/murata-dualstack-example-ns/src/murata-dualstack-example-ns.c ****           LoRaWAN_send(NULL);
 401:../../applications/murata-dualstack-example-ns/src/murata-dualstack-example-ns.c ****           counter = 0;
 402:../../applications/murata-dualstack-example-ns/src/murata-dualstack-example-ns.c ****         }
 403:../../applications/murata-dualstack-example-ns/src/murata-dualstack-example-ns.c ****       }
 404:../../applications/murata-dualstack-example-ns/src/murata-dualstack-example-ns.c ****       if(LoRaWAN_Counter == 3)
 405:../../applications/murata-dualstack-example-ns/src/murata-dualstack-example-ns.c ****       {
 406:../../applications/murata-dualstack-example-ns/src/murata-dualstack-example-ns.c ****         //reset counters to restart flow
 407:../../applications/murata-dualstack-example-ns/src/murata-dualstack-example-ns.c ****         DASH7_Counter = 0;
 408:../../applications/murata-dualstack-example-ns/src/murata-dualstack-example-ns.c ****         LoRaWAN_Counter = 0;
 409:../../applications/murata-dualstack-example-ns/src/murata-dualstack-example-ns.c ****       }
 410:../../applications/murata-dualstack-example-ns/src/murata-dualstack-example-ns.c ****     }
 411:../../applications/murata-dualstack-example-ns/src/murata-dualstack-example-ns.c ****    
 412:../../applications/murata-dualstack-example-ns/src/murata-dualstack-example-ns.c ****     counter++; */
 413:../../applications/murata-dualstack-example-ns/src/murata-dualstack-example-ns.c ****     //HAL_Delay(1000);
 414:../../applications/murata-dualstack-example-ns/src/murata-dualstack-example-ns.c ****     
 415:../../applications/murata-dualstack-example-ns/src/murata-dualstack-example-ns.c **** 
ARM GAS  C:\Users\yvesk\AppData\Local\Temp\cc36v34U.s 			page 11


 416:../../applications/murata-dualstack-example-ns/src/murata-dualstack-example-ns.c ****     /* USER CODE END WHILE */
 417:../../applications/murata-dualstack-example-ns/src/murata-dualstack-example-ns.c ****     
 418:../../applications/murata-dualstack-example-ns/src/murata-dualstack-example-ns.c ****     /* USER CODE BEGIN 3 */
 419:../../applications/murata-dualstack-example-ns/src/murata-dualstack-example-ns.c ****   }
 420:../../applications/murata-dualstack-example-ns/src/murata-dualstack-example-ns.c ****   /* USER CODE END 3 */
 421:../../applications/murata-dualstack-example-ns/src/murata-dualstack-example-ns.c **** }
 422:../../applications/murata-dualstack-example-ns/src/murata-dualstack-example-ns.c **** 
 423:../../applications/murata-dualstack-example-ns/src/murata-dualstack-example-ns.c **** void goToSleep(void) {
 161              		.loc 1 423 22 is_stmt 1 view -0
 162              		.cfi_startproc
 163              		@ args = 0, pretend = 0, frame = 0
 164              		@ frame_needed = 0, uses_anonymous_args = 0
 165 0000 08B5     		push	{r3, lr}
 166              	.LCFI4:
 167              		.cfi_def_cfa_offset 8
 168              		.cfi_offset 3, -8
 169              		.cfi_offset 14, -4
 424:../../applications/murata-dualstack-example-ns/src/murata-dualstack-example-ns.c ****   
 425:../../applications/murata-dualstack-example-ns/src/murata-dualstack-example-ns.c ****       printf("going into sleepmode\r\n"); 
 170              		.loc 1 425 7 view .LVU35
 171 0002 0A48     		ldr	r0, .L11
 172 0004 FFF7FEFF 		bl	puts
 173              	.LVL0:
 426:../../applications/murata-dualstack-example-ns/src/murata-dualstack-example-ns.c ****        HAL_SuspendTick(); 
 174              		.loc 1 426 8 view .LVU36
 175 0008 FFF7FEFF 		bl	HAL_SuspendTick
 176              	.LVL1:
 427:../../applications/murata-dualstack-example-ns/src/murata-dualstack-example-ns.c **** 
 428:../../applications/murata-dualstack-example-ns/src/murata-dualstack-example-ns.c ****       HAL_PWR_EnterSTOPMode(PWR_MAINREGULATOR_ON, PWR_SLEEPENTRY_WFI);
 177              		.loc 1 428 7 view .LVU37
 178 000c 0121     		movs	r1, #1
 179 000e 0020     		movs	r0, #0
 180 0010 FFF7FEFF 		bl	HAL_PWR_EnterSTOPMode
 181              	.LVL2:
 429:../../applications/murata-dualstack-example-ns/src/murata-dualstack-example-ns.c **** 
 430:../../applications/murata-dualstack-example-ns/src/murata-dualstack-example-ns.c ****       HAL_ResumeTick(); 
 182              		.loc 1 430 7 view .LVU38
 183 0014 FFF7FEFF 		bl	HAL_ResumeTick
 184              	.LVL3:
 431:../../applications/murata-dualstack-example-ns/src/murata-dualstack-example-ns.c ****       SystemClock_Config(); 
 185              		.loc 1 431 7 view .LVU39
 186 0018 FFF7FEFF 		bl	SystemClock_Config
 187              	.LVL4:
 432:../../applications/murata-dualstack-example-ns/src/murata-dualstack-example-ns.c ****       printf(" came out of sleepmode \r\n");  
 188              		.loc 1 432 7 view .LVU40
 189 001c 0448     		ldr	r0, .L11+4
 190 001e FFF7FEFF 		bl	puts
 191              	.LVL5:
 433:../../applications/murata-dualstack-example-ns/src/murata-dualstack-example-ns.c ****       timer3_first=0;  
 192              		.loc 1 433 7 view .LVU41
 193              		.loc 1 433 19 is_stmt 0 view .LVU42
 194 0022 044B     		ldr	r3, .L11+8
 195 0024 0022     		movs	r2, #0
 196 0026 1A70     		strb	r2, [r3]
 434:../../applications/murata-dualstack-example-ns/src/murata-dualstack-example-ns.c **** }
 197              		.loc 1 434 1 view .LVU43
 198 0028 08BD     		pop	{r3, pc}
ARM GAS  C:\Users\yvesk\AppData\Local\Temp\cc36v34U.s 			page 12


 199              	.L12:
 200 002a 00BF     		.align	2
 201              	.L11:
 202 002c 00000000 		.word	.LC0
 203 0030 18000000 		.word	.LC1
 204 0034 00000000 		.word	.LANCHOR2
 205              		.cfi_endproc
 206              	.LFE135:
 208              		.section	.text.LoRaWAN_send,"ax",%progbits
 209              		.align	1
 210              		.global	LoRaWAN_send
 211              		.syntax unified
 212              		.thumb
 213              		.thumb_func
 214              		.fpu fpv4-sp-d16
 216              	LoRaWAN_send:
 217              	.LVL6:
 218              	.LFB137:
 435:../../applications/murata-dualstack-example-ns/src/murata-dualstack-example-ns.c **** 
 436:../../applications/murata-dualstack-example-ns/src/murata-dualstack-example-ns.c **** //----------------------------------------------------------start send message methods-------------
 437:../../applications/murata-dualstack-example-ns/src/murata-dualstack-example-ns.c **** 
 438:../../applications/murata-dualstack-example-ns/src/murata-dualstack-example-ns.c **** void send_message(uint8_t type) {
 439:../../applications/murata-dualstack-example-ns/src/murata-dualstack-example-ns.c ****   if (messageMode==0) {                 //dash7mode
 440:../../applications/murata-dualstack-example-ns/src/murata-dualstack-example-ns.c ****     switch (type) {
 441:../../applications/murata-dualstack-example-ns/src/murata-dualstack-example-ns.c ****       case 1:
 442:../../applications/murata-dualstack-example-ns/src/murata-dualstack-example-ns.c ****       messageCounter++;
 443:../../applications/murata-dualstack-example-ns/src/murata-dualstack-example-ns.c ****       Dash7_send_temphum();  
 444:../../applications/murata-dualstack-example-ns/src/murata-dualstack-example-ns.c ****       printf("sending temphum message\r\n");
 445:../../applications/murata-dualstack-example-ns/src/murata-dualstack-example-ns.c ****       break; 
 446:../../applications/murata-dualstack-example-ns/src/murata-dualstack-example-ns.c ****       case 2:
 447:../../applications/murata-dualstack-example-ns/src/murata-dualstack-example-ns.c ****       messageCounter++;
 448:../../applications/murata-dualstack-example-ns/src/murata-dualstack-example-ns.c ****       Dash7_send_allInfo();
 449:../../applications/murata-dualstack-example-ns/src/murata-dualstack-example-ns.c ****       printf("sending allinfo message\r\n");
 450:../../applications/murata-dualstack-example-ns/src/murata-dualstack-example-ns.c ****       break; 
 451:../../applications/murata-dualstack-example-ns/src/murata-dualstack-example-ns.c ****       default:
 452:../../applications/murata-dualstack-example-ns/src/murata-dualstack-example-ns.c ****       printf("No case was matched\r\n"); 
 453:../../applications/murata-dualstack-example-ns/src/murata-dualstack-example-ns.c ****       break;  
 454:../../applications/murata-dualstack-example-ns/src/murata-dualstack-example-ns.c ****     }
 455:../../applications/murata-dualstack-example-ns/src/murata-dualstack-example-ns.c ****   } else {                               //lorawanmode
 456:../../applications/murata-dualstack-example-ns/src/murata-dualstack-example-ns.c ****       LoRaWAN_send(NULL);  
 457:../../applications/murata-dualstack-example-ns/src/murata-dualstack-example-ns.c ****       Dash7_send_temphum(); 
 458:../../applications/murata-dualstack-example-ns/src/murata-dualstack-example-ns.c ****       printf("sending out of reach lorawan message\r\n");
 459:../../applications/murata-dualstack-example-ns/src/murata-dualstack-example-ns.c ****   }
 460:../../applications/murata-dualstack-example-ns/src/murata-dualstack-example-ns.c **** }
 461:../../applications/murata-dualstack-example-ns/src/murata-dualstack-example-ns.c **** 
 462:../../applications/murata-dualstack-example-ns/src/murata-dualstack-example-ns.c **** 
 463:../../applications/murata-dualstack-example-ns/src/murata-dualstack-example-ns.c **** 
 464:../../applications/murata-dualstack-example-ns/src/murata-dualstack-example-ns.c **** void LoRaWAN_send(void const *argument)
 465:../../applications/murata-dualstack-example-ns/src/murata-dualstack-example-ns.c **** {
 219              		.loc 1 465 1 is_stmt 1 view -0
 220              		.cfi_startproc
 221              		@ args = 0, pretend = 0, frame = 8
 222              		@ frame_needed = 0, uses_anonymous_args = 0
 223              		.loc 1 465 1 is_stmt 0 view .LVU45
 224 0000 00B5     		push	{lr}
 225              	.LCFI5:
 226              		.cfi_def_cfa_offset 4
ARM GAS  C:\Users\yvesk\AppData\Local\Temp\cc36v34U.s 			page 13


 227              		.cfi_offset 14, -4
 228 0002 83B0     		sub	sp, sp, #12
 229              	.LCFI6:
 230              		.cfi_def_cfa_offset 16
 466:../../applications/murata-dualstack-example-ns/src/murata-dualstack-example-ns.c ****   if (murata_init)
 231              		.loc 1 466 3 is_stmt 1 view .LVU46
 232              		.loc 1 466 7 is_stmt 0 view .LVU47
 233 0004 174B     		ldr	r3, .L19
 234 0006 1B78     		ldrb	r3, [r3]	@ zero_extendqisi2
 235              		.loc 1 466 6 view .LVU48
 236 0008 3BB3     		cbz	r3, .L14
 237              	.LBB4:
 467:../../applications/murata-dualstack-example-ns/src/murata-dualstack-example-ns.c ****   {
 468:../../applications/murata-dualstack-example-ns/src/murata-dualstack-example-ns.c ****     uint8_t loraMessage[5];
 238              		.loc 1 468 5 is_stmt 1 view .LVU49
 469:../../applications/murata-dualstack-example-ns/src/murata-dualstack-example-ns.c ****     uint8_t i = 0;
 239              		.loc 1 469 5 view .LVU50
 240              	.LVL7:
 470:../../applications/murata-dualstack-example-ns/src/murata-dualstack-example-ns.c ****     //uint16 counter to uint8 array (little endian)
 471:../../applications/murata-dualstack-example-ns/src/murata-dualstack-example-ns.c ****     //counter (large) type byte
 472:../../applications/murata-dualstack-example-ns/src/murata-dualstack-example-ns.c ****     loraMessage[i++] = SHTData[0];
 241              		.loc 1 472 5 view .LVU51
 242              		.loc 1 472 31 is_stmt 0 view .LVU52
 243 000a 174A     		ldr	r2, .L19+4
 244 000c D2ED007A 		vldr.32	s15, [r2]
 245              	.LVL8:
 246              		.loc 1 472 22 view .LVU53
 247 0010 FCEEE77A 		vcvt.u32.f32	s15, s15
 248 0014 17EE903A 		vmov	r3, s15	@ int
 249 0018 8DF80030 		strb	r3, [sp]
 473:../../applications/murata-dualstack-example-ns/src/murata-dualstack-example-ns.c ****     loraMessage[i++] = SHTData[1];
 250              		.loc 1 473 5 is_stmt 1 view .LVU54
 251              		.loc 1 473 31 is_stmt 0 view .LVU55
 252 001c D2ED017A 		vldr.32	s15, [r2, #4]
 253              	.LVL9:
 254              		.loc 1 473 22 view .LVU56
 255 0020 FCEEE77A 		vcvt.u32.f32	s15, s15
 256 0024 17EE903A 		vmov	r3, s15	@ int
 257 0028 8DF80130 		strb	r3, [sp, #1]
 474:../../applications/murata-dualstack-example-ns/src/murata-dualstack-example-ns.c ****     loraMessage[i++] = 0x00;
 258              		.loc 1 474 5 is_stmt 1 view .LVU57
 259              	.LVL10:
 260              		.loc 1 474 22 is_stmt 0 view .LVU58
 261 002c 0023     		movs	r3, #0
 262 002e 8DF80230 		strb	r3, [sp, #2]
 475:../../applications/murata-dualstack-example-ns/src/murata-dualstack-example-ns.c ****     
 476:../../applications/murata-dualstack-example-ns/src/murata-dualstack-example-ns.c ****     //osMutexWait(txMutexId, osWaitForever);
 477:../../applications/murata-dualstack-example-ns/src/murata-dualstack-example-ns.c ****     if(!Murata_LoRaWAN_Send((uint8_t *)loraMessage, i))
 263              		.loc 1 477 5 is_stmt 1 view .LVU59
 264              		.loc 1 477 9 is_stmt 0 view .LVU60
 265 0032 0321     		movs	r1, #3
 266 0034 6846     		mov	r0, sp
 267              	.LVL11:
 268              		.loc 1 477 9 view .LVU61
 269 0036 FFF7FEFF 		bl	Murata_LoRaWAN_Send
 270              	.LVL12:
 271              		.loc 1 477 7 view .LVU62
ARM GAS  C:\Users\yvesk\AppData\Local\Temp\cc36v34U.s 			page 14


 272 003a 50B9     		cbnz	r0, .L15
 478:../../applications/murata-dualstack-example-ns/src/murata-dualstack-example-ns.c ****     {
 479:../../applications/murata-dualstack-example-ns/src/murata-dualstack-example-ns.c ****       murata_init++;
 273              		.loc 1 479 7 is_stmt 1 view .LVU63
 274              		.loc 1 479 18 is_stmt 0 view .LVU64
 275 003c 094A     		ldr	r2, .L19
 276 003e 1378     		ldrb	r3, [r2]	@ zero_extendqisi2
 277 0040 0133     		adds	r3, r3, #1
 278 0042 1370     		strb	r3, [r2]
 480:../../applications/murata-dualstack-example-ns/src/murata-dualstack-example-ns.c ****       if(murata_init == 10)
 279              		.loc 1 480 7 is_stmt 1 view .LVU65
 280              	.L16:
 481:../../applications/murata-dualstack-example-ns/src/murata-dualstack-example-ns.c ****         murata_init == 0;
 482:../../applications/murata-dualstack-example-ns/src/murata-dualstack-example-ns.c ****     }
 483:../../applications/murata-dualstack-example-ns/src/murata-dualstack-example-ns.c ****     else
 484:../../applications/murata-dualstack-example-ns/src/murata-dualstack-example-ns.c ****     {
 485:../../applications/murata-dualstack-example-ns/src/murata-dualstack-example-ns.c ****       murata_init = 1;
 486:../../applications/murata-dualstack-example-ns/src/murata-dualstack-example-ns.c ****     }
 487:../../applications/murata-dualstack-example-ns/src/murata-dualstack-example-ns.c ****     //BLOCK TX MUTEX FOR 3s
 488:../../applications/murata-dualstack-example-ns/src/murata-dualstack-example-ns.c ****     //osDelay(3000);
 489:../../applications/murata-dualstack-example-ns/src/murata-dualstack-example-ns.c ****     //osMutexRelease(txMutexId);
 490:../../applications/murata-dualstack-example-ns/src/murata-dualstack-example-ns.c ****     LoRaWAN_Counter++;
 281              		.loc 1 490 5 discriminator 1 view .LVU66
 282              		.loc 1 490 20 is_stmt 0 discriminator 1 view .LVU67
 283 0044 094A     		ldr	r2, .L19+8
 284 0046 1388     		ldrh	r3, [r2]
 285 0048 0133     		adds	r3, r3, #1
 286 004a 1380     		strh	r3, [r2]	@ movhi
 287              	.LVL13:
 288              	.L13:
 289              		.loc 1 490 20 discriminator 1 view .LVU68
 290              	.LBE4:
 491:../../applications/murata-dualstack-example-ns/src/murata-dualstack-example-ns.c ****   }
 492:../../applications/murata-dualstack-example-ns/src/murata-dualstack-example-ns.c ****   else{
 493:../../applications/murata-dualstack-example-ns/src/murata-dualstack-example-ns.c ****     printf("murata not initialized, not sending\r\n");
 494:../../applications/murata-dualstack-example-ns/src/murata-dualstack-example-ns.c ****   }
 495:../../applications/murata-dualstack-example-ns/src/murata-dualstack-example-ns.c **** }
 291              		.loc 1 495 1 view .LVU69
 292 004c 03B0     		add	sp, sp, #12
 293              	.LCFI7:
 294              		.cfi_remember_state
 295              		.cfi_def_cfa_offset 4
 296              		@ sp needed
 297 004e 5DF804FB 		ldr	pc, [sp], #4
 298              	.LVL14:
 299              	.L15:
 300              	.LCFI8:
 301              		.cfi_restore_state
 302              	.LBB5:
 485:../../applications/murata-dualstack-example-ns/src/murata-dualstack-example-ns.c ****     }
 303              		.loc 1 485 7 is_stmt 1 view .LVU70
 485:../../applications/murata-dualstack-example-ns/src/murata-dualstack-example-ns.c ****     }
 304              		.loc 1 485 19 is_stmt 0 view .LVU71
 305 0052 044B     		ldr	r3, .L19
 306 0054 0122     		movs	r2, #1
 307 0056 1A70     		strb	r2, [r3]
 308 0058 F4E7     		b	.L16
ARM GAS  C:\Users\yvesk\AppData\Local\Temp\cc36v34U.s 			page 15


 309              	.LVL15:
 310              	.L14:
 485:../../applications/murata-dualstack-example-ns/src/murata-dualstack-example-ns.c ****     }
 311              		.loc 1 485 19 view .LVU72
 312              	.LBE5:
 493:../../applications/murata-dualstack-example-ns/src/murata-dualstack-example-ns.c ****   }
 313              		.loc 1 493 5 is_stmt 1 view .LVU73
 314 005a 0548     		ldr	r0, .L19+12
 315              	.LVL16:
 493:../../applications/murata-dualstack-example-ns/src/murata-dualstack-example-ns.c ****   }
 316              		.loc 1 493 5 is_stmt 0 view .LVU74
 317 005c FFF7FEFF 		bl	puts
 318              	.LVL17:
 319              		.loc 1 495 1 view .LVU75
 320 0060 F4E7     		b	.L13
 321              	.L20:
 322 0062 00BF     		.align	2
 323              	.L19:
 324 0064 00000000 		.word	.LANCHOR3
 325 0068 00000000 		.word	SHTData
 326 006c 00000000 		.word	.LANCHOR4
 327 0070 00000000 		.word	.LC2
 328              		.cfi_endproc
 329              	.LFE137:
 331              		.section	.text.LoRaWAN_send_self,"ax",%progbits
 332              		.align	1
 333              		.global	LoRaWAN_send_self
 334              		.syntax unified
 335              		.thumb
 336              		.thumb_func
 337              		.fpu fpv4-sp-d16
 339              	LoRaWAN_send_self:
 340              	.LFB138:
 496:../../applications/murata-dualstack-example-ns/src/murata-dualstack-example-ns.c **** 
 497:../../applications/murata-dualstack-example-ns/src/murata-dualstack-example-ns.c **** 
 498:../../applications/murata-dualstack-example-ns/src/murata-dualstack-example-ns.c **** void LoRaWAN_send_self()
 499:../../applications/murata-dualstack-example-ns/src/murata-dualstack-example-ns.c **** {
 341              		.loc 1 499 1 is_stmt 1 view -0
 342              		.cfi_startproc
 343              		@ args = 0, pretend = 0, frame = 8
 344              		@ frame_needed = 0, uses_anonymous_args = 0
 345 0000 00B5     		push	{lr}
 346              	.LCFI9:
 347              		.cfi_def_cfa_offset 4
 348              		.cfi_offset 14, -4
 349 0002 83B0     		sub	sp, sp, #12
 350              	.LCFI10:
 351              		.cfi_def_cfa_offset 16
 500:../../applications/murata-dualstack-example-ns/src/murata-dualstack-example-ns.c ****   if (murata_init)
 352              		.loc 1 500 3 view .LVU77
 353              		.loc 1 500 7 is_stmt 0 view .LVU78
 354 0004 194B     		ldr	r3, .L28
 355 0006 1B78     		ldrb	r3, [r3]	@ zero_extendqisi2
 356              		.loc 1 500 6 view .LVU79
 357 0008 63B3     		cbz	r3, .L22
 358              	.LBB6:
 501:../../applications/murata-dualstack-example-ns/src/murata-dualstack-example-ns.c ****   {
ARM GAS  C:\Users\yvesk\AppData\Local\Temp\cc36v34U.s 			page 16


 502:../../applications/murata-dualstack-example-ns/src/murata-dualstack-example-ns.c ****     uint8_t loraMessage[5];
 359              		.loc 1 502 5 is_stmt 1 view .LVU80
 503:../../applications/murata-dualstack-example-ns/src/murata-dualstack-example-ns.c ****     uint8_t i = 0;
 360              		.loc 1 503 5 view .LVU81
 361              	.LVL18:
 504:../../applications/murata-dualstack-example-ns/src/murata-dualstack-example-ns.c ****     //uint16 counter to uint8 array (little endian)
 505:../../applications/murata-dualstack-example-ns/src/murata-dualstack-example-ns.c ****     //counter (large) type byte
 506:../../applications/murata-dualstack-example-ns/src/murata-dualstack-example-ns.c **** 
 507:../../applications/murata-dualstack-example-ns/src/murata-dualstack-example-ns.c ****     //first data transfer works, but afterwards it stays in a kind of 'transmitted' loop. Find wher
 508:../../applications/murata-dualstack-example-ns/src/murata-dualstack-example-ns.c ****     loraMessage[i++] = SHTData[0];
 362              		.loc 1 508 5 view .LVU82
 363              		.loc 1 508 31 is_stmt 0 view .LVU83
 364 000a 194A     		ldr	r2, .L28+4
 365 000c D2ED007A 		vldr.32	s15, [r2]
 366              	.LVL19:
 367              		.loc 1 508 22 view .LVU84
 368 0010 FCEEE77A 		vcvt.u32.f32	s15, s15
 369 0014 17EE903A 		vmov	r3, s15	@ int
 370 0018 8DF80030 		strb	r3, [sp]
 509:../../applications/murata-dualstack-example-ns/src/murata-dualstack-example-ns.c ****     loraMessage[i++] = SHTData[1];
 371              		.loc 1 509 5 is_stmt 1 view .LVU85
 372              		.loc 1 509 31 is_stmt 0 view .LVU86
 373 001c D2ED017A 		vldr.32	s15, [r2, #4]
 374              	.LVL20:
 375              		.loc 1 509 22 view .LVU87
 376 0020 FCEEE77A 		vcvt.u32.f32	s15, s15
 377 0024 17EE903A 		vmov	r3, s15	@ int
 378 0028 8DF80130 		strb	r3, [sp, #1]
 510:../../applications/murata-dualstack-example-ns/src/murata-dualstack-example-ns.c ****     loraMessage[i++] = LoRaWAN_Counter >> 8;
 379              		.loc 1 510 5 is_stmt 1 view .LVU88
 380              	.LVL21:
 381              		.loc 1 510 22 is_stmt 0 view .LVU89
 382 002c 114B     		ldr	r3, .L28+8
 383 002e 1B88     		ldrh	r3, [r3]
 384 0030 1B0A     		lsrs	r3, r3, #8
 385 0032 8DF80230 		strb	r3, [sp, #2]
 511:../../applications/murata-dualstack-example-ns/src/murata-dualstack-example-ns.c ****    // osMutexWait(txMutexId, osWaitForever);
 512:../../applications/murata-dualstack-example-ns/src/murata-dualstack-example-ns.c ****     if(!Murata_LoRaWAN_Send((uint8_t *)loraMessage, i))
 386              		.loc 1 512 5 is_stmt 1 view .LVU90
 387              		.loc 1 512 9 is_stmt 0 view .LVU91
 388 0036 0321     		movs	r1, #3
 389 0038 6846     		mov	r0, sp
 390 003a FFF7FEFF 		bl	Murata_LoRaWAN_Send
 391              	.LVL22:
 392              		.loc 1 512 7 view .LVU92
 393 003e 48B1     		cbz	r0, .L27
 513:../../applications/murata-dualstack-example-ns/src/murata-dualstack-example-ns.c ****     {
 514:../../applications/murata-dualstack-example-ns/src/murata-dualstack-example-ns.c ****       printf("tis ni gelukt :( ");
 515:../../applications/murata-dualstack-example-ns/src/murata-dualstack-example-ns.c ****       murata_init++;
 516:../../applications/murata-dualstack-example-ns/src/murata-dualstack-example-ns.c ****       if(murata_init == 10)
 517:../../applications/murata-dualstack-example-ns/src/murata-dualstack-example-ns.c ****         murata_init == 0;
 518:../../applications/murata-dualstack-example-ns/src/murata-dualstack-example-ns.c ****     }
 519:../../applications/murata-dualstack-example-ns/src/murata-dualstack-example-ns.c ****     else
 520:../../applications/murata-dualstack-example-ns/src/murata-dualstack-example-ns.c ****     {
 521:../../applications/murata-dualstack-example-ns/src/murata-dualstack-example-ns.c ****       murata_init = 1;
 394              		.loc 1 521 7 is_stmt 1 view .LVU93
 395              		.loc 1 521 19 is_stmt 0 view .LVU94
ARM GAS  C:\Users\yvesk\AppData\Local\Temp\cc36v34U.s 			page 17


 396 0040 0A4B     		ldr	r3, .L28
 397 0042 0122     		movs	r2, #1
 398 0044 1A70     		strb	r2, [r3]
 399              	.L24:
 522:../../applications/murata-dualstack-example-ns/src/murata-dualstack-example-ns.c ****     }
 523:../../applications/murata-dualstack-example-ns/src/murata-dualstack-example-ns.c ****     //BLOCK TX MUTEX FOR 3s
 524:../../applications/murata-dualstack-example-ns/src/murata-dualstack-example-ns.c ****     // osDelay(3000);
 525:../../applications/murata-dualstack-example-ns/src/murata-dualstack-example-ns.c ****     // osMutexRelease(txMutexId);
 526:../../applications/murata-dualstack-example-ns/src/murata-dualstack-example-ns.c ****     LoRaWAN_Counter++;
 400              		.loc 1 526 5 is_stmt 1 discriminator 1 view .LVU95
 401              		.loc 1 526 20 is_stmt 0 discriminator 1 view .LVU96
 402 0046 0B4A     		ldr	r2, .L28+8
 403 0048 1388     		ldrh	r3, [r2]
 404 004a 0133     		adds	r3, r3, #1
 405 004c 1380     		strh	r3, [r2]	@ movhi
 406              	.LVL23:
 407              	.L21:
 408              		.loc 1 526 20 discriminator 1 view .LVU97
 409              	.LBE6:
 527:../../applications/murata-dualstack-example-ns/src/murata-dualstack-example-ns.c ****   }
 528:../../applications/murata-dualstack-example-ns/src/murata-dualstack-example-ns.c ****   else{
 529:../../applications/murata-dualstack-example-ns/src/murata-dualstack-example-ns.c ****     printf("murata not initialized, not sending\r\n");
 530:../../applications/murata-dualstack-example-ns/src/murata-dualstack-example-ns.c ****   }
 531:../../applications/murata-dualstack-example-ns/src/murata-dualstack-example-ns.c **** }
 410              		.loc 1 531 1 view .LVU98
 411 004e 03B0     		add	sp, sp, #12
 412              	.LCFI11:
 413              		.cfi_remember_state
 414              		.cfi_def_cfa_offset 4
 415              		@ sp needed
 416 0050 5DF804FB 		ldr	pc, [sp], #4
 417              	.LVL24:
 418              	.L27:
 419              	.LCFI12:
 420              		.cfi_restore_state
 421              	.LBB7:
 514:../../applications/murata-dualstack-example-ns/src/murata-dualstack-example-ns.c ****       murata_init++;
 422              		.loc 1 514 7 is_stmt 1 view .LVU99
 423 0054 0848     		ldr	r0, .L28+12
 424 0056 FFF7FEFF 		bl	printf
 425              	.LVL25:
 515:../../applications/murata-dualstack-example-ns/src/murata-dualstack-example-ns.c ****       if(murata_init == 10)
 426              		.loc 1 515 7 view .LVU100
 515:../../applications/murata-dualstack-example-ns/src/murata-dualstack-example-ns.c ****       if(murata_init == 10)
 427              		.loc 1 515 18 is_stmt 0 view .LVU101
 428 005a 044A     		ldr	r2, .L28
 429 005c 1378     		ldrb	r3, [r2]	@ zero_extendqisi2
 430 005e 0133     		adds	r3, r3, #1
 431 0060 1370     		strb	r3, [r2]
 516:../../applications/murata-dualstack-example-ns/src/murata-dualstack-example-ns.c ****         murata_init == 0;
 432              		.loc 1 516 7 is_stmt 1 view .LVU102
 433 0062 F0E7     		b	.L24
 434              	.LVL26:
 435              	.L22:
 516:../../applications/murata-dualstack-example-ns/src/murata-dualstack-example-ns.c ****         murata_init == 0;
 436              		.loc 1 516 7 is_stmt 0 view .LVU103
 437              	.LBE7:
ARM GAS  C:\Users\yvesk\AppData\Local\Temp\cc36v34U.s 			page 18


 529:../../applications/murata-dualstack-example-ns/src/murata-dualstack-example-ns.c ****   }
 438              		.loc 1 529 5 is_stmt 1 view .LVU104
 439 0064 0548     		ldr	r0, .L28+16
 440 0066 FFF7FEFF 		bl	puts
 441              	.LVL27:
 442              		.loc 1 531 1 is_stmt 0 view .LVU105
 443 006a F0E7     		b	.L21
 444              	.L29:
 445              		.align	2
 446              	.L28:
 447 006c 00000000 		.word	.LANCHOR3
 448 0070 00000000 		.word	SHTData
 449 0074 00000000 		.word	.LANCHOR4
 450 0078 00000000 		.word	.LC3
 451 007c 00000000 		.word	.LC2
 452              		.cfi_endproc
 453              	.LFE138:
 455              		.section	.text.Dash7_send,"ax",%progbits
 456              		.align	1
 457              		.global	Dash7_send
 458              		.syntax unified
 459              		.thumb
 460              		.thumb_func
 461              		.fpu fpv4-sp-d16
 463              	Dash7_send:
 464              	.LVL28:
 465              	.LFB139:
 532:../../applications/murata-dualstack-example-ns/src/murata-dualstack-example-ns.c **** 
 533:../../applications/murata-dualstack-example-ns/src/murata-dualstack-example-ns.c **** 
 534:../../applications/murata-dualstack-example-ns/src/murata-dualstack-example-ns.c **** void Dash7_send(void const *argument)
 535:../../applications/murata-dualstack-example-ns/src/murata-dualstack-example-ns.c **** {
 466              		.loc 1 535 1 is_stmt 1 view -0
 467              		.cfi_startproc
 468              		@ args = 0, pretend = 0, frame = 8
 469              		@ frame_needed = 0, uses_anonymous_args = 0
 470              		.loc 1 535 1 is_stmt 0 view .LVU107
 471 0000 00B5     		push	{lr}
 472              	.LCFI13:
 473              		.cfi_def_cfa_offset 4
 474              		.cfi_offset 14, -4
 475 0002 83B0     		sub	sp, sp, #12
 476              	.LCFI14:
 477              		.cfi_def_cfa_offset 16
 536:../../applications/murata-dualstack-example-ns/src/murata-dualstack-example-ns.c ****   if (murata_init)
 478              		.loc 1 536 3 is_stmt 1 view .LVU108
 479              		.loc 1 536 7 is_stmt 0 view .LVU109
 480 0004 154B     		ldr	r3, .L36
 481 0006 1B78     		ldrb	r3, [r3]	@ zero_extendqisi2
 482              		.loc 1 536 6 view .LVU110
 483 0008 23B3     		cbz	r3, .L31
 484              	.LBB8:
 537:../../applications/murata-dualstack-example-ns/src/murata-dualstack-example-ns.c ****   {
 538:../../applications/murata-dualstack-example-ns/src/murata-dualstack-example-ns.c ****     uint8_t dash7Message[5];
 485              		.loc 1 538 5 is_stmt 1 view .LVU111
 539:../../applications/murata-dualstack-example-ns/src/murata-dualstack-example-ns.c ****     uint8_t i = 0;
 486              		.loc 1 539 5 view .LVU112
 487              	.LVL29:
ARM GAS  C:\Users\yvesk\AppData\Local\Temp\cc36v34U.s 			page 19


 540:../../applications/murata-dualstack-example-ns/src/murata-dualstack-example-ns.c ****     //uint16 counter to uint8 array (little endian)
 541:../../applications/murata-dualstack-example-ns/src/murata-dualstack-example-ns.c ****     //counter (large) type byte
 542:../../applications/murata-dualstack-example-ns/src/murata-dualstack-example-ns.c ****     dash7Message[i++] = 0x14;
 488              		.loc 1 542 5 view .LVU113
 489              		.loc 1 542 23 is_stmt 0 view .LVU114
 490 000a 1423     		movs	r3, #20
 491 000c 8DF80030 		strb	r3, [sp]
 543:../../applications/murata-dualstack-example-ns/src/murata-dualstack-example-ns.c ****     dash7Message[i++] = DASH7_Counter;
 492              		.loc 1 543 5 is_stmt 1 view .LVU115
 493              		.loc 1 543 23 is_stmt 0 view .LVU116
 494 0010 134B     		ldr	r3, .L36+4
 495 0012 1B88     		ldrh	r3, [r3]
 496              	.LVL30:
 497              		.loc 1 543 23 view .LVU117
 498 0014 8DF80130 		strb	r3, [sp, #1]
 544:../../applications/murata-dualstack-example-ns/src/murata-dualstack-example-ns.c ****     dash7Message[i++] = DASH7_Counter >> 8;
 499              		.loc 1 544 5 is_stmt 1 view .LVU118
 500              	.LVL31:
 501              		.loc 1 544 23 is_stmt 0 view .LVU119
 502 0018 1B0A     		lsrs	r3, r3, #8
 503 001a 8DF80230 		strb	r3, [sp, #2]
 545:../../applications/murata-dualstack-example-ns/src/murata-dualstack-example-ns.c ****     dash7Message[i++] = 0x00;
 504              		.loc 1 545 5 is_stmt 1 view .LVU120
 505              	.LVL32:
 506              		.loc 1 545 23 is_stmt 0 view .LVU121
 507 001e 0023     		movs	r3, #0
 508 0020 8DF80330 		strb	r3, [sp, #3]
 546:../../applications/murata-dualstack-example-ns/src/murata-dualstack-example-ns.c ****     dash7Message[i++] = 0x00;
 509              		.loc 1 546 5 is_stmt 1 view .LVU122
 510              	.LVL33:
 511              		.loc 1 546 23 is_stmt 0 view .LVU123
 512 0024 8DF80430 		strb	r3, [sp, #4]
 547:../../applications/murata-dualstack-example-ns/src/murata-dualstack-example-ns.c ****     dash7Message[i++] = 0x00;
 513              		.loc 1 547 5 is_stmt 1 view .LVU124
 514              	.LVL34:
 515              		.loc 1 547 23 is_stmt 0 view .LVU125
 516 0028 8DF80530 		strb	r3, [sp, #5]
 548:../../applications/murata-dualstack-example-ns/src/murata-dualstack-example-ns.c ****     //osMutexWait(txMutexId, osWaitForever);
 549:../../applications/murata-dualstack-example-ns/src/murata-dualstack-example-ns.c ****     if(!Murata_Dash7_Send((uint8_t *)dash7Message, i))
 517              		.loc 1 549 5 is_stmt 1 view .LVU126
 518              		.loc 1 549 9 is_stmt 0 view .LVU127
 519 002c 0621     		movs	r1, #6
 520 002e 6846     		mov	r0, sp
 521              	.LVL35:
 522              		.loc 1 549 9 view .LVU128
 523 0030 FFF7FEFF 		bl	Murata_Dash7_Send
 524              	.LVL36:
 525              		.loc 1 549 7 view .LVU129
 526 0034 50B9     		cbnz	r0, .L32
 550:../../applications/murata-dualstack-example-ns/src/murata-dualstack-example-ns.c ****     {
 551:../../applications/murata-dualstack-example-ns/src/murata-dualstack-example-ns.c ****       murata_init++;
 527              		.loc 1 551 7 is_stmt 1 view .LVU130
 528              		.loc 1 551 18 is_stmt 0 view .LVU131
 529 0036 094A     		ldr	r2, .L36
 530 0038 1378     		ldrb	r3, [r2]	@ zero_extendqisi2
 531 003a 0133     		adds	r3, r3, #1
 532 003c 1370     		strb	r3, [r2]
ARM GAS  C:\Users\yvesk\AppData\Local\Temp\cc36v34U.s 			page 20


 552:../../applications/murata-dualstack-example-ns/src/murata-dualstack-example-ns.c ****       if(murata_init == 10)
 533              		.loc 1 552 7 is_stmt 1 view .LVU132
 534              	.L33:
 553:../../applications/murata-dualstack-example-ns/src/murata-dualstack-example-ns.c ****         murata_init == 0;
 554:../../applications/murata-dualstack-example-ns/src/murata-dualstack-example-ns.c ****     }
 555:../../applications/murata-dualstack-example-ns/src/murata-dualstack-example-ns.c ****     else
 556:../../applications/murata-dualstack-example-ns/src/murata-dualstack-example-ns.c ****     {
 557:../../applications/murata-dualstack-example-ns/src/murata-dualstack-example-ns.c ****       murata_init = 1;
 558:../../applications/murata-dualstack-example-ns/src/murata-dualstack-example-ns.c ****     }
 559:../../applications/murata-dualstack-example-ns/src/murata-dualstack-example-ns.c ****     //BLOCK TX MUTEX FOR 3s
 560:../../applications/murata-dualstack-example-ns/src/murata-dualstack-example-ns.c ****     //osDelay(3000);
 561:../../applications/murata-dualstack-example-ns/src/murata-dualstack-example-ns.c ****     //osMutexRelease(txMutexId);
 562:../../applications/murata-dualstack-example-ns/src/murata-dualstack-example-ns.c ****     DASH7_Counter++;
 535              		.loc 1 562 5 discriminator 1 view .LVU133
 536              		.loc 1 562 18 is_stmt 0 discriminator 1 view .LVU134
 537 003e 084A     		ldr	r2, .L36+4
 538 0040 1388     		ldrh	r3, [r2]
 539 0042 0133     		adds	r3, r3, #1
 540 0044 1380     		strh	r3, [r2]	@ movhi
 541              	.LVL37:
 542              	.L30:
 543              		.loc 1 562 18 discriminator 1 view .LVU135
 544              	.LBE8:
 563:../../applications/murata-dualstack-example-ns/src/murata-dualstack-example-ns.c ****   }
 564:../../applications/murata-dualstack-example-ns/src/murata-dualstack-example-ns.c ****   else{
 565:../../applications/murata-dualstack-example-ns/src/murata-dualstack-example-ns.c ****     printf("murata not initialized, not sending\r\n");
 566:../../applications/murata-dualstack-example-ns/src/murata-dualstack-example-ns.c ****   }
 567:../../applications/murata-dualstack-example-ns/src/murata-dualstack-example-ns.c **** }
 545              		.loc 1 567 1 view .LVU136
 546 0046 03B0     		add	sp, sp, #12
 547              	.LCFI15:
 548              		.cfi_remember_state
 549              		.cfi_def_cfa_offset 4
 550              		@ sp needed
 551 0048 5DF804FB 		ldr	pc, [sp], #4
 552              	.LVL38:
 553              	.L32:
 554              	.LCFI16:
 555              		.cfi_restore_state
 556              	.LBB9:
 557:../../applications/murata-dualstack-example-ns/src/murata-dualstack-example-ns.c ****     }
 557              		.loc 1 557 7 is_stmt 1 view .LVU137
 557:../../applications/murata-dualstack-example-ns/src/murata-dualstack-example-ns.c ****     }
 558              		.loc 1 557 19 is_stmt 0 view .LVU138
 559 004c 034B     		ldr	r3, .L36
 560 004e 0122     		movs	r2, #1
 561 0050 1A70     		strb	r2, [r3]
 562 0052 F4E7     		b	.L33
 563              	.LVL39:
 564              	.L31:
 557:../../applications/murata-dualstack-example-ns/src/murata-dualstack-example-ns.c ****     }
 565              		.loc 1 557 19 view .LVU139
 566              	.LBE9:
 565:../../applications/murata-dualstack-example-ns/src/murata-dualstack-example-ns.c ****   }
 567              		.loc 1 565 5 is_stmt 1 view .LVU140
 568 0054 0348     		ldr	r0, .L36+8
 569              	.LVL40:
ARM GAS  C:\Users\yvesk\AppData\Local\Temp\cc36v34U.s 			page 21


 565:../../applications/murata-dualstack-example-ns/src/murata-dualstack-example-ns.c ****   }
 570              		.loc 1 565 5 is_stmt 0 view .LVU141
 571 0056 FFF7FEFF 		bl	puts
 572              	.LVL41:
 573              		.loc 1 567 1 view .LVU142
 574 005a F4E7     		b	.L30
 575              	.L37:
 576              		.align	2
 577              	.L36:
 578 005c 00000000 		.word	.LANCHOR3
 579 0060 00000000 		.word	.LANCHOR5
 580 0064 00000000 		.word	.LC2
 581              		.cfi_endproc
 582              	.LFE139:
 584              		.section	.text.Dash7_send_temphum,"ax",%progbits
 585              		.align	1
 586              		.global	Dash7_send_temphum
 587              		.syntax unified
 588              		.thumb
 589              		.thumb_func
 590              		.fpu fpv4-sp-d16
 592              	Dash7_send_temphum:
 593              	.LVL42:
 594              	.LFB140:
 568:../../applications/murata-dualstack-example-ns/src/murata-dualstack-example-ns.c **** 
 569:../../applications/murata-dualstack-example-ns/src/murata-dualstack-example-ns.c **** void Dash7_send_temphum(void const *argument)
 570:../../applications/murata-dualstack-example-ns/src/murata-dualstack-example-ns.c **** {
 595              		.loc 1 570 1 is_stmt 1 view -0
 596              		.cfi_startproc
 597              		@ args = 0, pretend = 0, frame = 8
 598              		@ frame_needed = 0, uses_anonymous_args = 0
 599              		.loc 1 570 1 is_stmt 0 view .LVU144
 600 0000 00B5     		push	{lr}
 601              	.LCFI17:
 602              		.cfi_def_cfa_offset 4
 603              		.cfi_offset 14, -4
 604 0002 83B0     		sub	sp, sp, #12
 605              	.LCFI18:
 606              		.cfi_def_cfa_offset 16
 571:../../applications/murata-dualstack-example-ns/src/murata-dualstack-example-ns.c ****   if (murata_init)
 607              		.loc 1 571 3 is_stmt 1 view .LVU145
 608              		.loc 1 571 7 is_stmt 0 view .LVU146
 609 0004 1B4B     		ldr	r3, .L44
 610 0006 1B78     		ldrb	r3, [r3]	@ zero_extendqisi2
 611              		.loc 1 571 6 view .LVU147
 612 0008 7BB3     		cbz	r3, .L39
 613              	.LBB10:
 572:../../applications/murata-dualstack-example-ns/src/murata-dualstack-example-ns.c ****   {
 573:../../applications/murata-dualstack-example-ns/src/murata-dualstack-example-ns.c ****     uint8_t dash7Message[5];
 614              		.loc 1 573 5 is_stmt 1 view .LVU148
 574:../../applications/murata-dualstack-example-ns/src/murata-dualstack-example-ns.c ****     uint8_t i = 0;
 615              		.loc 1 574 5 view .LVU149
 616              	.LVL43:
 575:../../applications/murata-dualstack-example-ns/src/murata-dualstack-example-ns.c ****     //uint16 counter to uint8 array (little endian)
 576:../../applications/murata-dualstack-example-ns/src/murata-dualstack-example-ns.c ****     //counter (large) type byte
 577:../../applications/murata-dualstack-example-ns/src/murata-dualstack-example-ns.c ****     dash7Message[i++] = SHTData[0];
 617              		.loc 1 577 5 view .LVU150
ARM GAS  C:\Users\yvesk\AppData\Local\Temp\cc36v34U.s 			page 22


 618              		.loc 1 577 32 is_stmt 0 view .LVU151
 619 000a 1B4A     		ldr	r2, .L44+4
 620 000c D2ED007A 		vldr.32	s15, [r2]
 621              	.LVL44:
 622              		.loc 1 577 23 view .LVU152
 623 0010 FCEEE77A 		vcvt.u32.f32	s15, s15
 624 0014 17EE903A 		vmov	r3, s15	@ int
 625 0018 8DF80030 		strb	r3, [sp]
 578:../../applications/murata-dualstack-example-ns/src/murata-dualstack-example-ns.c ****     dash7Message[i++] = SHTData[1];
 626              		.loc 1 578 5 is_stmt 1 view .LVU153
 627              		.loc 1 578 32 is_stmt 0 view .LVU154
 628 001c D2ED017A 		vldr.32	s15, [r2, #4]
 629              	.LVL45:
 630              		.loc 1 578 23 view .LVU155
 631 0020 FCEEE77A 		vcvt.u32.f32	s15, s15
 632 0024 17EE903A 		vmov	r3, s15	@ int
 633 0028 8DF80130 		strb	r3, [sp, #1]
 579:../../applications/murata-dualstack-example-ns/src/murata-dualstack-example-ns.c ****     dash7Message[i++] = 0x00;
 634              		.loc 1 579 5 is_stmt 1 view .LVU156
 635              	.LVL46:
 636              		.loc 1 579 23 is_stmt 0 view .LVU157
 637 002c 0023     		movs	r3, #0
 638 002e 8DF80230 		strb	r3, [sp, #2]
 580:../../applications/murata-dualstack-example-ns/src/murata-dualstack-example-ns.c ****     dash7Message[i++] = messageCounter;
 639              		.loc 1 580 5 is_stmt 1 view .LVU158
 640              	.LVL47:
 641              		.loc 1 580 23 is_stmt 0 view .LVU159
 642 0032 124A     		ldr	r2, .L44+8
 643 0034 1278     		ldrb	r2, [r2]	@ zero_extendqisi2
 644 0036 8DF80320 		strb	r2, [sp, #3]
 581:../../applications/murata-dualstack-example-ns/src/murata-dualstack-example-ns.c ****     dash7Message[i++] = 0x00;
 645              		.loc 1 581 5 is_stmt 1 view .LVU160
 646              	.LVL48:
 647              		.loc 1 581 23 is_stmt 0 view .LVU161
 648 003a 8DF80430 		strb	r3, [sp, #4]
 582:../../applications/murata-dualstack-example-ns/src/murata-dualstack-example-ns.c ****     dash7Message[i++] = 0x00;
 649              		.loc 1 582 5 is_stmt 1 view .LVU162
 650              	.LVL49:
 651              		.loc 1 582 23 is_stmt 0 view .LVU163
 652 003e 8DF80530 		strb	r3, [sp, #5]
 583:../../applications/murata-dualstack-example-ns/src/murata-dualstack-example-ns.c ****     //osMutexWait(txMutexId, osWaitForever);
 584:../../applications/murata-dualstack-example-ns/src/murata-dualstack-example-ns.c ****     if(!Murata_Dash7_Send((uint8_t *)dash7Message, i))
 653              		.loc 1 584 5 is_stmt 1 view .LVU164
 654              		.loc 1 584 9 is_stmt 0 view .LVU165
 655 0042 0621     		movs	r1, #6
 656 0044 6846     		mov	r0, sp
 657              	.LVL50:
 658              		.loc 1 584 9 view .LVU166
 659 0046 FFF7FEFF 		bl	Murata_Dash7_Send
 660              	.LVL51:
 661              		.loc 1 584 7 view .LVU167
 662 004a 50B9     		cbnz	r0, .L40
 585:../../applications/murata-dualstack-example-ns/src/murata-dualstack-example-ns.c ****     {
 586:../../applications/murata-dualstack-example-ns/src/murata-dualstack-example-ns.c ****       murata_init++;
 663              		.loc 1 586 7 is_stmt 1 view .LVU168
 664              		.loc 1 586 18 is_stmt 0 view .LVU169
 665 004c 094A     		ldr	r2, .L44
ARM GAS  C:\Users\yvesk\AppData\Local\Temp\cc36v34U.s 			page 23


 666 004e 1378     		ldrb	r3, [r2]	@ zero_extendqisi2
 667 0050 0133     		adds	r3, r3, #1
 668 0052 1370     		strb	r3, [r2]
 587:../../applications/murata-dualstack-example-ns/src/murata-dualstack-example-ns.c ****       if(murata_init == 10)
 669              		.loc 1 587 7 is_stmt 1 view .LVU170
 670              	.L41:
 588:../../applications/murata-dualstack-example-ns/src/murata-dualstack-example-ns.c ****         murata_init == 0;
 589:../../applications/murata-dualstack-example-ns/src/murata-dualstack-example-ns.c ****     }
 590:../../applications/murata-dualstack-example-ns/src/murata-dualstack-example-ns.c ****     else
 591:../../applications/murata-dualstack-example-ns/src/murata-dualstack-example-ns.c ****     {
 592:../../applications/murata-dualstack-example-ns/src/murata-dualstack-example-ns.c ****       murata_init = 1;
 593:../../applications/murata-dualstack-example-ns/src/murata-dualstack-example-ns.c ****     }
 594:../../applications/murata-dualstack-example-ns/src/murata-dualstack-example-ns.c ****     //BLOCK TX MUTEX FOR 3s
 595:../../applications/murata-dualstack-example-ns/src/murata-dualstack-example-ns.c ****     //osDelay(3000);
 596:../../applications/murata-dualstack-example-ns/src/murata-dualstack-example-ns.c ****     //osMutexRelease(txMutexId);
 597:../../applications/murata-dualstack-example-ns/src/murata-dualstack-example-ns.c ****     DASH7_Counter++;
 671              		.loc 1 597 5 discriminator 1 view .LVU171
 672              		.loc 1 597 18 is_stmt 0 discriminator 1 view .LVU172
 673 0054 0A4A     		ldr	r2, .L44+12
 674 0056 1388     		ldrh	r3, [r2]
 675 0058 0133     		adds	r3, r3, #1
 676 005a 1380     		strh	r3, [r2]	@ movhi
 677              	.LVL52:
 678              	.L38:
 679              		.loc 1 597 18 discriminator 1 view .LVU173
 680              	.LBE10:
 598:../../applications/murata-dualstack-example-ns/src/murata-dualstack-example-ns.c ****   }
 599:../../applications/murata-dualstack-example-ns/src/murata-dualstack-example-ns.c ****   else{
 600:../../applications/murata-dualstack-example-ns/src/murata-dualstack-example-ns.c ****     printf("murata not initialized, not sending\r\n");
 601:../../applications/murata-dualstack-example-ns/src/murata-dualstack-example-ns.c ****   }
 602:../../applications/murata-dualstack-example-ns/src/murata-dualstack-example-ns.c **** }
 681              		.loc 1 602 1 view .LVU174
 682 005c 03B0     		add	sp, sp, #12
 683              	.LCFI19:
 684              		.cfi_remember_state
 685              		.cfi_def_cfa_offset 4
 686              		@ sp needed
 687 005e 5DF804FB 		ldr	pc, [sp], #4
 688              	.LVL53:
 689              	.L40:
 690              	.LCFI20:
 691              		.cfi_restore_state
 692              	.LBB11:
 592:../../applications/murata-dualstack-example-ns/src/murata-dualstack-example-ns.c ****     }
 693              		.loc 1 592 7 is_stmt 1 view .LVU175
 592:../../applications/murata-dualstack-example-ns/src/murata-dualstack-example-ns.c ****     }
 694              		.loc 1 592 19 is_stmt 0 view .LVU176
 695 0062 044B     		ldr	r3, .L44
 696 0064 0122     		movs	r2, #1
 697 0066 1A70     		strb	r2, [r3]
 698 0068 F4E7     		b	.L41
 699              	.LVL54:
 700              	.L39:
 592:../../applications/murata-dualstack-example-ns/src/murata-dualstack-example-ns.c ****     }
 701              		.loc 1 592 19 view .LVU177
 702              	.LBE11:
 600:../../applications/murata-dualstack-example-ns/src/murata-dualstack-example-ns.c ****   }
ARM GAS  C:\Users\yvesk\AppData\Local\Temp\cc36v34U.s 			page 24


 703              		.loc 1 600 5 is_stmt 1 view .LVU178
 704 006a 0648     		ldr	r0, .L44+16
 705              	.LVL55:
 600:../../applications/murata-dualstack-example-ns/src/murata-dualstack-example-ns.c ****   }
 706              		.loc 1 600 5 is_stmt 0 view .LVU179
 707 006c FFF7FEFF 		bl	puts
 708              	.LVL56:
 709              		.loc 1 602 1 view .LVU180
 710 0070 F4E7     		b	.L38
 711              	.L45:
 712 0072 00BF     		.align	2
 713              	.L44:
 714 0074 00000000 		.word	.LANCHOR3
 715 0078 00000000 		.word	SHTData
 716 007c 00000000 		.word	.LANCHOR6
 717 0080 00000000 		.word	.LANCHOR5
 718 0084 00000000 		.word	.LC2
 719              		.cfi_endproc
 720              	.LFE140:
 722              		.section	.text.Dash7_send_allInfo,"ax",%progbits
 723              		.align	1
 724              		.global	Dash7_send_allInfo
 725              		.syntax unified
 726              		.thumb
 727              		.thumb_func
 728              		.fpu fpv4-sp-d16
 730              	Dash7_send_allInfo:
 731              	.LVL57:
 732              	.LFB141:
 603:../../applications/murata-dualstack-example-ns/src/murata-dualstack-example-ns.c **** 
 604:../../applications/murata-dualstack-example-ns/src/murata-dualstack-example-ns.c **** 
 605:../../applications/murata-dualstack-example-ns/src/murata-dualstack-example-ns.c **** void Dash7_send_allInfo(void const *argument)
 606:../../applications/murata-dualstack-example-ns/src/murata-dualstack-example-ns.c **** {
 733              		.loc 1 606 1 is_stmt 1 view -0
 734              		.cfi_startproc
 735              		@ args = 0, pretend = 0, frame = 8
 736              		@ frame_needed = 0, uses_anonymous_args = 0
 737              		.loc 1 606 1 is_stmt 0 view .LVU182
 738 0000 00B5     		push	{lr}
 739              	.LCFI21:
 740              		.cfi_def_cfa_offset 4
 741              		.cfi_offset 14, -4
 742 0002 83B0     		sub	sp, sp, #12
 743              	.LCFI22:
 744              		.cfi_def_cfa_offset 16
 607:../../applications/murata-dualstack-example-ns/src/murata-dualstack-example-ns.c ****   if (murata_init)
 745              		.loc 1 607 3 is_stmt 1 view .LVU183
 746              		.loc 1 607 7 is_stmt 0 view .LVU184
 747 0004 1C4B     		ldr	r3, .L52
 748 0006 1B78     		ldrb	r3, [r3]	@ zero_extendqisi2
 749              		.loc 1 607 6 view .LVU185
 750 0008 8BB3     		cbz	r3, .L47
 751              	.LBB12:
 608:../../applications/murata-dualstack-example-ns/src/murata-dualstack-example-ns.c ****   {
 609:../../applications/murata-dualstack-example-ns/src/murata-dualstack-example-ns.c ****     uint8_t dash7Message[5];
 752              		.loc 1 609 5 is_stmt 1 view .LVU186
 610:../../applications/murata-dualstack-example-ns/src/murata-dualstack-example-ns.c ****     uint8_t i = 0;
ARM GAS  C:\Users\yvesk\AppData\Local\Temp\cc36v34U.s 			page 25


 753              		.loc 1 610 5 view .LVU187
 754              	.LVL58:
 611:../../applications/murata-dualstack-example-ns/src/murata-dualstack-example-ns.c ****     //uint16 counter to uint8 array (little endian)
 612:../../applications/murata-dualstack-example-ns/src/murata-dualstack-example-ns.c ****     //counter (large) type byte
 613:../../applications/murata-dualstack-example-ns/src/murata-dualstack-example-ns.c ****     dash7Message[i++] = SHTData[0];
 755              		.loc 1 613 5 view .LVU188
 756              		.loc 1 613 32 is_stmt 0 view .LVU189
 757 000a 1C4A     		ldr	r2, .L52+4
 758 000c D2ED007A 		vldr.32	s15, [r2]
 759              	.LVL59:
 760              		.loc 1 613 23 view .LVU190
 761 0010 FCEEE77A 		vcvt.u32.f32	s15, s15
 762 0014 17EE903A 		vmov	r3, s15	@ int
 763 0018 8DF80030 		strb	r3, [sp]
 614:../../applications/murata-dualstack-example-ns/src/murata-dualstack-example-ns.c ****     dash7Message[i++] = SHTData[1];
 764              		.loc 1 614 5 is_stmt 1 view .LVU191
 765              		.loc 1 614 32 is_stmt 0 view .LVU192
 766 001c D2ED017A 		vldr.32	s15, [r2, #4]
 767              	.LVL60:
 768              		.loc 1 614 23 view .LVU193
 769 0020 FCEEE77A 		vcvt.u32.f32	s15, s15
 770 0024 17EE903A 		vmov	r3, s15	@ int
 771 0028 8DF80130 		strb	r3, [sp, #1]
 615:../../applications/murata-dualstack-example-ns/src/murata-dualstack-example-ns.c ****     dash7Message[i++] = rep_counter;
 772              		.loc 1 615 5 is_stmt 1 view .LVU194
 773              	.LVL61:
 774              		.loc 1 615 23 is_stmt 0 view .LVU195
 775 002c 144B     		ldr	r3, .L52+8
 776 002e 1B78     		ldrb	r3, [r3]	@ zero_extendqisi2
 777 0030 8DF80230 		strb	r3, [sp, #2]
 616:../../applications/murata-dualstack-example-ns/src/murata-dualstack-example-ns.c ****     dash7Message[i++] = messageCounter;
 778              		.loc 1 616 5 is_stmt 1 view .LVU196
 779              	.LVL62:
 780              		.loc 1 616 23 is_stmt 0 view .LVU197
 781 0034 134B     		ldr	r3, .L52+12
 782 0036 1B78     		ldrb	r3, [r3]	@ zero_extendqisi2
 783 0038 8DF80330 		strb	r3, [sp, #3]
 617:../../applications/murata-dualstack-example-ns/src/murata-dualstack-example-ns.c ****     dash7Message[i++] = 0x00;
 784              		.loc 1 617 5 is_stmt 1 view .LVU198
 785              	.LVL63:
 786              		.loc 1 617 23 is_stmt 0 view .LVU199
 787 003c 0023     		movs	r3, #0
 788 003e 8DF80430 		strb	r3, [sp, #4]
 618:../../applications/murata-dualstack-example-ns/src/murata-dualstack-example-ns.c ****     dash7Message[i++] = 0x00;
 789              		.loc 1 618 5 is_stmt 1 view .LVU200
 790              	.LVL64:
 791              		.loc 1 618 23 is_stmt 0 view .LVU201
 792 0042 8DF80530 		strb	r3, [sp, #5]
 619:../../applications/murata-dualstack-example-ns/src/murata-dualstack-example-ns.c **** 
 620:../../applications/murata-dualstack-example-ns/src/murata-dualstack-example-ns.c ****     //osMutexWait(txMutexId, osWaitForever);
 621:../../applications/murata-dualstack-example-ns/src/murata-dualstack-example-ns.c ****     if(!Murata_Dash7_Send((uint8_t *)dash7Message, i))
 793              		.loc 1 621 5 is_stmt 1 view .LVU202
 794              		.loc 1 621 9 is_stmt 0 view .LVU203
 795 0046 0621     		movs	r1, #6
 796 0048 6846     		mov	r0, sp
 797              	.LVL65:
 798              		.loc 1 621 9 view .LVU204
ARM GAS  C:\Users\yvesk\AppData\Local\Temp\cc36v34U.s 			page 26


 799 004a FFF7FEFF 		bl	Murata_Dash7_Send
 800              	.LVL66:
 801              		.loc 1 621 7 view .LVU205
 802 004e 50B9     		cbnz	r0, .L48
 622:../../applications/murata-dualstack-example-ns/src/murata-dualstack-example-ns.c ****     {
 623:../../applications/murata-dualstack-example-ns/src/murata-dualstack-example-ns.c ****       murata_init++;
 803              		.loc 1 623 7 is_stmt 1 view .LVU206
 804              		.loc 1 623 18 is_stmt 0 view .LVU207
 805 0050 094A     		ldr	r2, .L52
 806 0052 1378     		ldrb	r3, [r2]	@ zero_extendqisi2
 807 0054 0133     		adds	r3, r3, #1
 808 0056 1370     		strb	r3, [r2]
 624:../../applications/murata-dualstack-example-ns/src/murata-dualstack-example-ns.c ****       if(murata_init == 10)
 809              		.loc 1 624 7 is_stmt 1 view .LVU208
 810              	.L49:
 625:../../applications/murata-dualstack-example-ns/src/murata-dualstack-example-ns.c ****         murata_init == 0;
 626:../../applications/murata-dualstack-example-ns/src/murata-dualstack-example-ns.c ****     }
 627:../../applications/murata-dualstack-example-ns/src/murata-dualstack-example-ns.c ****     else
 628:../../applications/murata-dualstack-example-ns/src/murata-dualstack-example-ns.c ****     {
 629:../../applications/murata-dualstack-example-ns/src/murata-dualstack-example-ns.c ****       murata_init = 1;
 630:../../applications/murata-dualstack-example-ns/src/murata-dualstack-example-ns.c ****     }
 631:../../applications/murata-dualstack-example-ns/src/murata-dualstack-example-ns.c ****     //BLOCK TX MUTEX FOR 3s
 632:../../applications/murata-dualstack-example-ns/src/murata-dualstack-example-ns.c ****     //osDelay(3000);
 633:../../applications/murata-dualstack-example-ns/src/murata-dualstack-example-ns.c ****     //osMutexRelease(txMutexId);
 634:../../applications/murata-dualstack-example-ns/src/murata-dualstack-example-ns.c ****     DASH7_Counter++;
 811              		.loc 1 634 5 discriminator 1 view .LVU209
 812              		.loc 1 634 18 is_stmt 0 discriminator 1 view .LVU210
 813 0058 0B4A     		ldr	r2, .L52+16
 814 005a 1388     		ldrh	r3, [r2]
 815 005c 0133     		adds	r3, r3, #1
 816 005e 1380     		strh	r3, [r2]	@ movhi
 817              	.LVL67:
 818              	.L46:
 819              		.loc 1 634 18 discriminator 1 view .LVU211
 820              	.LBE12:
 635:../../applications/murata-dualstack-example-ns/src/murata-dualstack-example-ns.c ****   }
 636:../../applications/murata-dualstack-example-ns/src/murata-dualstack-example-ns.c ****   else{
 637:../../applications/murata-dualstack-example-ns/src/murata-dualstack-example-ns.c ****     printf("murata not initialized, not sending\r\n");
 638:../../applications/murata-dualstack-example-ns/src/murata-dualstack-example-ns.c ****   }
 639:../../applications/murata-dualstack-example-ns/src/murata-dualstack-example-ns.c **** }
 821              		.loc 1 639 1 view .LVU212
 822 0060 03B0     		add	sp, sp, #12
 823              	.LCFI23:
 824              		.cfi_remember_state
 825              		.cfi_def_cfa_offset 4
 826              		@ sp needed
 827 0062 5DF804FB 		ldr	pc, [sp], #4
 828              	.LVL68:
 829              	.L48:
 830              	.LCFI24:
 831              		.cfi_restore_state
 832              	.LBB13:
 629:../../applications/murata-dualstack-example-ns/src/murata-dualstack-example-ns.c ****     }
 833              		.loc 1 629 7 is_stmt 1 view .LVU213
 629:../../applications/murata-dualstack-example-ns/src/murata-dualstack-example-ns.c ****     }
 834              		.loc 1 629 19 is_stmt 0 view .LVU214
 835 0066 044B     		ldr	r3, .L52
ARM GAS  C:\Users\yvesk\AppData\Local\Temp\cc36v34U.s 			page 27


 836 0068 0122     		movs	r2, #1
 837 006a 1A70     		strb	r2, [r3]
 838 006c F4E7     		b	.L49
 839              	.LVL69:
 840              	.L47:
 629:../../applications/murata-dualstack-example-ns/src/murata-dualstack-example-ns.c ****     }
 841              		.loc 1 629 19 view .LVU215
 842              	.LBE13:
 637:../../applications/murata-dualstack-example-ns/src/murata-dualstack-example-ns.c ****   }
 843              		.loc 1 637 5 is_stmt 1 view .LVU216
 844 006e 0748     		ldr	r0, .L52+20
 845              	.LVL70:
 637:../../applications/murata-dualstack-example-ns/src/murata-dualstack-example-ns.c ****   }
 846              		.loc 1 637 5 is_stmt 0 view .LVU217
 847 0070 FFF7FEFF 		bl	puts
 848              	.LVL71:
 849              		.loc 1 639 1 view .LVU218
 850 0074 F4E7     		b	.L46
 851              	.L53:
 852 0076 00BF     		.align	2
 853              	.L52:
 854 0078 00000000 		.word	.LANCHOR3
 855 007c 00000000 		.word	SHTData
 856 0080 00000000 		.word	.LANCHOR7
 857 0084 00000000 		.word	.LANCHOR6
 858 0088 00000000 		.word	.LANCHOR5
 859 008c 00000000 		.word	.LC2
 860              		.cfi_endproc
 861              	.LFE141:
 863              		.section	.text.send_message,"ax",%progbits
 864              		.align	1
 865              		.global	send_message
 866              		.syntax unified
 867              		.thumb
 868              		.thumb_func
 869              		.fpu fpv4-sp-d16
 871              	send_message:
 872              	.LVL72:
 873              	.LFB136:
 438:../../applications/murata-dualstack-example-ns/src/murata-dualstack-example-ns.c ****   if (messageMode==0) {                 //dash7mode
 874              		.loc 1 438 33 is_stmt 1 view -0
 875              		.cfi_startproc
 876              		@ args = 0, pretend = 0, frame = 0
 877              		@ frame_needed = 0, uses_anonymous_args = 0
 438:../../applications/murata-dualstack-example-ns/src/murata-dualstack-example-ns.c ****   if (messageMode==0) {                 //dash7mode
 878              		.loc 1 438 33 is_stmt 0 view .LVU220
 879 0000 08B5     		push	{r3, lr}
 880              	.LCFI25:
 881              		.cfi_def_cfa_offset 8
 882              		.cfi_offset 3, -8
 883              		.cfi_offset 14, -4
 439:../../applications/murata-dualstack-example-ns/src/murata-dualstack-example-ns.c ****     switch (type) {
 884              		.loc 1 439 3 is_stmt 1 view .LVU221
 439:../../applications/murata-dualstack-example-ns/src/murata-dualstack-example-ns.c ****     switch (type) {
 885              		.loc 1 439 18 is_stmt 0 view .LVU222
 886 0002 154B     		ldr	r3, .L62
 887 0004 1B78     		ldrb	r3, [r3]	@ zero_extendqisi2
ARM GAS  C:\Users\yvesk\AppData\Local\Temp\cc36v34U.s 			page 28


 439:../../applications/murata-dualstack-example-ns/src/murata-dualstack-example-ns.c ****     switch (type) {
 888              		.loc 1 439 6 view .LVU223
 889 0006 EBB9     		cbnz	r3, .L55
 440:../../applications/murata-dualstack-example-ns/src/murata-dualstack-example-ns.c ****       case 1:
 890              		.loc 1 440 5 is_stmt 1 view .LVU224
 891 0008 0128     		cmp	r0, #1
 892 000a 05D0     		beq	.L56
 893 000c 0228     		cmp	r0, #2
 894 000e 0ED0     		beq	.L57
 895              	.LBB14:
 452:../../applications/murata-dualstack-example-ns/src/murata-dualstack-example-ns.c ****       break;  
 896              		.loc 1 452 7 view .LVU225
 897 0010 1248     		ldr	r0, .L62+4
 898              	.LVL73:
 452:../../applications/murata-dualstack-example-ns/src/murata-dualstack-example-ns.c ****       break;  
 899              		.loc 1 452 7 is_stmt 0 view .LVU226
 900 0012 FFF7FEFF 		bl	puts
 901              	.LVL74:
 453:../../applications/murata-dualstack-example-ns/src/murata-dualstack-example-ns.c ****     }
 902              		.loc 1 453 7 is_stmt 1 view .LVU227
 903 0016 1DE0     		b	.L54
 904              	.LVL75:
 905              	.L56:
 442:../../applications/murata-dualstack-example-ns/src/murata-dualstack-example-ns.c ****       Dash7_send_temphum();  
 906              		.loc 1 442 7 view .LVU228
 442:../../applications/murata-dualstack-example-ns/src/murata-dualstack-example-ns.c ****       Dash7_send_temphum();  
 907              		.loc 1 442 21 is_stmt 0 view .LVU229
 908 0018 114A     		ldr	r2, .L62+8
 909 001a 1378     		ldrb	r3, [r2]	@ zero_extendqisi2
 910 001c 0133     		adds	r3, r3, #1
 911 001e DBB2     		uxtb	r3, r3
 912 0020 1370     		strb	r3, [r2]
 443:../../applications/murata-dualstack-example-ns/src/murata-dualstack-example-ns.c ****       printf("sending temphum message\r\n");
 913              		.loc 1 443 7 is_stmt 1 view .LVU230
 914 0022 FFF7FEFF 		bl	Dash7_send_temphum
 915              	.LVL76:
 444:../../applications/murata-dualstack-example-ns/src/murata-dualstack-example-ns.c ****       break; 
 916              		.loc 1 444 7 view .LVU231
 917 0026 0F48     		ldr	r0, .L62+12
 918 0028 FFF7FEFF 		bl	puts
 919              	.LVL77:
 445:../../applications/murata-dualstack-example-ns/src/murata-dualstack-example-ns.c ****       case 2:
 920              		.loc 1 445 7 view .LVU232
 921 002c 12E0     		b	.L54
 922              	.LVL78:
 923              	.L57:
 447:../../applications/murata-dualstack-example-ns/src/murata-dualstack-example-ns.c ****       Dash7_send_allInfo();
 924              		.loc 1 447 7 view .LVU233
 447:../../applications/murata-dualstack-example-ns/src/murata-dualstack-example-ns.c ****       Dash7_send_allInfo();
 925              		.loc 1 447 21 is_stmt 0 view .LVU234
 926 002e 0C4A     		ldr	r2, .L62+8
 927 0030 1378     		ldrb	r3, [r2]	@ zero_extendqisi2
 928 0032 0133     		adds	r3, r3, #1
 929 0034 DBB2     		uxtb	r3, r3
 930 0036 1370     		strb	r3, [r2]
 448:../../applications/murata-dualstack-example-ns/src/murata-dualstack-example-ns.c ****       printf("sending allinfo message\r\n");
 931              		.loc 1 448 7 is_stmt 1 view .LVU235
ARM GAS  C:\Users\yvesk\AppData\Local\Temp\cc36v34U.s 			page 29


 932 0038 FFF7FEFF 		bl	Dash7_send_allInfo
 933              	.LVL79:
 449:../../applications/murata-dualstack-example-ns/src/murata-dualstack-example-ns.c ****       break; 
 934              		.loc 1 449 7 view .LVU236
 935 003c 0A48     		ldr	r0, .L62+16
 936 003e FFF7FEFF 		bl	puts
 937              	.LVL80:
 450:../../applications/murata-dualstack-example-ns/src/murata-dualstack-example-ns.c ****       default:
 938              		.loc 1 450 7 view .LVU237
 939 0042 07E0     		b	.L54
 940              	.LVL81:
 941              	.L55:
 450:../../applications/murata-dualstack-example-ns/src/murata-dualstack-example-ns.c ****       default:
 942              		.loc 1 450 7 is_stmt 0 view .LVU238
 943              	.LBE14:
 944              	.LBB15:
 456:../../applications/murata-dualstack-example-ns/src/murata-dualstack-example-ns.c ****       Dash7_send_temphum(); 
 945              		.loc 1 456 7 is_stmt 1 view .LVU239
 946 0044 0020     		movs	r0, #0
 947              	.LVL82:
 456:../../applications/murata-dualstack-example-ns/src/murata-dualstack-example-ns.c ****       Dash7_send_temphum(); 
 948              		.loc 1 456 7 is_stmt 0 view .LVU240
 949 0046 FFF7FEFF 		bl	LoRaWAN_send
 950              	.LVL83:
 457:../../applications/murata-dualstack-example-ns/src/murata-dualstack-example-ns.c ****       printf("sending out of reach lorawan message\r\n");
 951              		.loc 1 457 7 is_stmt 1 view .LVU241
 952 004a FFF7FEFF 		bl	Dash7_send_temphum
 953              	.LVL84:
 458:../../applications/murata-dualstack-example-ns/src/murata-dualstack-example-ns.c ****   }
 954              		.loc 1 458 7 view .LVU242
 955 004e 0748     		ldr	r0, .L62+20
 956 0050 FFF7FEFF 		bl	puts
 957              	.LVL85:
 958              	.L54:
 959              	.LBE15:
 460:../../applications/murata-dualstack-example-ns/src/murata-dualstack-example-ns.c **** 
 960              		.loc 1 460 1 is_stmt 0 view .LVU243
 961 0054 08BD     		pop	{r3, pc}
 962              	.L63:
 963 0056 00BF     		.align	2
 964              	.L62:
 965 0058 00000000 		.word	.LANCHOR8
 966 005c 38000000 		.word	.LC6
 967 0060 00000000 		.word	.LANCHOR6
 968 0064 00000000 		.word	.LC4
 969 0068 1C000000 		.word	.LC5
 970 006c 50000000 		.word	.LC7
 971              		.cfi_endproc
 972              	.LFE136:
 974              		.global	__aeabi_f2d
 975              		.section	.text.print_temp_hum,"ax",%progbits
 976              		.align	1
 977              		.global	print_temp_hum
 978              		.syntax unified
 979              		.thumb
 980              		.thumb_func
 981              		.fpu fpv4-sp-d16
ARM GAS  C:\Users\yvesk\AppData\Local\Temp\cc36v34U.s 			page 30


 983              	print_temp_hum:
 984              	.LFB142:
 640:../../applications/murata-dualstack-example-ns/src/murata-dualstack-example-ns.c **** 
 641:../../applications/murata-dualstack-example-ns/src/murata-dualstack-example-ns.c **** //----------------------------------------------------------------------end send message methods---
 642:../../applications/murata-dualstack-example-ns/src/murata-dualstack-example-ns.c **** 
 643:../../applications/murata-dualstack-example-ns/src/murata-dualstack-example-ns.c **** void print_temp_hum(void){
 985              		.loc 1 643 26 is_stmt 1 view -0
 986              		.cfi_startproc
 987              		@ args = 0, pretend = 0, frame = 0
 988              		@ frame_needed = 0, uses_anonymous_args = 0
 989 0000 38B5     		push	{r3, r4, r5, lr}
 990              	.LCFI26:
 991              		.cfi_def_cfa_offset 16
 992              		.cfi_offset 3, -16
 993              		.cfi_offset 4, -12
 994              		.cfi_offset 5, -8
 995              		.cfi_offset 14, -4
 644:../../applications/murata-dualstack-example-ns/src/murata-dualstack-example-ns.c ****   printf("\r\n");
 996              		.loc 1 644 3 view .LVU245
 997 0002 0C4C     		ldr	r4, .L66
 998 0004 2046     		mov	r0, r4
 999 0006 FFF7FEFF 		bl	puts
 1000              	.LVL86:
 645:../../applications/murata-dualstack-example-ns/src/murata-dualstack-example-ns.c ****   printf("Temperature: %.2f C  \r\n", SHTData[0]);
 1001              		.loc 1 645 3 view .LVU246
 1002              		.loc 1 645 48 is_stmt 0 view .LVU247
 1003 000a 0B4D     		ldr	r5, .L66+4
 1004              		.loc 1 645 3 view .LVU248
 1005 000c 2868     		ldr	r0, [r5]	@ float
 1006 000e FFF7FEFF 		bl	__aeabi_f2d
 1007              	.LVL87:
 1008 0012 0246     		mov	r2, r0
 1009 0014 0B46     		mov	r3, r1
 1010 0016 0948     		ldr	r0, .L66+8
 1011 0018 FFF7FEFF 		bl	printf
 1012              	.LVL88:
 646:../../applications/murata-dualstack-example-ns/src/murata-dualstack-example-ns.c ****   printf("Humidity: %.2f %% \r\n", SHTData[1]);
 1013              		.loc 1 646 3 is_stmt 1 view .LVU249
 1014 001c 6868     		ldr	r0, [r5, #4]	@ float
 1015 001e FFF7FEFF 		bl	__aeabi_f2d
 1016              	.LVL89:
 1017 0022 0246     		mov	r2, r0
 1018 0024 0B46     		mov	r3, r1
 1019 0026 0648     		ldr	r0, .L66+12
 1020 0028 FFF7FEFF 		bl	printf
 1021              	.LVL90:
 647:../../applications/murata-dualstack-example-ns/src/murata-dualstack-example-ns.c ****   printf("\r\n");
 1022              		.loc 1 647 3 view .LVU250
 1023 002c 2046     		mov	r0, r4
 1024 002e FFF7FEFF 		bl	puts
 1025              	.LVL91:
 648:../../applications/murata-dualstack-example-ns/src/murata-dualstack-example-ns.c **** }
 1026              		.loc 1 648 1 is_stmt 0 view .LVU251
 1027 0032 38BD     		pop	{r3, r4, r5, pc}
 1028              	.L67:
 1029              		.align	2
 1030              	.L66:
ARM GAS  C:\Users\yvesk\AppData\Local\Temp\cc36v34U.s 			page 31


 1031 0034 00000000 		.word	.LC8
 1032 0038 00000000 		.word	SHTData
 1033 003c 04000000 		.word	.LC9
 1034 0040 20000000 		.word	.LC10
 1035              		.cfi_endproc
 1036              	.LFE142:
 1038              		.section	.text.temp_hum_measurement,"ax",%progbits
 1039              		.align	1
 1040              		.global	temp_hum_measurement
 1041              		.syntax unified
 1042              		.thumb
 1043              		.thumb_func
 1044              		.fpu fpv4-sp-d16
 1046              	temp_hum_measurement:
 1047              	.LFB143:
 649:../../applications/murata-dualstack-example-ns/src/murata-dualstack-example-ns.c **** 
 650:../../applications/murata-dualstack-example-ns/src/murata-dualstack-example-ns.c **** void temp_hum_measurement(void){
 1048              		.loc 1 650 32 is_stmt 1 view -0
 1049              		.cfi_startproc
 1050              		@ args = 0, pretend = 0, frame = 0
 1051              		@ frame_needed = 0, uses_anonymous_args = 0
 1052 0000 08B5     		push	{r3, lr}
 1053              	.LCFI27:
 1054              		.cfi_def_cfa_offset 8
 1055              		.cfi_offset 3, -8
 1056              		.cfi_offset 14, -4
 651:../../applications/murata-dualstack-example-ns/src/murata-dualstack-example-ns.c **** 
 652:../../applications/murata-dualstack-example-ns/src/murata-dualstack-example-ns.c ****   SHT31_get_temp_hum(SHTData);
 1057              		.loc 1 652 3 view .LVU253
 1058 0002 0348     		ldr	r0, .L70
 1059 0004 FFF7FEFF 		bl	SHT31_get_temp_hum
 1060              	.LVL92:
 653:../../applications/murata-dualstack-example-ns/src/murata-dualstack-example-ns.c ****   print_temp_hum();
 1061              		.loc 1 653 3 view .LVU254
 1062 0008 FFF7FEFF 		bl	print_temp_hum
 1063              	.LVL93:
 654:../../applications/murata-dualstack-example-ns/src/murata-dualstack-example-ns.c **** }
 1064              		.loc 1 654 1 is_stmt 0 view .LVU255
 1065 000c 08BD     		pop	{r3, pc}
 1066              	.L71:
 1067 000e 00BF     		.align	2
 1068              	.L70:
 1069 0010 00000000 		.word	SHTData
 1070              		.cfi_endproc
 1071              	.LFE143:
 1073              		.section	.text.ble_callback,"ax",%progbits
 1074              		.align	1
 1075              		.global	ble_callback
 1076              		.syntax unified
 1077              		.thumb
 1078              		.thumb_func
 1079              		.fpu fpv4-sp-d16
 1081              	ble_callback:
 1082              	.LFB144:
 655:../../applications/murata-dualstack-example-ns/src/murata-dualstack-example-ns.c **** 
 656:../../applications/murata-dualstack-example-ns/src/murata-dualstack-example-ns.c **** void ble_callback() {
 1083              		.loc 1 656 21 is_stmt 1 view -0
ARM GAS  C:\Users\yvesk\AppData\Local\Temp\cc36v34U.s 			page 32


 1084              		.cfi_startproc
 1085              		@ args = 0, pretend = 0, frame = 0
 1086              		@ frame_needed = 0, uses_anonymous_args = 0
 1087 0000 08B5     		push	{r3, lr}
 1088              	.LCFI28:
 1089              		.cfi_def_cfa_offset 8
 1090              		.cfi_offset 3, -8
 1091              		.cfi_offset 14, -4
 657:../../applications/murata-dualstack-example-ns/src/murata-dualstack-example-ns.c **** printf(tmpbuf_ble[0]); 
 1092              		.loc 1 657 1 view .LVU257
 1093 0002 044B     		ldr	r3, .L74
 1094 0004 1878     		ldrb	r0, [r3]	@ zero_extendqisi2
 1095 0006 FFF7FEFF 		bl	printf
 1096              	.LVL94:
 658:../../applications/murata-dualstack-example-ns/src/murata-dualstack-example-ns.c **** printf("callback 2 \r\n");
 1097              		.loc 1 658 1 view .LVU258
 1098 000a 0348     		ldr	r0, .L74+4
 1099 000c FFF7FEFF 		bl	puts
 1100              	.LVL95:
 659:../../applications/murata-dualstack-example-ns/src/murata-dualstack-example-ns.c **** }
 1101              		.loc 1 659 1 is_stmt 0 view .LVU259
 1102 0010 08BD     		pop	{r3, pc}
 1103              	.L75:
 1104 0012 00BF     		.align	2
 1105              	.L74:
 1106 0014 00000000 		.word	tmpbuf_ble
 1107 0018 00000000 		.word	.LC11
 1108              		.cfi_endproc
 1109              	.LFE144:
 1111              		.section	.text.HAL_UART_RxCpltCallback,"ax",%progbits
 1112              		.align	1
 1113              		.global	HAL_UART_RxCpltCallback
 1114              		.syntax unified
 1115              		.thumb
 1116              		.thumb_func
 1117              		.fpu fpv4-sp-d16
 1119              	HAL_UART_RxCpltCallback:
 1120              	.LVL96:
 1121              	.LFB145:
 660:../../applications/murata-dualstack-example-ns/src/murata-dualstack-example-ns.c **** 
 661:../../applications/murata-dualstack-example-ns/src/murata-dualstack-example-ns.c **** 
 662:../../applications/murata-dualstack-example-ns/src/murata-dualstack-example-ns.c **** // UART RX CALLBACK
 663:../../applications/murata-dualstack-example-ns/src/murata-dualstack-example-ns.c **** void HAL_UART_RxCpltCallback(UART_HandleTypeDef *huart)
 664:../../applications/murata-dualstack-example-ns/src/murata-dualstack-example-ns.c **** {
 1122              		.loc 1 664 1 is_stmt 1 view -0
 1123              		.cfi_startproc
 1124              		@ args = 0, pretend = 0, frame = 0
 1125              		@ frame_needed = 0, uses_anonymous_args = 0
 1126              		.loc 1 664 1 is_stmt 0 view .LVU261
 1127 0000 10B5     		push	{r4, lr}
 1128              	.LCFI29:
 1129              		.cfi_def_cfa_offset 8
 1130              		.cfi_offset 4, -8
 1131              		.cfi_offset 14, -4
 1132 0002 0446     		mov	r4, r0
 665:../../applications/murata-dualstack-example-ns/src/murata-dualstack-example-ns.c ****   if (huart == &P1_UART)
 1133              		.loc 1 665 3 is_stmt 1 view .LVU262
ARM GAS  C:\Users\yvesk\AppData\Local\Temp\cc36v34U.s 			page 33


 1134              		.loc 1 665 6 is_stmt 0 view .LVU263
 1135 0004 094B     		ldr	r3, .L82
 1136 0006 9842     		cmp	r0, r3
 1137 0008 03D0     		beq	.L80
 1138              	.LVL97:
 1139              	.L77:
 666:../../applications/murata-dualstack-example-ns/src/murata-dualstack-example-ns.c ****   {
 667:../../applications/murata-dualstack-example-ns/src/murata-dualstack-example-ns.c ****     Murata_rxCallback();
 668:../../applications/murata-dualstack-example-ns/src/murata-dualstack-example-ns.c ****     murata_data_ready = 1;
 669:../../applications/murata-dualstack-example-ns/src/murata-dualstack-example-ns.c ****   }
 670:../../applications/murata-dualstack-example-ns/src/murata-dualstack-example-ns.c **** 
 671:../../applications/murata-dualstack-example-ns/src/murata-dualstack-example-ns.c ****   if (huart == &BLE_UART) {
 1140              		.loc 1 671 3 is_stmt 1 view .LVU264
 1141              		.loc 1 671 6 is_stmt 0 view .LVU265
 1142 000a 094B     		ldr	r3, .L82+4
 1143 000c 9C42     		cmp	r4, r3
 1144 000e 06D0     		beq	.L81
 1145              	.L76:
 672:../../applications/murata-dualstack-example-ns/src/murata-dualstack-example-ns.c ****     printf("in callback 1\r\n");
 673:../../applications/murata-dualstack-example-ns/src/murata-dualstack-example-ns.c ****     BLE_flag = 1; 
 674:../../applications/murata-dualstack-example-ns/src/murata-dualstack-example-ns.c ****   }
 675:../../applications/murata-dualstack-example-ns/src/murata-dualstack-example-ns.c **** }
 1146              		.loc 1 675 1 view .LVU266
 1147 0010 10BD     		pop	{r4, pc}
 1148              	.LVL98:
 1149              	.L80:
 667:../../applications/murata-dualstack-example-ns/src/murata-dualstack-example-ns.c ****     murata_data_ready = 1;
 1150              		.loc 1 667 5 is_stmt 1 view .LVU267
 1151 0012 FFF7FEFF 		bl	Murata_rxCallback
 1152              	.LVL99:
 668:../../applications/murata-dualstack-example-ns/src/murata-dualstack-example-ns.c ****   }
 1153              		.loc 1 668 5 view .LVU268
 668:../../applications/murata-dualstack-example-ns/src/murata-dualstack-example-ns.c ****   }
 1154              		.loc 1 668 23 is_stmt 0 view .LVU269
 1155 0016 074B     		ldr	r3, .L82+8
 1156 0018 0122     		movs	r2, #1
 1157 001a 1A70     		strb	r2, [r3]
 1158 001c F5E7     		b	.L77
 1159              	.L81:
 672:../../applications/murata-dualstack-example-ns/src/murata-dualstack-example-ns.c ****     printf("in callback 1\r\n");
 1160              		.loc 1 672 5 is_stmt 1 view .LVU270
 1161 001e 0648     		ldr	r0, .L82+12
 1162 0020 FFF7FEFF 		bl	puts
 1163              	.LVL100:
 673:../../applications/murata-dualstack-example-ns/src/murata-dualstack-example-ns.c ****   }
 1164              		.loc 1 673 5 view .LVU271
 673:../../applications/murata-dualstack-example-ns/src/murata-dualstack-example-ns.c ****   }
 1165              		.loc 1 673 14 is_stmt 0 view .LVU272
 1166 0024 054B     		ldr	r3, .L82+16
 1167 0026 0122     		movs	r2, #1
 1168 0028 1A70     		strb	r2, [r3]
 1169              		.loc 1 675 1 view .LVU273
 1170 002a F1E7     		b	.L76
 1171              	.L83:
 1172              		.align	2
 1173              	.L82:
 1174 002c 00000000 		.word	P1_UART
ARM GAS  C:\Users\yvesk\AppData\Local\Temp\cc36v34U.s 			page 34


 1175 0030 00000000 		.word	BLE_UART
 1176 0034 00000000 		.word	.LANCHOR9
 1177 0038 00000000 		.word	.LC12
 1178 003c 00000000 		.word	.LANCHOR10
 1179              		.cfi_endproc
 1180              	.LFE145:
 1182              		.section	.text.vApplicationIdleHook,"ax",%progbits
 1183              		.align	1
 1184              		.global	vApplicationIdleHook
 1185              		.syntax unified
 1186              		.thumb
 1187              		.thumb_func
 1188              		.fpu fpv4-sp-d16
 1190              	vApplicationIdleHook:
 1191              	.LFB146:
 676:../../applications/murata-dualstack-example-ns/src/murata-dualstack-example-ns.c **** 
 677:../../applications/murata-dualstack-example-ns/src/murata-dualstack-example-ns.c **** void vApplicationIdleHook(){
 1192              		.loc 1 677 28 is_stmt 1 view -0
 1193              		.cfi_startproc
 1194              		@ args = 0, pretend = 0, frame = 0
 1195              		@ frame_needed = 0, uses_anonymous_args = 0
 1196              		@ link register save eliminated.
 678:../../applications/murata-dualstack-example-ns/src/murata-dualstack-example-ns.c ****   #if LOW_POWER
 679:../../applications/murata-dualstack-example-ns/src/murata-dualstack-example-ns.c ****     HAL_PWR_EnterSLEEPMode(PWR_MAINREGULATOR_ON, PWR_SLEEPENTRY_WFE);
 680:../../applications/murata-dualstack-example-ns/src/murata-dualstack-example-ns.c ****   #endif
 681:../../applications/murata-dualstack-example-ns/src/murata-dualstack-example-ns.c **** }
 1197              		.loc 1 681 1 view .LVU275
 1198 0000 7047     		bx	lr
 1199              		.cfi_endproc
 1200              	.LFE146:
 1202              		.section	.text.printWelcome,"ax",%progbits
 1203              		.align	1
 1204              		.global	printWelcome
 1205              		.syntax unified
 1206              		.thumb
 1207              		.thumb_func
 1208              		.fpu fpv4-sp-d16
 1210              	printWelcome:
 1211              	.LFB147:
 682:../../applications/murata-dualstack-example-ns/src/murata-dualstack-example-ns.c **** 
 683:../../applications/murata-dualstack-example-ns/src/murata-dualstack-example-ns.c **** void printWelcome(void)
 684:../../applications/murata-dualstack-example-ns/src/murata-dualstack-example-ns.c **** {
 1212              		.loc 1 684 1 view -0
 1213              		.cfi_startproc
 1214              		@ args = 0, pretend = 0, frame = 8
 1215              		@ frame_needed = 0, uses_anonymous_args = 0
 1216 0000 30B5     		push	{r4, r5, lr}
 1217              	.LCFI30:
 1218              		.cfi_def_cfa_offset 12
 1219              		.cfi_offset 4, -12
 1220              		.cfi_offset 5, -8
 1221              		.cfi_offset 14, -4
 1222 0002 83B0     		sub	sp, sp, #12
 1223              	.LCFI31:
 1224              		.cfi_def_cfa_offset 24
 685:../../applications/murata-dualstack-example-ns/src/murata-dualstack-example-ns.c ****   printf("\r\n");
 1225              		.loc 1 685 3 view .LVU277
ARM GAS  C:\Users\yvesk\AppData\Local\Temp\cc36v34U.s 			page 35


 1226 0004 1A4C     		ldr	r4, .L90
 1227 0006 2046     		mov	r0, r4
 1228 0008 FFF7FEFF 		bl	puts
 1229              	.LVL101:
 686:../../applications/murata-dualstack-example-ns/src/murata-dualstack-example-ns.c ****   printf("*****************************************\r\n");
 1230              		.loc 1 686 3 view .LVU278
 1231 000c 194D     		ldr	r5, .L90+4
 1232 000e 2846     		mov	r0, r5
 1233 0010 FFF7FEFF 		bl	puts
 1234              	.LVL102:
 687:../../applications/murata-dualstack-example-ns/src/murata-dualstack-example-ns.c ****   printf("Murata Dual Stack example without scheduler\r\n");
 1235              		.loc 1 687 3 view .LVU279
 1236 0014 1848     		ldr	r0, .L90+8
 1237 0016 FFF7FEFF 		bl	puts
 1238              	.LVL103:
 688:../../applications/murata-dualstack-example-ns/src/murata-dualstack-example-ns.c ****   printf("*****************************************\r\n");
 1239              		.loc 1 688 3 view .LVU280
 1240 001a 2846     		mov	r0, r5
 1241 001c FFF7FEFF 		bl	puts
 1242              	.LVL104:
 689:../../applications/murata-dualstack-example-ns/src/murata-dualstack-example-ns.c ****   printf("\r\n");
 1243              		.loc 1 689 3 view .LVU281
 1244 0020 2046     		mov	r0, r4
 1245 0022 FFF7FEFF 		bl	puts
 1246              	.LVL105:
 690:../../applications/murata-dualstack-example-ns/src/murata-dualstack-example-ns.c ****   char UIDString[sizeof(short_UID)];
 1247              		.loc 1 690 3 view .LVU282
 691:../../applications/murata-dualstack-example-ns/src/murata-dualstack-example-ns.c ****   memcpy(UIDString, &short_UID, sizeof(short_UID));
 1248              		.loc 1 691 3 view .LVU283
 1249 0026 154B     		ldr	r3, .L90+12
 1250 0028 6C46     		mov	r4, sp
 1251 002a 93E80300 		ldm	r3, {r0, r1}
 1252 002e 84E80300 		stm	r4, {r0, r1}
 692:../../applications/murata-dualstack-example-ns/src/murata-dualstack-example-ns.c ****   printf("octa ID: ");
 1253              		.loc 1 692 3 view .LVU284
 1254 0032 1348     		ldr	r0, .L90+16
 1255 0034 FFF7FEFF 		bl	printf
 1256              	.LVL106:
 693:../../applications/murata-dualstack-example-ns/src/murata-dualstack-example-ns.c ****   for (const char* p = UIDString; *p; ++p)
 1257              		.loc 1 693 3 view .LVU285
 1258              	.LBB16:
 1259              		.loc 1 693 8 view .LVU286
 1260              	.L86:
 1261              		.loc 1 693 35 is_stmt 0 discriminator 1 view .LVU287
 1262 0038 2178     		ldrb	r1, [r4]	@ zero_extendqisi2
 1263              		.loc 1 693 3 discriminator 1 view .LVU288
 1264 003a 21B1     		cbz	r1, .L89
 694:../../applications/murata-dualstack-example-ns/src/murata-dualstack-example-ns.c ****     {
 695:../../applications/murata-dualstack-example-ns/src/murata-dualstack-example-ns.c ****         printf("%02x", *p);
 1265              		.loc 1 695 9 is_stmt 1 discriminator 3 view .LVU289
 1266 003c 1148     		ldr	r0, .L90+20
 1267 003e FFF7FEFF 		bl	printf
 1268              	.LVL107:
 693:../../applications/murata-dualstack-example-ns/src/murata-dualstack-example-ns.c ****   for (const char* p = UIDString; *p; ++p)
 1269              		.loc 1 693 39 is_stmt 0 discriminator 3 view .LVU290
 1270 0042 0134     		adds	r4, r4, #1
 1271              	.LVL108:
ARM GAS  C:\Users\yvesk\AppData\Local\Temp\cc36v34U.s 			page 36


 693:../../applications/murata-dualstack-example-ns/src/murata-dualstack-example-ns.c ****   for (const char* p = UIDString; *p; ++p)
 1272              		.loc 1 693 39 discriminator 3 view .LVU291
 1273 0044 F8E7     		b	.L86
 1274              	.L89:
 693:../../applications/murata-dualstack-example-ns/src/murata-dualstack-example-ns.c ****   for (const char* p = UIDString; *p; ++p)
 1275              		.loc 1 693 39 discriminator 3 view .LVU292
 1276              	.LBE16:
 696:../../applications/murata-dualstack-example-ns/src/murata-dualstack-example-ns.c ****     }
 697:../../applications/murata-dualstack-example-ns/src/murata-dualstack-example-ns.c ****   printf("\r\n\r\n");
 1277              		.loc 1 697 3 is_stmt 1 view .LVU293
 1278 0046 1048     		ldr	r0, .L90+24
 1279 0048 FFF7FEFF 		bl	puts
 1280              	.LVL109:
 698:../../applications/murata-dualstack-example-ns/src/murata-dualstack-example-ns.c ****   HAL_GPIO_TogglePin(OCTA_BLED_GPIO_Port, OCTA_BLED_Pin);
 1281              		.loc 1 698 3 view .LVU294
 1282 004c 0F4C     		ldr	r4, .L90+28
 1283              	.LVL110:
 1284              		.loc 1 698 3 is_stmt 0 view .LVU295
 1285 004e 4FF40041 		mov	r1, #32768
 1286 0052 2046     		mov	r0, r4
 1287 0054 FFF7FEFF 		bl	HAL_GPIO_TogglePin
 1288              	.LVL111:
 699:../../applications/murata-dualstack-example-ns/src/murata-dualstack-example-ns.c ****   HAL_Delay(2000);
 1289              		.loc 1 699 3 is_stmt 1 view .LVU296
 1290 0058 4FF4FA60 		mov	r0, #2000
 1291 005c FFF7FEFF 		bl	HAL_Delay
 1292              	.LVL112:
 700:../../applications/murata-dualstack-example-ns/src/murata-dualstack-example-ns.c ****   HAL_GPIO_TogglePin(OCTA_BLED_GPIO_Port, OCTA_BLED_Pin);
 1293              		.loc 1 700 3 view .LVU297
 1294 0060 4FF40041 		mov	r1, #32768
 1295 0064 2046     		mov	r0, r4
 1296 0066 FFF7FEFF 		bl	HAL_GPIO_TogglePin
 1297              	.LVL113:
 701:../../applications/murata-dualstack-example-ns/src/murata-dualstack-example-ns.c **** }
 1298              		.loc 1 701 1 is_stmt 0 view .LVU298
 1299 006a 03B0     		add	sp, sp, #12
 1300              	.LCFI32:
 1301              		.cfi_def_cfa_offset 12
 1302              		@ sp needed
 1303 006c 30BD     		pop	{r4, r5, pc}
 1304              	.L91:
 1305 006e 00BF     		.align	2
 1306              	.L90:
 1307 0070 00000000 		.word	.LC8
 1308 0074 00000000 		.word	.LC13
 1309 0078 2C000000 		.word	.LC14
 1310 007c 00000000 		.word	short_UID
 1311 0080 5C000000 		.word	.LC15
 1312 0084 68000000 		.word	.LC16
 1313 0088 70000000 		.word	.LC17
 1314 008c 000C0048 		.word	1207962624
 1315              		.cfi_endproc
 1316              	.LFE147:
 1318              		.section	.text.main,"ax",%progbits
 1319              		.align	1
 1320              		.global	main
 1321              		.syntax unified
ARM GAS  C:\Users\yvesk\AppData\Local\Temp\cc36v34U.s 			page 37


 1322              		.thumb
 1323              		.thumb_func
 1324              		.fpu fpv4-sp-d16
 1326              	main:
 1327              	.LFB134:
 159:../../applications/murata-dualstack-example-ns/src/murata-dualstack-example-ns.c ****   /* USER CODE BEGIN 1 */
 1328              		.loc 1 159 1 is_stmt 1 view -0
 1329              		.cfi_startproc
 1330              		@ args = 0, pretend = 0, frame = 0
 1331              		@ frame_needed = 0, uses_anonymous_args = 0
 1332 0000 38B5     		push	{r3, r4, r5, lr}
 1333              	.LCFI33:
 1334              		.cfi_def_cfa_offset 16
 1335              		.cfi_offset 3, -16
 1336              		.cfi_offset 4, -12
 1337              		.cfi_offset 5, -8
 1338              		.cfi_offset 14, -4
 167:../../applications/murata-dualstack-example-ns/src/murata-dualstack-example-ns.c **** 
 1339              		.loc 1 167 3 view .LVU300
 1340 0002 FFF7FEFF 		bl	HAL_Init
 1341              	.LVL114:
 174:../../applications/murata-dualstack-example-ns/src/murata-dualstack-example-ns.c **** 
 1342              		.loc 1 174 3 view .LVU301
 1343 0006 FFF7FEFF 		bl	SystemClock_Config
 1344              	.LVL115:
 181:../../applications/murata-dualstack-example-ns/src/murata-dualstack-example-ns.c **** 
 1345              		.loc 1 181 3 view .LVU302
 1346 000a FFF7FEFF 		bl	Initialize_Platform
 1347              	.LVL116:
 184:../../applications/murata-dualstack-example-ns/src/murata-dualstack-example-ns.c ****   InitializeTimer3(); 
 1348              		.loc 1 184 3 view .LVU303
 1349 000e FFF7FEFF 		bl	InitializeTimer2
 1350              	.LVL117:
 185:../../applications/murata-dualstack-example-ns/src/murata-dualstack-example-ns.c **** 
 1351              		.loc 1 185 3 view .LVU304
 1352 0012 FFF7FEFF 		bl	InitializeTimer3
 1353              	.LVL118:
 190:../../applications/murata-dualstack-example-ns/src/murata-dualstack-example-ns.c **** 
 1354              		.loc 1 190 3 view .LVU305
 190:../../applications/murata-dualstack-example-ns/src/murata-dualstack-example-ns.c **** 
 1355              		.loc 1 190 15 is_stmt 0 view .LVU306
 1356 0016 FFF7FEFF 		bl	get_UID
 1357              	.LVL119:
 190:../../applications/murata-dualstack-example-ns/src/murata-dualstack-example-ns.c **** 
 1358              		.loc 1 190 13 view .LVU307
 1359 001a 744C     		ldr	r4, .L118
 1360 001c C4E90001 		strd	r0, [r4]
 193:../../applications/murata-dualstack-example-ns/src/murata-dualstack-example-ns.c ****   setI2CInterface_SHT31(&common_I2C);
 1361              		.loc 1 193 3 is_stmt 1 view .LVU308
 1362 0020 734D     		ldr	r5, .L118+4
 1363 0022 2846     		mov	r0, r5
 1364 0024 FFF7FEFF 		bl	LSM303AGR_setI2CInterface
 1365              	.LVL120:
 194:../../applications/murata-dualstack-example-ns/src/murata-dualstack-example-ns.c ****   SHT31_begin(); 
 1366              		.loc 1 194 3 view .LVU309
 1367 0028 2846     		mov	r0, r5
 1368 002a FFF7FEFF 		bl	setI2CInterface_SHT31
ARM GAS  C:\Users\yvesk\AppData\Local\Temp\cc36v34U.s 			page 38


 1369              	.LVL121:
 195:../../applications/murata-dualstack-example-ns/src/murata-dualstack-example-ns.c ****   LSM303AGR_initDefault();
 1370              		.loc 1 195 3 view .LVU310
 1371 002e FFF7FEFF 		bl	SHT31_begin
 1372              	.LVL122:
 196:../../applications/murata-dualstack-example-ns/src/murata-dualstack-example-ns.c **** 
 1373              		.loc 1 196 3 view .LVU311
 1374 0032 FFF7FEFF 		bl	LSM303AGR_initDefault
 1375              	.LVL123:
 199:../../applications/murata-dualstack-example-ns/src/murata-dualstack-example-ns.c **** 
 1376              		.loc 1 199 3 view .LVU312
 1377 0036 0A22     		movs	r2, #10
 1378 0038 6E49     		ldr	r1, .L118+8
 1379 003a 6F48     		ldr	r0, .L118+12
 1380 003c FFF7FEFF 		bl	HAL_UART_Receive_IT
 1381              	.LVL124:
 202:../../applications/murata-dualstack-example-ns/src/murata-dualstack-example-ns.c ****   HAL_NVIC_EnableIRQ(EXTI1_IRQn);
 1382              		.loc 1 202 3 view .LVU313
 1383 0040 0022     		movs	r2, #0
 1384 0042 1146     		mov	r1, r2
 1385 0044 0720     		movs	r0, #7
 1386 0046 FFF7FEFF 		bl	HAL_NVIC_SetPriority
 1387              	.LVL125:
 203:../../applications/murata-dualstack-example-ns/src/murata-dualstack-example-ns.c **** 
 1388              		.loc 1 203 3 view .LVU314
 1389 004a 0720     		movs	r0, #7
 1390 004c FFF7FEFF 		bl	HAL_NVIC_EnableIRQ
 1391              	.LVL126:
 206:../../applications/murata-dualstack-example-ns/src/murata-dualstack-example-ns.c ****   
 1392              		.loc 1 206 3 view .LVU315
 1393 0050 FFF7FEFF 		bl	printWelcome
 1394              	.LVL127:
 209:../../applications/murata-dualstack-example-ns/src/murata-dualstack-example-ns.c **** 
 1395              		.loc 1 209 3 view .LVU316
 209:../../applications/murata-dualstack-example-ns/src/murata-dualstack-example-ns.c **** 
 1396              		.loc 1 209 17 is_stmt 0 view .LVU317
 1397 0054 0022     		movs	r2, #0
 1398 0056 D4E90001 		ldrd	r0, [r4]
 1399 005a FFF7FEFF 		bl	Murata_Initialize
 1400              	.LVL128:
 209:../../applications/murata-dualstack-example-ns/src/murata-dualstack-example-ns.c **** 
 1401              		.loc 1 209 15 view .LVU318
 1402 005e 674B     		ldr	r3, .L118+16
 1403 0060 1870     		strb	r0, [r3]
 211:../../applications/murata-dualstack-example-ns/src/murata-dualstack-example-ns.c ****   {
 1404              		.loc 1 211 3 is_stmt 1 view .LVU319
 211:../../applications/murata-dualstack-example-ns/src/murata-dualstack-example-ns.c ****   {
 1405              		.loc 1 211 6 is_stmt 0 view .LVU320
 1406 0062 0028     		cmp	r0, #0
 1407 0064 49D0     		beq	.L107
 213:../../applications/murata-dualstack-example-ns/src/murata-dualstack-example-ns.c ****   }
 1408              		.loc 1 213 5 is_stmt 1 view .LVU321
 1409 0066 6648     		ldr	r0, .L118+20
 1410 0068 FFF7FEFF 		bl	puts
 1411              	.LVL129:
 1412 006c 45E0     		b	.L107
 1413              	.L117:
ARM GAS  C:\Users\yvesk\AppData\Local\Temp\cc36v34U.s 			page 39


 264:../../applications/murata-dualstack-example-ns/src/murata-dualstack-example-ns.c ****       murata_data_ready = !Murata_process_fifo();
 1414              		.loc 1 264 7 view .LVU322
 1415 006e 6548     		ldr	r0, .L118+24
 1416 0070 FFF7FEFF 		bl	puts
 1417              	.LVL130:
 265:../../applications/murata-dualstack-example-ns/src/murata-dualstack-example-ns.c ****     }
 1418              		.loc 1 265 7 view .LVU323
 265:../../applications/murata-dualstack-example-ns/src/murata-dualstack-example-ns.c ****     }
 1419              		.loc 1 265 28 is_stmt 0 view .LVU324
 1420 0074 FFF7FEFF 		bl	Murata_process_fifo
 1421              	.LVL131:
 265:../../applications/murata-dualstack-example-ns/src/murata-dualstack-example-ns.c ****     }
 1422              		.loc 1 265 27 view .LVU325
 1423 0078 B0FA80F0 		clz	r0, r0
 1424 007c 4009     		lsrs	r0, r0, #5
 265:../../applications/murata-dualstack-example-ns/src/murata-dualstack-example-ns.c ****     }
 1425              		.loc 1 265 25 view .LVU326
 1426 007e 624B     		ldr	r3, .L118+28
 1427 0080 1870     		strb	r0, [r3]
 1428 0082 41E0     		b	.L94
 1429              	.L96:
 294:../../applications/murata-dualstack-example-ns/src/murata-dualstack-example-ns.c ****         printf("Stopped Repping\nLSM in default mode \r\n\n");
 1430              		.loc 1 294 9 is_stmt 1 view .LVU327
 1431 0084 FFF7FEFF 		bl	LSM303AGR_initDefault
 1432              	.LVL132:
 295:../../applications/murata-dualstack-example-ns/src/murata-dualstack-example-ns.c ****         if (murata_init) {
 1433              		.loc 1 295 9 view .LVU328
 1434 0088 6048     		ldr	r0, .L118+32
 1435 008a FFF7FEFF 		bl	puts
 1436              	.LVL133:
 296:../../applications/murata-dualstack-example-ns/src/murata-dualstack-example-ns.c ****           printf("Sending D7 Message with BLE info + temp + hum + amount of reps\r\n");
 1437              		.loc 1 296 9 view .LVU329
 296:../../applications/murata-dualstack-example-ns/src/murata-dualstack-example-ns.c ****           printf("Sending D7 Message with BLE info + temp + hum + amount of reps\r\n");
 1438              		.loc 1 296 13 is_stmt 0 view .LVU330
 1439 008e 5B4B     		ldr	r3, .L118+16
 1440 0090 1B78     		ldrb	r3, [r3]	@ zero_extendqisi2
 296:../../applications/murata-dualstack-example-ns/src/murata-dualstack-example-ns.c ****           printf("Sending D7 Message with BLE info + temp + hum + amount of reps\r\n");
 1441              		.loc 1 296 12 view .LVU331
 1442 0092 002B     		cmp	r3, #0
 1443 0094 5DD1     		bne	.L110
 1444              	.L98:
 307:../../applications/murata-dualstack-example-ns/src/murata-dualstack-example-ns.c ****       }
 1445              		.loc 1 307 9 is_stmt 1 view .LVU332
 307:../../applications/murata-dualstack-example-ns/src/murata-dualstack-example-ns.c ****       }
 1446              		.loc 1 307 20 is_stmt 0 view .LVU333
 1447 0096 5E4B     		ldr	r3, .L118+36
 1448 0098 0022     		movs	r2, #0
 1449 009a 1A70     		strb	r2, [r3]
 1450              	.L97:
 309:../../applications/murata-dualstack-example-ns/src/murata-dualstack-example-ns.c **** 
 1451              		.loc 1 309 7 is_stmt 1 view .LVU334
 309:../../applications/murata-dualstack-example-ns/src/murata-dualstack-example-ns.c **** 
 1452              		.loc 1 309 25 is_stmt 0 view .LVU335
 1453 009c 5D4B     		ldr	r3, .L118+40
 1454 009e 0022     		movs	r2, #0
 1455 00a0 1A70     		strb	r2, [r3]
 1456              	.L95:
ARM GAS  C:\Users\yvesk\AppData\Local\Temp\cc36v34U.s 			page 40


 314:../../applications/murata-dualstack-example-ns/src/murata-dualstack-example-ns.c ****       if (repMode==1) {
 1457              		.loc 1 314 5 is_stmt 1 view .LVU336
 314:../../applications/murata-dualstack-example-ns/src/murata-dualstack-example-ns.c ****       if (repMode==1) {
 1458              		.loc 1 314 16 is_stmt 0 view .LVU337
 1459 00a2 5D4B     		ldr	r3, .L118+44
 1460 00a4 1B78     		ldrb	r3, [r3]	@ zero_extendqisi2
 314:../../applications/murata-dualstack-example-ns/src/murata-dualstack-example-ns.c ****       if (repMode==1) {
 1461              		.loc 1 314 8 view .LVU338
 1462 00a6 33B1     		cbz	r3, .L99
 315:../../applications/murata-dualstack-example-ns/src/murata-dualstack-example-ns.c ****       // Request to enter SLEEP mode
 1463              		.loc 1 315 7 is_stmt 1 view .LVU339
 315:../../applications/murata-dualstack-example-ns/src/murata-dualstack-example-ns.c ****       // Request to enter SLEEP mode
 1464              		.loc 1 315 18 is_stmt 0 view .LVU340
 1465 00a8 5C4B     		ldr	r3, .L118+48
 1466 00aa 1B78     		ldrb	r3, [r3]	@ zero_extendqisi2
 315:../../applications/murata-dualstack-example-ns/src/murata-dualstack-example-ns.c ****       // Request to enter SLEEP mode
 1467              		.loc 1 315 10 view .LVU341
 1468 00ac 002B     		cmp	r3, #0
 1469 00ae 59D1     		bne	.L111
 1470              	.L100:
 334:../../applications/murata-dualstack-example-ns/src/murata-dualstack-example-ns.c ****     }  
 1471              		.loc 1 334 11 is_stmt 1 view .LVU342
 334:../../applications/murata-dualstack-example-ns/src/murata-dualstack-example-ns.c ****     }  
 1472              		.loc 1 334 18 is_stmt 0 view .LVU343
 1473 00b0 594B     		ldr	r3, .L118+44
 1474 00b2 0022     		movs	r2, #0
 1475 00b4 1A70     		strb	r2, [r3]
 1476              	.L99:
 339:../../applications/murata-dualstack-example-ns/src/murata-dualstack-example-ns.c ****        //send dash7 localisation message
 1477              		.loc 1 339 5 is_stmt 1 view .LVU344
 339:../../applications/murata-dualstack-example-ns/src/murata-dualstack-example-ns.c ****        //send dash7 localisation message
 1478              		.loc 1 339 18 is_stmt 0 view .LVU345
 1479 00b6 5A4B     		ldr	r3, .L118+52
 1480 00b8 1B78     		ldrb	r3, [r3]	@ zero_extendqisi2
 339:../../applications/murata-dualstack-example-ns/src/murata-dualstack-example-ns.c ****        //send dash7 localisation message
 1481              		.loc 1 339 7 view .LVU346
 1482 00ba 33B1     		cbz	r3, .L101
 341:../../applications/murata-dualstack-example-ns/src/murata-dualstack-example-ns.c ****         printf("Sending dash7 localisation message (once per minute)\r\n\r\n");
 1483              		.loc 1 341 7 is_stmt 1 view .LVU347
 341:../../applications/murata-dualstack-example-ns/src/murata-dualstack-example-ns.c ****         printf("Sending dash7 localisation message (once per minute)\r\n\r\n");
 1484              		.loc 1 341 11 is_stmt 0 view .LVU348
 1485 00bc 4F4B     		ldr	r3, .L118+16
 1486 00be 1B78     		ldrb	r3, [r3]	@ zero_extendqisi2
 341:../../applications/murata-dualstack-example-ns/src/murata-dualstack-example-ns.c ****         printf("Sending dash7 localisation message (once per minute)\r\n\r\n");
 1487              		.loc 1 341 10 view .LVU349
 1488 00c0 002B     		cmp	r3, #0
 1489 00c2 5FD1     		bne	.L112
 1490              	.L102:
 347:../../applications/murata-dualstack-example-ns/src/murata-dualstack-example-ns.c ****     }
 1491              		.loc 1 347 6 is_stmt 1 view .LVU350
 347:../../applications/murata-dualstack-example-ns/src/murata-dualstack-example-ns.c ****     }
 1492              		.loc 1 347 16 is_stmt 0 view .LVU351
 1493 00c4 564B     		ldr	r3, .L118+52
 1494 00c6 0022     		movs	r2, #0
 1495 00c8 1A70     		strb	r2, [r3]
 1496              	.L101:
 350:../../applications/murata-dualstack-example-ns/src/murata-dualstack-example-ns.c ****       
ARM GAS  C:\Users\yvesk\AppData\Local\Temp\cc36v34U.s 			page 41


 1497              		.loc 1 350 6 is_stmt 1 view .LVU352
 350:../../applications/murata-dualstack-example-ns/src/murata-dualstack-example-ns.c ****       
 1498              		.loc 1 350 19 is_stmt 0 view .LVU353
 1499 00ca 564B     		ldr	r3, .L118+56
 1500 00cc 1B78     		ldrb	r3, [r3]	@ zero_extendqisi2
 350:../../applications/murata-dualstack-example-ns/src/murata-dualstack-example-ns.c ****       
 1501              		.loc 1 350 8 view .LVU354
 1502 00ce 33B1     		cbz	r3, .L103
 352:../../applications/murata-dualstack-example-ns/src/murata-dualstack-example-ns.c ****         
 1503              		.loc 1 352 7 is_stmt 1 view .LVU355
 352:../../applications/murata-dualstack-example-ns/src/murata-dualstack-example-ns.c ****         
 1504              		.loc 1 352 11 is_stmt 0 view .LVU356
 1505 00d0 4A4B     		ldr	r3, .L118+16
 1506 00d2 1B78     		ldrb	r3, [r3]	@ zero_extendqisi2
 352:../../applications/murata-dualstack-example-ns/src/murata-dualstack-example-ns.c ****         
 1507              		.loc 1 352 10 view .LVU357
 1508 00d4 002B     		cmp	r3, #0
 1509 00d6 5ED1     		bne	.L113
 1510              	.L104:
 359:../../applications/murata-dualstack-example-ns/src/murata-dualstack-example-ns.c ****     } 
 1511              		.loc 1 359 6 is_stmt 1 view .LVU358
 359:../../applications/murata-dualstack-example-ns/src/murata-dualstack-example-ns.c ****     } 
 1512              		.loc 1 359 16 is_stmt 0 view .LVU359
 1513 00d8 524B     		ldr	r3, .L118+56
 1514 00da 0022     		movs	r2, #0
 1515 00dc 1A70     		strb	r2, [r3]
 1516              	.L103:
 362:../../applications/murata-dualstack-example-ns/src/murata-dualstack-example-ns.c ****       printf("Going to LoRaWAN mode\r\n\r\n");
 1517              		.loc 1 362 5 is_stmt 1 view .LVU360
 362:../../applications/murata-dualstack-example-ns/src/murata-dualstack-example-ns.c ****       printf("Going to LoRaWAN mode\r\n\r\n");
 1518              		.loc 1 362 23 is_stmt 0 view .LVU361
 1519 00de 524B     		ldr	r3, .L118+60
 1520 00e0 1B78     		ldrb	r3, [r3]	@ zero_extendqisi2
 1521 00e2 DBB2     		uxtb	r3, r3
 362:../../applications/murata-dualstack-example-ns/src/murata-dualstack-example-ns.c ****       printf("Going to LoRaWAN mode\r\n\r\n");
 1522              		.loc 1 362 8 view .LVU362
 1523 00e4 032B     		cmp	r3, #3
 1524 00e6 61D0     		beq	.L114
 1525              	.L105:
 369:../../applications/murata-dualstack-example-ns/src/murata-dualstack-example-ns.c ****       printf("Going to dash7 mode\r\n\r\n");
 1526              		.loc 1 369 6 is_stmt 1 view .LVU363
 369:../../applications/murata-dualstack-example-ns/src/murata-dualstack-example-ns.c ****       printf("Going to dash7 mode\r\n\r\n");
 1527              		.loc 1 369 24 is_stmt 0 view .LVU364
 1528 00e8 504B     		ldr	r3, .L118+64
 1529 00ea 1B78     		ldrb	r3, [r3]	@ zero_extendqisi2
 1530 00ec DBB2     		uxtb	r3, r3
 369:../../applications/murata-dualstack-example-ns/src/murata-dualstack-example-ns.c ****       printf("Going to dash7 mode\r\n\r\n");
 1531              		.loc 1 369 9 view .LVU365
 1532 00ee 012B     		cmp	r3, #1
 1533 00f0 69D0     		beq	.L115
 1534              	.L106:
 376:../../applications/murata-dualstack-example-ns/src/murata-dualstack-example-ns.c ****       ble_callback(); 
 1535              		.loc 1 376 5 is_stmt 1 view .LVU366
 376:../../applications/murata-dualstack-example-ns/src/murata-dualstack-example-ns.c ****       ble_callback(); 
 1536              		.loc 1 376 9 is_stmt 0 view .LVU367
 1537 00f2 4F4B     		ldr	r3, .L118+68
 1538 00f4 1B78     		ldrb	r3, [r3]	@ zero_extendqisi2
ARM GAS  C:\Users\yvesk\AppData\Local\Temp\cc36v34U.s 			page 42


 376:../../applications/murata-dualstack-example-ns/src/murata-dualstack-example-ns.c ****       ble_callback(); 
 1539              		.loc 1 376 8 view .LVU368
 1540 00f6 002B     		cmp	r3, #0
 1541 00f8 6FD1     		bne	.L116
 1542              	.L107:
 258:../../applications/murata-dualstack-example-ns/src/murata-dualstack-example-ns.c ****   { 
 1543              		.loc 1 258 3 is_stmt 1 view .LVU369
 260:../../applications/murata-dualstack-example-ns/src/murata-dualstack-example-ns.c ****     //HAL_Delay(5000);
 1544              		.loc 1 260 6 view .LVU370
 1545 00fa 0020     		movs	r0, #0
 1546 00fc FFF7FEFF 		bl	IWDG_feed
 1547              	.LVL134:
 262:../../applications/murata-dualstack-example-ns/src/murata-dualstack-example-ns.c ****     {
 1548              		.loc 1 262 5 view .LVU371
 262:../../applications/murata-dualstack-example-ns/src/murata-dualstack-example-ns.c ****     {
 1549              		.loc 1 262 8 is_stmt 0 view .LVU372
 1550 0100 414B     		ldr	r3, .L118+28
 1551 0102 1B78     		ldrb	r3, [r3]	@ zero_extendqisi2
 262:../../applications/murata-dualstack-example-ns/src/murata-dualstack-example-ns.c ****     {
 1552              		.loc 1 262 7 view .LVU373
 1553 0104 002B     		cmp	r3, #0
 1554 0106 B2D1     		bne	.L117
 1555              	.L94:
 270:../../applications/murata-dualstack-example-ns/src/murata-dualstack-example-ns.c ****     
 1556              		.loc 1 270 6 is_stmt 1 view .LVU374
 1557 0108 0020     		movs	r0, #0
 1558 010a FFF7FEFF 		bl	IWDG_feed
 1559              	.LVL135:
 275:../../applications/murata-dualstack-example-ns/src/murata-dualstack-example-ns.c **** 
 1560              		.loc 1 275 5 view .LVU375
 275:../../applications/murata-dualstack-example-ns/src/murata-dualstack-example-ns.c **** 
 1561              		.loc 1 275 26 is_stmt 0 view .LVU376
 1562 010e 414B     		ldr	r3, .L118+40
 1563 0110 1B78     		ldrb	r3, [r3]	@ zero_extendqisi2
 275:../../applications/murata-dualstack-example-ns/src/murata-dualstack-example-ns.c **** 
 1564              		.loc 1 275 7 view .LVU377
 1565 0112 002B     		cmp	r3, #0
 1566 0114 C5D0     		beq	.L95
 277:../../applications/murata-dualstack-example-ns/src/murata-dualstack-example-ns.c ****         // send dash7 message with all info when user starts repping
 1567              		.loc 1 277 7 is_stmt 1 view .LVU378
 277:../../applications/murata-dualstack-example-ns/src/murata-dualstack-example-ns.c ****         // send dash7 message with all info when user starts repping
 1568              		.loc 1 277 17 is_stmt 0 view .LVU379
 1569 0116 414B     		ldr	r3, .L118+48
 1570 0118 1B78     		ldrb	r3, [r3]	@ zero_extendqisi2
 277:../../applications/murata-dualstack-example-ns/src/murata-dualstack-example-ns.c ****         // send dash7 message with all info when user starts repping
 1571              		.loc 1 277 9 view .LVU380
 1572 011a 002B     		cmp	r3, #0
 1573 011c B2D0     		beq	.L96
 279:../../applications/murata-dualstack-example-ns/src/murata-dualstack-example-ns.c ****         printf("Started Repping\r\n");
 1574              		.loc 1 279 9 is_stmt 1 view .LVU381
 1575 011e FFF7FEFF 		bl	LSM303AGR_initDouble
 1576              	.LVL136:
 280:../../applications/murata-dualstack-example-ns/src/murata-dualstack-example-ns.c ****         printf("LSM in double click mode \r\n");
 1577              		.loc 1 280 9 view .LVU382
 1578 0122 4448     		ldr	r0, .L118+72
 1579 0124 FFF7FEFF 		bl	puts
 1580              	.LVL137:
ARM GAS  C:\Users\yvesk\AppData\Local\Temp\cc36v34U.s 			page 43


 281:../../applications/murata-dualstack-example-ns/src/murata-dualstack-example-ns.c ****         if (murata_init) {
 1581              		.loc 1 281 9 view .LVU383
 1582 0128 4348     		ldr	r0, .L118+76
 1583 012a FFF7FEFF 		bl	puts
 1584              	.LVL138:
 282:../../applications/murata-dualstack-example-ns/src/murata-dualstack-example-ns.c ****           printf("Sending D7 Message with BLE info + temp + hum\r\n");
 1585              		.loc 1 282 9 view .LVU384
 282:../../applications/murata-dualstack-example-ns/src/murata-dualstack-example-ns.c ****           printf("Sending D7 Message with BLE info + temp + hum\r\n");
 1586              		.loc 1 282 13 is_stmt 0 view .LVU385
 1587 012e 334B     		ldr	r3, .L118+16
 1588 0130 1B78     		ldrb	r3, [r3]	@ zero_extendqisi2
 282:../../applications/murata-dualstack-example-ns/src/murata-dualstack-example-ns.c ****           printf("Sending D7 Message with BLE info + temp + hum\r\n");
 1589              		.loc 1 282 12 view .LVU386
 1590 0132 002B     		cmp	r3, #0
 1591 0134 B2D0     		beq	.L97
 1592              	.LBB17:
 283:../../applications/murata-dualstack-example-ns/src/murata-dualstack-example-ns.c ****           temp_hum_measurement();
 1593              		.loc 1 283 11 is_stmt 1 view .LVU387
 1594 0136 4148     		ldr	r0, .L118+80
 1595 0138 FFF7FEFF 		bl	puts
 1596              	.LVL139:
 284:../../applications/murata-dualstack-example-ns/src/murata-dualstack-example-ns.c ****           send_message(1);
 1597              		.loc 1 284 11 view .LVU388
 1598 013c FFF7FEFF 		bl	temp_hum_measurement
 1599              	.LVL140:
 285:../../applications/murata-dualstack-example-ns/src/murata-dualstack-example-ns.c ****           //LoRaWAN_send(NULL);
 1600              		.loc 1 285 11 view .LVU389
 1601 0140 0120     		movs	r0, #1
 1602 0142 FFF7FEFF 		bl	send_message
 1603              	.LVL141:
 287:../../applications/murata-dualstack-example-ns/src/murata-dualstack-example-ns.c **** 
 1604              		.loc 1 287 11 view .LVU390
 1605 0146 384B     		ldr	r3, .L118+60
 1606 0148 1978     		ldrb	r1, [r3]	@ zero_extendqisi2
 1607 014a 3D48     		ldr	r0, .L118+84
 1608 014c FFF7FEFF 		bl	printf
 1609              	.LVL142:
 1610 0150 A4E7     		b	.L97
 1611              	.L110:
 1612              	.LBE17:
 1613              	.LBB18:
 297:../../applications/murata-dualstack-example-ns/src/murata-dualstack-example-ns.c ****           temp_hum_measurement();
 1614              		.loc 1 297 11 view .LVU391
 1615 0152 3C48     		ldr	r0, .L118+88
 1616 0154 FFF7FEFF 		bl	puts
 1617              	.LVL143:
 298:../../applications/murata-dualstack-example-ns/src/murata-dualstack-example-ns.c ****         //Dash7_send_temphum();
 1618              		.loc 1 298 11 view .LVU392
 1619 0158 FFF7FEFF 		bl	temp_hum_measurement
 1620              	.LVL144:
 300:../../applications/murata-dualstack-example-ns/src/murata-dualstack-example-ns.c ****           //LoRaWAN_send(NULL);
 1621              		.loc 1 300 11 view .LVU393
 1622 015c 0220     		movs	r0, #2
 1623 015e FFF7FEFF 		bl	send_message
 1624              	.LVL145:
 1625 0162 98E7     		b	.L98
 1626              	.L111:
ARM GAS  C:\Users\yvesk\AppData\Local\Temp\cc36v34U.s 			page 44


 1627              	.LBE18:
 317:../../applications/murata-dualstack-example-ns/src/murata-dualstack-example-ns.c ****       printf("Timer value: %d,\r\n\r\n",timerValue);
 1628              		.loc 1 317 7 view .LVU394
 317:../../applications/murata-dualstack-example-ns/src/murata-dualstack-example-ns.c ****       printf("Timer value: %d,\r\n\r\n",timerValue);
 1629              		.loc 1 317 20 is_stmt 0 view .LVU395
 1630 0164 384B     		ldr	r3, .L118+92
 1631 0166 1B68     		ldr	r3, [r3]
 1632 0168 596A     		ldr	r1, [r3, #36]
 1633              	.LVL146:
 318:../../applications/murata-dualstack-example-ns/src/murata-dualstack-example-ns.c ****       rep_counter++; 
 1634              		.loc 1 318 7 is_stmt 1 view .LVU396
 1635 016a C9B2     		uxtb	r1, r1
 318:../../applications/murata-dualstack-example-ns/src/murata-dualstack-example-ns.c ****       rep_counter++; 
 1636              		.loc 1 318 7 is_stmt 0 view .LVU397
 1637 016c 3748     		ldr	r0, .L118+96
 1638 016e FFF7FEFF 		bl	printf
 1639              	.LVL147:
 319:../../applications/murata-dualstack-example-ns/src/murata-dualstack-example-ns.c ****       printf("Rep counter: %d,\r\n\r\n",rep_counter);
 1640              		.loc 1 319 7 is_stmt 1 view .LVU398
 319:../../applications/murata-dualstack-example-ns/src/murata-dualstack-example-ns.c ****       printf("Rep counter: %d,\r\n\r\n",rep_counter);
 1641              		.loc 1 319 18 is_stmt 0 view .LVU399
 1642 0172 274B     		ldr	r3, .L118+36
 1643 0174 1978     		ldrb	r1, [r3]	@ zero_extendqisi2
 1644 0176 0131     		adds	r1, r1, #1
 1645 0178 C9B2     		uxtb	r1, r1
 1646 017a 1970     		strb	r1, [r3]
 320:../../applications/murata-dualstack-example-ns/src/murata-dualstack-example-ns.c **** 
 1647              		.loc 1 320 7 is_stmt 1 view .LVU400
 1648 017c 3448     		ldr	r0, .L118+100
 1649 017e FFF7FEFF 		bl	printf
 1650              	.LVL148:
 1651 0182 95E7     		b	.L100
 1652              	.L112:
 1653              	.LBB19:
 342:../../applications/murata-dualstack-example-ns/src/murata-dualstack-example-ns.c ****           temp_hum_measurement();
 1654              		.loc 1 342 9 view .LVU401
 1655 0184 3348     		ldr	r0, .L118+104
 1656 0186 FFF7FEFF 		bl	puts
 1657              	.LVL149:
 343:../../applications/murata-dualstack-example-ns/src/murata-dualstack-example-ns.c ****         send_message(1);
 1658              		.loc 1 343 11 view .LVU402
 1659 018a FFF7FEFF 		bl	temp_hum_measurement
 1660              	.LVL150:
 344:../../applications/murata-dualstack-example-ns/src/murata-dualstack-example-ns.c ****          
 1661              		.loc 1 344 9 view .LVU403
 1662 018e 0120     		movs	r0, #1
 1663 0190 FFF7FEFF 		bl	send_message
 1664              	.LVL151:
 1665 0194 96E7     		b	.L102
 1666              	.L113:
 1667              	.LBE19:
 1668              	.LBB20:
 354:../../applications/murata-dualstack-example-ns/src/murata-dualstack-example-ns.c ****         temp_hum_measurement();
 1669              		.loc 1 354 9 view .LVU404
 1670 0196 3048     		ldr	r0, .L118+108
 1671 0198 FFF7FEFF 		bl	puts
 1672              	.LVL152:
ARM GAS  C:\Users\yvesk\AppData\Local\Temp\cc36v34U.s 			page 45


 355:../../applications/murata-dualstack-example-ns/src/murata-dualstack-example-ns.c ****         send_message(1); 
 1673              		.loc 1 355 9 view .LVU405
 1674 019c FFF7FEFF 		bl	temp_hum_measurement
 1675              	.LVL153:
 356:../../applications/murata-dualstack-example-ns/src/murata-dualstack-example-ns.c ****         goToSleep(); 
 1676              		.loc 1 356 9 view .LVU406
 1677 01a0 0120     		movs	r0, #1
 1678 01a2 FFF7FEFF 		bl	send_message
 1679              	.LVL154:
 357:../../applications/murata-dualstack-example-ns/src/murata-dualstack-example-ns.c ****       }
 1680              		.loc 1 357 9 view .LVU407
 1681 01a6 FFF7FEFF 		bl	goToSleep
 1682              	.LVL155:
 1683 01aa 95E7     		b	.L104
 1684              	.L114:
 1685              	.LBE20:
 363:../../applications/murata-dualstack-example-ns/src/murata-dualstack-example-ns.c ****       messageMode=1;      //go to lorawanmode
 1686              		.loc 1 363 7 view .LVU408
 1687 01ac 2B48     		ldr	r0, .L118+112
 1688 01ae FFF7FEFF 		bl	puts
 1689              	.LVL156:
 364:../../applications/murata-dualstack-example-ns/src/murata-dualstack-example-ns.c ****       successCounter=0;
 1690              		.loc 1 364 7 view .LVU409
 364:../../applications/murata-dualstack-example-ns/src/murata-dualstack-example-ns.c ****       successCounter=0;
 1691              		.loc 1 364 18 is_stmt 0 view .LVU410
 1692 01b2 2B4B     		ldr	r3, .L118+116
 1693 01b4 0122     		movs	r2, #1
 1694 01b6 1A70     		strb	r2, [r3]
 365:../../applications/murata-dualstack-example-ns/src/murata-dualstack-example-ns.c ****       failureCounter=4; 
 1695              		.loc 1 365 7 is_stmt 1 view .LVU411
 365:../../applications/murata-dualstack-example-ns/src/murata-dualstack-example-ns.c ****       failureCounter=4; 
 1696              		.loc 1 365 21 is_stmt 0 view .LVU412
 1697 01b8 1C4B     		ldr	r3, .L118+64
 1698 01ba 0022     		movs	r2, #0
 1699 01bc 1A70     		strb	r2, [r3]
 366:../../applications/murata-dualstack-example-ns/src/murata-dualstack-example-ns.c ****     }
 1700              		.loc 1 366 7 is_stmt 1 view .LVU413
 366:../../applications/murata-dualstack-example-ns/src/murata-dualstack-example-ns.c ****     }
 1701              		.loc 1 366 21 is_stmt 0 view .LVU414
 1702 01be 1A4B     		ldr	r3, .L118+60
 1703 01c0 0422     		movs	r2, #4
 1704 01c2 1A70     		strb	r2, [r3]
 1705 01c4 90E7     		b	.L105
 1706              	.L115:
 370:../../applications/murata-dualstack-example-ns/src/murata-dualstack-example-ns.c ****       messageMode=0;    //go to dash7mode
 1707              		.loc 1 370 7 is_stmt 1 view .LVU415
 1708 01c6 2748     		ldr	r0, .L118+120
 1709 01c8 FFF7FEFF 		bl	puts
 1710              	.LVL157:
 371:../../applications/murata-dualstack-example-ns/src/murata-dualstack-example-ns.c ****       successCounter=2;     //step over the 1 value so that between messages this if isn't accessed
 1711              		.loc 1 371 7 view .LVU416
 371:../../applications/murata-dualstack-example-ns/src/murata-dualstack-example-ns.c ****       successCounter=2;     //step over the 1 value so that between messages this if isn't accessed
 1712              		.loc 1 371 18 is_stmt 0 view .LVU417
 1713 01cc 244B     		ldr	r3, .L118+116
 1714 01ce 0022     		movs	r2, #0
 1715 01d0 1A70     		strb	r2, [r3]
 372:../../applications/murata-dualstack-example-ns/src/murata-dualstack-example-ns.c ****     }
ARM GAS  C:\Users\yvesk\AppData\Local\Temp\cc36v34U.s 			page 46


 1716              		.loc 1 372 7 is_stmt 1 view .LVU418
 372:../../applications/murata-dualstack-example-ns/src/murata-dualstack-example-ns.c ****     }
 1717              		.loc 1 372 21 is_stmt 0 view .LVU419
 1718 01d2 164B     		ldr	r3, .L118+64
 1719 01d4 0222     		movs	r2, #2
 1720 01d6 1A70     		strb	r2, [r3]
 1721 01d8 8BE7     		b	.L106
 1722              	.L116:
 1723              	.LBB21:
 377:../../applications/murata-dualstack-example-ns/src/murata-dualstack-example-ns.c ****       BLE_flag = 0; 
 1724              		.loc 1 377 7 is_stmt 1 view .LVU420
 1725 01da FFF7FEFF 		bl	ble_callback
 1726              	.LVL158:
 378:../../applications/murata-dualstack-example-ns/src/murata-dualstack-example-ns.c ****       printf("callback flag \r\n");
 1727              		.loc 1 378 7 view .LVU421
 378:../../applications/murata-dualstack-example-ns/src/murata-dualstack-example-ns.c ****       printf("callback flag \r\n");
 1728              		.loc 1 378 16 is_stmt 0 view .LVU422
 1729 01de 144B     		ldr	r3, .L118+68
 1730 01e0 0022     		movs	r2, #0
 1731 01e2 1A70     		strb	r2, [r3]
 379:../../applications/murata-dualstack-example-ns/src/murata-dualstack-example-ns.c ****     }
 1732              		.loc 1 379 7 is_stmt 1 view .LVU423
 1733 01e4 2048     		ldr	r0, .L118+124
 1734 01e6 FFF7FEFF 		bl	puts
 1735              	.LVL159:
 1736 01ea 86E7     		b	.L107
 1737              	.L119:
 1738              		.align	2
 1739              	.L118:
 1740 01ec 00000000 		.word	short_UID
 1741 01f0 00000000 		.word	common_I2C
 1742 01f4 00000000 		.word	tmpbuf_ble
 1743 01f8 00000000 		.word	BLE_UART
 1744 01fc 00000000 		.word	.LANCHOR3
 1745 0200 00000000 		.word	.LC18
 1746 0204 24000000 		.word	.LC19
 1747 0208 00000000 		.word	.LANCHOR9
 1748 020c B4000000 		.word	.LC24
 1749 0210 00000000 		.word	.LANCHOR7
 1750 0214 00000000 		.word	.LANCHOR11
 1751 0218 00000000 		.word	.LANCHOR14
 1752 021c 00000000 		.word	.LANCHOR12
 1753 0220 00000000 		.word	.LANCHOR15
 1754 0224 00000000 		.word	.LANCHOR16
 1755 0228 00000000 		.word	.LANCHOR13
 1756 022c 00000000 		.word	.LANCHOR17
 1757 0230 00000000 		.word	.LANCHOR10
 1758 0234 3C000000 		.word	.LC20
 1759 0238 50000000 		.word	.LC21
 1760 023c 6C000000 		.word	.LC22
 1761 0240 9C000000 		.word	.LC23
 1762 0244 DC000000 		.word	.LC25
 1763 0248 00000000 		.word	.LANCHOR0
 1764 024c 1C010000 		.word	.LC26
 1765 0250 34010000 		.word	.LC27
 1766 0254 4C010000 		.word	.LC28
 1767 0258 84010000 		.word	.LC29
ARM GAS  C:\Users\yvesk\AppData\Local\Temp\cc36v34U.s 			page 47


 1768 025c BC010000 		.word	.LC30
 1769 0260 00000000 		.word	.LANCHOR8
 1770 0264 D8010000 		.word	.LC31
 1771 0268 F0010000 		.word	.LC32
 1772              	.LBE21:
 1773              		.cfi_endproc
 1774              	.LFE134:
 1776              		.section	.text.HAL_GPIO_EXTI_Callback,"ax",%progbits
 1777              		.align	1
 1778              		.global	HAL_GPIO_EXTI_Callback
 1779              		.syntax unified
 1780              		.thumb
 1781              		.thumb_func
 1782              		.fpu fpv4-sp-d16
 1784              	HAL_GPIO_EXTI_Callback:
 1785              	.LVL160:
 1786              	.LFB148:
 702:../../applications/murata-dualstack-example-ns/src/murata-dualstack-example-ns.c **** 
 703:../../applications/murata-dualstack-example-ns/src/murata-dualstack-example-ns.c **** /* USER CODE END 4 */
 704:../../applications/murata-dualstack-example-ns/src/murata-dualstack-example-ns.c **** 
 705:../../applications/murata-dualstack-example-ns/src/murata-dualstack-example-ns.c **** //-------------------------------------------------------start interrupt handlers -----------------
 706:../../applications/murata-dualstack-example-ns/src/murata-dualstack-example-ns.c **** 
 707:../../applications/murata-dualstack-example-ns/src/murata-dualstack-example-ns.c **** //See platform>octa>stm32l4xx_it.c there we placed exti15_10 function to capture interrupts on one 
 708:../../applications/murata-dualstack-example-ns/src/murata-dualstack-example-ns.c **** // (see slides of Mr weyn for the exact function name). In this function we call the "HAL_GPIO_EXTI
 709:../../applications/murata-dualstack-example-ns/src/murata-dualstack-example-ns.c **** // file. In this function the "HAL_GPIO_EXTI_Callback" is called, which we define below 
 710:../../applications/murata-dualstack-example-ns/src/murata-dualstack-example-ns.c **** void HAL_GPIO_EXTI_Callback(uint16_t GPIO_Pin) {
 1787              		.loc 1 710 48 view -0
 1788              		.cfi_startproc
 1789              		@ args = 0, pretend = 0, frame = 0
 1790              		@ frame_needed = 0, uses_anonymous_args = 0
 711:../../applications/murata-dualstack-example-ns/src/murata-dualstack-example-ns.c ****   if (GPIO_Pin==GPIO_Pin_13) {
 1791              		.loc 1 711 3 view .LVU425
 1792              		.loc 1 711 6 is_stmt 0 view .LVU426
 1793 0000 B0F5005F 		cmp	r0, #8192
 1794 0004 00D0     		beq	.L126
 1795 0006 7047     		bx	lr
 1796              	.L126:
 710:../../applications/murata-dualstack-example-ns/src/murata-dualstack-example-ns.c ****   if (GPIO_Pin==GPIO_Pin_13) {
 1797              		.loc 1 710 48 view .LVU427
 1798 0008 08B5     		push	{r3, lr}
 1799              	.LCFI34:
 1800              		.cfi_def_cfa_offset 8
 1801              		.cfi_offset 3, -8
 1802              		.cfi_offset 14, -4
 712:../../applications/murata-dualstack-example-ns/src/murata-dualstack-example-ns.c ****   repFlag = 1; 
 1803              		.loc 1 712 3 is_stmt 1 view .LVU428
 1804              		.loc 1 712 11 is_stmt 0 view .LVU429
 1805 000a 034B     		ldr	r3, .L127
 1806 000c 0122     		movs	r2, #1
 1807 000e 1A70     		strb	r2, [r3]
 713:../../applications/murata-dualstack-example-ns/src/murata-dualstack-example-ns.c ****   printf("interrupt accelerometer! \r\n");
 1808              		.loc 1 713 3 is_stmt 1 view .LVU430
 1809 0010 0248     		ldr	r0, .L127+4
 1810              	.LVL161:
 1811              		.loc 1 713 3 is_stmt 0 view .LVU431
 1812 0012 FFF7FEFF 		bl	puts
 1813              	.LVL162:
ARM GAS  C:\Users\yvesk\AppData\Local\Temp\cc36v34U.s 			page 48


 714:../../applications/murata-dualstack-example-ns/src/murata-dualstack-example-ns.c ****   // we work with a flag so as to make sure that we don't stay in the callback for too long. This w
 715:../../applications/murata-dualstack-example-ns/src/murata-dualstack-example-ns.c ****   // the flag will call the measurement function in de while loop
 716:../../applications/murata-dualstack-example-ns/src/murata-dualstack-example-ns.c ****   } 
 717:../../applications/murata-dualstack-example-ns/src/murata-dualstack-example-ns.c **** }
 1814              		.loc 1 717 1 view .LVU432
 1815 0016 08BD     		pop	{r3, pc}
 1816              	.L128:
 1817              		.align	2
 1818              	.L127:
 1819 0018 00000000 		.word	.LANCHOR14
 1820 001c 00000000 		.word	.LC33
 1821              		.cfi_endproc
 1822              	.LFE148:
 1824              		.section	.text.EXTI1_IRQHandler,"ax",%progbits
 1825              		.align	1
 1826              		.global	EXTI1_IRQHandler
 1827              		.syntax unified
 1828              		.thumb
 1829              		.thumb_func
 1830              		.fpu fpv4-sp-d16
 1832              	EXTI1_IRQHandler:
 1833              	.LFB149:
 718:../../applications/murata-dualstack-example-ns/src/murata-dualstack-example-ns.c **** 
 719:../../applications/murata-dualstack-example-ns/src/murata-dualstack-example-ns.c **** void EXTI1_IRQHandler(void){
 1834              		.loc 1 719 28 is_stmt 1 view -0
 1835              		.cfi_startproc
 1836              		@ args = 0, pretend = 0, frame = 0
 1837              		@ frame_needed = 0, uses_anonymous_args = 0
 1838 0000 08B5     		push	{r3, lr}
 1839              	.LCFI35:
 1840              		.cfi_def_cfa_offset 8
 1841              		.cfi_offset 3, -8
 1842              		.cfi_offset 14, -4
 720:../../applications/murata-dualstack-example-ns/src/murata-dualstack-example-ns.c ****     //Start reps
 721:../../applications/murata-dualstack-example-ns/src/murata-dualstack-example-ns.c ****     __HAL_GPIO_EXTI_CLEAR_IT(GPIO_PIN_1);
 1843              		.loc 1 721 5 view .LVU434
 1844 0002 074B     		ldr	r3, .L131
 1845 0004 0222     		movs	r2, #2
 1846 0006 5A61     		str	r2, [r3, #20]
 722:../../applications/murata-dualstack-example-ns/src/murata-dualstack-example-ns.c ****     printf("INTERRUPT BUTTON! \r\n");
 1847              		.loc 1 722 5 view .LVU435
 1848 0008 0648     		ldr	r0, .L131+4
 1849 000a FFF7FEFF 		bl	puts
 1850              	.LVL163:
 723:../../applications/murata-dualstack-example-ns/src/murata-dualstack-example-ns.c ****     repMode= !repMode;
 1851              		.loc 1 723 5 view .LVU436
 1852 000e 064A     		ldr	r2, .L131+8
 1853 0010 1378     		ldrb	r3, [r2]	@ zero_extendqisi2
 1854 0012 83F00103 		eor	r3, r3, #1
 1855              		.loc 1 723 12 is_stmt 0 view .LVU437
 1856 0016 1370     		strb	r3, [r2]
 724:../../applications/murata-dualstack-example-ns/src/murata-dualstack-example-ns.c ****     changeAcceleroMode=1;
 1857              		.loc 1 724 5 is_stmt 1 view .LVU438
 1858              		.loc 1 724 23 is_stmt 0 view .LVU439
 1859 0018 044B     		ldr	r3, .L131+12
 1860 001a 0122     		movs	r2, #1
 1861 001c 1A70     		strb	r2, [r3]
ARM GAS  C:\Users\yvesk\AppData\Local\Temp\cc36v34U.s 			page 49


 725:../../applications/murata-dualstack-example-ns/src/murata-dualstack-example-ns.c ****     //Change registers of accelero
 726:../../applications/murata-dualstack-example-ns/src/murata-dualstack-example-ns.c **** }
 1862              		.loc 1 726 1 view .LVU440
 1863 001e 08BD     		pop	{r3, pc}
 1864              	.L132:
 1865              		.align	2
 1866              	.L131:
 1867 0020 00040140 		.word	1073808384
 1868 0024 00000000 		.word	.LC34
 1869 0028 00000000 		.word	.LANCHOR12
 1870 002c 00000000 		.word	.LANCHOR11
 1871              		.cfi_endproc
 1872              	.LFE149:
 1874              		.section	.text.TIM2_IRQHandler,"ax",%progbits
 1875              		.align	1
 1876              		.global	TIM2_IRQHandler
 1877              		.syntax unified
 1878              		.thumb
 1879              		.thumb_func
 1880              		.fpu fpv4-sp-d16
 1882              	TIM2_IRQHandler:
 1883              	.LFB150:
 727:../../applications/murata-dualstack-example-ns/src/murata-dualstack-example-ns.c **** 
 728:../../applications/murata-dualstack-example-ns/src/murata-dualstack-example-ns.c **** void TIM2_IRQHandler( void ) {
 1884              		.loc 1 728 30 is_stmt 1 view -0
 1885              		.cfi_startproc
 1886              		@ args = 0, pretend = 0, frame = 0
 1887              		@ frame_needed = 0, uses_anonymous_args = 0
 1888 0000 08B5     		push	{r3, lr}
 1889              	.LCFI36:
 1890              		.cfi_def_cfa_offset 8
 1891              		.cfi_offset 3, -8
 1892              		.cfi_offset 14, -4
 729:../../applications/murata-dualstack-example-ns/src/murata-dualstack-example-ns.c **** 
 730:../../applications/murata-dualstack-example-ns/src/murata-dualstack-example-ns.c ****   //printf("elapsed period \r\n");
 731:../../applications/murata-dualstack-example-ns/src/murata-dualstack-example-ns.c ****  
 732:../../applications/murata-dualstack-example-ns/src/murata-dualstack-example-ns.c ****   if (__HAL_TIM_GET_FLAG(&localisation_timer, TIM_IT_UPDATE) != RESET) 
 1893              		.loc 1 732 3 view .LVU442
 1894              		.loc 1 732 7 is_stmt 0 view .LVU443
 1895 0002 0A4B     		ldr	r3, .L137
 1896 0004 1B68     		ldr	r3, [r3]
 1897 0006 1A69     		ldr	r2, [r3, #16]
 1898              		.loc 1 732 6 view .LVU444
 1899 0008 12F0010F 		tst	r2, #1
 1900 000c 03D0     		beq	.L133
 733:../../applications/murata-dualstack-example-ns/src/murata-dualstack-example-ns.c ****   //In case other interrupts are also running
 734:../../applications/murata-dualstack-example-ns/src/murata-dualstack-example-ns.c ****   {
 735:../../applications/murata-dualstack-example-ns/src/murata-dualstack-example-ns.c ****   
 736:../../applications/murata-dualstack-example-ns/src/murata-dualstack-example-ns.c ****     if (__HAL_TIM_GET_IT_SOURCE(&localisation_timer, TIM_IT_UPDATE) != RESET) {
 1901              		.loc 1 736 5 is_stmt 1 view .LVU445
 1902              		.loc 1 736 9 is_stmt 0 view .LVU446
 1903 000e DA68     		ldr	r2, [r3, #12]
 1904              		.loc 1 736 8 view .LVU447
 1905 0010 12F0010F 		tst	r2, #1
 1906 0014 00D1     		bne	.L136
 1907              	.L133:
 737:../../applications/murata-dualstack-example-ns/src/murata-dualstack-example-ns.c ****     
ARM GAS  C:\Users\yvesk\AppData\Local\Temp\cc36v34U.s 			page 50


 738:../../applications/murata-dualstack-example-ns/src/murata-dualstack-example-ns.c ****     __HAL_TIM_CLEAR_IT(&localisation_timer, TIM_IT_UPDATE);
 739:../../applications/murata-dualstack-example-ns/src/murata-dualstack-example-ns.c ****     
 740:../../applications/murata-dualstack-example-ns/src/murata-dualstack-example-ns.c ****     
 741:../../applications/murata-dualstack-example-ns/src/murata-dualstack-example-ns.c ****     printf("elapsed period \r\n");
 742:../../applications/murata-dualstack-example-ns/src/murata-dualstack-example-ns.c ****     timer2flag = 1; 
 743:../../applications/murata-dualstack-example-ns/src/murata-dualstack-example-ns.c ****     
 744:../../applications/murata-dualstack-example-ns/src/murata-dualstack-example-ns.c ****     
 745:../../applications/murata-dualstack-example-ns/src/murata-dualstack-example-ns.c ****     }
 746:../../applications/murata-dualstack-example-ns/src/murata-dualstack-example-ns.c ****   
 747:../../applications/murata-dualstack-example-ns/src/murata-dualstack-example-ns.c ****   }
 748:../../applications/murata-dualstack-example-ns/src/murata-dualstack-example-ns.c ****  
 749:../../applications/murata-dualstack-example-ns/src/murata-dualstack-example-ns.c **** }
 1908              		.loc 1 749 1 view .LVU448
 1909 0016 08BD     		pop	{r3, pc}
 1910              	.L136:
 738:../../applications/murata-dualstack-example-ns/src/murata-dualstack-example-ns.c ****     
 1911              		.loc 1 738 5 is_stmt 1 view .LVU449
 1912 0018 6FF00102 		mvn	r2, #1
 1913 001c 1A61     		str	r2, [r3, #16]
 741:../../applications/murata-dualstack-example-ns/src/murata-dualstack-example-ns.c ****     timer2flag = 1; 
 1914              		.loc 1 741 5 view .LVU450
 1915 001e 0448     		ldr	r0, .L137+4
 1916 0020 FFF7FEFF 		bl	puts
 1917              	.LVL164:
 742:../../applications/murata-dualstack-example-ns/src/murata-dualstack-example-ns.c ****     
 1918              		.loc 1 742 5 view .LVU451
 742:../../applications/murata-dualstack-example-ns/src/murata-dualstack-example-ns.c ****     
 1919              		.loc 1 742 16 is_stmt 0 view .LVU452
 1920 0024 034B     		ldr	r3, .L137+8
 1921 0026 0122     		movs	r2, #1
 1922 0028 1A70     		strb	r2, [r3]
 1923              		.loc 1 749 1 view .LVU453
 1924 002a F4E7     		b	.L133
 1925              	.L138:
 1926              		.align	2
 1927              	.L137:
 1928 002c 00000000 		.word	.LANCHOR0
 1929 0030 00000000 		.word	.LC35
 1930 0034 00000000 		.word	.LANCHOR15
 1931              		.cfi_endproc
 1932              	.LFE150:
 1934              		.section	.text.TIM3_IRQHandler,"ax",%progbits
 1935              		.align	1
 1936              		.global	TIM3_IRQHandler
 1937              		.syntax unified
 1938              		.thumb
 1939              		.thumb_func
 1940              		.fpu fpv4-sp-d16
 1942              	TIM3_IRQHandler:
 1943              	.LFB151:
 750:../../applications/murata-dualstack-example-ns/src/murata-dualstack-example-ns.c **** 
 751:../../applications/murata-dualstack-example-ns/src/murata-dualstack-example-ns.c **** void TIM3_IRQHandler( void ) {
 1944              		.loc 1 751 30 is_stmt 1 view -0
 1945              		.cfi_startproc
 1946              		@ args = 0, pretend = 0, frame = 0
 1947              		@ frame_needed = 0, uses_anonymous_args = 0
 1948 0000 08B5     		push	{r3, lr}
ARM GAS  C:\Users\yvesk\AppData\Local\Temp\cc36v34U.s 			page 51


 1949              	.LCFI37:
 1950              		.cfi_def_cfa_offset 8
 1951              		.cfi_offset 3, -8
 1952              		.cfi_offset 14, -4
 752:../../applications/murata-dualstack-example-ns/src/murata-dualstack-example-ns.c **** 
 753:../../applications/murata-dualstack-example-ns/src/murata-dualstack-example-ns.c ****   //printf("elapsed period \r\n");
 754:../../applications/murata-dualstack-example-ns/src/murata-dualstack-example-ns.c ****  
 755:../../applications/murata-dualstack-example-ns/src/murata-dualstack-example-ns.c ****   if (__HAL_TIM_GET_FLAG(&inactive_timer, TIM_IT_UPDATE) != RESET) 
 1953              		.loc 1 755 3 view .LVU455
 1954              		.loc 1 755 7 is_stmt 0 view .LVU456
 1955 0002 0D4B     		ldr	r3, .L144
 1956 0004 1B68     		ldr	r3, [r3]
 1957 0006 1A69     		ldr	r2, [r3, #16]
 1958              		.loc 1 755 6 view .LVU457
 1959 0008 12F0010F 		tst	r2, #1
 1960 000c 0CD0     		beq	.L139
 756:../../applications/murata-dualstack-example-ns/src/murata-dualstack-example-ns.c ****   //In case other interrupts are also running
 757:../../applications/murata-dualstack-example-ns/src/murata-dualstack-example-ns.c ****   {
 758:../../applications/murata-dualstack-example-ns/src/murata-dualstack-example-ns.c ****   
 759:../../applications/murata-dualstack-example-ns/src/murata-dualstack-example-ns.c ****     if (__HAL_TIM_GET_IT_SOURCE(&inactive_timer, TIM_IT_UPDATE) != RESET) {
 1961              		.loc 1 759 5 is_stmt 1 view .LVU458
 1962              		.loc 1 759 9 is_stmt 0 view .LVU459
 1963 000e DA68     		ldr	r2, [r3, #12]
 1964              		.loc 1 759 8 view .LVU460
 1965 0010 12F0010F 		tst	r2, #1
 1966 0014 08D0     		beq	.L139
 760:../../applications/murata-dualstack-example-ns/src/murata-dualstack-example-ns.c ****     
 761:../../applications/murata-dualstack-example-ns/src/murata-dualstack-example-ns.c ****     __HAL_TIM_CLEAR_IT(&inactive_timer, TIM_IT_UPDATE);
 1967              		.loc 1 761 5 is_stmt 1 view .LVU461
 1968 0016 6FF00102 		mvn	r2, #1
 1969 001a 1A61     		str	r2, [r3, #16]
 762:../../applications/murata-dualstack-example-ns/src/murata-dualstack-example-ns.c ****     
 763:../../applications/murata-dualstack-example-ns/src/murata-dualstack-example-ns.c ****     if (timer3_first>0) {
 1970              		.loc 1 763 5 view .LVU462
 1971              		.loc 1 763 21 is_stmt 0 view .LVU463
 1972 001c 074B     		ldr	r3, .L144+4
 1973 001e 1B78     		ldrb	r3, [r3]	@ zero_extendqisi2
 1974              		.loc 1 763 8 view .LVU464
 1975 0020 1BB9     		cbnz	r3, .L143
 1976              	.L141:
 764:../../applications/murata-dualstack-example-ns/src/murata-dualstack-example-ns.c ****     printf("elapsed period \r\n");
 765:../../applications/murata-dualstack-example-ns/src/murata-dualstack-example-ns.c ****     timer3flag = 1; 
 766:../../applications/murata-dualstack-example-ns/src/murata-dualstack-example-ns.c ****     
 767:../../applications/murata-dualstack-example-ns/src/murata-dualstack-example-ns.c ****     }
 768:../../applications/murata-dualstack-example-ns/src/murata-dualstack-example-ns.c ****     timer3_first=1; 
 1977              		.loc 1 768 5 is_stmt 1 view .LVU465
 1978              		.loc 1 768 17 is_stmt 0 view .LVU466
 1979 0022 064B     		ldr	r3, .L144+4
 1980 0024 0122     		movs	r2, #1
 1981 0026 1A70     		strb	r2, [r3]
 1982              	.L139:
 769:../../applications/murata-dualstack-example-ns/src/murata-dualstack-example-ns.c ****     }
 770:../../applications/murata-dualstack-example-ns/src/murata-dualstack-example-ns.c ****   
 771:../../applications/murata-dualstack-example-ns/src/murata-dualstack-example-ns.c ****   }
 772:../../applications/murata-dualstack-example-ns/src/murata-dualstack-example-ns.c ****  
 773:../../applications/murata-dualstack-example-ns/src/murata-dualstack-example-ns.c **** }
 1983              		.loc 1 773 1 view .LVU467
ARM GAS  C:\Users\yvesk\AppData\Local\Temp\cc36v34U.s 			page 52


 1984 0028 08BD     		pop	{r3, pc}
 1985              	.L143:
 764:../../applications/murata-dualstack-example-ns/src/murata-dualstack-example-ns.c ****     printf("elapsed period \r\n");
 1986              		.loc 1 764 5 is_stmt 1 view .LVU468
 1987 002a 0548     		ldr	r0, .L144+8
 1988 002c FFF7FEFF 		bl	puts
 1989              	.LVL165:
 765:../../applications/murata-dualstack-example-ns/src/murata-dualstack-example-ns.c ****     
 1990              		.loc 1 765 5 view .LVU469
 765:../../applications/murata-dualstack-example-ns/src/murata-dualstack-example-ns.c ****     
 1991              		.loc 1 765 16 is_stmt 0 view .LVU470
 1992 0030 044B     		ldr	r3, .L144+12
 1993 0032 0122     		movs	r2, #1
 1994 0034 1A70     		strb	r2, [r3]
 1995 0036 F4E7     		b	.L141
 1996              	.L145:
 1997              		.align	2
 1998              	.L144:
 1999 0038 00000000 		.word	.LANCHOR1
 2000 003c 00000000 		.word	.LANCHOR2
 2001 0040 00000000 		.word	.LC35
 2002 0044 00000000 		.word	.LANCHOR16
 2003              		.cfi_endproc
 2004              	.LFE151:
 2006              		.section	.text.HAL_TIM_PeriodElapsedCallback,"ax",%progbits
 2007              		.align	1
 2008              		.global	HAL_TIM_PeriodElapsedCallback
 2009              		.syntax unified
 2010              		.thumb
 2011              		.thumb_func
 2012              		.fpu fpv4-sp-d16
 2014              	HAL_TIM_PeriodElapsedCallback:
 2015              	.LVL166:
 2016              	.LFB152:
 774:../../applications/murata-dualstack-example-ns/src/murata-dualstack-example-ns.c **** 
 775:../../applications/murata-dualstack-example-ns/src/murata-dualstack-example-ns.c **** 
 776:../../applications/murata-dualstack-example-ns/src/murata-dualstack-example-ns.c **** //--------------------------------------------------------------------end interrupt handlers-------
 777:../../applications/murata-dualstack-example-ns/src/murata-dualstack-example-ns.c **** 
 778:../../applications/murata-dualstack-example-ns/src/murata-dualstack-example-ns.c **** 
 779:../../applications/murata-dualstack-example-ns/src/murata-dualstack-example-ns.c **** /**
 780:../../applications/murata-dualstack-example-ns/src/murata-dualstack-example-ns.c ****   * @brief  Period elapsed callback in non blocking mode
 781:../../applications/murata-dualstack-example-ns/src/murata-dualstack-example-ns.c ****   * @note   This function is called  when TIM1 interrupt took place, inside
 782:../../applications/murata-dualstack-example-ns/src/murata-dualstack-example-ns.c ****   * HAL_TIM_IRQHandler(). It makes a direct call to HAL_IncTick() to increment
 783:../../applications/murata-dualstack-example-ns/src/murata-dualstack-example-ns.c ****   * a global variable "uwTick" used as application time base.
 784:../../applications/murata-dualstack-example-ns/src/murata-dualstack-example-ns.c ****   * @param  htim : TIM handle
 785:../../applications/murata-dualstack-example-ns/src/murata-dualstack-example-ns.c ****   * @retval None
 786:../../applications/murata-dualstack-example-ns/src/murata-dualstack-example-ns.c ****   */
 787:../../applications/murata-dualstack-example-ns/src/murata-dualstack-example-ns.c **** void HAL_TIM_PeriodElapsedCallback(TIM_HandleTypeDef *htim)
 788:../../applications/murata-dualstack-example-ns/src/murata-dualstack-example-ns.c **** {
 2017              		.loc 1 788 1 is_stmt 1 view -0
 2018              		.cfi_startproc
 2019              		@ args = 0, pretend = 0, frame = 0
 2020              		@ frame_needed = 0, uses_anonymous_args = 0
 2021              		.loc 1 788 1 is_stmt 0 view .LVU472
 2022 0000 08B5     		push	{r3, lr}
 2023              	.LCFI38:
 2024              		.cfi_def_cfa_offset 8
ARM GAS  C:\Users\yvesk\AppData\Local\Temp\cc36v34U.s 			page 53


 2025              		.cfi_offset 3, -8
 2026              		.cfi_offset 14, -4
 789:../../applications/murata-dualstack-example-ns/src/murata-dualstack-example-ns.c ****   /* USER CODE BEGIN Callback 0 */
 790:../../applications/murata-dualstack-example-ns/src/murata-dualstack-example-ns.c **** 
 791:../../applications/murata-dualstack-example-ns/src/murata-dualstack-example-ns.c ****   /* USER CODE END Callback 0 */
 792:../../applications/murata-dualstack-example-ns/src/murata-dualstack-example-ns.c ****   if (htim->Instance == TIM1)
 2027              		.loc 1 792 3 is_stmt 1 view .LVU473
 2028              		.loc 1 792 11 is_stmt 0 view .LVU474
 2029 0002 0268     		ldr	r2, [r0]
 2030              		.loc 1 792 6 view .LVU475
 2031 0004 034B     		ldr	r3, .L150
 2032 0006 9A42     		cmp	r2, r3
 2033 0008 00D0     		beq	.L149
 2034              	.LVL167:
 2035              	.L146:
 793:../../applications/murata-dualstack-example-ns/src/murata-dualstack-example-ns.c ****   {
 794:../../applications/murata-dualstack-example-ns/src/murata-dualstack-example-ns.c ****     HAL_IncTick();
 795:../../applications/murata-dualstack-example-ns/src/murata-dualstack-example-ns.c ****   }
 796:../../applications/murata-dualstack-example-ns/src/murata-dualstack-example-ns.c ****   /* USER CODE BEGIN Callback 1 */
 797:../../applications/murata-dualstack-example-ns/src/murata-dualstack-example-ns.c **** 
 798:../../applications/murata-dualstack-example-ns/src/murata-dualstack-example-ns.c ****   /* USER CODE END Callback 1 */
 799:../../applications/murata-dualstack-example-ns/src/murata-dualstack-example-ns.c **** }
 2036              		.loc 1 799 1 view .LVU476
 2037 000a 08BD     		pop	{r3, pc}
 2038              	.LVL168:
 2039              	.L149:
 794:../../applications/murata-dualstack-example-ns/src/murata-dualstack-example-ns.c ****   }
 2040              		.loc 1 794 5 is_stmt 1 view .LVU477
 2041 000c FFF7FEFF 		bl	HAL_IncTick
 2042              	.LVL169:
 2043              		.loc 1 799 1 is_stmt 0 view .LVU478
 2044 0010 FBE7     		b	.L146
 2045              	.L151:
 2046 0012 00BF     		.align	2
 2047              	.L150:
 2048 0014 002C0140 		.word	1073818624
 2049              		.cfi_endproc
 2050              	.LFE152:
 2052              		.section	.text.Error_Handler,"ax",%progbits
 2053              		.align	1
 2054              		.global	Error_Handler
 2055              		.syntax unified
 2056              		.thumb
 2057              		.thumb_func
 2058              		.fpu fpv4-sp-d16
 2060              	Error_Handler:
 2061              	.LFB153:
 800:../../applications/murata-dualstack-example-ns/src/murata-dualstack-example-ns.c **** 
 801:../../applications/murata-dualstack-example-ns/src/murata-dualstack-example-ns.c **** /**
 802:../../applications/murata-dualstack-example-ns/src/murata-dualstack-example-ns.c ****   * @brief  This function is executed in case of error occurrence.
 803:../../applications/murata-dualstack-example-ns/src/murata-dualstack-example-ns.c ****   * @retval None
 804:../../applications/murata-dualstack-example-ns/src/murata-dualstack-example-ns.c ****   */
 805:../../applications/murata-dualstack-example-ns/src/murata-dualstack-example-ns.c **** void Error_Handler(void)
 806:../../applications/murata-dualstack-example-ns/src/murata-dualstack-example-ns.c **** {
 2062              		.loc 1 806 1 is_stmt 1 view -0
 2063              		.cfi_startproc
 2064              		@ args = 0, pretend = 0, frame = 0
ARM GAS  C:\Users\yvesk\AppData\Local\Temp\cc36v34U.s 			page 54


 2065              		@ frame_needed = 0, uses_anonymous_args = 0
 2066              		@ link register save eliminated.
 807:../../applications/murata-dualstack-example-ns/src/murata-dualstack-example-ns.c ****   /* USER CODE BEGIN Error_Handler_Debug */
 808:../../applications/murata-dualstack-example-ns/src/murata-dualstack-example-ns.c ****   /* User can add his own implementation to report the HAL error return state */
 809:../../applications/murata-dualstack-example-ns/src/murata-dualstack-example-ns.c **** 
 810:../../applications/murata-dualstack-example-ns/src/murata-dualstack-example-ns.c ****   /* USER CODE END Error_Handler_Debug */
 811:../../applications/murata-dualstack-example-ns/src/murata-dualstack-example-ns.c **** }
 2067              		.loc 1 811 1 view .LVU480
 2068 0000 7047     		bx	lr
 2069              		.cfi_endproc
 2070              	.LFE153:
 2072              		.global	BLE_flag
 2073              		.global	timer3_first
 2074              		.global	messageMode
 2075              		.global	changeAcceleroMode
 2076              		.global	repMode
 2077              		.global	repFlag
 2078              		.global	timer3flag
 2079              		.global	timer2flag
 2080              		.global	temperatureflag
 2081              		.comm	data,1,1
 2082              		.comm	tmpbuf_ble,10,4
 2083              		.comm	SHTData,8,4
 2084              		.global	messageCounter
 2085              		.global	successCounter
 2086              		.global	failureCounter
 2087              		.global	rep_counter
 2088              		.global	murata_data_ready
 2089              		.comm	short_UID,8,8
 2090              		.global	murata_init
 2091              		.global	DASH7_Counter
 2092              		.global	LoRaWAN_Counter
 2093              		.comm	threadToNotify,4,4
 2094              		.comm	murata_reset_pin,4,4
 2095              		.comm	murata_wakeup_pin,4,4
 2096              		.comm	magRawData,6,4
 2097              		.comm	magRegisterData,6,4
 2098              		.comm	accRawData,6,4
 2099              		.comm	accRegisterData,6,4
 2100              		.comm	LSM303AGR_hi2c,4,4
 2101              		.comm	LSM303AGR_setting,1,1
 2102              		.comm	murata_rx_process_mutex_id,4,4
 2103              		.comm	txMutexId,4,4
 2104              		.comm	moduleCheckTimId,4,4
 2105              		.comm	dash7TimId,4,4
 2106              		.comm	loraWANTimId,4,4
 2107              		.comm	iwdgTimId,4,4
 2108              		.comm	murata_rx_processing_handle,4,4
 2109              		.comm	defaultTaskHandle,4,4
 2110              		.comm	P3_header,44,4
 2111              		.comm	P2_header,44,4
 2112              		.comm	P1_header,44,4
 2113              		.comm	FLASH_SPI,100,4
 2114              		.comm	P3_SPI,100,4
 2115              		.comm	P2_SPI,100,4
 2116              		.comm	P1_SPI,100,4
 2117              		.comm	P3_I2C,76,4
ARM GAS  C:\Users\yvesk\AppData\Local\Temp\cc36v34U.s 			page 55


 2118              		.comm	P2_I2C,76,4
 2119              		.comm	P1_I2C,76,4
 2120              		.comm	common_I2C,76,4
 2121              		.comm	P3_UART,120,4
 2122              		.comm	P2_UART,120,4
 2123              		.comm	P1_UART,120,4
 2124              		.comm	BLE_UART,120,4
 2125              		.comm	USB_UART,120,4
 2126              		.comm	hiwdg,16,4
 2127              		.comm	P3_DIO6,8,4
 2128              		.comm	P3_DIO5,8,4
 2129              		.comm	P3_DIO4,8,4
 2130              		.comm	P3_DIO3,8,4
 2131              		.comm	P3_DIO2,8,4
 2132              		.comm	P3_DIO1,8,4
 2133              		.comm	P2_DIO6,8,4
 2134              		.comm	P2_DIO5,8,4
 2135              		.comm	P2_DIO4,8,4
 2136              		.comm	P2_DIO3,8,4
 2137              		.comm	P2_DIO2,8,4
 2138              		.comm	P2_DIO1,8,4
 2139              		.comm	P1_DIO6,8,4
 2140              		.comm	P1_DIO5,8,4
 2141              		.comm	P1_DIO4,8,4
 2142              		.comm	P1_DIO3,8,4
 2143              		.comm	P1_DIO2,8,4
 2144              		.comm	P1_DIO1,8,4
 2145              		.section	.bss.BLE_flag,"aw",%nobits
 2146              		.set	.LANCHOR10,. + 0
 2149              	BLE_flag:
 2150 0000 00       		.space	1
 2151              		.section	.bss.DASH7_Counter,"aw",%nobits
 2152              		.align	1
 2153              		.set	.LANCHOR5,. + 0
 2156              	DASH7_Counter:
 2157 0000 0000     		.space	2
 2158              		.section	.bss.LoRaWAN_Counter,"aw",%nobits
 2159              		.align	1
 2160              		.set	.LANCHOR4,. + 0
 2163              	LoRaWAN_Counter:
 2164 0000 0000     		.space	2
 2165              		.section	.bss.changeAcceleroMode,"aw",%nobits
 2166              		.set	.LANCHOR11,. + 0
 2169              	changeAcceleroMode:
 2170 0000 00       		.space	1
 2171              		.section	.bss.failureCounter,"aw",%nobits
 2172              		.set	.LANCHOR13,. + 0
 2175              	failureCounter:
 2176 0000 00       		.space	1
 2177              		.section	.bss.messageCounter,"aw",%nobits
 2178              		.set	.LANCHOR6,. + 0
 2181              	messageCounter:
 2182 0000 00       		.space	1
 2183              		.section	.bss.messageMode,"aw",%nobits
 2184              		.set	.LANCHOR8,. + 0
 2187              	messageMode:
 2188 0000 00       		.space	1
ARM GAS  C:\Users\yvesk\AppData\Local\Temp\cc36v34U.s 			page 56


 2189              		.section	.bss.murata_data_ready,"aw",%nobits
 2190              		.set	.LANCHOR9,. + 0
 2193              	murata_data_ready:
 2194 0000 00       		.space	1
 2195              		.section	.bss.murata_init,"aw",%nobits
 2196              		.set	.LANCHOR3,. + 0
 2199              	murata_init:
 2200 0000 00       		.space	1
 2201              		.section	.bss.repFlag,"aw",%nobits
 2202              		.set	.LANCHOR14,. + 0
 2205              	repFlag:
 2206 0000 00       		.space	1
 2207              		.section	.bss.repMode,"aw",%nobits
 2208              		.set	.LANCHOR12,. + 0
 2211              	repMode:
 2212 0000 00       		.space	1
 2213              		.section	.bss.rep_counter,"aw",%nobits
 2214              		.set	.LANCHOR7,. + 0
 2217              	rep_counter:
 2218 0000 00       		.space	1
 2219              		.section	.bss.successCounter,"aw",%nobits
 2220              		.set	.LANCHOR17,. + 0
 2223              	successCounter:
 2224 0000 00       		.space	1
 2225              		.section	.bss.temperatureflag,"aw",%nobits
 2228              	temperatureflag:
 2229 0000 00       		.space	1
 2230              		.section	.bss.timer2flag,"aw",%nobits
 2231              		.set	.LANCHOR15,. + 0
 2234              	timer2flag:
 2235 0000 00       		.space	1
 2236              		.section	.bss.timer3_first,"aw",%nobits
 2237              		.set	.LANCHOR2,. + 0
 2240              	timer3_first:
 2241 0000 00       		.space	1
 2242              		.section	.bss.timer3flag,"aw",%nobits
 2243              		.set	.LANCHOR16,. + 0
 2246              	timer3flag:
 2247 0000 00       		.space	1
 2248              		.section	.data.inactive_timer,"aw"
 2249              		.align	2
 2250              		.set	.LANCHOR1,. + 0
 2253              	inactive_timer:
 2254 0000 00040040 		.word	1073742848
 2255 0004 00000000 		.space	60
 2255      00000000 
 2255      00000000 
 2255      00000000 
 2255      00000000 
 2256              		.section	.data.localisation_timer,"aw"
 2257              		.align	2
 2258              		.set	.LANCHOR0,. + 0
 2261              	localisation_timer:
 2262 0000 00000040 		.word	1073741824
 2263 0004 00000000 		.space	60
 2263      00000000 
 2263      00000000 
ARM GAS  C:\Users\yvesk\AppData\Local\Temp\cc36v34U.s 			page 57


 2263      00000000 
 2263      00000000 
 2264              		.section	.rodata.EXTI1_IRQHandler.str1.4,"aMS",%progbits,1
 2265              		.align	2
 2266              	.LC34:
 2267 0000 494E5445 		.ascii	"INTERRUPT BUTTON! \015\000"
 2267      52525550 
 2267      54204255 
 2267      54544F4E 
 2267      21200D00 
 2268              		.section	.rodata.HAL_GPIO_EXTI_Callback.str1.4,"aMS",%progbits,1
 2269              		.align	2
 2270              	.LC33:
 2271 0000 696E7465 		.ascii	"interrupt accelerometer! \015\000"
 2271      72727570 
 2271      74206163 
 2271      63656C65 
 2271      726F6D65 
 2272              		.section	.rodata.HAL_UART_RxCpltCallback.str1.4,"aMS",%progbits,1
 2273              		.align	2
 2274              	.LC12:
 2275 0000 696E2063 		.ascii	"in callback 1\015\000"
 2275      616C6C62 
 2275      61636B20 
 2275      310D00
 2276              		.section	.rodata.LoRaWAN_send.str1.4,"aMS",%progbits,1
 2277              		.align	2
 2278              	.LC2:
 2279 0000 6D757261 		.ascii	"murata not initialized, not sending\015\000"
 2279      7461206E 
 2279      6F742069 
 2279      6E697469 
 2279      616C697A 
 2280              		.section	.rodata.LoRaWAN_send_self.str1.4,"aMS",%progbits,1
 2281              		.align	2
 2282              	.LC3:
 2283 0000 74697320 		.ascii	"tis ni gelukt :( \000"
 2283      6E692067 
 2283      656C756B 
 2283      74203A28 
 2283      2000
 2284              		.section	.rodata.TIM2_IRQHandler.str1.4,"aMS",%progbits,1
 2285              		.align	2
 2286              	.LC35:
 2287 0000 656C6170 		.ascii	"elapsed period \015\000"
 2287      73656420 
 2287      70657269 
 2287      6F64200D 
 2287      00
 2288              		.section	.rodata.ble_callback.str1.4,"aMS",%progbits,1
 2289              		.align	2
 2290              	.LC11:
 2291 0000 63616C6C 		.ascii	"callback 2 \015\000"
 2291      6261636B 
 2291      2032200D 
 2291      00
 2292              		.section	.rodata.goToSleep.str1.4,"aMS",%progbits,1
ARM GAS  C:\Users\yvesk\AppData\Local\Temp\cc36v34U.s 			page 58


 2293              		.align	2
 2294              	.LC0:
 2295 0000 676F696E 		.ascii	"going into sleepmode\015\000"
 2295      6720696E 
 2295      746F2073 
 2295      6C656570 
 2295      6D6F6465 
 2296 0016 0000     		.space	2
 2297              	.LC1:
 2298 0018 2063616D 		.ascii	" came out of sleepmode \015\000"
 2298      65206F75 
 2298      74206F66 
 2298      20736C65 
 2298      65706D6F 
 2299              		.section	.rodata.main.str1.4,"aMS",%progbits,1
 2300              		.align	2
 2301              	.LC18:
 2302 0000 4D757261 		.ascii	"Murata dualstack module init OK\015\012\015\000"
 2302      74612064 
 2302      75616C73 
 2302      7461636B 
 2302      206D6F64 
 2303 0023 00       		.space	1
 2304              	.LC19:
 2305 0024 70726F63 		.ascii	"processing murata fifo\015\000"
 2305      65737369 
 2305      6E67206D 
 2305      75726174 
 2305      61206669 
 2306              	.LC20:
 2307 003c 53746172 		.ascii	"Started Repping\015\000"
 2307      74656420 
 2307      52657070 
 2307      696E670D 
 2307      00
 2308 004d 000000   		.space	3
 2309              	.LC21:
 2310 0050 4C534D20 		.ascii	"LSM in double click mode \015\000"
 2310      696E2064 
 2310      6F75626C 
 2310      6520636C 
 2310      69636B20 
 2311 006b 00       		.space	1
 2312              	.LC22:
 2313 006c 53656E64 		.ascii	"Sending D7 Message with BLE info + temp + hum\015\000"
 2313      696E6720 
 2313      4437204D 
 2313      65737361 
 2313      67652077 
 2314 009b 00       		.space	1
 2315              	.LC23:
 2316 009c 4661696C 		.ascii	"Failure counter = %d\015\012\000"
 2316      75726520 
 2316      636F756E 
 2316      74657220 
 2316      3D202564 
 2317 00b3 00       		.space	1
ARM GAS  C:\Users\yvesk\AppData\Local\Temp\cc36v34U.s 			page 59


 2318              	.LC24:
 2319 00b4 53746F70 		.ascii	"Stopped Repping\012LSM in default mode \015\012\000"
 2319      70656420 
 2319      52657070 
 2319      696E670A 
 2319      4C534D20 
 2320 00db 00       		.space	1
 2321              	.LC25:
 2322 00dc 53656E64 		.ascii	"Sending D7 Message with BLE info + temp + hum + amo"
 2322      696E6720 
 2322      4437204D 
 2322      65737361 
 2322      67652077 
 2323 010f 756E7420 		.ascii	"unt of reps\015\000"
 2323      6F662072 
 2323      6570730D 
 2323      00
 2324              	.LC26:
 2325 011c 54696D65 		.ascii	"Timer value: %d,\015\012\015\012\000"
 2325      72207661 
 2325      6C75653A 
 2325      2025642C 
 2325      0D0A0D0A 
 2326 0131 000000   		.space	3
 2327              	.LC27:
 2328 0134 52657020 		.ascii	"Rep counter: %d,\015\012\015\012\000"
 2328      636F756E 
 2328      7465723A 
 2328      2025642C 
 2328      0D0A0D0A 
 2329 0149 000000   		.space	3
 2330              	.LC28:
 2331 014c 53656E64 		.ascii	"Sending dash7 localisation message (once per minute"
 2331      696E6720 
 2331      64617368 
 2331      37206C6F 
 2331      63616C69 
 2332 017f 290D0A0D 		.ascii	")\015\012\015\000"
 2332      00
 2333              	.LC29:
 2334 0184 53656E64 		.ascii	"Sending dash7 go to sleep message (once per minute)"
 2334      696E6720 
 2334      64617368 
 2334      3720676F 
 2334      20746F20 
 2335 01b7 0D0A0D00 		.ascii	"\015\012\015\000"
 2336 01bb 00       		.space	1
 2337              	.LC30:
 2338 01bc 476F696E 		.ascii	"Going to LoRaWAN mode\015\012\015\000"
 2338      6720746F 
 2338      204C6F52 
 2338      6157414E 
 2338      206D6F64 
 2339 01d5 000000   		.space	3
 2340              	.LC31:
 2341 01d8 476F696E 		.ascii	"Going to dash7 mode\015\012\015\000"
 2341      6720746F 
ARM GAS  C:\Users\yvesk\AppData\Local\Temp\cc36v34U.s 			page 60


 2341      20646173 
 2341      6837206D 
 2341      6F64650D 
 2342 01ef 00       		.space	1
 2343              	.LC32:
 2344 01f0 63616C6C 		.ascii	"callback flag \015\000"
 2344      6261636B 
 2344      20666C61 
 2344      67200D00 
 2345              		.section	.rodata.printWelcome.str1.4,"aMS",%progbits,1
 2346              		.align	2
 2347              	.LC13:
 2348 0000 2A2A2A2A 		.ascii	"*****************************************\015\000"
 2348      2A2A2A2A 
 2348      2A2A2A2A 
 2348      2A2A2A2A 
 2348      2A2A2A2A 
 2349 002b 00       		.space	1
 2350              	.LC14:
 2351 002c 4D757261 		.ascii	"Murata Dual Stack example without scheduler\015\000"
 2351      74612044 
 2351      75616C20 
 2351      53746163 
 2351      6B206578 
 2352 0059 000000   		.space	3
 2353              	.LC15:
 2354 005c 6F637461 		.ascii	"octa ID: \000"
 2354      2049443A 
 2354      2000
 2355 0066 0000     		.space	2
 2356              	.LC16:
 2357 0068 25303278 		.ascii	"%02x\000"
 2357      00
 2358 006d 000000   		.space	3
 2359              	.LC17:
 2360 0070 0D0A0D00 		.ascii	"\015\012\015\000"
 2361              		.section	.rodata.print_temp_hum.str1.4,"aMS",%progbits,1
 2362              		.align	2
 2363              	.LC8:
 2364 0000 0D00     		.ascii	"\015\000"
 2365 0002 0000     		.space	2
 2366              	.LC9:
 2367 0004 54656D70 		.ascii	"Temperature: %.2f \302\260C  \015\012\000"
 2367      65726174 
 2367      7572653A 
 2367      20252E32 
 2367      6620C2B0 
 2368 001e 0000     		.space	2
 2369              	.LC10:
 2370 0020 48756D69 		.ascii	"Humidity: %.2f %% \015\012\000"
 2370      64697479 
 2370      3A20252E 
 2370      32662025 
 2370      25200D0A 
 2371              		.section	.rodata.send_message.str1.4,"aMS",%progbits,1
 2372              		.align	2
 2373              	.LC4:
ARM GAS  C:\Users\yvesk\AppData\Local\Temp\cc36v34U.s 			page 61


 2374 0000 73656E64 		.ascii	"sending temphum message\015\000"
 2374      696E6720 
 2374      74656D70 
 2374      68756D20 
 2374      6D657373 
 2375 0019 000000   		.space	3
 2376              	.LC5:
 2377 001c 73656E64 		.ascii	"sending allinfo message\015\000"
 2377      696E6720 
 2377      616C6C69 
 2377      6E666F20 
 2377      6D657373 
 2378 0035 000000   		.space	3
 2379              	.LC6:
 2380 0038 4E6F2063 		.ascii	"No case was matched\015\000"
 2380      61736520 
 2380      77617320 
 2380      6D617463 
 2380      6865640D 
 2381 004d 000000   		.space	3
 2382              	.LC7:
 2383 0050 73656E64 		.ascii	"sending out of reach lorawan message\015\000"
 2383      696E6720 
 2383      6F757420 
 2383      6F662072 
 2383      65616368 
 2384              		.weak	SystemClock_Config
 2385              		.text
 2386              	.Letext0:
 2387              		.file 2 "c:\\program files (x86)\\gnu tools arm embedded\\8 2019-q3-update\\arm-none-eabi\\include
 2388              		.file 3 "c:\\program files (x86)\\gnu tools arm embedded\\8 2019-q3-update\\arm-none-eabi\\include
 2389              		.file 4 "../../core/ST/CMSIS/Include/core_cm4.h"
 2390              		.file 5 "../../core/ST/CMSIS/Device/ST/STM32L4xx/Include/system_stm32l4xx.h"
 2391              		.file 6 "../../core/ST/CMSIS/Device/ST/STM32L4xx/Include/stm32l496xx.h"
 2392              		.file 7 "../../core/ST/CMSIS/Device/ST/STM32L4xx/Include/stm32l4xx.h"
 2393              		.file 8 "../../core/ST/STM32L4xx_HAL_Driver/Inc/stm32l4xx_hal_def.h"
 2394              		.file 9 "../../core/ST/STM32L4xx_HAL_Driver/Inc/stm32l4xx_hal_dma.h"
 2395              		.file 10 "../../core/ST/STM32L4xx_HAL_Driver/Inc/stm32l4xx_hal_i2c.h"
 2396              		.file 11 "../../core/ST/STM32L4xx_HAL_Driver/Inc/stm32l4xx_hal_iwdg.h"
 2397              		.file 12 "../../core/ST/STM32L4xx_HAL_Driver/Inc/stm32l4xx_hal_spi.h"
 2398              		.file 13 "../../core/ST/STM32L4xx_HAL_Driver/Inc/stm32l4xx_hal_tim.h"
 2399              		.file 14 "../../core/ST/STM32L4xx_HAL_Driver/Inc/stm32l4xx_hal_uart.h"
 2400              		.file 15 "../../core/ST/STM32L4xx_HAL_Driver/Inc/stm32l4xx_hal.h"
 2401              		.file 16 "../../core/ST/Middlewares/Third_Party/FreeRTOS/Source/include/task.h"
 2402              		.file 17 "../../core/ST/Middlewares/Third_Party/FreeRTOS/Source/include/timers.h"
 2403              		.file 18 "../../core/ST/Middlewares/Third_Party/FreeRTOS/Source/include/queue.h"
 2404              		.file 19 "../../core/ST/Middlewares/Third_Party/FreeRTOS/Source/include/semphr.h"
 2405              		.file 20 "../../core/ST/Middlewares/Third_Party/FreeRTOS/Source/CMSIS_RTOS/cmsis_os.h"
 2406              		.file 21 "../../core/platform/octa/inc/gpio.h"
 2407              		.file 22 "../../core/platform/octa/inc/iwdg.h"
 2408              		.file 23 "../../core/platform/octa/inc/uart.h"
 2409              		.file 24 "../../core/platform/octa/inc/i2c.h"
 2410              		.file 25 "../../core/platform/octa/inc/spi.h"
 2411              		.file 26 "../../core/platform/octa/inc/octa.h"
 2412              		.file 27 "../../applications/murata-dualstack-example-ns/inc/murata-dualstack-example-ns.h"
 2413              		.file 28 "../../core/drivers/LSM303AGR/inc/LSM303AGRSensor.h"
 2414              		.file 29 "c:\\program files (x86)\\gnu tools arm embedded\\8 2019-q3-update\\lib\\gcc\\arm-none-ea
ARM GAS  C:\Users\yvesk\AppData\Local\Temp\cc36v34U.s 			page 62


 2415              		.file 30 "c:\\program files (x86)\\gnu tools arm embedded\\8 2019-q3-update\\arm-none-eabi\\includ
 2416              		.file 31 "c:\\program files (x86)\\gnu tools arm embedded\\8 2019-q3-update\\arm-none-eabi\\includ
 2417              		.file 32 "c:\\program files (x86)\\gnu tools arm embedded\\8 2019-q3-update\\arm-none-eabi\\includ
 2418              		.file 33 "../../shields/Murata-dualstack/inc/murata.h"
 2419              		.file 34 "<built-in>"
 2420              		.file 35 "c:\\program files (x86)\\gnu tools arm embedded\\8 2019-q3-update\\arm-none-eabi\\includ
 2421              		.file 36 "../../core/ST/STM32L4xx_HAL_Driver/Inc/stm32l4xx_hal_gpio.h"
 2422              		.file 37 "../../core/ST/STM32L4xx_HAL_Driver/Inc/stm32l4xx_hal_pwr.h"
 2423              		.file 38 "../../core/platform/octa/inc/sysclock.h"
 2424              		.file 39 "../../core/platform/common/inc/platform.h"
 2425              		.file 40 "../../core/ST/STM32L4xx_HAL_Driver/Inc/stm32l4xx_hal_cortex.h"
ARM GAS  C:\Users\yvesk\AppData\Local\Temp\cc36v34U.s 			page 63


DEFINED SYMBOLS
                            *ABS*:00000000 murata-dualstack-example-ns.c
C:\Users\yvesk\AppData\Local\Temp\cc36v34U.s:18     .text.InitializeTimer2:00000000 $t
C:\Users\yvesk\AppData\Local\Temp\cc36v34U.s:26     .text.InitializeTimer2:00000000 InitializeTimer2
C:\Users\yvesk\AppData\Local\Temp\cc36v34U.s:80     .text.InitializeTimer2:00000030 $d
C:\Users\yvesk\AppData\Local\Temp\cc36v34U.s:86     .text.InitializeTimer3:00000000 $t
C:\Users\yvesk\AppData\Local\Temp\cc36v34U.s:93     .text.InitializeTimer3:00000000 InitializeTimer3
C:\Users\yvesk\AppData\Local\Temp\cc36v34U.s:146    .text.InitializeTimer3:00000030 $d
C:\Users\yvesk\AppData\Local\Temp\cc36v34U.s:152    .text.goToSleep:00000000 $t
C:\Users\yvesk\AppData\Local\Temp\cc36v34U.s:159    .text.goToSleep:00000000 goToSleep
C:\Users\yvesk\AppData\Local\Temp\cc36v34U.s:202    .text.goToSleep:0000002c $d
C:\Users\yvesk\AppData\Local\Temp\cc36v34U.s:209    .text.LoRaWAN_send:00000000 $t
C:\Users\yvesk\AppData\Local\Temp\cc36v34U.s:216    .text.LoRaWAN_send:00000000 LoRaWAN_send
C:\Users\yvesk\AppData\Local\Temp\cc36v34U.s:324    .text.LoRaWAN_send:00000064 $d
                            *COM*:00000008 SHTData
C:\Users\yvesk\AppData\Local\Temp\cc36v34U.s:332    .text.LoRaWAN_send_self:00000000 $t
C:\Users\yvesk\AppData\Local\Temp\cc36v34U.s:339    .text.LoRaWAN_send_self:00000000 LoRaWAN_send_self
C:\Users\yvesk\AppData\Local\Temp\cc36v34U.s:447    .text.LoRaWAN_send_self:0000006c $d
C:\Users\yvesk\AppData\Local\Temp\cc36v34U.s:456    .text.Dash7_send:00000000 $t
C:\Users\yvesk\AppData\Local\Temp\cc36v34U.s:463    .text.Dash7_send:00000000 Dash7_send
C:\Users\yvesk\AppData\Local\Temp\cc36v34U.s:578    .text.Dash7_send:0000005c $d
C:\Users\yvesk\AppData\Local\Temp\cc36v34U.s:585    .text.Dash7_send_temphum:00000000 $t
C:\Users\yvesk\AppData\Local\Temp\cc36v34U.s:592    .text.Dash7_send_temphum:00000000 Dash7_send_temphum
C:\Users\yvesk\AppData\Local\Temp\cc36v34U.s:714    .text.Dash7_send_temphum:00000074 $d
C:\Users\yvesk\AppData\Local\Temp\cc36v34U.s:723    .text.Dash7_send_allInfo:00000000 $t
C:\Users\yvesk\AppData\Local\Temp\cc36v34U.s:730    .text.Dash7_send_allInfo:00000000 Dash7_send_allInfo
C:\Users\yvesk\AppData\Local\Temp\cc36v34U.s:854    .text.Dash7_send_allInfo:00000078 $d
C:\Users\yvesk\AppData\Local\Temp\cc36v34U.s:864    .text.send_message:00000000 $t
C:\Users\yvesk\AppData\Local\Temp\cc36v34U.s:871    .text.send_message:00000000 send_message
C:\Users\yvesk\AppData\Local\Temp\cc36v34U.s:965    .text.send_message:00000058 $d
C:\Users\yvesk\AppData\Local\Temp\cc36v34U.s:976    .text.print_temp_hum:00000000 $t
C:\Users\yvesk\AppData\Local\Temp\cc36v34U.s:983    .text.print_temp_hum:00000000 print_temp_hum
C:\Users\yvesk\AppData\Local\Temp\cc36v34U.s:1031   .text.print_temp_hum:00000034 $d
C:\Users\yvesk\AppData\Local\Temp\cc36v34U.s:1039   .text.temp_hum_measurement:00000000 $t
C:\Users\yvesk\AppData\Local\Temp\cc36v34U.s:1046   .text.temp_hum_measurement:00000000 temp_hum_measurement
C:\Users\yvesk\AppData\Local\Temp\cc36v34U.s:1069   .text.temp_hum_measurement:00000010 $d
C:\Users\yvesk\AppData\Local\Temp\cc36v34U.s:1074   .text.ble_callback:00000000 $t
C:\Users\yvesk\AppData\Local\Temp\cc36v34U.s:1081   .text.ble_callback:00000000 ble_callback
C:\Users\yvesk\AppData\Local\Temp\cc36v34U.s:1106   .text.ble_callback:00000014 $d
                            *COM*:0000000a tmpbuf_ble
C:\Users\yvesk\AppData\Local\Temp\cc36v34U.s:1112   .text.HAL_UART_RxCpltCallback:00000000 $t
C:\Users\yvesk\AppData\Local\Temp\cc36v34U.s:1119   .text.HAL_UART_RxCpltCallback:00000000 HAL_UART_RxCpltCallback
C:\Users\yvesk\AppData\Local\Temp\cc36v34U.s:1174   .text.HAL_UART_RxCpltCallback:0000002c $d
                            *COM*:00000078 P1_UART
                            *COM*:00000078 BLE_UART
C:\Users\yvesk\AppData\Local\Temp\cc36v34U.s:1183   .text.vApplicationIdleHook:00000000 $t
C:\Users\yvesk\AppData\Local\Temp\cc36v34U.s:1190   .text.vApplicationIdleHook:00000000 vApplicationIdleHook
C:\Users\yvesk\AppData\Local\Temp\cc36v34U.s:1203   .text.printWelcome:00000000 $t
C:\Users\yvesk\AppData\Local\Temp\cc36v34U.s:1210   .text.printWelcome:00000000 printWelcome
C:\Users\yvesk\AppData\Local\Temp\cc36v34U.s:1307   .text.printWelcome:00000070 $d
                            *COM*:00000008 short_UID
C:\Users\yvesk\AppData\Local\Temp\cc36v34U.s:1319   .text.main:00000000 $t
C:\Users\yvesk\AppData\Local\Temp\cc36v34U.s:1326   .text.main:00000000 main
C:\Users\yvesk\AppData\Local\Temp\cc36v34U.s:1740   .text.main:000001ec $d
                            *COM*:0000004c common_I2C
C:\Users\yvesk\AppData\Local\Temp\cc36v34U.s:1777   .text.HAL_GPIO_EXTI_Callback:00000000 $t
C:\Users\yvesk\AppData\Local\Temp\cc36v34U.s:1784   .text.HAL_GPIO_EXTI_Callback:00000000 HAL_GPIO_EXTI_Callback
ARM GAS  C:\Users\yvesk\AppData\Local\Temp\cc36v34U.s 			page 64


C:\Users\yvesk\AppData\Local\Temp\cc36v34U.s:1819   .text.HAL_GPIO_EXTI_Callback:00000018 $d
C:\Users\yvesk\AppData\Local\Temp\cc36v34U.s:1825   .text.EXTI1_IRQHandler:00000000 $t
C:\Users\yvesk\AppData\Local\Temp\cc36v34U.s:1832   .text.EXTI1_IRQHandler:00000000 EXTI1_IRQHandler
C:\Users\yvesk\AppData\Local\Temp\cc36v34U.s:1867   .text.EXTI1_IRQHandler:00000020 $d
C:\Users\yvesk\AppData\Local\Temp\cc36v34U.s:1875   .text.TIM2_IRQHandler:00000000 $t
C:\Users\yvesk\AppData\Local\Temp\cc36v34U.s:1882   .text.TIM2_IRQHandler:00000000 TIM2_IRQHandler
C:\Users\yvesk\AppData\Local\Temp\cc36v34U.s:1928   .text.TIM2_IRQHandler:0000002c $d
C:\Users\yvesk\AppData\Local\Temp\cc36v34U.s:1935   .text.TIM3_IRQHandler:00000000 $t
C:\Users\yvesk\AppData\Local\Temp\cc36v34U.s:1942   .text.TIM3_IRQHandler:00000000 TIM3_IRQHandler
C:\Users\yvesk\AppData\Local\Temp\cc36v34U.s:1999   .text.TIM3_IRQHandler:00000038 $d
C:\Users\yvesk\AppData\Local\Temp\cc36v34U.s:2007   .text.HAL_TIM_PeriodElapsedCallback:00000000 $t
C:\Users\yvesk\AppData\Local\Temp\cc36v34U.s:2014   .text.HAL_TIM_PeriodElapsedCallback:00000000 HAL_TIM_PeriodElapsedCallback
C:\Users\yvesk\AppData\Local\Temp\cc36v34U.s:2048   .text.HAL_TIM_PeriodElapsedCallback:00000014 $d
C:\Users\yvesk\AppData\Local\Temp\cc36v34U.s:2053   .text.Error_Handler:00000000 $t
C:\Users\yvesk\AppData\Local\Temp\cc36v34U.s:2060   .text.Error_Handler:00000000 Error_Handler
C:\Users\yvesk\AppData\Local\Temp\cc36v34U.s:2149   .bss.BLE_flag:00000000 BLE_flag
C:\Users\yvesk\AppData\Local\Temp\cc36v34U.s:2240   .bss.timer3_first:00000000 timer3_first
C:\Users\yvesk\AppData\Local\Temp\cc36v34U.s:2187   .bss.messageMode:00000000 messageMode
C:\Users\yvesk\AppData\Local\Temp\cc36v34U.s:2169   .bss.changeAcceleroMode:00000000 changeAcceleroMode
C:\Users\yvesk\AppData\Local\Temp\cc36v34U.s:2211   .bss.repMode:00000000 repMode
C:\Users\yvesk\AppData\Local\Temp\cc36v34U.s:2205   .bss.repFlag:00000000 repFlag
C:\Users\yvesk\AppData\Local\Temp\cc36v34U.s:2246   .bss.timer3flag:00000000 timer3flag
C:\Users\yvesk\AppData\Local\Temp\cc36v34U.s:2234   .bss.timer2flag:00000000 timer2flag
C:\Users\yvesk\AppData\Local\Temp\cc36v34U.s:2228   .bss.temperatureflag:00000000 temperatureflag
                            *COM*:00000001 data
C:\Users\yvesk\AppData\Local\Temp\cc36v34U.s:2181   .bss.messageCounter:00000000 messageCounter
C:\Users\yvesk\AppData\Local\Temp\cc36v34U.s:2223   .bss.successCounter:00000000 successCounter
C:\Users\yvesk\AppData\Local\Temp\cc36v34U.s:2175   .bss.failureCounter:00000000 failureCounter
C:\Users\yvesk\AppData\Local\Temp\cc36v34U.s:2217   .bss.rep_counter:00000000 rep_counter
C:\Users\yvesk\AppData\Local\Temp\cc36v34U.s:2193   .bss.murata_data_ready:00000000 murata_data_ready
C:\Users\yvesk\AppData\Local\Temp\cc36v34U.s:2199   .bss.murata_init:00000000 murata_init
C:\Users\yvesk\AppData\Local\Temp\cc36v34U.s:2156   .bss.DASH7_Counter:00000000 DASH7_Counter
C:\Users\yvesk\AppData\Local\Temp\cc36v34U.s:2163   .bss.LoRaWAN_Counter:00000000 LoRaWAN_Counter
                            *COM*:00000004 threadToNotify
                            *COM*:00000004 murata_reset_pin
                            *COM*:00000004 murata_wakeup_pin
                            *COM*:00000006 magRawData
                            *COM*:00000006 magRegisterData
                            *COM*:00000006 accRawData
                            *COM*:00000006 accRegisterData
                            *COM*:00000004 LSM303AGR_hi2c
                            *COM*:00000001 LSM303AGR_setting
                            *COM*:00000004 murata_rx_process_mutex_id
                            *COM*:00000004 txMutexId
                            *COM*:00000004 moduleCheckTimId
                            *COM*:00000004 dash7TimId
                            *COM*:00000004 loraWANTimId
                            *COM*:00000004 iwdgTimId
                            *COM*:00000004 murata_rx_processing_handle
                            *COM*:00000004 defaultTaskHandle
                            *COM*:0000002c P3_header
                            *COM*:0000002c P2_header
                            *COM*:0000002c P1_header
                            *COM*:00000064 FLASH_SPI
                            *COM*:00000064 P3_SPI
                            *COM*:00000064 P2_SPI
                            *COM*:00000064 P1_SPI
ARM GAS  C:\Users\yvesk\AppData\Local\Temp\cc36v34U.s 			page 65


                            *COM*:0000004c P3_I2C
                            *COM*:0000004c P2_I2C
                            *COM*:0000004c P1_I2C
                            *COM*:00000078 P3_UART
                            *COM*:00000078 P2_UART
                            *COM*:00000078 USB_UART
                            *COM*:00000010 hiwdg
                            *COM*:00000008 P3_DIO6
                            *COM*:00000008 P3_DIO5
                            *COM*:00000008 P3_DIO4
                            *COM*:00000008 P3_DIO3
                            *COM*:00000008 P3_DIO2
                            *COM*:00000008 P3_DIO1
                            *COM*:00000008 P2_DIO6
                            *COM*:00000008 P2_DIO5
                            *COM*:00000008 P2_DIO4
                            *COM*:00000008 P2_DIO3
                            *COM*:00000008 P2_DIO2
                            *COM*:00000008 P2_DIO1
                            *COM*:00000008 P1_DIO6
                            *COM*:00000008 P1_DIO5
                            *COM*:00000008 P1_DIO4
                            *COM*:00000008 P1_DIO3
                            *COM*:00000008 P1_DIO2
                            *COM*:00000008 P1_DIO1
C:\Users\yvesk\AppData\Local\Temp\cc36v34U.s:2150   .bss.BLE_flag:00000000 $d
C:\Users\yvesk\AppData\Local\Temp\cc36v34U.s:2152   .bss.DASH7_Counter:00000000 $d
C:\Users\yvesk\AppData\Local\Temp\cc36v34U.s:2159   .bss.LoRaWAN_Counter:00000000 $d
C:\Users\yvesk\AppData\Local\Temp\cc36v34U.s:2170   .bss.changeAcceleroMode:00000000 $d
C:\Users\yvesk\AppData\Local\Temp\cc36v34U.s:2176   .bss.failureCounter:00000000 $d
C:\Users\yvesk\AppData\Local\Temp\cc36v34U.s:2182   .bss.messageCounter:00000000 $d
C:\Users\yvesk\AppData\Local\Temp\cc36v34U.s:2188   .bss.messageMode:00000000 $d
C:\Users\yvesk\AppData\Local\Temp\cc36v34U.s:2194   .bss.murata_data_ready:00000000 $d
C:\Users\yvesk\AppData\Local\Temp\cc36v34U.s:2200   .bss.murata_init:00000000 $d
C:\Users\yvesk\AppData\Local\Temp\cc36v34U.s:2206   .bss.repFlag:00000000 $d
C:\Users\yvesk\AppData\Local\Temp\cc36v34U.s:2212   .bss.repMode:00000000 $d
C:\Users\yvesk\AppData\Local\Temp\cc36v34U.s:2218   .bss.rep_counter:00000000 $d
C:\Users\yvesk\AppData\Local\Temp\cc36v34U.s:2224   .bss.successCounter:00000000 $d
C:\Users\yvesk\AppData\Local\Temp\cc36v34U.s:2229   .bss.temperatureflag:00000000 $d
C:\Users\yvesk\AppData\Local\Temp\cc36v34U.s:2235   .bss.timer2flag:00000000 $d
C:\Users\yvesk\AppData\Local\Temp\cc36v34U.s:2241   .bss.timer3_first:00000000 $d
C:\Users\yvesk\AppData\Local\Temp\cc36v34U.s:2247   .bss.timer3flag:00000000 $d
C:\Users\yvesk\AppData\Local\Temp\cc36v34U.s:2249   .data.inactive_timer:00000000 $d
C:\Users\yvesk\AppData\Local\Temp\cc36v34U.s:2253   .data.inactive_timer:00000000 inactive_timer
C:\Users\yvesk\AppData\Local\Temp\cc36v34U.s:2257   .data.localisation_timer:00000000 $d
C:\Users\yvesk\AppData\Local\Temp\cc36v34U.s:2261   .data.localisation_timer:00000000 localisation_timer
C:\Users\yvesk\AppData\Local\Temp\cc36v34U.s:2265   .rodata.EXTI1_IRQHandler.str1.4:00000000 $d
C:\Users\yvesk\AppData\Local\Temp\cc36v34U.s:2269   .rodata.HAL_GPIO_EXTI_Callback.str1.4:00000000 $d
C:\Users\yvesk\AppData\Local\Temp\cc36v34U.s:2273   .rodata.HAL_UART_RxCpltCallback.str1.4:00000000 $d
C:\Users\yvesk\AppData\Local\Temp\cc36v34U.s:2277   .rodata.LoRaWAN_send.str1.4:00000000 $d
C:\Users\yvesk\AppData\Local\Temp\cc36v34U.s:2281   .rodata.LoRaWAN_send_self.str1.4:00000000 $d
C:\Users\yvesk\AppData\Local\Temp\cc36v34U.s:2285   .rodata.TIM2_IRQHandler.str1.4:00000000 $d
C:\Users\yvesk\AppData\Local\Temp\cc36v34U.s:2289   .rodata.ble_callback.str1.4:00000000 $d
C:\Users\yvesk\AppData\Local\Temp\cc36v34U.s:2293   .rodata.goToSleep.str1.4:00000000 $d
C:\Users\yvesk\AppData\Local\Temp\cc36v34U.s:2300   .rodata.main.str1.4:00000000 $d
C:\Users\yvesk\AppData\Local\Temp\cc36v34U.s:2346   .rodata.printWelcome.str1.4:00000000 $d
C:\Users\yvesk\AppData\Local\Temp\cc36v34U.s:2362   .rodata.print_temp_hum.str1.4:00000000 $d
ARM GAS  C:\Users\yvesk\AppData\Local\Temp\cc36v34U.s 			page 66


C:\Users\yvesk\AppData\Local\Temp\cc36v34U.s:2372   .rodata.send_message.str1.4:00000000 $d

UNDEFINED SYMBOLS
puts
HAL_SuspendTick
HAL_PWR_EnterSTOPMode
HAL_ResumeTick
SystemClock_Config
Murata_LoRaWAN_Send
printf
Murata_Dash7_Send
__aeabi_f2d
SHT31_get_temp_hum
Murata_rxCallback
HAL_GPIO_TogglePin
HAL_Delay
HAL_Init
Initialize_Platform
get_UID
LSM303AGR_setI2CInterface
setI2CInterface_SHT31
SHT31_begin
LSM303AGR_initDefault
HAL_UART_Receive_IT
HAL_NVIC_SetPriority
HAL_NVIC_EnableIRQ
Murata_Initialize
Murata_process_fifo
IWDG_feed
LSM303AGR_initDouble
HAL_IncTick
