ARM GAS  C:\Users\yvesk\AppData\Local\Temp\cchpqhiM.s 			page 1


   1              		.cpu cortex-m4
   2              		.eabi_attribute 27, 1
   3              		.eabi_attribute 28, 1
   4              		.eabi_attribute 20, 1
   5              		.eabi_attribute 21, 1
   6              		.eabi_attribute 23, 3
   7              		.eabi_attribute 24, 1
   8              		.eabi_attribute 25, 1
   9              		.eabi_attribute 26, 1
  10              		.eabi_attribute 30, 1
  11              		.eabi_attribute 34, 1
  12              		.eabi_attribute 18, 4
  13              		.file	"murata-dualstack-example-ns.c"
  14              		.text
  15              	.Ltext0:
  16              		.cfi_sections	.debug_frame
  17              		.section	.text.InitializeTimer2,"ax",%progbits
  18              		.align	1
  19              		.global	InitializeTimer2
  20              		.arch armv7e-m
  21              		.syntax unified
  22              		.thumb
  23              		.thumb_func
  24              		.fpu fpv4-sp-d16
  26              	InitializeTimer2:
  27              	.LFB132:
  28              		.file 1 "../../applications/murata-dualstack-example-ns/src/murata-dualstack-example-ns.c"
   1:../../applications/murata-dualstack-example-ns/src/murata-dualstack-example-ns.c **** /* USER CODE BEGIN Header */
   2:../../applications/murata-dualstack-example-ns/src/murata-dualstack-example-ns.c **** /**
   3:../../applications/murata-dualstack-example-ns/src/murata-dualstack-example-ns.c ****   ******************************************************************************
   4:../../applications/murata-dualstack-example-ns/src/murata-dualstack-example-ns.c ****   * @file           : main.c
   5:../../applications/murata-dualstack-example-ns/src/murata-dualstack-example-ns.c ****   * @brief          : Main program body
   6:../../applications/murata-dualstack-example-ns/src/murata-dualstack-example-ns.c ****   ******************************************************************************
   7:../../applications/murata-dualstack-example-ns/src/murata-dualstack-example-ns.c ****   * This notice applies to any and all portions of this file
   8:../../applications/murata-dualstack-example-ns/src/murata-dualstack-example-ns.c ****   * that are not between comment pairs USER CODE BEGIN and
   9:../../applications/murata-dualstack-example-ns/src/murata-dualstack-example-ns.c ****   * USER CODE END. Other portions of this file, whether 
  10:../../applications/murata-dualstack-example-ns/src/murata-dualstack-example-ns.c ****   * inserted by the user or by software development tools
  11:../../applications/murata-dualstack-example-ns/src/murata-dualstack-example-ns.c ****   * are owned by their respective copyright owners.
  12:../../applications/murata-dualstack-example-ns/src/murata-dualstack-example-ns.c ****   *
  13:../../applications/murata-dualstack-example-ns/src/murata-dualstack-example-ns.c ****   * Copyright (c) 2019 STMicroelectronics International N.V. 
  14:../../applications/murata-dualstack-example-ns/src/murata-dualstack-example-ns.c ****   * All rights reserved.
  15:../../applications/murata-dualstack-example-ns/src/murata-dualstack-example-ns.c ****   *
  16:../../applications/murata-dualstack-example-ns/src/murata-dualstack-example-ns.c ****   * Redistribution and use in source and binary forms, with or without 
  17:../../applications/murata-dualstack-example-ns/src/murata-dualstack-example-ns.c ****   * modification, are permitted, provided that the following conditions are met:
  18:../../applications/murata-dualstack-example-ns/src/murata-dualstack-example-ns.c ****   *
  19:../../applications/murata-dualstack-example-ns/src/murata-dualstack-example-ns.c ****   * 1. Redistribution of source code must retain the above copyright notice, 
  20:../../applications/murata-dualstack-example-ns/src/murata-dualstack-example-ns.c ****   *    this list of conditions and the following disclaimer.
  21:../../applications/murata-dualstack-example-ns/src/murata-dualstack-example-ns.c ****   * 2. Redistributions in binary form must reproduce the above copyright notice,
  22:../../applications/murata-dualstack-example-ns/src/murata-dualstack-example-ns.c ****   *    this list of conditions and the following disclaimer in the documentation
  23:../../applications/murata-dualstack-example-ns/src/murata-dualstack-example-ns.c ****   *    and/or other materials provided with the distribution.
  24:../../applications/murata-dualstack-example-ns/src/murata-dualstack-example-ns.c ****   * 3. Neither the name of STMicroelectronics nor the names of other 
  25:../../applications/murata-dualstack-example-ns/src/murata-dualstack-example-ns.c ****   *    contributors to this software may be used to endorse or promote products 
  26:../../applications/murata-dualstack-example-ns/src/murata-dualstack-example-ns.c ****   *    derived from this software without specific written permission.
  27:../../applications/murata-dualstack-example-ns/src/murata-dualstack-example-ns.c ****   * 4. This software, including modifications and/or derivative works of this 
  28:../../applications/murata-dualstack-example-ns/src/murata-dualstack-example-ns.c ****   *    software, must execute solely and exclusively on microcontroller or
  29:../../applications/murata-dualstack-example-ns/src/murata-dualstack-example-ns.c ****   *    microprocessor devices manufactured by or for STMicroelectronics.
  30:../../applications/murata-dualstack-example-ns/src/murata-dualstack-example-ns.c ****   * 5. Redistribution and use of this software other than as permitted under 
ARM GAS  C:\Users\yvesk\AppData\Local\Temp\cchpqhiM.s 			page 2


  31:../../applications/murata-dualstack-example-ns/src/murata-dualstack-example-ns.c ****   *    this license is void and will automatically terminate your rights under 
  32:../../applications/murata-dualstack-example-ns/src/murata-dualstack-example-ns.c ****   *    this license. 
  33:../../applications/murata-dualstack-example-ns/src/murata-dualstack-example-ns.c ****   *
  34:../../applications/murata-dualstack-example-ns/src/murata-dualstack-example-ns.c ****   * THIS SOFTWARE IS PROVIDED BY STMICROELECTRONICS AND CONTRIBUTORS "AS IS" 
  35:../../applications/murata-dualstack-example-ns/src/murata-dualstack-example-ns.c ****   * AND ANY EXPRESS, IMPLIED OR STATUTORY WARRANTIES, INCLUDING, BUT NOT 
  36:../../applications/murata-dualstack-example-ns/src/murata-dualstack-example-ns.c ****   * LIMITED TO, THE IMPLIED WARRANTIES OF MERCHANTABILITY, FITNESS FOR A 
  37:../../applications/murata-dualstack-example-ns/src/murata-dualstack-example-ns.c ****   * PARTICULAR PURPOSE AND NON-INFRINGEMENT OF THIRD PARTY INTELLECTUAL PROPERTY
  38:../../applications/murata-dualstack-example-ns/src/murata-dualstack-example-ns.c ****   * RIGHTS ARE DISCLAIMED TO THE FULLEST EXTENT PERMITTED BY LAW. IN NO EVENT 
  39:../../applications/murata-dualstack-example-ns/src/murata-dualstack-example-ns.c ****   * SHALL STMICROELECTRONICS OR CONTRIBUTORS BE LIABLE FOR ANY DIRECT, INDIRECT,
  40:../../applications/murata-dualstack-example-ns/src/murata-dualstack-example-ns.c ****   * INCIDENTAL, SPECIAL, EXEMPLARY, OR CONSEQUENTIAL DAMAGES (INCLUDING, BUT NOT
  41:../../applications/murata-dualstack-example-ns/src/murata-dualstack-example-ns.c ****   * LIMITED TO, PROCUREMENT OF SUBSTITUTE GOODS OR SERVICES; LOSS OF USE, DATA, 
  42:../../applications/murata-dualstack-example-ns/src/murata-dualstack-example-ns.c ****   * OR PROFITS; OR BUSINESS INTERRUPTION) HOWEVER CAUSED AND ON ANY THEORY OF 
  43:../../applications/murata-dualstack-example-ns/src/murata-dualstack-example-ns.c ****   * LIABILITY, WHETHER IN CONTRACT, STRICT LIABILITY, OR TORT (INCLUDING 
  44:../../applications/murata-dualstack-example-ns/src/murata-dualstack-example-ns.c ****   * NEGLIGENCE OR OTHERWISE) ARISING IN ANY WAY OUT OF THE USE OF THIS SOFTWARE,
  45:../../applications/murata-dualstack-example-ns/src/murata-dualstack-example-ns.c ****   * EVEN IF ADVISED OF THE POSSIBILITY OF SUCH DAMAGE.
  46:../../applications/murata-dualstack-example-ns/src/murata-dualstack-example-ns.c ****   *
  47:../../applications/murata-dualstack-example-ns/src/murata-dualstack-example-ns.c ****   ******************************************************************************
  48:../../applications/murata-dualstack-example-ns/src/murata-dualstack-example-ns.c ****   */
  49:../../applications/murata-dualstack-example-ns/src/murata-dualstack-example-ns.c **** /* USER CODE END Header */
  50:../../applications/murata-dualstack-example-ns/src/murata-dualstack-example-ns.c **** 
  51:../../applications/murata-dualstack-example-ns/src/murata-dualstack-example-ns.c **** /* Includes ------------------------------------------------------------------*/
  52:../../applications/murata-dualstack-example-ns/src/murata-dualstack-example-ns.c **** #include "murata-dualstack-example-ns.h"
  53:../../applications/murata-dualstack-example-ns/src/murata-dualstack-example-ns.c **** 
  54:../../applications/murata-dualstack-example-ns/src/murata-dualstack-example-ns.c **** /* Private includes ----------------------------------------------------------*/
  55:../../applications/murata-dualstack-example-ns/src/murata-dualstack-example-ns.c **** /* USER CODE BEGIN Includes */
  56:../../applications/murata-dualstack-example-ns/src/murata-dualstack-example-ns.c **** //#include "murata.h"
  57:../../applications/murata-dualstack-example-ns/src/murata-dualstack-example-ns.c **** #include <LSM303AGRSensor.h>
  58:../../applications/murata-dualstack-example-ns/src/murata-dualstack-example-ns.c **** #include <stdio.h>
  59:../../applications/murata-dualstack-example-ns/src/murata-dualstack-example-ns.c **** #include <murata.h>
  60:../../applications/murata-dualstack-example-ns/src/murata-dualstack-example-ns.c **** //#include "murata.h"
  61:../../applications/murata-dualstack-example-ns/src/murata-dualstack-example-ns.c **** 
  62:../../applications/murata-dualstack-example-ns/src/murata-dualstack-example-ns.c **** /* USER CODE END Includes */
  63:../../applications/murata-dualstack-example-ns/src/murata-dualstack-example-ns.c **** 
  64:../../applications/murata-dualstack-example-ns/src/murata-dualstack-example-ns.c **** /* Private typedef -----------------------------------------------------------*/
  65:../../applications/murata-dualstack-example-ns/src/murata-dualstack-example-ns.c **** /* USER CODE BEGIN PTD */
  66:../../applications/murata-dualstack-example-ns/src/murata-dualstack-example-ns.c **** 
  67:../../applications/murata-dualstack-example-ns/src/murata-dualstack-example-ns.c **** /* USER CODE END PTD */
  68:../../applications/murata-dualstack-example-ns/src/murata-dualstack-example-ns.c **** 
  69:../../applications/murata-dualstack-example-ns/src/murata-dualstack-example-ns.c **** /* Private define ------------------------------------------------------------*/
  70:../../applications/murata-dualstack-example-ns/src/murata-dualstack-example-ns.c **** /* USER CODE BEGIN PD */
  71:../../applications/murata-dualstack-example-ns/src/murata-dualstack-example-ns.c **** #define IWDG_INTERVAL           5    //seconds
  72:../../applications/murata-dualstack-example-ns/src/murata-dualstack-example-ns.c **** #define LORAWAN_INTERVAL        60   //seconds
  73:../../applications/murata-dualstack-example-ns/src/murata-dualstack-example-ns.c **** #define DASH7_INTERVAL          20  //seconds
  74:../../applications/murata-dualstack-example-ns/src/murata-dualstack-example-ns.c **** #define MODULE_CHECK_INTERVAL   3600 //seconds
  75:../../applications/murata-dualstack-example-ns/src/murata-dualstack-example-ns.c **** 
  76:../../applications/murata-dualstack-example-ns/src/murata-dualstack-example-ns.c **** #define HAL_EXTI_MODULE_ENABLED
  77:../../applications/murata-dualstack-example-ns/src/murata-dualstack-example-ns.c **** #define temp_hum_timer    3
  78:../../applications/murata-dualstack-example-ns/src/murata-dualstack-example-ns.c **** 
  79:../../applications/murata-dualstack-example-ns/src/murata-dualstack-example-ns.c **** /* USER CODE END PD */
  80:../../applications/murata-dualstack-example-ns/src/murata-dualstack-example-ns.c **** 
  81:../../applications/murata-dualstack-example-ns/src/murata-dualstack-example-ns.c **** /* Private macro -------------------------------------------------------------*/
  82:../../applications/murata-dualstack-example-ns/src/murata-dualstack-example-ns.c **** /* USER CODE BEGIN PM */
  83:../../applications/murata-dualstack-example-ns/src/murata-dualstack-example-ns.c **** 
  84:../../applications/murata-dualstack-example-ns/src/murata-dualstack-example-ns.c **** /* USER CODE END PM */
  85:../../applications/murata-dualstack-example-ns/src/murata-dualstack-example-ns.c **** 
  86:../../applications/murata-dualstack-example-ns/src/murata-dualstack-example-ns.c **** /* Private user code ---------------------------------------------------------*/
  87:../../applications/murata-dualstack-example-ns/src/murata-dualstack-example-ns.c **** /* USER CODE BEGIN 0 */
ARM GAS  C:\Users\yvesk\AppData\Local\Temp\cchpqhiM.s 			page 3


  88:../../applications/murata-dualstack-example-ns/src/murata-dualstack-example-ns.c **** uint16_t LoRaWAN_Counter = 0;
  89:../../applications/murata-dualstack-example-ns/src/murata-dualstack-example-ns.c **** uint16_t DASH7_Counter = 0;
  90:../../applications/murata-dualstack-example-ns/src/murata-dualstack-example-ns.c **** uint8_t murata_init = 0;
  91:../../applications/murata-dualstack-example-ns/src/murata-dualstack-example-ns.c **** uint64_t short_UID;
  92:../../applications/murata-dualstack-example-ns/src/murata-dualstack-example-ns.c **** uint8_t murata_data_ready = 0;
  93:../../applications/murata-dualstack-example-ns/src/murata-dualstack-example-ns.c **** 
  94:../../applications/murata-dualstack-example-ns/src/murata-dualstack-example-ns.c **** //Zelf
  95:../../applications/murata-dualstack-example-ns/src/murata-dualstack-example-ns.c **** uint8_t rep_counter = 0; 
  96:../../applications/murata-dualstack-example-ns/src/murata-dualstack-example-ns.c **** extern volatile uint8_t failureCounter=0; 
  97:../../applications/murata-dualstack-example-ns/src/murata-dualstack-example-ns.c **** extern volatile uint8_t successCounter=0;
  98:../../applications/murata-dualstack-example-ns/src/murata-dualstack-example-ns.c **** extern volatile uint8_t messageCounter=0; 
  99:../../applications/murata-dualstack-example-ns/src/murata-dualstack-example-ns.c **** extern volatile _Bool isActiveSending=0; 
 100:../../applications/murata-dualstack-example-ns/src/murata-dualstack-example-ns.c **** 
 101:../../applications/murata-dualstack-example-ns/src/murata-dualstack-example-ns.c **** float SHTData[2];
 102:../../applications/murata-dualstack-example-ns/src/murata-dualstack-example-ns.c **** volatile uint8_t tmpbuf_ble[2];
 103:../../applications/murata-dualstack-example-ns/src/murata-dualstack-example-ns.c **** uint8_t gewicht=0;
 104:../../applications/murata-dualstack-example-ns/src/murata-dualstack-example-ns.c **** uint8_t data; 
 105:../../applications/murata-dualstack-example-ns/src/murata-dualstack-example-ns.c **** uint8_t val =0;
 106:../../applications/murata-dualstack-example-ns/src/murata-dualstack-example-ns.c **** volatile _Bool temperatureflag=0; 
 107:../../applications/murata-dualstack-example-ns/src/murata-dualstack-example-ns.c **** volatile _Bool timer2flag=0; 
 108:../../applications/murata-dualstack-example-ns/src/murata-dualstack-example-ns.c **** volatile _Bool timer3flag=0; 
 109:../../applications/murata-dualstack-example-ns/src/murata-dualstack-example-ns.c **** volatile _Bool timer4flag=0;
 110:../../applications/murata-dualstack-example-ns/src/murata-dualstack-example-ns.c **** volatile _Bool repFlag=0;
 111:../../applications/murata-dualstack-example-ns/src/murata-dualstack-example-ns.c **** volatile _Bool repMode=0; 
 112:../../applications/murata-dualstack-example-ns/src/murata-dualstack-example-ns.c **** _Bool changeAcceleroMode=0; 
 113:../../applications/murata-dualstack-example-ns/src/murata-dualstack-example-ns.c **** _Bool volatile messageMode=0; 
 114:../../applications/murata-dualstack-example-ns/src/murata-dualstack-example-ns.c **** volatile _Bool timer3_first=0; 
 115:../../applications/murata-dualstack-example-ns/src/murata-dualstack-example-ns.c **** volatile _Bool timer4_first=0;
 116:../../applications/murata-dualstack-example-ns/src/murata-dualstack-example-ns.c **** volatile _Bool BLE_flag=0;
 117:../../applications/murata-dualstack-example-ns/src/murata-dualstack-example-ns.c **** 
 118:../../applications/murata-dualstack-example-ns/src/murata-dualstack-example-ns.c **** 
 119:../../applications/murata-dualstack-example-ns/src/murata-dualstack-example-ns.c **** /* USER CODE END 0 */
 120:../../applications/murata-dualstack-example-ns/src/murata-dualstack-example-ns.c **** 
 121:../../applications/murata-dualstack-example-ns/src/murata-dualstack-example-ns.c **** 
 122:../../applications/murata-dualstack-example-ns/src/murata-dualstack-example-ns.c ****  
 123:../../applications/murata-dualstack-example-ns/src/murata-dualstack-example-ns.c **** static TIM_HandleTypeDef localisation_timer = { 
 124:../../applications/murata-dualstack-example-ns/src/murata-dualstack-example-ns.c ****     .Instance = TIM2
 125:../../applications/murata-dualstack-example-ns/src/murata-dualstack-example-ns.c **** };
 126:../../applications/murata-dualstack-example-ns/src/murata-dualstack-example-ns.c **** 
 127:../../applications/murata-dualstack-example-ns/src/murata-dualstack-example-ns.c **** static TIM_HandleTypeDef inactive_timer = { 
 128:../../applications/murata-dualstack-example-ns/src/murata-dualstack-example-ns.c ****     .Instance = TIM3
 129:../../applications/murata-dualstack-example-ns/src/murata-dualstack-example-ns.c **** };
 130:../../applications/murata-dualstack-example-ns/src/murata-dualstack-example-ns.c **** 
 131:../../applications/murata-dualstack-example-ns/src/murata-dualstack-example-ns.c **** static TIM_HandleTypeDef send_sleepmessage_timer = { 
 132:../../applications/murata-dualstack-example-ns/src/murata-dualstack-example-ns.c ****     .Instance = TIM4
 133:../../applications/murata-dualstack-example-ns/src/murata-dualstack-example-ns.c **** };
 134:../../applications/murata-dualstack-example-ns/src/murata-dualstack-example-ns.c ****  
 135:../../applications/murata-dualstack-example-ns/src/murata-dualstack-example-ns.c **** void InitializeTimer2()
 136:../../applications/murata-dualstack-example-ns/src/murata-dualstack-example-ns.c **** {
  29              		.loc 1 136 1 view -0
  30              		.cfi_startproc
  31              		@ args = 0, pretend = 0, frame = 8
  32              		@ frame_needed = 0, uses_anonymous_args = 0
  33 0000 30B5     		push	{r4, r5, lr}
  34              	.LCFI0:
  35              		.cfi_def_cfa_offset 12
  36              		.cfi_offset 4, -12
ARM GAS  C:\Users\yvesk\AppData\Local\Temp\cchpqhiM.s 			page 4


  37              		.cfi_offset 5, -8
  38              		.cfi_offset 14, -4
  39 0002 83B0     		sub	sp, sp, #12
  40              	.LCFI1:
  41              		.cfi_def_cfa_offset 24
 137:../../applications/murata-dualstack-example-ns/src/murata-dualstack-example-ns.c ****     __TIM2_CLK_ENABLE();
  42              		.loc 1 137 5 view .LVU1
  43              	.LBB2:
  44              		.loc 1 137 5 view .LVU2
  45              		.loc 1 137 5 view .LVU3
  46 0004 124B     		ldr	r3, .L3
  47 0006 9A6D     		ldr	r2, [r3, #88]
  48 0008 42F00102 		orr	r2, r2, #1
  49 000c 9A65     		str	r2, [r3, #88]
  50              		.loc 1 137 5 view .LVU4
  51 000e 9B6D     		ldr	r3, [r3, #88]
  52 0010 03F00103 		and	r3, r3, #1
  53 0014 0193     		str	r3, [sp, #4]
  54              		.loc 1 137 5 view .LVU5
  55 0016 019B     		ldr	r3, [sp, #4]
  56              	.LBE2:
 138:../../applications/murata-dualstack-example-ns/src/murata-dualstack-example-ns.c ****     localisation_timer.Init.Prescaler = 16000;                            //1 step = clockperiod x 
  57              		.loc 1 138 5 view .LVU6
  58              		.loc 1 138 39 is_stmt 0 view .LVU7
  59 0018 0E4C     		ldr	r4, .L3+4
  60 001a 4FF47A53 		mov	r3, #16000
  61 001e 6360     		str	r3, [r4, #4]
 139:../../applications/murata-dualstack-example-ns/src/murata-dualstack-example-ns.c ****     localisation_timer.Init.CounterMode = TIM_COUNTERMODE_UP;             //timer will count up
  62              		.loc 1 139 5 is_stmt 1 view .LVU8
  63              		.loc 1 139 41 is_stmt 0 view .LVU9
  64 0020 0025     		movs	r5, #0
  65 0022 A560     		str	r5, [r4, #8]
 140:../../applications/murata-dualstack-example-ns/src/murata-dualstack-example-ns.c ****     localisation_timer.Init.Period = 60000;                                 //60000 steps of clockp
  66              		.loc 1 140 5 is_stmt 1 view .LVU10
  67              		.loc 1 140 36 is_stmt 0 view .LVU11
  68 0024 4EF66023 		movw	r3, #60000
  69 0028 E360     		str	r3, [r4, #12]
 141:../../applications/murata-dualstack-example-ns/src/murata-dualstack-example-ns.c ****     localisation_timer.Init.ClockDivision = TIM_CLOCKDIVISION_DIV1;
  70              		.loc 1 141 5 is_stmt 1 view .LVU12
  71              		.loc 1 141 43 is_stmt 0 view .LVU13
  72 002a 2561     		str	r5, [r4, #16]
 142:../../applications/murata-dualstack-example-ns/src/murata-dualstack-example-ns.c ****     localisation_timer.Init.RepetitionCounter = 0;
  73              		.loc 1 142 5 is_stmt 1 view .LVU14
  74              		.loc 1 142 47 is_stmt 0 view .LVU15
  75 002c 6561     		str	r5, [r4, #20]
 143:../../applications/murata-dualstack-example-ns/src/murata-dualstack-example-ns.c ****     HAL_TIM_Base_Init(&localisation_timer);
  76              		.loc 1 143 5 is_stmt 1 view .LVU16
  77 002e 2046     		mov	r0, r4
  78 0030 FFF7FEFF 		bl	HAL_TIM_Base_Init
  79              	.LVL0:
 144:../../applications/murata-dualstack-example-ns/src/murata-dualstack-example-ns.c ****     HAL_TIM_Base_Start_IT(&localisation_timer);
  80              		.loc 1 144 5 view .LVU17
  81 0034 2046     		mov	r0, r4
  82 0036 FFF7FEFF 		bl	HAL_TIM_Base_Start_IT
  83              	.LVL1:
 145:../../applications/murata-dualstack-example-ns/src/murata-dualstack-example-ns.c ****     HAL_NVIC_SetPriority(TIM2_IRQn, 0, 0);                              //set de priority of the in
  84              		.loc 1 145 5 view .LVU18
ARM GAS  C:\Users\yvesk\AppData\Local\Temp\cchpqhiM.s 			page 5


  85 003a 2A46     		mov	r2, r5
  86 003c 2946     		mov	r1, r5
  87 003e 1C20     		movs	r0, #28
  88 0040 FFF7FEFF 		bl	HAL_NVIC_SetPriority
  89              	.LVL2:
 146:../../applications/murata-dualstack-example-ns/src/murata-dualstack-example-ns.c ****     HAL_NVIC_EnableIRQ(TIM2_IRQn);                                     //enable de interrupt van ti
  90              		.loc 1 146 5 view .LVU19
  91 0044 1C20     		movs	r0, #28
  92 0046 FFF7FEFF 		bl	HAL_NVIC_EnableIRQ
  93              	.LVL3:
 147:../../applications/murata-dualstack-example-ns/src/murata-dualstack-example-ns.c **** } 
  94              		.loc 1 147 1 is_stmt 0 view .LVU20
  95 004a 03B0     		add	sp, sp, #12
  96              	.LCFI2:
  97              		.cfi_def_cfa_offset 12
  98              		@ sp needed
  99 004c 30BD     		pop	{r4, r5, pc}
 100              	.L4:
 101 004e 00BF     		.align	2
 102              	.L3:
 103 0050 00100240 		.word	1073876992
 104 0054 00000000 		.word	.LANCHOR0
 105              		.cfi_endproc
 106              	.LFE132:
 108              		.section	.text.InitializeTimer3,"ax",%progbits
 109              		.align	1
 110              		.global	InitializeTimer3
 111              		.syntax unified
 112              		.thumb
 113              		.thumb_func
 114              		.fpu fpv4-sp-d16
 116              	InitializeTimer3:
 117              	.LFB133:
 148:../../applications/murata-dualstack-example-ns/src/murata-dualstack-example-ns.c **** 
 149:../../applications/murata-dualstack-example-ns/src/murata-dualstack-example-ns.c **** void InitializeTimer3()
 150:../../applications/murata-dualstack-example-ns/src/murata-dualstack-example-ns.c **** {
 118              		.loc 1 150 1 is_stmt 1 view -0
 119              		.cfi_startproc
 120              		@ args = 0, pretend = 0, frame = 8
 121              		@ frame_needed = 0, uses_anonymous_args = 0
 122 0000 30B5     		push	{r4, r5, lr}
 123              	.LCFI3:
 124              		.cfi_def_cfa_offset 12
 125              		.cfi_offset 4, -12
 126              		.cfi_offset 5, -8
 127              		.cfi_offset 14, -4
 128 0002 83B0     		sub	sp, sp, #12
 129              	.LCFI4:
 130              		.cfi_def_cfa_offset 24
 151:../../applications/murata-dualstack-example-ns/src/murata-dualstack-example-ns.c ****     __TIM3_CLK_ENABLE();
 131              		.loc 1 151 5 view .LVU22
 132              	.LBB3:
 133              		.loc 1 151 5 view .LVU23
 134              		.loc 1 151 5 view .LVU24
 135 0004 124B     		ldr	r3, .L7
 136 0006 9A6D     		ldr	r2, [r3, #88]
 137 0008 42F00202 		orr	r2, r2, #2
ARM GAS  C:\Users\yvesk\AppData\Local\Temp\cchpqhiM.s 			page 6


 138 000c 9A65     		str	r2, [r3, #88]
 139              		.loc 1 151 5 view .LVU25
 140 000e 9B6D     		ldr	r3, [r3, #88]
 141 0010 03F00203 		and	r3, r3, #2
 142 0014 0193     		str	r3, [sp, #4]
 143              		.loc 1 151 5 view .LVU26
 144 0016 019B     		ldr	r3, [sp, #4]
 145              	.LBE3:
 152:../../applications/murata-dualstack-example-ns/src/murata-dualstack-example-ns.c ****     inactive_timer.Init.Prescaler = 16000;                            //1 step = clockperiod x pres
 146              		.loc 1 152 5 view .LVU27
 147              		.loc 1 152 35 is_stmt 0 view .LVU28
 148 0018 0E4C     		ldr	r4, .L7+4
 149 001a 4FF47A53 		mov	r3, #16000
 150 001e 6360     		str	r3, [r4, #4]
 153:../../applications/murata-dualstack-example-ns/src/murata-dualstack-example-ns.c ****     inactive_timer.Init.CounterMode = TIM_COUNTERMODE_UP;             //timer will count up
 151              		.loc 1 153 5 is_stmt 1 view .LVU29
 152              		.loc 1 153 37 is_stmt 0 view .LVU30
 153 0020 0025     		movs	r5, #0
 154 0022 A560     		str	r5, [r4, #8]
 154:../../applications/murata-dualstack-example-ns/src/murata-dualstack-example-ns.c ****     inactive_timer.Init.Period = 60000;                                 //60000 steps of clockperio
 155              		.loc 1 154 5 is_stmt 1 view .LVU31
 156              		.loc 1 154 32 is_stmt 0 view .LVU32
 157 0024 4EF66023 		movw	r3, #60000
 158 0028 E360     		str	r3, [r4, #12]
 155:../../applications/murata-dualstack-example-ns/src/murata-dualstack-example-ns.c ****     inactive_timer.Init.ClockDivision = TIM_CLOCKDIVISION_DIV1;
 159              		.loc 1 155 5 is_stmt 1 view .LVU33
 160              		.loc 1 155 39 is_stmt 0 view .LVU34
 161 002a 2561     		str	r5, [r4, #16]
 156:../../applications/murata-dualstack-example-ns/src/murata-dualstack-example-ns.c ****     inactive_timer.Init.RepetitionCounter = 0;
 162              		.loc 1 156 5 is_stmt 1 view .LVU35
 163              		.loc 1 156 43 is_stmt 0 view .LVU36
 164 002c 6561     		str	r5, [r4, #20]
 157:../../applications/murata-dualstack-example-ns/src/murata-dualstack-example-ns.c ****     HAL_TIM_Base_Init(&inactive_timer);
 165              		.loc 1 157 5 is_stmt 1 view .LVU37
 166 002e 2046     		mov	r0, r4
 167 0030 FFF7FEFF 		bl	HAL_TIM_Base_Init
 168              	.LVL4:
 158:../../applications/murata-dualstack-example-ns/src/murata-dualstack-example-ns.c ****     HAL_TIM_Base_Start_IT(&inactive_timer);
 169              		.loc 1 158 5 view .LVU38
 170 0034 2046     		mov	r0, r4
 171 0036 FFF7FEFF 		bl	HAL_TIM_Base_Start_IT
 172              	.LVL5:
 159:../../applications/murata-dualstack-example-ns/src/murata-dualstack-example-ns.c ****     HAL_NVIC_SetPriority(TIM3_IRQn, 0, 0); 
 173              		.loc 1 159 5 view .LVU39
 174 003a 2A46     		mov	r2, r5
 175 003c 2946     		mov	r1, r5
 176 003e 1D20     		movs	r0, #29
 177 0040 FFF7FEFF 		bl	HAL_NVIC_SetPriority
 178              	.LVL6:
 160:../../applications/murata-dualstack-example-ns/src/murata-dualstack-example-ns.c ****     HAL_NVIC_EnableIRQ(TIM3_IRQn); 
 179              		.loc 1 160 5 view .LVU40
 180 0044 1D20     		movs	r0, #29
 181 0046 FFF7FEFF 		bl	HAL_NVIC_EnableIRQ
 182              	.LVL7:
 161:../../applications/murata-dualstack-example-ns/src/murata-dualstack-example-ns.c **** }
 183              		.loc 1 161 1 is_stmt 0 view .LVU41
 184 004a 03B0     		add	sp, sp, #12
ARM GAS  C:\Users\yvesk\AppData\Local\Temp\cchpqhiM.s 			page 7


 185              	.LCFI5:
 186              		.cfi_def_cfa_offset 12
 187              		@ sp needed
 188 004c 30BD     		pop	{r4, r5, pc}
 189              	.L8:
 190 004e 00BF     		.align	2
 191              	.L7:
 192 0050 00100240 		.word	1073876992
 193 0054 00000000 		.word	.LANCHOR1
 194              		.cfi_endproc
 195              	.LFE133:
 197              		.section	.text.InitializeTimer4,"ax",%progbits
 198              		.align	1
 199              		.global	InitializeTimer4
 200              		.syntax unified
 201              		.thumb
 202              		.thumb_func
 203              		.fpu fpv4-sp-d16
 205              	InitializeTimer4:
 206              	.LFB134:
 162:../../applications/murata-dualstack-example-ns/src/murata-dualstack-example-ns.c **** 
 163:../../applications/murata-dualstack-example-ns/src/murata-dualstack-example-ns.c **** void InitializeTimer4()
 164:../../applications/murata-dualstack-example-ns/src/murata-dualstack-example-ns.c **** {
 207              		.loc 1 164 1 is_stmt 1 view -0
 208              		.cfi_startproc
 209              		@ args = 0, pretend = 0, frame = 8
 210              		@ frame_needed = 0, uses_anonymous_args = 0
 211 0000 30B5     		push	{r4, r5, lr}
 212              	.LCFI6:
 213              		.cfi_def_cfa_offset 12
 214              		.cfi_offset 4, -12
 215              		.cfi_offset 5, -8
 216              		.cfi_offset 14, -4
 217 0002 83B0     		sub	sp, sp, #12
 218              	.LCFI7:
 219              		.cfi_def_cfa_offset 24
 165:../../applications/murata-dualstack-example-ns/src/murata-dualstack-example-ns.c ****     __TIM4_CLK_ENABLE();
 220              		.loc 1 165 5 view .LVU43
 221              	.LBB4:
 222              		.loc 1 165 5 view .LVU44
 223              		.loc 1 165 5 view .LVU45
 224 0004 124B     		ldr	r3, .L11
 225 0006 9A6D     		ldr	r2, [r3, #88]
 226 0008 42F00402 		orr	r2, r2, #4
 227 000c 9A65     		str	r2, [r3, #88]
 228              		.loc 1 165 5 view .LVU46
 229 000e 9B6D     		ldr	r3, [r3, #88]
 230 0010 03F00403 		and	r3, r3, #4
 231 0014 0193     		str	r3, [sp, #4]
 232              		.loc 1 165 5 view .LVU47
 233 0016 019B     		ldr	r3, [sp, #4]
 234              	.LBE4:
 166:../../applications/murata-dualstack-example-ns/src/murata-dualstack-example-ns.c ****     inactive_timer.Init.Prescaler = 16000;                            //1 step = clockperiod x pres
 235              		.loc 1 166 5 view .LVU48
 236              		.loc 1 166 35 is_stmt 0 view .LVU49
 237 0018 0E4B     		ldr	r3, .L11+4
 238 001a 4FF47A52 		mov	r2, #16000
ARM GAS  C:\Users\yvesk\AppData\Local\Temp\cchpqhiM.s 			page 8


 239 001e 5A60     		str	r2, [r3, #4]
 167:../../applications/murata-dualstack-example-ns/src/murata-dualstack-example-ns.c ****     inactive_timer.Init.CounterMode = TIM_COUNTERMODE_UP;             //timer will count up
 240              		.loc 1 167 5 is_stmt 1 view .LVU50
 241              		.loc 1 167 37 is_stmt 0 view .LVU51
 242 0020 0024     		movs	r4, #0
 243 0022 9C60     		str	r4, [r3, #8]
 168:../../applications/murata-dualstack-example-ns/src/murata-dualstack-example-ns.c ****     inactive_timer.Init.Period = 6000;                                 //6000 steps of clockperiodx
 244              		.loc 1 168 5 is_stmt 1 view .LVU52
 245              		.loc 1 168 32 is_stmt 0 view .LVU53
 246 0024 41F27072 		movw	r2, #6000
 247 0028 DA60     		str	r2, [r3, #12]
 169:../../applications/murata-dualstack-example-ns/src/murata-dualstack-example-ns.c ****     inactive_timer.Init.ClockDivision = TIM_CLOCKDIVISION_DIV1;
 248              		.loc 1 169 5 is_stmt 1 view .LVU54
 249              		.loc 1 169 39 is_stmt 0 view .LVU55
 250 002a 1C61     		str	r4, [r3, #16]
 170:../../applications/murata-dualstack-example-ns/src/murata-dualstack-example-ns.c ****     inactive_timer.Init.RepetitionCounter = 0;
 251              		.loc 1 170 5 is_stmt 1 view .LVU56
 252              		.loc 1 170 43 is_stmt 0 view .LVU57
 253 002c 5C61     		str	r4, [r3, #20]
 171:../../applications/murata-dualstack-example-ns/src/murata-dualstack-example-ns.c ****     HAL_TIM_Base_Init(&send_sleepmessage_timer);
 254              		.loc 1 171 5 is_stmt 1 view .LVU58
 255 002e 0A4D     		ldr	r5, .L11+8
 256 0030 2846     		mov	r0, r5
 257 0032 FFF7FEFF 		bl	HAL_TIM_Base_Init
 258              	.LVL8:
 172:../../applications/murata-dualstack-example-ns/src/murata-dualstack-example-ns.c ****     HAL_TIM_Base_Start_IT(&send_sleepmessage_timer);
 259              		.loc 1 172 5 view .LVU59
 260 0036 2846     		mov	r0, r5
 261 0038 FFF7FEFF 		bl	HAL_TIM_Base_Start_IT
 262              	.LVL9:
 173:../../applications/murata-dualstack-example-ns/src/murata-dualstack-example-ns.c ****     HAL_NVIC_SetPriority(TIM4_IRQn, 0, 0); 
 263              		.loc 1 173 5 view .LVU60
 264 003c 2246     		mov	r2, r4
 265 003e 2146     		mov	r1, r4
 266 0040 1E20     		movs	r0, #30
 267 0042 FFF7FEFF 		bl	HAL_NVIC_SetPriority
 268              	.LVL10:
 174:../../applications/murata-dualstack-example-ns/src/murata-dualstack-example-ns.c ****     HAL_NVIC_EnableIRQ(TIM4_IRQn); 
 269              		.loc 1 174 5 view .LVU61
 270 0046 1E20     		movs	r0, #30
 271 0048 FFF7FEFF 		bl	HAL_NVIC_EnableIRQ
 272              	.LVL11:
 175:../../applications/murata-dualstack-example-ns/src/murata-dualstack-example-ns.c **** }
 273              		.loc 1 175 1 is_stmt 0 view .LVU62
 274 004c 03B0     		add	sp, sp, #12
 275              	.LCFI8:
 276              		.cfi_def_cfa_offset 12
 277              		@ sp needed
 278 004e 30BD     		pop	{r4, r5, pc}
 279              	.L12:
 280              		.align	2
 281              	.L11:
 282 0050 00100240 		.word	1073876992
 283 0054 00000000 		.word	.LANCHOR1
 284 0058 00000000 		.word	.LANCHOR2
 285              		.cfi_endproc
 286              	.LFE134:
ARM GAS  C:\Users\yvesk\AppData\Local\Temp\cchpqhiM.s 			page 9


 288              		.section	.text.goToSleep,"ax",%progbits
 289              		.align	1
 290              		.global	goToSleep
 291              		.syntax unified
 292              		.thumb
 293              		.thumb_func
 294              		.fpu fpv4-sp-d16
 296              	goToSleep:
 297              	.LFB136:
 176:../../applications/murata-dualstack-example-ns/src/murata-dualstack-example-ns.c **** 
 177:../../applications/murata-dualstack-example-ns/src/murata-dualstack-example-ns.c **** /**
 178:../../applications/murata-dualstack-example-ns/src/murata-dualstack-example-ns.c ****   * @brief  The application entry point.
 179:../../applications/murata-dualstack-example-ns/src/murata-dualstack-example-ns.c ****   * @retval int
 180:../../applications/murata-dualstack-example-ns/src/murata-dualstack-example-ns.c ****   */
 181:../../applications/murata-dualstack-example-ns/src/murata-dualstack-example-ns.c **** int main(void)
 182:../../applications/murata-dualstack-example-ns/src/murata-dualstack-example-ns.c **** {
 183:../../applications/murata-dualstack-example-ns/src/murata-dualstack-example-ns.c ****   /* USER CODE BEGIN 1 */
 184:../../applications/murata-dualstack-example-ns/src/murata-dualstack-example-ns.c **** 
 185:../../applications/murata-dualstack-example-ns/src/murata-dualstack-example-ns.c ****   /* USER CODE END 1 */
 186:../../applications/murata-dualstack-example-ns/src/murata-dualstack-example-ns.c **** 
 187:../../applications/murata-dualstack-example-ns/src/murata-dualstack-example-ns.c ****   /* MCU Configuration--------------------------------------------------------*/
 188:../../applications/murata-dualstack-example-ns/src/murata-dualstack-example-ns.c **** 
 189:../../applications/murata-dualstack-example-ns/src/murata-dualstack-example-ns.c ****   /* Reset of all peripherals, Initializes the Flash interface and the Systick. */
 190:../../applications/murata-dualstack-example-ns/src/murata-dualstack-example-ns.c ****   HAL_Init();
 191:../../applications/murata-dualstack-example-ns/src/murata-dualstack-example-ns.c **** 
 192:../../applications/murata-dualstack-example-ns/src/murata-dualstack-example-ns.c ****   /* USER CODE BEGIN Init */
 193:../../applications/murata-dualstack-example-ns/src/murata-dualstack-example-ns.c **** 
 194:../../applications/murata-dualstack-example-ns/src/murata-dualstack-example-ns.c ****   /* USER CODE END Init */
 195:../../applications/murata-dualstack-example-ns/src/murata-dualstack-example-ns.c **** 
 196:../../applications/murata-dualstack-example-ns/src/murata-dualstack-example-ns.c ****   /* Configure the system clock */
 197:../../applications/murata-dualstack-example-ns/src/murata-dualstack-example-ns.c ****   SystemClock_Config();
 198:../../applications/murata-dualstack-example-ns/src/murata-dualstack-example-ns.c **** 
 199:../../applications/murata-dualstack-example-ns/src/murata-dualstack-example-ns.c ****   /* USER CODE BEGIN SysInit */
 200:../../applications/murata-dualstack-example-ns/src/murata-dualstack-example-ns.c **** 
 201:../../applications/murata-dualstack-example-ns/src/murata-dualstack-example-ns.c ****   /* USER CODE END SysInit */
 202:../../applications/murata-dualstack-example-ns/src/murata-dualstack-example-ns.c **** 
 203:../../applications/murata-dualstack-example-ns/src/murata-dualstack-example-ns.c ****   /* Initialize the platform, OCTA in this case */
 204:../../applications/murata-dualstack-example-ns/src/murata-dualstack-example-ns.c ****   Initialize_Platform();
 205:../../applications/murata-dualstack-example-ns/src/murata-dualstack-example-ns.c **** 
 206:../../applications/murata-dualstack-example-ns/src/murata-dualstack-example-ns.c ****   /* Initialize the the timer */
 207:../../applications/murata-dualstack-example-ns/src/murata-dualstack-example-ns.c ****   InitializeTimer2();
 208:../../applications/murata-dualstack-example-ns/src/murata-dualstack-example-ns.c ****   InitializeTimer3(); 
 209:../../applications/murata-dualstack-example-ns/src/murata-dualstack-example-ns.c **** 
 210:../../applications/murata-dualstack-example-ns/src/murata-dualstack-example-ns.c ****   /* USER CODE BEGIN 2 */
 211:../../applications/murata-dualstack-example-ns/src/murata-dualstack-example-ns.c **** 
 212:../../applications/murata-dualstack-example-ns/src/murata-dualstack-example-ns.c ****   // Get Unique ID of octa
 213:../../applications/murata-dualstack-example-ns/src/murata-dualstack-example-ns.c ****   short_UID = get_UID();
 214:../../applications/murata-dualstack-example-ns/src/murata-dualstack-example-ns.c **** 
 215:../../applications/murata-dualstack-example-ns/src/murata-dualstack-example-ns.c ****   //LSM30AGR (accelerometer)
 216:../../applications/murata-dualstack-example-ns/src/murata-dualstack-example-ns.c ****   LSM303AGR_setI2CInterface(&common_I2C);
 217:../../applications/murata-dualstack-example-ns/src/murata-dualstack-example-ns.c ****   setI2CInterface_SHT31(&common_I2C);
 218:../../applications/murata-dualstack-example-ns/src/murata-dualstack-example-ns.c ****   SHT31_begin(); 
 219:../../applications/murata-dualstack-example-ns/src/murata-dualstack-example-ns.c ****   LSM303AGR_initDefault();
 220:../../applications/murata-dualstack-example-ns/src/murata-dualstack-example-ns.c **** 
 221:../../applications/murata-dualstack-example-ns/src/murata-dualstack-example-ns.c ****   //initialize BLE
 222:../../applications/murata-dualstack-example-ns/src/murata-dualstack-example-ns.c ****   HAL_UART_Receive_IT(&BLE_UART, (uint8_t *)tmpbuf_ble,sizeof(tmpbuf_ble)); 
 223:../../applications/murata-dualstack-example-ns/src/murata-dualstack-example-ns.c **** 
ARM GAS  C:\Users\yvesk\AppData\Local\Temp\cchpqhiM.s 			page 10


 224:../../applications/murata-dualstack-example-ns/src/murata-dualstack-example-ns.c ****   /* EXTI interrupt init*/
 225:../../applications/murata-dualstack-example-ns/src/murata-dualstack-example-ns.c ****   HAL_NVIC_SetPriority(EXTI1_IRQn, 0, 0);
 226:../../applications/murata-dualstack-example-ns/src/murata-dualstack-example-ns.c ****   HAL_NVIC_EnableIRQ(EXTI1_IRQn);
 227:../../applications/murata-dualstack-example-ns/src/murata-dualstack-example-ns.c **** 
 228:../../applications/murata-dualstack-example-ns/src/murata-dualstack-example-ns.c ****   // Print Welcome Message
 229:../../applications/murata-dualstack-example-ns/src/murata-dualstack-example-ns.c ****   printWelcome();
 230:../../applications/murata-dualstack-example-ns/src/murata-dualstack-example-ns.c ****   
 231:../../applications/murata-dualstack-example-ns/src/murata-dualstack-example-ns.c ****   // LORAWAN
 232:../../applications/murata-dualstack-example-ns/src/murata-dualstack-example-ns.c ****   murata_init = Murata_Initialize(short_UID, 0);
 233:../../applications/murata-dualstack-example-ns/src/murata-dualstack-example-ns.c **** 
 234:../../applications/murata-dualstack-example-ns/src/murata-dualstack-example-ns.c ****   if (murata_init)
 235:../../applications/murata-dualstack-example-ns/src/murata-dualstack-example-ns.c ****   {
 236:../../applications/murata-dualstack-example-ns/src/murata-dualstack-example-ns.c ****     printf("Murata dualstack module init OK\r\n\r\n");
 237:../../applications/murata-dualstack-example-ns/src/murata-dualstack-example-ns.c ****   }
 238:../../applications/murata-dualstack-example-ns/src/murata-dualstack-example-ns.c **** 
 239:../../applications/murata-dualstack-example-ns/src/murata-dualstack-example-ns.c **** 
 240:../../applications/murata-dualstack-example-ns/src/murata-dualstack-example-ns.c ****   /* USER CODE END 2 */
 241:../../applications/murata-dualstack-example-ns/src/murata-dualstack-example-ns.c **** 
 242:../../applications/murata-dualstack-example-ns/src/murata-dualstack-example-ns.c ****   /* USER CODE BEGIN RTOS_MUTEX */
 243:../../applications/murata-dualstack-example-ns/src/murata-dualstack-example-ns.c ****   /* add mutexes, ... */
 244:../../applications/murata-dualstack-example-ns/src/murata-dualstack-example-ns.c **** 
 245:../../applications/murata-dualstack-example-ns/src/murata-dualstack-example-ns.c ****   // TX MUTEX ensuring no transmits are happening at the same time
 246:../../applications/murata-dualstack-example-ns/src/murata-dualstack-example-ns.c **** 
 247:../../applications/murata-dualstack-example-ns/src/murata-dualstack-example-ns.c ****   /* USER CODE END RTOS_MUTEX */
 248:../../applications/murata-dualstack-example-ns/src/murata-dualstack-example-ns.c **** 
 249:../../applications/murata-dualstack-example-ns/src/murata-dualstack-example-ns.c ****   /* USER CODE BEGIN RTOS_SEMAPHORES */
 250:../../applications/murata-dualstack-example-ns/src/murata-dualstack-example-ns.c ****   /* add semaphores, ... */
 251:../../applications/murata-dualstack-example-ns/src/murata-dualstack-example-ns.c ****   /* USER CODE END RTOS_SEMAPHORES */
 252:../../applications/murata-dualstack-example-ns/src/murata-dualstack-example-ns.c **** 
 253:../../applications/murata-dualstack-example-ns/src/murata-dualstack-example-ns.c ****   /* Create the thread(s) */
 254:../../applications/murata-dualstack-example-ns/src/murata-dualstack-example-ns.c **** 
 255:../../applications/murata-dualstack-example-ns/src/murata-dualstack-example-ns.c ****   /* USER CODE BEGIN RTOS_TIMERS */
 256:../../applications/murata-dualstack-example-ns/src/murata-dualstack-example-ns.c ****   /* start timers, add new ones, ... */
 257:../../applications/murata-dualstack-example-ns/src/murata-dualstack-example-ns.c **** 
 258:../../applications/murata-dualstack-example-ns/src/murata-dualstack-example-ns.c ****   //feed IWDG every 5 seconds
 259:../../applications/murata-dualstack-example-ns/src/murata-dualstack-example-ns.c ****   //IWDG_feed(NULL);
 260:../../applications/murata-dualstack-example-ns/src/murata-dualstack-example-ns.c **** 
 261:../../applications/murata-dualstack-example-ns/src/murata-dualstack-example-ns.c ****   /* USER CODE END RTOS_TIMERS */
 262:../../applications/murata-dualstack-example-ns/src/murata-dualstack-example-ns.c **** 
 263:../../applications/murata-dualstack-example-ns/src/murata-dualstack-example-ns.c ****   /* USER CODE BEGIN RTOS_THREADS */
 264:../../applications/murata-dualstack-example-ns/src/murata-dualstack-example-ns.c ****   /* add threads, ... */
 265:../../applications/murata-dualstack-example-ns/src/murata-dualstack-example-ns.c **** 
 266:../../applications/murata-dualstack-example-ns/src/murata-dualstack-example-ns.c ****   /* USER CODE END RTOS_THREADS */
 267:../../applications/murata-dualstack-example-ns/src/murata-dualstack-example-ns.c **** 
 268:../../applications/murata-dualstack-example-ns/src/murata-dualstack-example-ns.c ****   /* USER CODE BEGIN RTOS_QUEUES */
 269:../../applications/murata-dualstack-example-ns/src/murata-dualstack-example-ns.c ****   /* add queues, ... */
 270:../../applications/murata-dualstack-example-ns/src/murata-dualstack-example-ns.c ****   /* USER CODE END RTOS_QUEUES */
 271:../../applications/murata-dualstack-example-ns/src/murata-dualstack-example-ns.c **** 
 272:../../applications/murata-dualstack-example-ns/src/murata-dualstack-example-ns.c ****   /* Start scheduler */
 273:../../applications/murata-dualstack-example-ns/src/murata-dualstack-example-ns.c **** 
 274:../../applications/murata-dualstack-example-ns/src/murata-dualstack-example-ns.c ****   /* We should never get here as control is now taken by the scheduler */
 275:../../applications/murata-dualstack-example-ns/src/murata-dualstack-example-ns.c ****   //HAL_Delay(10000);
 276:../../applications/murata-dualstack-example-ns/src/murata-dualstack-example-ns.c ****   /* Infinite loop */
 277:../../applications/murata-dualstack-example-ns/src/murata-dualstack-example-ns.c ****   uint8_t counter = 0;
 278:../../applications/murata-dualstack-example-ns/src/murata-dualstack-example-ns.c ****   uint8_t use_lora = 1;
 279:../../applications/murata-dualstack-example-ns/src/murata-dualstack-example-ns.c ****   uint8_t timerValue = 0; 
 280:../../applications/murata-dualstack-example-ns/src/murata-dualstack-example-ns.c ****   /* USER CODE BEGIN WHILE */
ARM GAS  C:\Users\yvesk\AppData\Local\Temp\cchpqhiM.s 			page 11


 281:../../applications/murata-dualstack-example-ns/src/murata-dualstack-example-ns.c ****   while (1)
 282:../../applications/murata-dualstack-example-ns/src/murata-dualstack-example-ns.c ****   { 
 283:../../applications/murata-dualstack-example-ns/src/murata-dualstack-example-ns.c ****     while(isActiveSending) {
 284:../../applications/murata-dualstack-example-ns/src/murata-dualstack-example-ns.c ****      IWDG_feed(NULL);
 285:../../applications/murata-dualstack-example-ns/src/murata-dualstack-example-ns.c ****     //HAL_Delay(5000);
 286:../../applications/murata-dualstack-example-ns/src/murata-dualstack-example-ns.c ****     if(murata_data_ready)
 287:../../applications/murata-dualstack-example-ns/src/murata-dualstack-example-ns.c ****     {
 288:../../applications/murata-dualstack-example-ns/src/murata-dualstack-example-ns.c ****       printf("processing murata fifo\r\n");
 289:../../applications/murata-dualstack-example-ns/src/murata-dualstack-example-ns.c ****       murata_data_ready = !Murata_process_fifo();
 290:../../applications/murata-dualstack-example-ns/src/murata-dualstack-example-ns.c ****     }
 291:../../applications/murata-dualstack-example-ns/src/murata-dualstack-example-ns.c **** 
 292:../../applications/murata-dualstack-example-ns/src/murata-dualstack-example-ns.c ****   }
 293:../../applications/murata-dualstack-example-ns/src/murata-dualstack-example-ns.c **** 
 294:../../applications/murata-dualstack-example-ns/src/murata-dualstack-example-ns.c **** 
 295:../../applications/murata-dualstack-example-ns/src/murata-dualstack-example-ns.c ****     //------gekopieerd van no-scheduler-example------
 296:../../applications/murata-dualstack-example-ns/src/murata-dualstack-example-ns.c ****      IWDG_feed(NULL); 
 297:../../applications/murata-dualstack-example-ns/src/murata-dualstack-example-ns.c ****     
 298:../../applications/murata-dualstack-example-ns/src/murata-dualstack-example-ns.c ****     //LSM303AGR_readRegister(0x31, data, 0);
 299:../../applications/murata-dualstack-example-ns/src/murata-dualstack-example-ns.c **** 
 300:../../applications/murata-dualstack-example-ns/src/murata-dualstack-example-ns.c ****     //als op de button wordt gedrukt zal in de interrupthandler de changeAcceleroMode op 1 worden g
 301:../../applications/murata-dualstack-example-ns/src/murata-dualstack-example-ns.c ****     if(changeAcceleroMode==1){
 302:../../applications/murata-dualstack-example-ns/src/murata-dualstack-example-ns.c **** 
 303:../../applications/murata-dualstack-example-ns/src/murata-dualstack-example-ns.c ****       if(repMode==1){
 304:../../applications/murata-dualstack-example-ns/src/murata-dualstack-example-ns.c ****         // send dash7 message with all info when user starts repping
 305:../../applications/murata-dualstack-example-ns/src/murata-dualstack-example-ns.c ****         LSM303AGR_initDouble();         //vanaf nu laten we de accelorometer enkel interrupten bij 
 306:../../applications/murata-dualstack-example-ns/src/murata-dualstack-example-ns.c ****         printf("Started Repping\r\n");
 307:../../applications/murata-dualstack-example-ns/src/murata-dualstack-example-ns.c ****         printf("LSM in double click mode \r\n");
 308:../../applications/murata-dualstack-example-ns/src/murata-dualstack-example-ns.c ****         if (murata_init) {
 309:../../applications/murata-dualstack-example-ns/src/murata-dualstack-example-ns.c ****           printf("Sending D7 Message with BLE info + temp + hum\r\n");
 310:../../applications/murata-dualstack-example-ns/src/murata-dualstack-example-ns.c ****           temp_hum_measurement();
 311:../../applications/murata-dualstack-example-ns/src/murata-dualstack-example-ns.c ****           send_message(1);
 312:../../applications/murata-dualstack-example-ns/src/murata-dualstack-example-ns.c ****           //LoRaWAN_send(NULL);
 313:../../applications/murata-dualstack-example-ns/src/murata-dualstack-example-ns.c ****           printf("Failure counter = %d\r\n",failureCounter);
 314:../../applications/murata-dualstack-example-ns/src/murata-dualstack-example-ns.c **** 
 315:../../applications/murata-dualstack-example-ns/src/murata-dualstack-example-ns.c ****         //TODO: Send BLE info
 316:../../applications/murata-dualstack-example-ns/src/murata-dualstack-example-ns.c ****         }
 317:../../applications/murata-dualstack-example-ns/src/murata-dualstack-example-ns.c ****         
 318:../../applications/murata-dualstack-example-ns/src/murata-dualstack-example-ns.c ****       }else{
 319:../../applications/murata-dualstack-example-ns/src/murata-dualstack-example-ns.c ****         // send dash7 message with all info when user stopped repping
 320:../../applications/murata-dualstack-example-ns/src/murata-dualstack-example-ns.c ****         LSM303AGR_initDefault();    //vanaf nu laten we de accelerometer interrupten bij elke beweg
 321:../../applications/murata-dualstack-example-ns/src/murata-dualstack-example-ns.c ****         printf("Stopped Repping\nLSM in default mode \r\n\n");
 322:../../applications/murata-dualstack-example-ns/src/murata-dualstack-example-ns.c ****         if (murata_init) {
 323:../../applications/murata-dualstack-example-ns/src/murata-dualstack-example-ns.c ****           printf("Sending D7 Message with BLE info + temp + hum + amount of reps\r\n");
 324:../../applications/murata-dualstack-example-ns/src/murata-dualstack-example-ns.c ****           temp_hum_measurement();
 325:../../applications/murata-dualstack-example-ns/src/murata-dualstack-example-ns.c ****         //Dash7_send_temphum();
 326:../../applications/murata-dualstack-example-ns/src/murata-dualstack-example-ns.c ****           send_message(2); 
 327:../../applications/murata-dualstack-example-ns/src/murata-dualstack-example-ns.c ****           //LoRaWAN_send(NULL);
 328:../../applications/murata-dualstack-example-ns/src/murata-dualstack-example-ns.c **** 
 329:../../applications/murata-dualstack-example-ns/src/murata-dualstack-example-ns.c ****         //TODO: Also send BLE info and reps
 330:../../applications/murata-dualstack-example-ns/src/murata-dualstack-example-ns.c **** 
 331:../../applications/murata-dualstack-example-ns/src/murata-dualstack-example-ns.c ****         //Set reps to zero again, for the next user
 332:../../applications/murata-dualstack-example-ns/src/murata-dualstack-example-ns.c ****         }
 333:../../applications/murata-dualstack-example-ns/src/murata-dualstack-example-ns.c ****         rep_counter=0;  //reset the rep counter
 334:../../applications/murata-dualstack-example-ns/src/murata-dualstack-example-ns.c ****       }
 335:../../applications/murata-dualstack-example-ns/src/murata-dualstack-example-ns.c ****       changeAcceleroMode=0; //set acceleromode flag back to zero
 336:../../applications/murata-dualstack-example-ns/src/murata-dualstack-example-ns.c **** 
 337:../../applications/murata-dualstack-example-ns/src/murata-dualstack-example-ns.c ****     }
ARM GAS  C:\Users\yvesk\AppData\Local\Temp\cchpqhiM.s 			page 12


 338:../../applications/murata-dualstack-example-ns/src/murata-dualstack-example-ns.c **** 
 339:../../applications/murata-dualstack-example-ns/src/murata-dualstack-example-ns.c ****     //als er een rep wordt geregistreerd zal dit een double interrupt genereren en in de handler wo
 340:../../applications/murata-dualstack-example-ns/src/murata-dualstack-example-ns.c ****     //we sturen dan ff de localisationtimer value  en de rep counter naar putty maar we checken eer
 341:../../applications/murata-dualstack-example-ns/src/murata-dualstack-example-ns.c ****     //en de repflag dus niet per ongeluk op 1 werd gezet door een random beweging van de dumbbel in
 342:../../applications/murata-dualstack-example-ns/src/murata-dualstack-example-ns.c ****     //we resetten dan ook de inactive timer zodat het device niet in sleep gaat (want er wordt nog 
 343:../../applications/murata-dualstack-example-ns/src/murata-dualstack-example-ns.c ****     //
 344:../../applications/murata-dualstack-example-ns/src/murata-dualstack-example-ns.c ****     if (repFlag==1) {
 345:../../applications/murata-dualstack-example-ns/src/murata-dualstack-example-ns.c ****       if (repMode==1) {
 346:../../applications/murata-dualstack-example-ns/src/murata-dualstack-example-ns.c ****       // Request to enter SLEEP mode
 347:../../applications/murata-dualstack-example-ns/src/murata-dualstack-example-ns.c ****       timerValue = __HAL_TIM_GET_COUNTER(&localisation_timer);
 348:../../applications/murata-dualstack-example-ns/src/murata-dualstack-example-ns.c ****       printf("Timer value: %d,\r\n\r\n",timerValue);
 349:../../applications/murata-dualstack-example-ns/src/murata-dualstack-example-ns.c ****       rep_counter++; 
 350:../../applications/murata-dualstack-example-ns/src/murata-dualstack-example-ns.c ****       printf("Rep counter: %d,\r\n\r\n",rep_counter);
 351:../../applications/murata-dualstack-example-ns/src/murata-dualstack-example-ns.c ****       } 
 352:../../applications/murata-dualstack-example-ns/src/murata-dualstack-example-ns.c **** 
 353:../../applications/murata-dualstack-example-ns/src/murata-dualstack-example-ns.c ****         //reset de inactive timer want accelerometer interrupt
 354:../../applications/murata-dualstack-example-ns/src/murata-dualstack-example-ns.c ****         HAL_TIM_Base_Stop_IT(&inactive_timer);    
 355:../../applications/murata-dualstack-example-ns/src/murata-dualstack-example-ns.c ****  
 356:../../applications/murata-dualstack-example-ns/src/murata-dualstack-example-ns.c **** 
 357:../../applications/murata-dualstack-example-ns/src/murata-dualstack-example-ns.c ****         __HAL_TIM_SET_COUNTER(&inactive_timer, 0);
 358:../../applications/murata-dualstack-example-ns/src/murata-dualstack-example-ns.c ****  
 359:../../applications/murata-dualstack-example-ns/src/murata-dualstack-example-ns.c **** 
 360:../../applications/murata-dualstack-example-ns/src/murata-dualstack-example-ns.c ****         HAL_TIM_Base_Start_IT(&inactive_timer);         
 361:../../applications/murata-dualstack-example-ns/src/murata-dualstack-example-ns.c **** 
 362:../../applications/murata-dualstack-example-ns/src/murata-dualstack-example-ns.c ****       
 363:../../applications/murata-dualstack-example-ns/src/murata-dualstack-example-ns.c ****       
 364:../../applications/murata-dualstack-example-ns/src/murata-dualstack-example-ns.c ****           repFlag=0; 
 365:../../applications/murata-dualstack-example-ns/src/murata-dualstack-example-ns.c ****     }  
 366:../../applications/murata-dualstack-example-ns/src/murata-dualstack-example-ns.c **** 
 367:../../applications/murata-dualstack-example-ns/src/murata-dualstack-example-ns.c **** 
 368:../../applications/murata-dualstack-example-ns/src/murata-dualstack-example-ns.c ****     //Als een periode van onze localisationtimer is verlopen genereert dit een interrupt en wordt d
 369:../../applications/murata-dualstack-example-ns/src/murata-dualstack-example-ns.c ****     //Dit wil zeggen dat we wakker moeten worden en een message moeten zenden. 
 370:../../applications/murata-dualstack-example-ns/src/murata-dualstack-example-ns.c ****     if(timer2flag==1) {
 371:../../applications/murata-dualstack-example-ns/src/murata-dualstack-example-ns.c ****        //send dash7 localisation message
 372:../../applications/murata-dualstack-example-ns/src/murata-dualstack-example-ns.c ****       if (murata_init) {
 373:../../applications/murata-dualstack-example-ns/src/murata-dualstack-example-ns.c ****         printf("Sending dash7 localisation message (once per minute)\r\n\r\n");
 374:../../applications/murata-dualstack-example-ns/src/murata-dualstack-example-ns.c ****           temp_hum_measurement();
 375:../../applications/murata-dualstack-example-ns/src/murata-dualstack-example-ns.c ****         send_message(1);
 376:../../applications/murata-dualstack-example-ns/src/murata-dualstack-example-ns.c ****          
 377:../../applications/murata-dualstack-example-ns/src/murata-dualstack-example-ns.c ****       }
 378:../../applications/murata-dualstack-example-ns/src/murata-dualstack-example-ns.c ****      timer2flag=0;
 379:../../applications/murata-dualstack-example-ns/src/murata-dualstack-example-ns.c ****     }
 380:../../applications/murata-dualstack-example-ns/src/murata-dualstack-example-ns.c ****     // go to sleep
 381:../../applications/murata-dualstack-example-ns/src/murata-dualstack-example-ns.c ****      if(timer3flag==1) {
 382:../../applications/murata-dualstack-example-ns/src/murata-dualstack-example-ns.c ****       
 383:../../applications/murata-dualstack-example-ns/src/murata-dualstack-example-ns.c ****       if (murata_init) {
 384:../../applications/murata-dualstack-example-ns/src/murata-dualstack-example-ns.c ****         printf("Inactive timer expired, sending last message\r\n\r\n");
 385:../../applications/murata-dualstack-example-ns/src/murata-dualstack-example-ns.c ****         temp_hum_measurement();
 386:../../applications/murata-dualstack-example-ns/src/murata-dualstack-example-ns.c ****         send_message(1); 
 387:../../applications/murata-dualstack-example-ns/src/murata-dualstack-example-ns.c ****         __HAL_TIM_SET_COUNTER(&send_sleepmessage_timer, 0);
 388:../../applications/murata-dualstack-example-ns/src/murata-dualstack-example-ns.c ****         HAL_TIM_Base_Start_IT(&send_sleepmessage_timer);  
 389:../../applications/murata-dualstack-example-ns/src/murata-dualstack-example-ns.c ****         
 390:../../applications/murata-dualstack-example-ns/src/murata-dualstack-example-ns.c ****       }
 391:../../applications/murata-dualstack-example-ns/src/murata-dualstack-example-ns.c ****      timer3flag=0;
 392:../../applications/murata-dualstack-example-ns/src/murata-dualstack-example-ns.c ****     } 
 393:../../applications/murata-dualstack-example-ns/src/murata-dualstack-example-ns.c **** 
 394:../../applications/murata-dualstack-example-ns/src/murata-dualstack-example-ns.c ****     if (timer4flag==1) {
ARM GAS  C:\Users\yvesk\AppData\Local\Temp\cchpqhiM.s 			page 13


 395:../../applications/murata-dualstack-example-ns/src/murata-dualstack-example-ns.c ****     HAL_TIM_Base_Stop_IT(&inactive_timer);    
 396:../../applications/murata-dualstack-example-ns/src/murata-dualstack-example-ns.c ****     __HAL_TIM_SET_COUNTER(&inactive_timer, 0);
 397:../../applications/murata-dualstack-example-ns/src/murata-dualstack-example-ns.c ****     goToSleep(); 
 398:../../applications/murata-dualstack-example-ns/src/murata-dualstack-example-ns.c ****     }
 399:../../applications/murata-dualstack-example-ns/src/murata-dualstack-example-ns.c **** 
 400:../../applications/murata-dualstack-example-ns/src/murata-dualstack-example-ns.c ****     //als drie keer geen gateways konden bereikt worden, zetten we de messagemode die in sendmessag
 401:../../applications/murata-dualstack-example-ns/src/murata-dualstack-example-ns.c ****     //vanaf dan beginnen we het aantal succesvolle verzendingen via dash7 te zenden
 402:../../applications/murata-dualstack-example-ns/src/murata-dualstack-example-ns.c ****     if (failureCounter==3) {
 403:../../applications/murata-dualstack-example-ns/src/murata-dualstack-example-ns.c ****       printf("Going to LoRaWAN mode\r\n\r\n");
 404:../../applications/murata-dualstack-example-ns/src/murata-dualstack-example-ns.c ****       messageMode=1;      //go to lorawanmode
 405:../../applications/murata-dualstack-example-ns/src/murata-dualstack-example-ns.c ****       successCounter=0;
 406:../../applications/murata-dualstack-example-ns/src/murata-dualstack-example-ns.c ****       failureCounter=4; 
 407:../../applications/murata-dualstack-example-ns/src/murata-dualstack-example-ns.c ****     }
 408:../../applications/murata-dualstack-example-ns/src/murata-dualstack-example-ns.c **** 
 409:../../applications/murata-dualstack-example-ns/src/murata-dualstack-example-ns.c ****     //vanaf opnieuw 1 succesvolle dash7 verzendingen zijn gebeurt (?) zijn gaan we terug swichten n
 410:../../applications/murata-dualstack-example-ns/src/murata-dualstack-example-ns.c ****      if (successCounter==1) {
 411:../../applications/murata-dualstack-example-ns/src/murata-dualstack-example-ns.c ****       printf("Going to dash7 mode\r\n\r\n");
 412:../../applications/murata-dualstack-example-ns/src/murata-dualstack-example-ns.c ****       messageMode=0;        //go to dash7mode
 413:../../applications/murata-dualstack-example-ns/src/murata-dualstack-example-ns.c ****       successCounter=2;     //step over the 1 value so that between messages this if isn't accessed
 414:../../applications/murata-dualstack-example-ns/src/murata-dualstack-example-ns.c ****     }
 415:../../applications/murata-dualstack-example-ns/src/murata-dualstack-example-ns.c **** 
 416:../../applications/murata-dualstack-example-ns/src/murata-dualstack-example-ns.c **** 
 417:../../applications/murata-dualstack-example-ns/src/murata-dualstack-example-ns.c ****     if (BLE_flag) {
 418:../../applications/murata-dualstack-example-ns/src/murata-dualstack-example-ns.c ****       ble_callback(); 
 419:../../applications/murata-dualstack-example-ns/src/murata-dualstack-example-ns.c ****       HAL_UART_Receive_IT(&BLE_UART, (uint8_t *)tmpbuf_ble, sizeof(tmpbuf_ble)); 
 420:../../applications/murata-dualstack-example-ns/src/murata-dualstack-example-ns.c ****       BLE_flag = 0; 
 421:../../applications/murata-dualstack-example-ns/src/murata-dualstack-example-ns.c ****     }
 422:../../applications/murata-dualstack-example-ns/src/murata-dualstack-example-ns.c **** 
 423:../../applications/murata-dualstack-example-ns/src/murata-dualstack-example-ns.c ****     
 424:../../applications/murata-dualstack-example-ns/src/murata-dualstack-example-ns.c **** 
 425:../../applications/murata-dualstack-example-ns/src/murata-dualstack-example-ns.c ****     /* USER CODE END WHILE */
 426:../../applications/murata-dualstack-example-ns/src/murata-dualstack-example-ns.c ****     
 427:../../applications/murata-dualstack-example-ns/src/murata-dualstack-example-ns.c ****     /* USER CODE BEGIN 3 */
 428:../../applications/murata-dualstack-example-ns/src/murata-dualstack-example-ns.c ****   }
 429:../../applications/murata-dualstack-example-ns/src/murata-dualstack-example-ns.c ****   /* USER CODE END 3 */
 430:../../applications/murata-dualstack-example-ns/src/murata-dualstack-example-ns.c **** }
 431:../../applications/murata-dualstack-example-ns/src/murata-dualstack-example-ns.c **** 
 432:../../applications/murata-dualstack-example-ns/src/murata-dualstack-example-ns.c **** void goToSleep(void) {
 298              		.loc 1 432 22 is_stmt 1 view -0
 299              		.cfi_startproc
 300              		@ args = 0, pretend = 0, frame = 0
 301              		@ frame_needed = 0, uses_anonymous_args = 0
 302 0000 08B5     		push	{r3, lr}
 303              	.LCFI9:
 304              		.cfi_def_cfa_offset 8
 305              		.cfi_offset 3, -8
 306              		.cfi_offset 14, -4
 433:../../applications/murata-dualstack-example-ns/src/murata-dualstack-example-ns.c ****   
 434:../../applications/murata-dualstack-example-ns/src/murata-dualstack-example-ns.c ****       printf("going into sleepmode\r\n"); 
 307              		.loc 1 434 7 view .LVU64
 308 0002 0A48     		ldr	r0, .L15
 309 0004 FFF7FEFF 		bl	puts
 310              	.LVL12:
 435:../../applications/murata-dualstack-example-ns/src/murata-dualstack-example-ns.c ****        HAL_SuspendTick(); 
 311              		.loc 1 435 8 view .LVU65
 312 0008 FFF7FEFF 		bl	HAL_SuspendTick
 313              	.LVL13:
ARM GAS  C:\Users\yvesk\AppData\Local\Temp\cchpqhiM.s 			page 14


 436:../../applications/murata-dualstack-example-ns/src/murata-dualstack-example-ns.c **** 
 437:../../applications/murata-dualstack-example-ns/src/murata-dualstack-example-ns.c ****       HAL_PWR_EnterSTOPMode(PWR_MAINREGULATOR_ON, PWR_SLEEPENTRY_WFI);
 314              		.loc 1 437 7 view .LVU66
 315 000c 0121     		movs	r1, #1
 316 000e 0020     		movs	r0, #0
 317 0010 FFF7FEFF 		bl	HAL_PWR_EnterSTOPMode
 318              	.LVL14:
 438:../../applications/murata-dualstack-example-ns/src/murata-dualstack-example-ns.c **** 
 439:../../applications/murata-dualstack-example-ns/src/murata-dualstack-example-ns.c ****       HAL_ResumeTick(); 
 319              		.loc 1 439 7 view .LVU67
 320 0014 FFF7FEFF 		bl	HAL_ResumeTick
 321              	.LVL15:
 440:../../applications/murata-dualstack-example-ns/src/murata-dualstack-example-ns.c ****       SystemClock_Config(); 
 322              		.loc 1 440 7 view .LVU68
 323 0018 FFF7FEFF 		bl	SystemClock_Config
 324              	.LVL16:
 441:../../applications/murata-dualstack-example-ns/src/murata-dualstack-example-ns.c ****       printf(" came out of sleepmode \r\n");  
 325              		.loc 1 441 7 view .LVU69
 326 001c 0448     		ldr	r0, .L15+4
 327 001e FFF7FEFF 		bl	puts
 328              	.LVL17:
 442:../../applications/murata-dualstack-example-ns/src/murata-dualstack-example-ns.c ****       timer3_first=0;  
 329              		.loc 1 442 7 view .LVU70
 330              		.loc 1 442 19 is_stmt 0 view .LVU71
 331 0022 044B     		ldr	r3, .L15+8
 332 0024 0022     		movs	r2, #0
 333 0026 1A70     		strb	r2, [r3]
 443:../../applications/murata-dualstack-example-ns/src/murata-dualstack-example-ns.c **** }
 334              		.loc 1 443 1 view .LVU72
 335 0028 08BD     		pop	{r3, pc}
 336              	.L16:
 337 002a 00BF     		.align	2
 338              	.L15:
 339 002c 00000000 		.word	.LC0
 340 0030 18000000 		.word	.LC1
 341 0034 00000000 		.word	.LANCHOR3
 342              		.cfi_endproc
 343              	.LFE136:
 345              		.section	.text.LoRaWAN_send,"ax",%progbits
 346              		.align	1
 347              		.global	LoRaWAN_send
 348              		.syntax unified
 349              		.thumb
 350              		.thumb_func
 351              		.fpu fpv4-sp-d16
 353              	LoRaWAN_send:
 354              	.LVL18:
 355              	.LFB138:
 444:../../applications/murata-dualstack-example-ns/src/murata-dualstack-example-ns.c **** 
 445:../../applications/murata-dualstack-example-ns/src/murata-dualstack-example-ns.c **** //----------------------------------------------------------start send message methods-------------
 446:../../applications/murata-dualstack-example-ns/src/murata-dualstack-example-ns.c **** 
 447:../../applications/murata-dualstack-example-ns/src/murata-dualstack-example-ns.c **** void send_message(uint8_t type) {
 448:../../applications/murata-dualstack-example-ns/src/murata-dualstack-example-ns.c ****   isActiveSending = 1; 
 449:../../applications/murata-dualstack-example-ns/src/murata-dualstack-example-ns.c ****   if (messageMode==0) {                 //dash7mode
 450:../../applications/murata-dualstack-example-ns/src/murata-dualstack-example-ns.c ****     switch (type) {
 451:../../applications/murata-dualstack-example-ns/src/murata-dualstack-example-ns.c ****       case 1:
 452:../../applications/murata-dualstack-example-ns/src/murata-dualstack-example-ns.c ****       messageCounter++;
ARM GAS  C:\Users\yvesk\AppData\Local\Temp\cchpqhiM.s 			page 15


 453:../../applications/murata-dualstack-example-ns/src/murata-dualstack-example-ns.c ****       Dash7_send_temphum();  
 454:../../applications/murata-dualstack-example-ns/src/murata-dualstack-example-ns.c ****       //printf("sending temphum message\r\n");
 455:../../applications/murata-dualstack-example-ns/src/murata-dualstack-example-ns.c ****       break; 
 456:../../applications/murata-dualstack-example-ns/src/murata-dualstack-example-ns.c ****       case 2:
 457:../../applications/murata-dualstack-example-ns/src/murata-dualstack-example-ns.c ****       messageCounter++;
 458:../../applications/murata-dualstack-example-ns/src/murata-dualstack-example-ns.c ****       Dash7_send_allInfo();
 459:../../applications/murata-dualstack-example-ns/src/murata-dualstack-example-ns.c ****      //printf("sending allinfo message\r\n");
 460:../../applications/murata-dualstack-example-ns/src/murata-dualstack-example-ns.c ****       break; 
 461:../../applications/murata-dualstack-example-ns/src/murata-dualstack-example-ns.c ****       default:
 462:../../applications/murata-dualstack-example-ns/src/murata-dualstack-example-ns.c ****       printf("No case was matched\r\n"); 
 463:../../applications/murata-dualstack-example-ns/src/murata-dualstack-example-ns.c ****       break;  
 464:../../applications/murata-dualstack-example-ns/src/murata-dualstack-example-ns.c ****     }
 465:../../applications/murata-dualstack-example-ns/src/murata-dualstack-example-ns.c ****   } else {                               //lorawanmode
 466:../../applications/murata-dualstack-example-ns/src/murata-dualstack-example-ns.c ****       LoRaWAN_send(NULL);  
 467:../../applications/murata-dualstack-example-ns/src/murata-dualstack-example-ns.c ****       Dash7_send_temphum(); 
 468:../../applications/murata-dualstack-example-ns/src/murata-dualstack-example-ns.c ****       printf("sending out of reach lorawan message\r\n");
 469:../../applications/murata-dualstack-example-ns/src/murata-dualstack-example-ns.c ****   }
 470:../../applications/murata-dualstack-example-ns/src/murata-dualstack-example-ns.c **** }
 471:../../applications/murata-dualstack-example-ns/src/murata-dualstack-example-ns.c **** 
 472:../../applications/murata-dualstack-example-ns/src/murata-dualstack-example-ns.c **** 
 473:../../applications/murata-dualstack-example-ns/src/murata-dualstack-example-ns.c **** 
 474:../../applications/murata-dualstack-example-ns/src/murata-dualstack-example-ns.c **** void LoRaWAN_send(void const *argument)
 475:../../applications/murata-dualstack-example-ns/src/murata-dualstack-example-ns.c **** {
 356              		.loc 1 475 1 is_stmt 1 view -0
 357              		.cfi_startproc
 358              		@ args = 0, pretend = 0, frame = 8
 359              		@ frame_needed = 0, uses_anonymous_args = 0
 360              		.loc 1 475 1 is_stmt 0 view .LVU74
 361 0000 00B5     		push	{lr}
 362              	.LCFI10:
 363              		.cfi_def_cfa_offset 4
 364              		.cfi_offset 14, -4
 365 0002 83B0     		sub	sp, sp, #12
 366              	.LCFI11:
 367              		.cfi_def_cfa_offset 16
 476:../../applications/murata-dualstack-example-ns/src/murata-dualstack-example-ns.c ****   if (murata_init)
 368              		.loc 1 476 3 is_stmt 1 view .LVU75
 369              		.loc 1 476 7 is_stmt 0 view .LVU76
 370 0004 174B     		ldr	r3, .L23
 371 0006 1B78     		ldrb	r3, [r3]	@ zero_extendqisi2
 372              		.loc 1 476 6 view .LVU77
 373 0008 3BB3     		cbz	r3, .L18
 374              	.LBB5:
 477:../../applications/murata-dualstack-example-ns/src/murata-dualstack-example-ns.c ****   {
 478:../../applications/murata-dualstack-example-ns/src/murata-dualstack-example-ns.c ****     uint8_t loraMessage[5];
 375              		.loc 1 478 5 is_stmt 1 view .LVU78
 479:../../applications/murata-dualstack-example-ns/src/murata-dualstack-example-ns.c ****     uint8_t i = 0;
 376              		.loc 1 479 5 view .LVU79
 377              	.LVL19:
 480:../../applications/murata-dualstack-example-ns/src/murata-dualstack-example-ns.c ****     //uint16 counter to uint8 array (little endian)
 481:../../applications/murata-dualstack-example-ns/src/murata-dualstack-example-ns.c ****     //counter (large) type byte
 482:../../applications/murata-dualstack-example-ns/src/murata-dualstack-example-ns.c ****     loraMessage[i++] = SHTData[0];
 378              		.loc 1 482 5 view .LVU80
 379              		.loc 1 482 31 is_stmt 0 view .LVU81
 380 000a 174A     		ldr	r2, .L23+4
 381 000c D2ED007A 		vldr.32	s15, [r2]
 382              	.LVL20:
ARM GAS  C:\Users\yvesk\AppData\Local\Temp\cchpqhiM.s 			page 16


 383              		.loc 1 482 22 view .LVU82
 384 0010 FCEEE77A 		vcvt.u32.f32	s15, s15
 385 0014 17EE903A 		vmov	r3, s15	@ int
 386 0018 8DF80030 		strb	r3, [sp]
 483:../../applications/murata-dualstack-example-ns/src/murata-dualstack-example-ns.c ****     loraMessage[i++] = SHTData[1];
 387              		.loc 1 483 5 is_stmt 1 view .LVU83
 388              		.loc 1 483 31 is_stmt 0 view .LVU84
 389 001c D2ED017A 		vldr.32	s15, [r2, #4]
 390              	.LVL21:
 391              		.loc 1 483 22 view .LVU85
 392 0020 FCEEE77A 		vcvt.u32.f32	s15, s15
 393 0024 17EE903A 		vmov	r3, s15	@ int
 394 0028 8DF80130 		strb	r3, [sp, #1]
 484:../../applications/murata-dualstack-example-ns/src/murata-dualstack-example-ns.c ****     loraMessage[i++] = 0x00;
 395              		.loc 1 484 5 is_stmt 1 view .LVU86
 396              	.LVL22:
 397              		.loc 1 484 22 is_stmt 0 view .LVU87
 398 002c 0023     		movs	r3, #0
 399 002e 8DF80230 		strb	r3, [sp, #2]
 485:../../applications/murata-dualstack-example-ns/src/murata-dualstack-example-ns.c ****     
 486:../../applications/murata-dualstack-example-ns/src/murata-dualstack-example-ns.c ****     //osMutexWait(txMutexId, osWaitForever);
 487:../../applications/murata-dualstack-example-ns/src/murata-dualstack-example-ns.c ****     if(!Murata_LoRaWAN_Send((uint8_t *)loraMessage, i))
 400              		.loc 1 487 5 is_stmt 1 view .LVU88
 401              		.loc 1 487 9 is_stmt 0 view .LVU89
 402 0032 0321     		movs	r1, #3
 403 0034 6846     		mov	r0, sp
 404              	.LVL23:
 405              		.loc 1 487 9 view .LVU90
 406 0036 FFF7FEFF 		bl	Murata_LoRaWAN_Send
 407              	.LVL24:
 408              		.loc 1 487 7 view .LVU91
 409 003a 50B9     		cbnz	r0, .L19
 488:../../applications/murata-dualstack-example-ns/src/murata-dualstack-example-ns.c ****     {
 489:../../applications/murata-dualstack-example-ns/src/murata-dualstack-example-ns.c ****       murata_init++;
 410              		.loc 1 489 7 is_stmt 1 view .LVU92
 411              		.loc 1 489 18 is_stmt 0 view .LVU93
 412 003c 094A     		ldr	r2, .L23
 413 003e 1378     		ldrb	r3, [r2]	@ zero_extendqisi2
 414 0040 0133     		adds	r3, r3, #1
 415 0042 1370     		strb	r3, [r2]
 490:../../applications/murata-dualstack-example-ns/src/murata-dualstack-example-ns.c ****       if(murata_init == 10)
 416              		.loc 1 490 7 is_stmt 1 view .LVU94
 417              	.L20:
 491:../../applications/murata-dualstack-example-ns/src/murata-dualstack-example-ns.c ****         murata_init == 0;
 492:../../applications/murata-dualstack-example-ns/src/murata-dualstack-example-ns.c ****     }
 493:../../applications/murata-dualstack-example-ns/src/murata-dualstack-example-ns.c ****     else
 494:../../applications/murata-dualstack-example-ns/src/murata-dualstack-example-ns.c ****     {
 495:../../applications/murata-dualstack-example-ns/src/murata-dualstack-example-ns.c ****       murata_init = 1;
 496:../../applications/murata-dualstack-example-ns/src/murata-dualstack-example-ns.c ****     }
 497:../../applications/murata-dualstack-example-ns/src/murata-dualstack-example-ns.c ****     //BLOCK TX MUTEX FOR 3s
 498:../../applications/murata-dualstack-example-ns/src/murata-dualstack-example-ns.c ****     //osDelay(3000);
 499:../../applications/murata-dualstack-example-ns/src/murata-dualstack-example-ns.c ****     //osMutexRelease(txMutexId);
 500:../../applications/murata-dualstack-example-ns/src/murata-dualstack-example-ns.c ****     LoRaWAN_Counter++;
 418              		.loc 1 500 5 discriminator 1 view .LVU95
 419              		.loc 1 500 20 is_stmt 0 discriminator 1 view .LVU96
 420 0044 094A     		ldr	r2, .L23+8
 421 0046 1388     		ldrh	r3, [r2]
ARM GAS  C:\Users\yvesk\AppData\Local\Temp\cchpqhiM.s 			page 17


 422 0048 0133     		adds	r3, r3, #1
 423 004a 1380     		strh	r3, [r2]	@ movhi
 424              	.LVL25:
 425              	.L17:
 426              		.loc 1 500 20 discriminator 1 view .LVU97
 427              	.LBE5:
 501:../../applications/murata-dualstack-example-ns/src/murata-dualstack-example-ns.c ****   }
 502:../../applications/murata-dualstack-example-ns/src/murata-dualstack-example-ns.c ****   else{
 503:../../applications/murata-dualstack-example-ns/src/murata-dualstack-example-ns.c ****     printf("murata not initialized, not sending\r\n");
 504:../../applications/murata-dualstack-example-ns/src/murata-dualstack-example-ns.c ****   }
 505:../../applications/murata-dualstack-example-ns/src/murata-dualstack-example-ns.c **** }
 428              		.loc 1 505 1 view .LVU98
 429 004c 03B0     		add	sp, sp, #12
 430              	.LCFI12:
 431              		.cfi_remember_state
 432              		.cfi_def_cfa_offset 4
 433              		@ sp needed
 434 004e 5DF804FB 		ldr	pc, [sp], #4
 435              	.LVL26:
 436              	.L19:
 437              	.LCFI13:
 438              		.cfi_restore_state
 439              	.LBB6:
 495:../../applications/murata-dualstack-example-ns/src/murata-dualstack-example-ns.c ****     }
 440              		.loc 1 495 7 is_stmt 1 view .LVU99
 495:../../applications/murata-dualstack-example-ns/src/murata-dualstack-example-ns.c ****     }
 441              		.loc 1 495 19 is_stmt 0 view .LVU100
 442 0052 044B     		ldr	r3, .L23
 443 0054 0122     		movs	r2, #1
 444 0056 1A70     		strb	r2, [r3]
 445 0058 F4E7     		b	.L20
 446              	.LVL27:
 447              	.L18:
 495:../../applications/murata-dualstack-example-ns/src/murata-dualstack-example-ns.c ****     }
 448              		.loc 1 495 19 view .LVU101
 449              	.LBE6:
 503:../../applications/murata-dualstack-example-ns/src/murata-dualstack-example-ns.c ****   }
 450              		.loc 1 503 5 is_stmt 1 view .LVU102
 451 005a 0548     		ldr	r0, .L23+12
 452              	.LVL28:
 503:../../applications/murata-dualstack-example-ns/src/murata-dualstack-example-ns.c ****   }
 453              		.loc 1 503 5 is_stmt 0 view .LVU103
 454 005c FFF7FEFF 		bl	puts
 455              	.LVL29:
 456              		.loc 1 505 1 view .LVU104
 457 0060 F4E7     		b	.L17
 458              	.L24:
 459 0062 00BF     		.align	2
 460              	.L23:
 461 0064 00000000 		.word	.LANCHOR4
 462 0068 00000000 		.word	SHTData
 463 006c 00000000 		.word	.LANCHOR5
 464 0070 00000000 		.word	.LC2
 465              		.cfi_endproc
 466              	.LFE138:
 468              		.section	.text.LoRaWAN_send_self,"ax",%progbits
 469              		.align	1
ARM GAS  C:\Users\yvesk\AppData\Local\Temp\cchpqhiM.s 			page 18


 470              		.global	LoRaWAN_send_self
 471              		.syntax unified
 472              		.thumb
 473              		.thumb_func
 474              		.fpu fpv4-sp-d16
 476              	LoRaWAN_send_self:
 477              	.LFB139:
 506:../../applications/murata-dualstack-example-ns/src/murata-dualstack-example-ns.c **** 
 507:../../applications/murata-dualstack-example-ns/src/murata-dualstack-example-ns.c **** 
 508:../../applications/murata-dualstack-example-ns/src/murata-dualstack-example-ns.c **** void LoRaWAN_send_self()
 509:../../applications/murata-dualstack-example-ns/src/murata-dualstack-example-ns.c **** {
 478              		.loc 1 509 1 is_stmt 1 view -0
 479              		.cfi_startproc
 480              		@ args = 0, pretend = 0, frame = 8
 481              		@ frame_needed = 0, uses_anonymous_args = 0
 482 0000 00B5     		push	{lr}
 483              	.LCFI14:
 484              		.cfi_def_cfa_offset 4
 485              		.cfi_offset 14, -4
 486 0002 83B0     		sub	sp, sp, #12
 487              	.LCFI15:
 488              		.cfi_def_cfa_offset 16
 510:../../applications/murata-dualstack-example-ns/src/murata-dualstack-example-ns.c ****   if (murata_init)
 489              		.loc 1 510 3 view .LVU106
 490              		.loc 1 510 7 is_stmt 0 view .LVU107
 491 0004 194B     		ldr	r3, .L32
 492 0006 1B78     		ldrb	r3, [r3]	@ zero_extendqisi2
 493              		.loc 1 510 6 view .LVU108
 494 0008 63B3     		cbz	r3, .L26
 495              	.LBB7:
 511:../../applications/murata-dualstack-example-ns/src/murata-dualstack-example-ns.c ****   {
 512:../../applications/murata-dualstack-example-ns/src/murata-dualstack-example-ns.c ****     uint8_t loraMessage[5];
 496              		.loc 1 512 5 is_stmt 1 view .LVU109
 513:../../applications/murata-dualstack-example-ns/src/murata-dualstack-example-ns.c ****     uint8_t i = 0;
 497              		.loc 1 513 5 view .LVU110
 498              	.LVL30:
 514:../../applications/murata-dualstack-example-ns/src/murata-dualstack-example-ns.c ****     //uint16 counter to uint8 array (little endian)
 515:../../applications/murata-dualstack-example-ns/src/murata-dualstack-example-ns.c ****     //counter (large) type byte
 516:../../applications/murata-dualstack-example-ns/src/murata-dualstack-example-ns.c **** 
 517:../../applications/murata-dualstack-example-ns/src/murata-dualstack-example-ns.c ****     //first data transfer works, but afterwards it stays in a kind of 'transmitted' loop. Find wher
 518:../../applications/murata-dualstack-example-ns/src/murata-dualstack-example-ns.c ****     loraMessage[i++] = SHTData[0];
 499              		.loc 1 518 5 view .LVU111
 500              		.loc 1 518 31 is_stmt 0 view .LVU112
 501 000a 194A     		ldr	r2, .L32+4
 502 000c D2ED007A 		vldr.32	s15, [r2]
 503              	.LVL31:
 504              		.loc 1 518 22 view .LVU113
 505 0010 FCEEE77A 		vcvt.u32.f32	s15, s15
 506 0014 17EE903A 		vmov	r3, s15	@ int
 507 0018 8DF80030 		strb	r3, [sp]
 519:../../applications/murata-dualstack-example-ns/src/murata-dualstack-example-ns.c ****     loraMessage[i++] = SHTData[1];
 508              		.loc 1 519 5 is_stmt 1 view .LVU114
 509              		.loc 1 519 31 is_stmt 0 view .LVU115
 510 001c D2ED017A 		vldr.32	s15, [r2, #4]
 511              	.LVL32:
 512              		.loc 1 519 22 view .LVU116
 513 0020 FCEEE77A 		vcvt.u32.f32	s15, s15
ARM GAS  C:\Users\yvesk\AppData\Local\Temp\cchpqhiM.s 			page 19


 514 0024 17EE903A 		vmov	r3, s15	@ int
 515 0028 8DF80130 		strb	r3, [sp, #1]
 520:../../applications/murata-dualstack-example-ns/src/murata-dualstack-example-ns.c ****     loraMessage[i++] = LoRaWAN_Counter >> 8;
 516              		.loc 1 520 5 is_stmt 1 view .LVU117
 517              	.LVL33:
 518              		.loc 1 520 22 is_stmt 0 view .LVU118
 519 002c 114B     		ldr	r3, .L32+8
 520 002e 1B88     		ldrh	r3, [r3]
 521 0030 1B0A     		lsrs	r3, r3, #8
 522 0032 8DF80230 		strb	r3, [sp, #2]
 521:../../applications/murata-dualstack-example-ns/src/murata-dualstack-example-ns.c ****    // osMutexWait(txMutexId, osWaitForever);
 522:../../applications/murata-dualstack-example-ns/src/murata-dualstack-example-ns.c ****     if(!Murata_LoRaWAN_Send((uint8_t *)loraMessage, i))
 523              		.loc 1 522 5 is_stmt 1 view .LVU119
 524              		.loc 1 522 9 is_stmt 0 view .LVU120
 525 0036 0321     		movs	r1, #3
 526 0038 6846     		mov	r0, sp
 527 003a FFF7FEFF 		bl	Murata_LoRaWAN_Send
 528              	.LVL34:
 529              		.loc 1 522 7 view .LVU121
 530 003e 48B1     		cbz	r0, .L31
 523:../../applications/murata-dualstack-example-ns/src/murata-dualstack-example-ns.c ****     {
 524:../../applications/murata-dualstack-example-ns/src/murata-dualstack-example-ns.c ****       printf("tis ni gelukt :( ");
 525:../../applications/murata-dualstack-example-ns/src/murata-dualstack-example-ns.c ****       murata_init++;
 526:../../applications/murata-dualstack-example-ns/src/murata-dualstack-example-ns.c ****       if(murata_init == 10)
 527:../../applications/murata-dualstack-example-ns/src/murata-dualstack-example-ns.c ****         murata_init == 0;
 528:../../applications/murata-dualstack-example-ns/src/murata-dualstack-example-ns.c ****     }
 529:../../applications/murata-dualstack-example-ns/src/murata-dualstack-example-ns.c ****     else
 530:../../applications/murata-dualstack-example-ns/src/murata-dualstack-example-ns.c ****     {
 531:../../applications/murata-dualstack-example-ns/src/murata-dualstack-example-ns.c ****       murata_init = 1;
 531              		.loc 1 531 7 is_stmt 1 view .LVU122
 532              		.loc 1 531 19 is_stmt 0 view .LVU123
 533 0040 0A4B     		ldr	r3, .L32
 534 0042 0122     		movs	r2, #1
 535 0044 1A70     		strb	r2, [r3]
 536              	.L28:
 532:../../applications/murata-dualstack-example-ns/src/murata-dualstack-example-ns.c ****     }
 533:../../applications/murata-dualstack-example-ns/src/murata-dualstack-example-ns.c ****     //BLOCK TX MUTEX FOR 3s
 534:../../applications/murata-dualstack-example-ns/src/murata-dualstack-example-ns.c ****     // osDelay(3000);
 535:../../applications/murata-dualstack-example-ns/src/murata-dualstack-example-ns.c ****     // osMutexRelease(txMutexId);
 536:../../applications/murata-dualstack-example-ns/src/murata-dualstack-example-ns.c ****     LoRaWAN_Counter++;
 537              		.loc 1 536 5 is_stmt 1 discriminator 1 view .LVU124
 538              		.loc 1 536 20 is_stmt 0 discriminator 1 view .LVU125
 539 0046 0B4A     		ldr	r2, .L32+8
 540 0048 1388     		ldrh	r3, [r2]
 541 004a 0133     		adds	r3, r3, #1
 542 004c 1380     		strh	r3, [r2]	@ movhi
 543              	.LVL35:
 544              	.L25:
 545              		.loc 1 536 20 discriminator 1 view .LVU126
 546              	.LBE7:
 537:../../applications/murata-dualstack-example-ns/src/murata-dualstack-example-ns.c ****   }
 538:../../applications/murata-dualstack-example-ns/src/murata-dualstack-example-ns.c ****   else{
 539:../../applications/murata-dualstack-example-ns/src/murata-dualstack-example-ns.c ****     printf("murata not initialized, not sending\r\n");
 540:../../applications/murata-dualstack-example-ns/src/murata-dualstack-example-ns.c ****   }
 541:../../applications/murata-dualstack-example-ns/src/murata-dualstack-example-ns.c **** }
 547              		.loc 1 541 1 view .LVU127
 548 004e 03B0     		add	sp, sp, #12
ARM GAS  C:\Users\yvesk\AppData\Local\Temp\cchpqhiM.s 			page 20


 549              	.LCFI16:
 550              		.cfi_remember_state
 551              		.cfi_def_cfa_offset 4
 552              		@ sp needed
 553 0050 5DF804FB 		ldr	pc, [sp], #4
 554              	.LVL36:
 555              	.L31:
 556              	.LCFI17:
 557              		.cfi_restore_state
 558              	.LBB8:
 524:../../applications/murata-dualstack-example-ns/src/murata-dualstack-example-ns.c ****       murata_init++;
 559              		.loc 1 524 7 is_stmt 1 view .LVU128
 560 0054 0848     		ldr	r0, .L32+12
 561 0056 FFF7FEFF 		bl	printf
 562              	.LVL37:
 525:../../applications/murata-dualstack-example-ns/src/murata-dualstack-example-ns.c ****       if(murata_init == 10)
 563              		.loc 1 525 7 view .LVU129
 525:../../applications/murata-dualstack-example-ns/src/murata-dualstack-example-ns.c ****       if(murata_init == 10)
 564              		.loc 1 525 18 is_stmt 0 view .LVU130
 565 005a 044A     		ldr	r2, .L32
 566 005c 1378     		ldrb	r3, [r2]	@ zero_extendqisi2
 567 005e 0133     		adds	r3, r3, #1
 568 0060 1370     		strb	r3, [r2]
 526:../../applications/murata-dualstack-example-ns/src/murata-dualstack-example-ns.c ****         murata_init == 0;
 569              		.loc 1 526 7 is_stmt 1 view .LVU131
 570 0062 F0E7     		b	.L28
 571              	.LVL38:
 572              	.L26:
 526:../../applications/murata-dualstack-example-ns/src/murata-dualstack-example-ns.c ****         murata_init == 0;
 573              		.loc 1 526 7 is_stmt 0 view .LVU132
 574              	.LBE8:
 539:../../applications/murata-dualstack-example-ns/src/murata-dualstack-example-ns.c ****   }
 575              		.loc 1 539 5 is_stmt 1 view .LVU133
 576 0064 0548     		ldr	r0, .L32+16
 577 0066 FFF7FEFF 		bl	puts
 578              	.LVL39:
 579              		.loc 1 541 1 is_stmt 0 view .LVU134
 580 006a F0E7     		b	.L25
 581              	.L33:
 582              		.align	2
 583              	.L32:
 584 006c 00000000 		.word	.LANCHOR4
 585 0070 00000000 		.word	SHTData
 586 0074 00000000 		.word	.LANCHOR5
 587 0078 00000000 		.word	.LC3
 588 007c 00000000 		.word	.LC2
 589              		.cfi_endproc
 590              	.LFE139:
 592              		.section	.text.Dash7_send,"ax",%progbits
 593              		.align	1
 594              		.global	Dash7_send
 595              		.syntax unified
 596              		.thumb
 597              		.thumb_func
 598              		.fpu fpv4-sp-d16
 600              	Dash7_send:
 601              	.LVL40:
ARM GAS  C:\Users\yvesk\AppData\Local\Temp\cchpqhiM.s 			page 21


 602              	.LFB140:
 542:../../applications/murata-dualstack-example-ns/src/murata-dualstack-example-ns.c **** 
 543:../../applications/murata-dualstack-example-ns/src/murata-dualstack-example-ns.c **** 
 544:../../applications/murata-dualstack-example-ns/src/murata-dualstack-example-ns.c **** void Dash7_send(void const *argument)
 545:../../applications/murata-dualstack-example-ns/src/murata-dualstack-example-ns.c **** {
 603              		.loc 1 545 1 is_stmt 1 view -0
 604              		.cfi_startproc
 605              		@ args = 0, pretend = 0, frame = 8
 606              		@ frame_needed = 0, uses_anonymous_args = 0
 607              		.loc 1 545 1 is_stmt 0 view .LVU136
 608 0000 00B5     		push	{lr}
 609              	.LCFI18:
 610              		.cfi_def_cfa_offset 4
 611              		.cfi_offset 14, -4
 612 0002 83B0     		sub	sp, sp, #12
 613              	.LCFI19:
 614              		.cfi_def_cfa_offset 16
 546:../../applications/murata-dualstack-example-ns/src/murata-dualstack-example-ns.c ****   if (murata_init)
 615              		.loc 1 546 3 is_stmt 1 view .LVU137
 616              		.loc 1 546 7 is_stmt 0 view .LVU138
 617 0004 154B     		ldr	r3, .L40
 618 0006 1B78     		ldrb	r3, [r3]	@ zero_extendqisi2
 619              		.loc 1 546 6 view .LVU139
 620 0008 23B3     		cbz	r3, .L35
 621              	.LBB9:
 547:../../applications/murata-dualstack-example-ns/src/murata-dualstack-example-ns.c ****   {
 548:../../applications/murata-dualstack-example-ns/src/murata-dualstack-example-ns.c ****     uint8_t dash7Message[5];
 622              		.loc 1 548 5 is_stmt 1 view .LVU140
 549:../../applications/murata-dualstack-example-ns/src/murata-dualstack-example-ns.c ****     uint8_t i = 0;
 623              		.loc 1 549 5 view .LVU141
 624              	.LVL41:
 550:../../applications/murata-dualstack-example-ns/src/murata-dualstack-example-ns.c ****     //uint16 counter to uint8 array (little endian)
 551:../../applications/murata-dualstack-example-ns/src/murata-dualstack-example-ns.c ****     //counter (large) type byte
 552:../../applications/murata-dualstack-example-ns/src/murata-dualstack-example-ns.c ****     dash7Message[i++] = 0x14;
 625              		.loc 1 552 5 view .LVU142
 626              		.loc 1 552 23 is_stmt 0 view .LVU143
 627 000a 1423     		movs	r3, #20
 628 000c 8DF80030 		strb	r3, [sp]
 553:../../applications/murata-dualstack-example-ns/src/murata-dualstack-example-ns.c ****     dash7Message[i++] = DASH7_Counter;
 629              		.loc 1 553 5 is_stmt 1 view .LVU144
 630              		.loc 1 553 23 is_stmt 0 view .LVU145
 631 0010 134B     		ldr	r3, .L40+4
 632 0012 1B88     		ldrh	r3, [r3]
 633              	.LVL42:
 634              		.loc 1 553 23 view .LVU146
 635 0014 8DF80130 		strb	r3, [sp, #1]
 554:../../applications/murata-dualstack-example-ns/src/murata-dualstack-example-ns.c ****     dash7Message[i++] = DASH7_Counter >> 8;
 636              		.loc 1 554 5 is_stmt 1 view .LVU147
 637              	.LVL43:
 638              		.loc 1 554 23 is_stmt 0 view .LVU148
 639 0018 1B0A     		lsrs	r3, r3, #8
 640 001a 8DF80230 		strb	r3, [sp, #2]
 555:../../applications/murata-dualstack-example-ns/src/murata-dualstack-example-ns.c ****     dash7Message[i++] = 0x00;
 641              		.loc 1 555 5 is_stmt 1 view .LVU149
 642              	.LVL44:
 643              		.loc 1 555 23 is_stmt 0 view .LVU150
 644 001e 0023     		movs	r3, #0
ARM GAS  C:\Users\yvesk\AppData\Local\Temp\cchpqhiM.s 			page 22


 645 0020 8DF80330 		strb	r3, [sp, #3]
 556:../../applications/murata-dualstack-example-ns/src/murata-dualstack-example-ns.c ****     dash7Message[i++] = 0x00;
 646              		.loc 1 556 5 is_stmt 1 view .LVU151
 647              	.LVL45:
 648              		.loc 1 556 23 is_stmt 0 view .LVU152
 649 0024 8DF80430 		strb	r3, [sp, #4]
 557:../../applications/murata-dualstack-example-ns/src/murata-dualstack-example-ns.c ****     dash7Message[i++] = 0x00;
 650              		.loc 1 557 5 is_stmt 1 view .LVU153
 651              	.LVL46:
 652              		.loc 1 557 23 is_stmt 0 view .LVU154
 653 0028 8DF80530 		strb	r3, [sp, #5]
 558:../../applications/murata-dualstack-example-ns/src/murata-dualstack-example-ns.c ****     //osMutexWait(txMutexId, osWaitForever);
 559:../../applications/murata-dualstack-example-ns/src/murata-dualstack-example-ns.c ****     if(!Murata_Dash7_Send((uint8_t *)dash7Message, i))
 654              		.loc 1 559 5 is_stmt 1 view .LVU155
 655              		.loc 1 559 9 is_stmt 0 view .LVU156
 656 002c 0621     		movs	r1, #6
 657 002e 6846     		mov	r0, sp
 658              	.LVL47:
 659              		.loc 1 559 9 view .LVU157
 660 0030 FFF7FEFF 		bl	Murata_Dash7_Send
 661              	.LVL48:
 662              		.loc 1 559 7 view .LVU158
 663 0034 50B9     		cbnz	r0, .L36
 560:../../applications/murata-dualstack-example-ns/src/murata-dualstack-example-ns.c ****     {
 561:../../applications/murata-dualstack-example-ns/src/murata-dualstack-example-ns.c ****       murata_init++;
 664              		.loc 1 561 7 is_stmt 1 view .LVU159
 665              		.loc 1 561 18 is_stmt 0 view .LVU160
 666 0036 094A     		ldr	r2, .L40
 667 0038 1378     		ldrb	r3, [r2]	@ zero_extendqisi2
 668 003a 0133     		adds	r3, r3, #1
 669 003c 1370     		strb	r3, [r2]
 562:../../applications/murata-dualstack-example-ns/src/murata-dualstack-example-ns.c ****       if(murata_init == 10)
 670              		.loc 1 562 7 is_stmt 1 view .LVU161
 671              	.L37:
 563:../../applications/murata-dualstack-example-ns/src/murata-dualstack-example-ns.c ****         murata_init == 0;
 564:../../applications/murata-dualstack-example-ns/src/murata-dualstack-example-ns.c ****     }
 565:../../applications/murata-dualstack-example-ns/src/murata-dualstack-example-ns.c ****     else
 566:../../applications/murata-dualstack-example-ns/src/murata-dualstack-example-ns.c ****     {
 567:../../applications/murata-dualstack-example-ns/src/murata-dualstack-example-ns.c ****       murata_init = 1;
 568:../../applications/murata-dualstack-example-ns/src/murata-dualstack-example-ns.c ****     }
 569:../../applications/murata-dualstack-example-ns/src/murata-dualstack-example-ns.c ****     //BLOCK TX MUTEX FOR 3s
 570:../../applications/murata-dualstack-example-ns/src/murata-dualstack-example-ns.c ****     //osDelay(3000);
 571:../../applications/murata-dualstack-example-ns/src/murata-dualstack-example-ns.c ****     //osMutexRelease(txMutexId);
 572:../../applications/murata-dualstack-example-ns/src/murata-dualstack-example-ns.c ****     DASH7_Counter++;
 672              		.loc 1 572 5 discriminator 1 view .LVU162
 673              		.loc 1 572 18 is_stmt 0 discriminator 1 view .LVU163
 674 003e 084A     		ldr	r2, .L40+4
 675 0040 1388     		ldrh	r3, [r2]
 676 0042 0133     		adds	r3, r3, #1
 677 0044 1380     		strh	r3, [r2]	@ movhi
 678              	.LVL49:
 679              	.L34:
 680              		.loc 1 572 18 discriminator 1 view .LVU164
 681              	.LBE9:
 573:../../applications/murata-dualstack-example-ns/src/murata-dualstack-example-ns.c ****   }
 574:../../applications/murata-dualstack-example-ns/src/murata-dualstack-example-ns.c ****   else{
 575:../../applications/murata-dualstack-example-ns/src/murata-dualstack-example-ns.c ****     printf("murata not initialized, not sending\r\n");
ARM GAS  C:\Users\yvesk\AppData\Local\Temp\cchpqhiM.s 			page 23


 576:../../applications/murata-dualstack-example-ns/src/murata-dualstack-example-ns.c ****   }
 577:../../applications/murata-dualstack-example-ns/src/murata-dualstack-example-ns.c **** }
 682              		.loc 1 577 1 view .LVU165
 683 0046 03B0     		add	sp, sp, #12
 684              	.LCFI20:
 685              		.cfi_remember_state
 686              		.cfi_def_cfa_offset 4
 687              		@ sp needed
 688 0048 5DF804FB 		ldr	pc, [sp], #4
 689              	.LVL50:
 690              	.L36:
 691              	.LCFI21:
 692              		.cfi_restore_state
 693              	.LBB10:
 567:../../applications/murata-dualstack-example-ns/src/murata-dualstack-example-ns.c ****     }
 694              		.loc 1 567 7 is_stmt 1 view .LVU166
 567:../../applications/murata-dualstack-example-ns/src/murata-dualstack-example-ns.c ****     }
 695              		.loc 1 567 19 is_stmt 0 view .LVU167
 696 004c 034B     		ldr	r3, .L40
 697 004e 0122     		movs	r2, #1
 698 0050 1A70     		strb	r2, [r3]
 699 0052 F4E7     		b	.L37
 700              	.LVL51:
 701              	.L35:
 567:../../applications/murata-dualstack-example-ns/src/murata-dualstack-example-ns.c ****     }
 702              		.loc 1 567 19 view .LVU168
 703              	.LBE10:
 575:../../applications/murata-dualstack-example-ns/src/murata-dualstack-example-ns.c ****   }
 704              		.loc 1 575 5 is_stmt 1 view .LVU169
 705 0054 0348     		ldr	r0, .L40+8
 706              	.LVL52:
 575:../../applications/murata-dualstack-example-ns/src/murata-dualstack-example-ns.c ****   }
 707              		.loc 1 575 5 is_stmt 0 view .LVU170
 708 0056 FFF7FEFF 		bl	puts
 709              	.LVL53:
 710              		.loc 1 577 1 view .LVU171
 711 005a F4E7     		b	.L34
 712              	.L41:
 713              		.align	2
 714              	.L40:
 715 005c 00000000 		.word	.LANCHOR4
 716 0060 00000000 		.word	.LANCHOR6
 717 0064 00000000 		.word	.LC2
 718              		.cfi_endproc
 719              	.LFE140:
 721              		.section	.text.Dash7_send_temphum,"ax",%progbits
 722              		.align	1
 723              		.global	Dash7_send_temphum
 724              		.syntax unified
 725              		.thumb
 726              		.thumb_func
 727              		.fpu fpv4-sp-d16
 729              	Dash7_send_temphum:
 730              	.LVL54:
 731              	.LFB141:
 578:../../applications/murata-dualstack-example-ns/src/murata-dualstack-example-ns.c **** 
 579:../../applications/murata-dualstack-example-ns/src/murata-dualstack-example-ns.c **** void Dash7_send_temphum(void const *argument)
ARM GAS  C:\Users\yvesk\AppData\Local\Temp\cchpqhiM.s 			page 24


 580:../../applications/murata-dualstack-example-ns/src/murata-dualstack-example-ns.c **** {
 732              		.loc 1 580 1 is_stmt 1 view -0
 733              		.cfi_startproc
 734              		@ args = 0, pretend = 0, frame = 8
 735              		@ frame_needed = 0, uses_anonymous_args = 0
 736              		.loc 1 580 1 is_stmt 0 view .LVU173
 737 0000 00B5     		push	{lr}
 738              	.LCFI22:
 739              		.cfi_def_cfa_offset 4
 740              		.cfi_offset 14, -4
 741 0002 83B0     		sub	sp, sp, #12
 742              	.LCFI23:
 743              		.cfi_def_cfa_offset 16
 581:../../applications/murata-dualstack-example-ns/src/murata-dualstack-example-ns.c ****   if (murata_init)
 744              		.loc 1 581 3 is_stmt 1 view .LVU174
 745              		.loc 1 581 7 is_stmt 0 view .LVU175
 746 0004 1C4B     		ldr	r3, .L48
 747 0006 1B78     		ldrb	r3, [r3]	@ zero_extendqisi2
 748              		.loc 1 581 6 view .LVU176
 749 0008 8BB3     		cbz	r3, .L43
 750              	.LBB11:
 582:../../applications/murata-dualstack-example-ns/src/murata-dualstack-example-ns.c ****   {
 583:../../applications/murata-dualstack-example-ns/src/murata-dualstack-example-ns.c ****     uint8_t dash7Message[5];
 751              		.loc 1 583 5 is_stmt 1 view .LVU177
 584:../../applications/murata-dualstack-example-ns/src/murata-dualstack-example-ns.c ****     uint8_t i = 0;
 752              		.loc 1 584 5 view .LVU178
 753              	.LVL55:
 585:../../applications/murata-dualstack-example-ns/src/murata-dualstack-example-ns.c ****     //uint16 counter to uint8 array (little endian)
 586:../../applications/murata-dualstack-example-ns/src/murata-dualstack-example-ns.c ****     //counter (large) type byte
 587:../../applications/murata-dualstack-example-ns/src/murata-dualstack-example-ns.c ****     dash7Message[i++] = SHTData[0];
 754              		.loc 1 587 5 view .LVU179
 755              		.loc 1 587 32 is_stmt 0 view .LVU180
 756 000a 1C4A     		ldr	r2, .L48+4
 757 000c D2ED007A 		vldr.32	s15, [r2]
 758              	.LVL56:
 759              		.loc 1 587 23 view .LVU181
 760 0010 FCEEE77A 		vcvt.u32.f32	s15, s15
 761 0014 17EE903A 		vmov	r3, s15	@ int
 762 0018 8DF80030 		strb	r3, [sp]
 588:../../applications/murata-dualstack-example-ns/src/murata-dualstack-example-ns.c ****     dash7Message[i++] = SHTData[1];
 763              		.loc 1 588 5 is_stmt 1 view .LVU182
 764              		.loc 1 588 32 is_stmt 0 view .LVU183
 765 001c D2ED017A 		vldr.32	s15, [r2, #4]
 766              	.LVL57:
 767              		.loc 1 588 23 view .LVU184
 768 0020 FCEEE77A 		vcvt.u32.f32	s15, s15
 769 0024 17EE903A 		vmov	r3, s15	@ int
 770 0028 8DF80130 		strb	r3, [sp, #1]
 589:../../applications/murata-dualstack-example-ns/src/murata-dualstack-example-ns.c ****     dash7Message[i++] = 0x00;
 771              		.loc 1 589 5 is_stmt 1 view .LVU185
 772              	.LVL58:
 773              		.loc 1 589 23 is_stmt 0 view .LVU186
 774 002c 0023     		movs	r3, #0
 775 002e 8DF80230 		strb	r3, [sp, #2]
 590:../../applications/murata-dualstack-example-ns/src/murata-dualstack-example-ns.c ****     dash7Message[i++] = messageCounter;
 776              		.loc 1 590 5 is_stmt 1 view .LVU187
 777              	.LVL59:
ARM GAS  C:\Users\yvesk\AppData\Local\Temp\cchpqhiM.s 			page 25


 778              		.loc 1 590 23 is_stmt 0 view .LVU188
 779 0032 134A     		ldr	r2, .L48+8
 780 0034 1278     		ldrb	r2, [r2]	@ zero_extendqisi2
 781 0036 8DF80320 		strb	r2, [sp, #3]
 591:../../applications/murata-dualstack-example-ns/src/murata-dualstack-example-ns.c ****     dash7Message[i++] = val;
 782              		.loc 1 591 5 is_stmt 1 view .LVU189
 783              	.LVL60:
 784              		.loc 1 591 23 is_stmt 0 view .LVU190
 785 003a 124A     		ldr	r2, .L48+12
 786 003c 1278     		ldrb	r2, [r2]	@ zero_extendqisi2
 787 003e 8DF80420 		strb	r2, [sp, #4]
 592:../../applications/murata-dualstack-example-ns/src/murata-dualstack-example-ns.c ****     dash7Message[i++] = 0x00;
 788              		.loc 1 592 5 is_stmt 1 view .LVU191
 789              	.LVL61:
 790              		.loc 1 592 23 is_stmt 0 view .LVU192
 791 0042 8DF80530 		strb	r3, [sp, #5]
 593:../../applications/murata-dualstack-example-ns/src/murata-dualstack-example-ns.c ****     //osMutexWait(txMutexId, osWaitForever);
 594:../../applications/murata-dualstack-example-ns/src/murata-dualstack-example-ns.c ****     if(!Murata_Dash7_Send((uint8_t *)dash7Message, i))
 792              		.loc 1 594 5 is_stmt 1 view .LVU193
 793              		.loc 1 594 9 is_stmt 0 view .LVU194
 794 0046 0621     		movs	r1, #6
 795 0048 6846     		mov	r0, sp
 796              	.LVL62:
 797              		.loc 1 594 9 view .LVU195
 798 004a FFF7FEFF 		bl	Murata_Dash7_Send
 799              	.LVL63:
 800              		.loc 1 594 7 view .LVU196
 801 004e 50B9     		cbnz	r0, .L44
 595:../../applications/murata-dualstack-example-ns/src/murata-dualstack-example-ns.c ****     {
 596:../../applications/murata-dualstack-example-ns/src/murata-dualstack-example-ns.c ****       murata_init++;
 802              		.loc 1 596 7 is_stmt 1 view .LVU197
 803              		.loc 1 596 18 is_stmt 0 view .LVU198
 804 0050 094A     		ldr	r2, .L48
 805 0052 1378     		ldrb	r3, [r2]	@ zero_extendqisi2
 806 0054 0133     		adds	r3, r3, #1
 807 0056 1370     		strb	r3, [r2]
 597:../../applications/murata-dualstack-example-ns/src/murata-dualstack-example-ns.c ****       if(murata_init == 10)
 808              		.loc 1 597 7 is_stmt 1 view .LVU199
 809              	.L45:
 598:../../applications/murata-dualstack-example-ns/src/murata-dualstack-example-ns.c ****         murata_init == 0;
 599:../../applications/murata-dualstack-example-ns/src/murata-dualstack-example-ns.c ****     }
 600:../../applications/murata-dualstack-example-ns/src/murata-dualstack-example-ns.c ****     else
 601:../../applications/murata-dualstack-example-ns/src/murata-dualstack-example-ns.c ****     {
 602:../../applications/murata-dualstack-example-ns/src/murata-dualstack-example-ns.c ****       murata_init = 1;
 603:../../applications/murata-dualstack-example-ns/src/murata-dualstack-example-ns.c ****     }
 604:../../applications/murata-dualstack-example-ns/src/murata-dualstack-example-ns.c ****     //BLOCK TX MUTEX FOR 3s
 605:../../applications/murata-dualstack-example-ns/src/murata-dualstack-example-ns.c ****     //osDelay(3000);
 606:../../applications/murata-dualstack-example-ns/src/murata-dualstack-example-ns.c ****     //osMutexRelease(txMutexId);
 607:../../applications/murata-dualstack-example-ns/src/murata-dualstack-example-ns.c ****     DASH7_Counter++;
 810              		.loc 1 607 5 discriminator 1 view .LVU200
 811              		.loc 1 607 18 is_stmt 0 discriminator 1 view .LVU201
 812 0058 0B4A     		ldr	r2, .L48+16
 813 005a 1388     		ldrh	r3, [r2]
 814 005c 0133     		adds	r3, r3, #1
 815 005e 1380     		strh	r3, [r2]	@ movhi
 816              	.LVL64:
 817              	.L42:
ARM GAS  C:\Users\yvesk\AppData\Local\Temp\cchpqhiM.s 			page 26


 818              		.loc 1 607 18 discriminator 1 view .LVU202
 819              	.LBE11:
 608:../../applications/murata-dualstack-example-ns/src/murata-dualstack-example-ns.c ****   }
 609:../../applications/murata-dualstack-example-ns/src/murata-dualstack-example-ns.c ****   else{
 610:../../applications/murata-dualstack-example-ns/src/murata-dualstack-example-ns.c ****     printf("murata not initialized, not sending\r\n");
 611:../../applications/murata-dualstack-example-ns/src/murata-dualstack-example-ns.c ****   }
 612:../../applications/murata-dualstack-example-ns/src/murata-dualstack-example-ns.c **** }
 820              		.loc 1 612 1 view .LVU203
 821 0060 03B0     		add	sp, sp, #12
 822              	.LCFI24:
 823              		.cfi_remember_state
 824              		.cfi_def_cfa_offset 4
 825              		@ sp needed
 826 0062 5DF804FB 		ldr	pc, [sp], #4
 827              	.LVL65:
 828              	.L44:
 829              	.LCFI25:
 830              		.cfi_restore_state
 831              	.LBB12:
 602:../../applications/murata-dualstack-example-ns/src/murata-dualstack-example-ns.c ****     }
 832              		.loc 1 602 7 is_stmt 1 view .LVU204
 602:../../applications/murata-dualstack-example-ns/src/murata-dualstack-example-ns.c ****     }
 833              		.loc 1 602 19 is_stmt 0 view .LVU205
 834 0066 044B     		ldr	r3, .L48
 835 0068 0122     		movs	r2, #1
 836 006a 1A70     		strb	r2, [r3]
 837 006c F4E7     		b	.L45
 838              	.LVL66:
 839              	.L43:
 602:../../applications/murata-dualstack-example-ns/src/murata-dualstack-example-ns.c ****     }
 840              		.loc 1 602 19 view .LVU206
 841              	.LBE12:
 610:../../applications/murata-dualstack-example-ns/src/murata-dualstack-example-ns.c ****   }
 842              		.loc 1 610 5 is_stmt 1 view .LVU207
 843 006e 0748     		ldr	r0, .L48+20
 844              	.LVL67:
 610:../../applications/murata-dualstack-example-ns/src/murata-dualstack-example-ns.c ****   }
 845              		.loc 1 610 5 is_stmt 0 view .LVU208
 846 0070 FFF7FEFF 		bl	puts
 847              	.LVL68:
 848              		.loc 1 612 1 view .LVU209
 849 0074 F4E7     		b	.L42
 850              	.L49:
 851 0076 00BF     		.align	2
 852              	.L48:
 853 0078 00000000 		.word	.LANCHOR4
 854 007c 00000000 		.word	SHTData
 855 0080 00000000 		.word	.LANCHOR7
 856 0084 00000000 		.word	.LANCHOR8
 857 0088 00000000 		.word	.LANCHOR6
 858 008c 00000000 		.word	.LC2
 859              		.cfi_endproc
 860              	.LFE141:
 862              		.section	.text.Dash7_send_allInfo,"ax",%progbits
 863              		.align	1
 864              		.global	Dash7_send_allInfo
 865              		.syntax unified
ARM GAS  C:\Users\yvesk\AppData\Local\Temp\cchpqhiM.s 			page 27


 866              		.thumb
 867              		.thumb_func
 868              		.fpu fpv4-sp-d16
 870              	Dash7_send_allInfo:
 871              	.LVL69:
 872              	.LFB142:
 613:../../applications/murata-dualstack-example-ns/src/murata-dualstack-example-ns.c **** 
 614:../../applications/murata-dualstack-example-ns/src/murata-dualstack-example-ns.c **** 
 615:../../applications/murata-dualstack-example-ns/src/murata-dualstack-example-ns.c **** void Dash7_send_allInfo(void const *argument)
 616:../../applications/murata-dualstack-example-ns/src/murata-dualstack-example-ns.c **** {
 873              		.loc 1 616 1 is_stmt 1 view -0
 874              		.cfi_startproc
 875              		@ args = 0, pretend = 0, frame = 8
 876              		@ frame_needed = 0, uses_anonymous_args = 0
 877              		.loc 1 616 1 is_stmt 0 view .LVU211
 878 0000 00B5     		push	{lr}
 879              	.LCFI26:
 880              		.cfi_def_cfa_offset 4
 881              		.cfi_offset 14, -4
 882 0002 83B0     		sub	sp, sp, #12
 883              	.LCFI27:
 884              		.cfi_def_cfa_offset 16
 617:../../applications/murata-dualstack-example-ns/src/murata-dualstack-example-ns.c ****   if (murata_init)
 885              		.loc 1 617 3 is_stmt 1 view .LVU212
 886              		.loc 1 617 7 is_stmt 0 view .LVU213
 887 0004 1D4B     		ldr	r3, .L56
 888 0006 1B78     		ldrb	r3, [r3]	@ zero_extendqisi2
 889              		.loc 1 617 6 view .LVU214
 890 0008 002B     		cmp	r3, #0
 891 000a 33D0     		beq	.L51
 892              	.LBB13:
 618:../../applications/murata-dualstack-example-ns/src/murata-dualstack-example-ns.c ****   {
 619:../../applications/murata-dualstack-example-ns/src/murata-dualstack-example-ns.c ****     uint8_t dash7Message[5];
 893              		.loc 1 619 5 is_stmt 1 view .LVU215
 620:../../applications/murata-dualstack-example-ns/src/murata-dualstack-example-ns.c ****     uint8_t i = 0;
 894              		.loc 1 620 5 view .LVU216
 895              	.LVL70:
 621:../../applications/murata-dualstack-example-ns/src/murata-dualstack-example-ns.c ****     //uint16 counter to uint8 array (little endian)
 622:../../applications/murata-dualstack-example-ns/src/murata-dualstack-example-ns.c ****     //counter (large) type byte
 623:../../applications/murata-dualstack-example-ns/src/murata-dualstack-example-ns.c ****     dash7Message[i++] = SHTData[0];
 896              		.loc 1 623 5 view .LVU217
 897              		.loc 1 623 32 is_stmt 0 view .LVU218
 898 000c 1C4A     		ldr	r2, .L56+4
 899 000e D2ED007A 		vldr.32	s15, [r2]
 900              	.LVL71:
 901              		.loc 1 623 23 view .LVU219
 902 0012 FCEEE77A 		vcvt.u32.f32	s15, s15
 903 0016 17EE903A 		vmov	r3, s15	@ int
 904 001a 8DF80030 		strb	r3, [sp]
 624:../../applications/murata-dualstack-example-ns/src/murata-dualstack-example-ns.c ****     dash7Message[i++] = SHTData[1];
 905              		.loc 1 624 5 is_stmt 1 view .LVU220
 906              		.loc 1 624 32 is_stmt 0 view .LVU221
 907 001e D2ED017A 		vldr.32	s15, [r2, #4]
 908              	.LVL72:
 909              		.loc 1 624 23 view .LVU222
 910 0022 FCEEE77A 		vcvt.u32.f32	s15, s15
 911 0026 17EE903A 		vmov	r3, s15	@ int
ARM GAS  C:\Users\yvesk\AppData\Local\Temp\cchpqhiM.s 			page 28


 912 002a 8DF80130 		strb	r3, [sp, #1]
 625:../../applications/murata-dualstack-example-ns/src/murata-dualstack-example-ns.c ****     dash7Message[i++] = rep_counter;
 913              		.loc 1 625 5 is_stmt 1 view .LVU223
 914              	.LVL73:
 915              		.loc 1 625 23 is_stmt 0 view .LVU224
 916 002e 154B     		ldr	r3, .L56+8
 917 0030 1B78     		ldrb	r3, [r3]	@ zero_extendqisi2
 918 0032 8DF80230 		strb	r3, [sp, #2]
 626:../../applications/murata-dualstack-example-ns/src/murata-dualstack-example-ns.c ****     dash7Message[i++] = messageCounter;
 919              		.loc 1 626 5 is_stmt 1 view .LVU225
 920              	.LVL74:
 921              		.loc 1 626 23 is_stmt 0 view .LVU226
 922 0036 144B     		ldr	r3, .L56+12
 923 0038 1B78     		ldrb	r3, [r3]	@ zero_extendqisi2
 924 003a 8DF80330 		strb	r3, [sp, #3]
 627:../../applications/murata-dualstack-example-ns/src/murata-dualstack-example-ns.c ****     dash7Message[i++] = val;
 925              		.loc 1 627 5 is_stmt 1 view .LVU227
 926              	.LVL75:
 927              		.loc 1 627 23 is_stmt 0 view .LVU228
 928 003e 134B     		ldr	r3, .L56+16
 929 0040 1B78     		ldrb	r3, [r3]	@ zero_extendqisi2
 930 0042 8DF80430 		strb	r3, [sp, #4]
 628:../../applications/murata-dualstack-example-ns/src/murata-dualstack-example-ns.c ****     dash7Message[i++] = 0x00;
 931              		.loc 1 628 5 is_stmt 1 view .LVU229
 932              	.LVL76:
 933              		.loc 1 628 23 is_stmt 0 view .LVU230
 934 0046 0023     		movs	r3, #0
 935 0048 8DF80530 		strb	r3, [sp, #5]
 629:../../applications/murata-dualstack-example-ns/src/murata-dualstack-example-ns.c **** 
 630:../../applications/murata-dualstack-example-ns/src/murata-dualstack-example-ns.c ****     //osMutexWait(txMutexId, osWaitForever);
 631:../../applications/murata-dualstack-example-ns/src/murata-dualstack-example-ns.c ****     if(!Murata_Dash7_Send((uint8_t *)dash7Message, i))
 936              		.loc 1 631 5 is_stmt 1 view .LVU231
 937              		.loc 1 631 9 is_stmt 0 view .LVU232
 938 004c 0621     		movs	r1, #6
 939 004e 6846     		mov	r0, sp
 940              	.LVL77:
 941              		.loc 1 631 9 view .LVU233
 942 0050 FFF7FEFF 		bl	Murata_Dash7_Send
 943              	.LVL78:
 944              		.loc 1 631 7 view .LVU234
 945 0054 50B9     		cbnz	r0, .L52
 632:../../applications/murata-dualstack-example-ns/src/murata-dualstack-example-ns.c ****     {
 633:../../applications/murata-dualstack-example-ns/src/murata-dualstack-example-ns.c ****       murata_init++;
 946              		.loc 1 633 7 is_stmt 1 view .LVU235
 947              		.loc 1 633 18 is_stmt 0 view .LVU236
 948 0056 094A     		ldr	r2, .L56
 949 0058 1378     		ldrb	r3, [r2]	@ zero_extendqisi2
 950 005a 0133     		adds	r3, r3, #1
 951 005c 1370     		strb	r3, [r2]
 634:../../applications/murata-dualstack-example-ns/src/murata-dualstack-example-ns.c ****       if(murata_init == 10)
 952              		.loc 1 634 7 is_stmt 1 view .LVU237
 953              	.L53:
 635:../../applications/murata-dualstack-example-ns/src/murata-dualstack-example-ns.c ****         murata_init == 0;
 636:../../applications/murata-dualstack-example-ns/src/murata-dualstack-example-ns.c ****     }
 637:../../applications/murata-dualstack-example-ns/src/murata-dualstack-example-ns.c ****     else
 638:../../applications/murata-dualstack-example-ns/src/murata-dualstack-example-ns.c ****     {
 639:../../applications/murata-dualstack-example-ns/src/murata-dualstack-example-ns.c ****       murata_init = 1;
ARM GAS  C:\Users\yvesk\AppData\Local\Temp\cchpqhiM.s 			page 29


 640:../../applications/murata-dualstack-example-ns/src/murata-dualstack-example-ns.c ****     }
 641:../../applications/murata-dualstack-example-ns/src/murata-dualstack-example-ns.c ****     //BLOCK TX MUTEX FOR 3s
 642:../../applications/murata-dualstack-example-ns/src/murata-dualstack-example-ns.c ****     //osDelay(3000);
 643:../../applications/murata-dualstack-example-ns/src/murata-dualstack-example-ns.c ****     //osMutexRelease(txMutexId);
 644:../../applications/murata-dualstack-example-ns/src/murata-dualstack-example-ns.c ****     DASH7_Counter++;
 954              		.loc 1 644 5 discriminator 1 view .LVU238
 955              		.loc 1 644 18 is_stmt 0 discriminator 1 view .LVU239
 956 005e 0C4A     		ldr	r2, .L56+20
 957 0060 1388     		ldrh	r3, [r2]
 958 0062 0133     		adds	r3, r3, #1
 959 0064 1380     		strh	r3, [r2]	@ movhi
 960              	.LVL79:
 961              	.L50:
 962              		.loc 1 644 18 discriminator 1 view .LVU240
 963              	.LBE13:
 645:../../applications/murata-dualstack-example-ns/src/murata-dualstack-example-ns.c ****   }
 646:../../applications/murata-dualstack-example-ns/src/murata-dualstack-example-ns.c ****   else{
 647:../../applications/murata-dualstack-example-ns/src/murata-dualstack-example-ns.c ****     printf("murata not initialized, not sending\r\n");
 648:../../applications/murata-dualstack-example-ns/src/murata-dualstack-example-ns.c ****   }
 649:../../applications/murata-dualstack-example-ns/src/murata-dualstack-example-ns.c **** }
 964              		.loc 1 649 1 view .LVU241
 965 0066 03B0     		add	sp, sp, #12
 966              	.LCFI28:
 967              		.cfi_remember_state
 968              		.cfi_def_cfa_offset 4
 969              		@ sp needed
 970 0068 5DF804FB 		ldr	pc, [sp], #4
 971              	.LVL80:
 972              	.L52:
 973              	.LCFI29:
 974              		.cfi_restore_state
 975              	.LBB14:
 639:../../applications/murata-dualstack-example-ns/src/murata-dualstack-example-ns.c ****     }
 976              		.loc 1 639 7 is_stmt 1 view .LVU242
 639:../../applications/murata-dualstack-example-ns/src/murata-dualstack-example-ns.c ****     }
 977              		.loc 1 639 19 is_stmt 0 view .LVU243
 978 006c 034B     		ldr	r3, .L56
 979 006e 0122     		movs	r2, #1
 980 0070 1A70     		strb	r2, [r3]
 981 0072 F4E7     		b	.L53
 982              	.LVL81:
 983              	.L51:
 639:../../applications/murata-dualstack-example-ns/src/murata-dualstack-example-ns.c ****     }
 984              		.loc 1 639 19 view .LVU244
 985              	.LBE14:
 647:../../applications/murata-dualstack-example-ns/src/murata-dualstack-example-ns.c ****   }
 986              		.loc 1 647 5 is_stmt 1 view .LVU245
 987 0074 0748     		ldr	r0, .L56+24
 988              	.LVL82:
 647:../../applications/murata-dualstack-example-ns/src/murata-dualstack-example-ns.c ****   }
 989              		.loc 1 647 5 is_stmt 0 view .LVU246
 990 0076 FFF7FEFF 		bl	puts
 991              	.LVL83:
 992              		.loc 1 649 1 view .LVU247
 993 007a F4E7     		b	.L50
 994              	.L57:
 995              		.align	2
ARM GAS  C:\Users\yvesk\AppData\Local\Temp\cchpqhiM.s 			page 30


 996              	.L56:
 997 007c 00000000 		.word	.LANCHOR4
 998 0080 00000000 		.word	SHTData
 999 0084 00000000 		.word	.LANCHOR9
 1000 0088 00000000 		.word	.LANCHOR7
 1001 008c 00000000 		.word	.LANCHOR8
 1002 0090 00000000 		.word	.LANCHOR6
 1003 0094 00000000 		.word	.LC2
 1004              		.cfi_endproc
 1005              	.LFE142:
 1007              		.section	.text.send_message,"ax",%progbits
 1008              		.align	1
 1009              		.global	send_message
 1010              		.syntax unified
 1011              		.thumb
 1012              		.thumb_func
 1013              		.fpu fpv4-sp-d16
 1015              	send_message:
 1016              	.LVL84:
 1017              	.LFB137:
 447:../../applications/murata-dualstack-example-ns/src/murata-dualstack-example-ns.c ****   isActiveSending = 1; 
 1018              		.loc 1 447 33 is_stmt 1 view -0
 1019              		.cfi_startproc
 1020              		@ args = 0, pretend = 0, frame = 0
 1021              		@ frame_needed = 0, uses_anonymous_args = 0
 447:../../applications/murata-dualstack-example-ns/src/murata-dualstack-example-ns.c ****   isActiveSending = 1; 
 1022              		.loc 1 447 33 is_stmt 0 view .LVU249
 1023 0000 08B5     		push	{r3, lr}
 1024              	.LCFI30:
 1025              		.cfi_def_cfa_offset 8
 1026              		.cfi_offset 3, -8
 1027              		.cfi_offset 14, -4
 448:../../applications/murata-dualstack-example-ns/src/murata-dualstack-example-ns.c ****   if (messageMode==0) {                 //dash7mode
 1028              		.loc 1 448 3 is_stmt 1 view .LVU250
 448:../../applications/murata-dualstack-example-ns/src/murata-dualstack-example-ns.c ****   if (messageMode==0) {                 //dash7mode
 1029              		.loc 1 448 19 is_stmt 0 view .LVU251
 1030 0002 134B     		ldr	r3, .L66
 1031 0004 0122     		movs	r2, #1
 1032 0006 1A70     		strb	r2, [r3]
 449:../../applications/murata-dualstack-example-ns/src/murata-dualstack-example-ns.c ****     switch (type) {
 1033              		.loc 1 449 3 is_stmt 1 view .LVU252
 449:../../applications/murata-dualstack-example-ns/src/murata-dualstack-example-ns.c ****     switch (type) {
 1034              		.loc 1 449 18 is_stmt 0 view .LVU253
 1035 0008 124B     		ldr	r3, .L66+4
 1036 000a 1B78     		ldrb	r3, [r3]	@ zero_extendqisi2
 449:../../applications/murata-dualstack-example-ns/src/murata-dualstack-example-ns.c ****     switch (type) {
 1037              		.loc 1 449 6 view .LVU254
 1038 000c BBB9     		cbnz	r3, .L59
 450:../../applications/murata-dualstack-example-ns/src/murata-dualstack-example-ns.c ****       case 1:
 1039              		.loc 1 450 5 is_stmt 1 view .LVU255
 1040 000e 9042     		cmp	r0, r2
 1041 0010 05D0     		beq	.L60
 1042 0012 0228     		cmp	r0, #2
 1043 0014 0BD0     		beq	.L61
 1044              	.LBB15:
 462:../../applications/murata-dualstack-example-ns/src/murata-dualstack-example-ns.c ****       break;  
 1045              		.loc 1 462 7 view .LVU256
ARM GAS  C:\Users\yvesk\AppData\Local\Temp\cchpqhiM.s 			page 31


 1046 0016 1048     		ldr	r0, .L66+8
 1047              	.LVL85:
 462:../../applications/murata-dualstack-example-ns/src/murata-dualstack-example-ns.c ****       break;  
 1048              		.loc 1 462 7 is_stmt 0 view .LVU257
 1049 0018 FFF7FEFF 		bl	puts
 1050              	.LVL86:
 463:../../applications/murata-dualstack-example-ns/src/murata-dualstack-example-ns.c ****     }
 1051              		.loc 1 463 7 is_stmt 1 view .LVU258
 1052 001c 17E0     		b	.L58
 1053              	.LVL87:
 1054              	.L60:
 452:../../applications/murata-dualstack-example-ns/src/murata-dualstack-example-ns.c ****       Dash7_send_temphum();  
 1055              		.loc 1 452 7 view .LVU259
 452:../../applications/murata-dualstack-example-ns/src/murata-dualstack-example-ns.c ****       Dash7_send_temphum();  
 1056              		.loc 1 452 21 is_stmt 0 view .LVU260
 1057 001e 0F4A     		ldr	r2, .L66+12
 1058 0020 1378     		ldrb	r3, [r2]	@ zero_extendqisi2
 1059 0022 0133     		adds	r3, r3, #1
 1060 0024 DBB2     		uxtb	r3, r3
 1061 0026 1370     		strb	r3, [r2]
 453:../../applications/murata-dualstack-example-ns/src/murata-dualstack-example-ns.c ****       //printf("sending temphum message\r\n");
 1062              		.loc 1 453 7 is_stmt 1 view .LVU261
 1063 0028 FFF7FEFF 		bl	Dash7_send_temphum
 1064              	.LVL88:
 455:../../applications/murata-dualstack-example-ns/src/murata-dualstack-example-ns.c ****       case 2:
 1065              		.loc 1 455 7 view .LVU262
 1066 002c 0FE0     		b	.L58
 1067              	.LVL89:
 1068              	.L61:
 457:../../applications/murata-dualstack-example-ns/src/murata-dualstack-example-ns.c ****       Dash7_send_allInfo();
 1069              		.loc 1 457 7 view .LVU263
 457:../../applications/murata-dualstack-example-ns/src/murata-dualstack-example-ns.c ****       Dash7_send_allInfo();
 1070              		.loc 1 457 21 is_stmt 0 view .LVU264
 1071 002e 0B4A     		ldr	r2, .L66+12
 1072 0030 1378     		ldrb	r3, [r2]	@ zero_extendqisi2
 1073 0032 0133     		adds	r3, r3, #1
 1074 0034 DBB2     		uxtb	r3, r3
 1075 0036 1370     		strb	r3, [r2]
 458:../../applications/murata-dualstack-example-ns/src/murata-dualstack-example-ns.c ****      //printf("sending allinfo message\r\n");
 1076              		.loc 1 458 7 is_stmt 1 view .LVU265
 1077 0038 FFF7FEFF 		bl	Dash7_send_allInfo
 1078              	.LVL90:
 460:../../applications/murata-dualstack-example-ns/src/murata-dualstack-example-ns.c ****       default:
 1079              		.loc 1 460 7 view .LVU266
 1080 003c 07E0     		b	.L58
 1081              	.LVL91:
 1082              	.L59:
 460:../../applications/murata-dualstack-example-ns/src/murata-dualstack-example-ns.c ****       default:
 1083              		.loc 1 460 7 is_stmt 0 view .LVU267
 1084              	.LBE15:
 1085              	.LBB16:
 466:../../applications/murata-dualstack-example-ns/src/murata-dualstack-example-ns.c ****       Dash7_send_temphum(); 
 1086              		.loc 1 466 7 is_stmt 1 view .LVU268
 1087 003e 0020     		movs	r0, #0
 1088              	.LVL92:
 466:../../applications/murata-dualstack-example-ns/src/murata-dualstack-example-ns.c ****       Dash7_send_temphum(); 
 1089              		.loc 1 466 7 is_stmt 0 view .LVU269
ARM GAS  C:\Users\yvesk\AppData\Local\Temp\cchpqhiM.s 			page 32


 1090 0040 FFF7FEFF 		bl	LoRaWAN_send
 1091              	.LVL93:
 467:../../applications/murata-dualstack-example-ns/src/murata-dualstack-example-ns.c ****       printf("sending out of reach lorawan message\r\n");
 1092              		.loc 1 467 7 is_stmt 1 view .LVU270
 1093 0044 FFF7FEFF 		bl	Dash7_send_temphum
 1094              	.LVL94:
 468:../../applications/murata-dualstack-example-ns/src/murata-dualstack-example-ns.c ****   }
 1095              		.loc 1 468 7 view .LVU271
 1096 0048 0548     		ldr	r0, .L66+16
 1097 004a FFF7FEFF 		bl	puts
 1098              	.LVL95:
 1099              	.L58:
 1100              	.LBE16:
 470:../../applications/murata-dualstack-example-ns/src/murata-dualstack-example-ns.c **** 
 1101              		.loc 1 470 1 is_stmt 0 view .LVU272
 1102 004e 08BD     		pop	{r3, pc}
 1103              	.L67:
 1104              		.align	2
 1105              	.L66:
 1106 0050 00000000 		.word	.LANCHOR10
 1107 0054 00000000 		.word	.LANCHOR11
 1108 0058 00000000 		.word	.LC4
 1109 005c 00000000 		.word	.LANCHOR7
 1110 0060 18000000 		.word	.LC5
 1111              		.cfi_endproc
 1112              	.LFE137:
 1114              		.global	__aeabi_f2d
 1115              		.section	.text.print_temp_hum,"ax",%progbits
 1116              		.align	1
 1117              		.global	print_temp_hum
 1118              		.syntax unified
 1119              		.thumb
 1120              		.thumb_func
 1121              		.fpu fpv4-sp-d16
 1123              	print_temp_hum:
 1124              	.LFB143:
 650:../../applications/murata-dualstack-example-ns/src/murata-dualstack-example-ns.c **** 
 651:../../applications/murata-dualstack-example-ns/src/murata-dualstack-example-ns.c **** //----------------------------------------------------------------------end send message methods---
 652:../../applications/murata-dualstack-example-ns/src/murata-dualstack-example-ns.c **** 
 653:../../applications/murata-dualstack-example-ns/src/murata-dualstack-example-ns.c **** void print_temp_hum(void){
 1125              		.loc 1 653 26 is_stmt 1 view -0
 1126              		.cfi_startproc
 1127              		@ args = 0, pretend = 0, frame = 0
 1128              		@ frame_needed = 0, uses_anonymous_args = 0
 1129 0000 38B5     		push	{r3, r4, r5, lr}
 1130              	.LCFI31:
 1131              		.cfi_def_cfa_offset 16
 1132              		.cfi_offset 3, -16
 1133              		.cfi_offset 4, -12
 1134              		.cfi_offset 5, -8
 1135              		.cfi_offset 14, -4
 654:../../applications/murata-dualstack-example-ns/src/murata-dualstack-example-ns.c ****   printf("\r\n");
 1136              		.loc 1 654 3 view .LVU274
 1137 0002 0C4C     		ldr	r4, .L70
 1138 0004 2046     		mov	r0, r4
 1139 0006 FFF7FEFF 		bl	puts
 1140              	.LVL96:
ARM GAS  C:\Users\yvesk\AppData\Local\Temp\cchpqhiM.s 			page 33


 655:../../applications/murata-dualstack-example-ns/src/murata-dualstack-example-ns.c ****   printf("Temperature: %.2f C  \r\n", SHTData[0]);
 1141              		.loc 1 655 3 view .LVU275
 1142              		.loc 1 655 48 is_stmt 0 view .LVU276
 1143 000a 0B4D     		ldr	r5, .L70+4
 1144              		.loc 1 655 3 view .LVU277
 1145 000c 2868     		ldr	r0, [r5]	@ float
 1146 000e FFF7FEFF 		bl	__aeabi_f2d
 1147              	.LVL97:
 1148 0012 0246     		mov	r2, r0
 1149 0014 0B46     		mov	r3, r1
 1150 0016 0948     		ldr	r0, .L70+8
 1151 0018 FFF7FEFF 		bl	printf
 1152              	.LVL98:
 656:../../applications/murata-dualstack-example-ns/src/murata-dualstack-example-ns.c ****   printf("Humidity: %.2f %% \r\n", SHTData[1]);
 1153              		.loc 1 656 3 is_stmt 1 view .LVU278
 1154 001c 6868     		ldr	r0, [r5, #4]	@ float
 1155 001e FFF7FEFF 		bl	__aeabi_f2d
 1156              	.LVL99:
 1157 0022 0246     		mov	r2, r0
 1158 0024 0B46     		mov	r3, r1
 1159 0026 0648     		ldr	r0, .L70+12
 1160 0028 FFF7FEFF 		bl	printf
 1161              	.LVL100:
 657:../../applications/murata-dualstack-example-ns/src/murata-dualstack-example-ns.c ****   printf("\r\n");
 1162              		.loc 1 657 3 view .LVU279
 1163 002c 2046     		mov	r0, r4
 1164 002e FFF7FEFF 		bl	puts
 1165              	.LVL101:
 658:../../applications/murata-dualstack-example-ns/src/murata-dualstack-example-ns.c **** }
 1166              		.loc 1 658 1 is_stmt 0 view .LVU280
 1167 0032 38BD     		pop	{r3, r4, r5, pc}
 1168              	.L71:
 1169              		.align	2
 1170              	.L70:
 1171 0034 00000000 		.word	.LC6
 1172 0038 00000000 		.word	SHTData
 1173 003c 04000000 		.word	.LC7
 1174 0040 20000000 		.word	.LC8
 1175              		.cfi_endproc
 1176              	.LFE143:
 1178              		.section	.text.temp_hum_measurement,"ax",%progbits
 1179              		.align	1
 1180              		.global	temp_hum_measurement
 1181              		.syntax unified
 1182              		.thumb
 1183              		.thumb_func
 1184              		.fpu fpv4-sp-d16
 1186              	temp_hum_measurement:
 1187              	.LFB144:
 659:../../applications/murata-dualstack-example-ns/src/murata-dualstack-example-ns.c **** 
 660:../../applications/murata-dualstack-example-ns/src/murata-dualstack-example-ns.c **** void temp_hum_measurement(void){
 1188              		.loc 1 660 32 is_stmt 1 view -0
 1189              		.cfi_startproc
 1190              		@ args = 0, pretend = 0, frame = 0
 1191              		@ frame_needed = 0, uses_anonymous_args = 0
 1192 0000 08B5     		push	{r3, lr}
 1193              	.LCFI32:
ARM GAS  C:\Users\yvesk\AppData\Local\Temp\cchpqhiM.s 			page 34


 1194              		.cfi_def_cfa_offset 8
 1195              		.cfi_offset 3, -8
 1196              		.cfi_offset 14, -4
 661:../../applications/murata-dualstack-example-ns/src/murata-dualstack-example-ns.c **** 
 662:../../applications/murata-dualstack-example-ns/src/murata-dualstack-example-ns.c ****   SHT31_get_temp_hum(SHTData);
 1197              		.loc 1 662 3 view .LVU282
 1198 0002 0348     		ldr	r0, .L74
 1199 0004 FFF7FEFF 		bl	SHT31_get_temp_hum
 1200              	.LVL102:
 663:../../applications/murata-dualstack-example-ns/src/murata-dualstack-example-ns.c ****   print_temp_hum();
 1201              		.loc 1 663 3 view .LVU283
 1202 0008 FFF7FEFF 		bl	print_temp_hum
 1203              	.LVL103:
 664:../../applications/murata-dualstack-example-ns/src/murata-dualstack-example-ns.c **** }
 1204              		.loc 1 664 1 is_stmt 0 view .LVU284
 1205 000c 08BD     		pop	{r3, pc}
 1206              	.L75:
 1207 000e 00BF     		.align	2
 1208              	.L74:
 1209 0010 00000000 		.word	SHTData
 1210              		.cfi_endproc
 1211              	.LFE144:
 1213              		.section	.text.ble_callback,"ax",%progbits
 1214              		.align	1
 1215              		.global	ble_callback
 1216              		.syntax unified
 1217              		.thumb
 1218              		.thumb_func
 1219              		.fpu fpv4-sp-d16
 1221              	ble_callback:
 1222              	.LFB145:
 665:../../applications/murata-dualstack-example-ns/src/murata-dualstack-example-ns.c **** 
 666:../../applications/murata-dualstack-example-ns/src/murata-dualstack-example-ns.c **** void ble_callback() {
 1223              		.loc 1 666 21 is_stmt 1 view -0
 1224              		.cfi_startproc
 1225              		@ args = 0, pretend = 0, frame = 0
 1226              		@ frame_needed = 0, uses_anonymous_args = 0
 1227 0000 08B5     		push	{r3, lr}
 1228              	.LCFI33:
 1229              		.cfi_def_cfa_offset 8
 1230              		.cfi_offset 3, -8
 1231              		.cfi_offset 14, -4
 667:../../applications/murata-dualstack-example-ns/src/murata-dualstack-example-ns.c **** //tmpbuf_ble[0] = tmpbuf_ble[0] - 48;
 668:../../applications/murata-dualstack-example-ns/src/murata-dualstack-example-ns.c **** //tmpbuf_ble[1] = tmpbuf_ble[1] - 48;
 669:../../applications/murata-dualstack-example-ns/src/murata-dualstack-example-ns.c **** val = ( 10 * (tmpbuf_ble[0] - '0')) + tmpbuf_ble[1] - '0'; 
 1232              		.loc 1 669 1 view .LVU286
 1233              		.loc 1 669 25 is_stmt 0 view .LVU287
 1234 0002 084A     		ldr	r2, .L78
 1235 0004 1378     		ldrb	r3, [r2]	@ zero_extendqisi2
 1236              		.loc 1 669 49 view .LVU288
 1237 0006 5178     		ldrb	r1, [r2, #1]	@ zero_extendqisi2
 1238              		.loc 1 669 37 view .LVU289
 1239 0008 03EB8303 		add	r3, r3, r3, lsl #2
 1240 000c 5A00     		lsls	r2, r3, #1
 1241 000e 1144     		add	r1, r1, r2
 1242 0010 C9B2     		uxtb	r1, r1
 1243              		.loc 1 669 53 view .LVU290
ARM GAS  C:\Users\yvesk\AppData\Local\Temp\cchpqhiM.s 			page 35


 1244 0012 1039     		subs	r1, r1, #16
 1245 0014 C9B2     		uxtb	r1, r1
 1246              		.loc 1 669 5 view .LVU291
 1247 0016 044B     		ldr	r3, .L78+4
 1248 0018 1970     		strb	r1, [r3]
 670:../../applications/murata-dualstack-example-ns/src/murata-dualstack-example-ns.c **** printf("%d\r\n",val); 
 1249              		.loc 1 670 1 is_stmt 1 view .LVU292
 1250 001a 0448     		ldr	r0, .L78+8
 1251 001c FFF7FEFF 		bl	printf
 1252              	.LVL104:
 671:../../applications/murata-dualstack-example-ns/src/murata-dualstack-example-ns.c **** //printf("callback 2 \r\n");
 672:../../applications/murata-dualstack-example-ns/src/murata-dualstack-example-ns.c **** }
 1253              		.loc 1 672 1 is_stmt 0 view .LVU293
 1254 0020 08BD     		pop	{r3, pc}
 1255              	.L79:
 1256 0022 00BF     		.align	2
 1257              	.L78:
 1258 0024 00000000 		.word	tmpbuf_ble
 1259 0028 00000000 		.word	.LANCHOR8
 1260 002c 00000000 		.word	.LC9
 1261              		.cfi_endproc
 1262              	.LFE145:
 1264              		.section	.text.vApplicationIdleHook,"ax",%progbits
 1265              		.align	1
 1266              		.global	vApplicationIdleHook
 1267              		.syntax unified
 1268              		.thumb
 1269              		.thumb_func
 1270              		.fpu fpv4-sp-d16
 1272              	vApplicationIdleHook:
 1273              	.LFB146:
 673:../../applications/murata-dualstack-example-ns/src/murata-dualstack-example-ns.c **** 
 674:../../applications/murata-dualstack-example-ns/src/murata-dualstack-example-ns.c **** 
 675:../../applications/murata-dualstack-example-ns/src/murata-dualstack-example-ns.c **** 
 676:../../applications/murata-dualstack-example-ns/src/murata-dualstack-example-ns.c **** void vApplicationIdleHook(){
 1274              		.loc 1 676 28 is_stmt 1 view -0
 1275              		.cfi_startproc
 1276              		@ args = 0, pretend = 0, frame = 0
 1277              		@ frame_needed = 0, uses_anonymous_args = 0
 1278              		@ link register save eliminated.
 677:../../applications/murata-dualstack-example-ns/src/murata-dualstack-example-ns.c ****   #if LOW_POWER
 678:../../applications/murata-dualstack-example-ns/src/murata-dualstack-example-ns.c ****     HAL_PWR_EnterSLEEPMode(PWR_MAINREGULATOR_ON, PWR_SLEEPENTRY_WFE);
 679:../../applications/murata-dualstack-example-ns/src/murata-dualstack-example-ns.c ****   #endif
 680:../../applications/murata-dualstack-example-ns/src/murata-dualstack-example-ns.c **** }
 1279              		.loc 1 680 1 view .LVU295
 1280 0000 7047     		bx	lr
 1281              		.cfi_endproc
 1282              	.LFE146:
 1284              		.section	.text.printWelcome,"ax",%progbits
 1285              		.align	1
 1286              		.global	printWelcome
 1287              		.syntax unified
 1288              		.thumb
 1289              		.thumb_func
 1290              		.fpu fpv4-sp-d16
 1292              	printWelcome:
 1293              	.LFB147:
ARM GAS  C:\Users\yvesk\AppData\Local\Temp\cchpqhiM.s 			page 36


 681:../../applications/murata-dualstack-example-ns/src/murata-dualstack-example-ns.c **** 
 682:../../applications/murata-dualstack-example-ns/src/murata-dualstack-example-ns.c **** void printWelcome(void)
 683:../../applications/murata-dualstack-example-ns/src/murata-dualstack-example-ns.c **** {
 1294              		.loc 1 683 1 view -0
 1295              		.cfi_startproc
 1296              		@ args = 0, pretend = 0, frame = 8
 1297              		@ frame_needed = 0, uses_anonymous_args = 0
 1298 0000 30B5     		push	{r4, r5, lr}
 1299              	.LCFI34:
 1300              		.cfi_def_cfa_offset 12
 1301              		.cfi_offset 4, -12
 1302              		.cfi_offset 5, -8
 1303              		.cfi_offset 14, -4
 1304 0002 83B0     		sub	sp, sp, #12
 1305              	.LCFI35:
 1306              		.cfi_def_cfa_offset 24
 684:../../applications/murata-dualstack-example-ns/src/murata-dualstack-example-ns.c ****   printf("\r\n");
 1307              		.loc 1 684 3 view .LVU297
 1308 0004 1A4C     		ldr	r4, .L86
 1309 0006 2046     		mov	r0, r4
 1310 0008 FFF7FEFF 		bl	puts
 1311              	.LVL105:
 685:../../applications/murata-dualstack-example-ns/src/murata-dualstack-example-ns.c ****   printf("*****************************************\r\n");
 1312              		.loc 1 685 3 view .LVU298
 1313 000c 194D     		ldr	r5, .L86+4
 1314 000e 2846     		mov	r0, r5
 1315 0010 FFF7FEFF 		bl	puts
 1316              	.LVL106:
 686:../../applications/murata-dualstack-example-ns/src/murata-dualstack-example-ns.c ****   printf("Murata Dual Stack example without scheduler\r\n");
 1317              		.loc 1 686 3 view .LVU299
 1318 0014 1848     		ldr	r0, .L86+8
 1319 0016 FFF7FEFF 		bl	puts
 1320              	.LVL107:
 687:../../applications/murata-dualstack-example-ns/src/murata-dualstack-example-ns.c ****   printf("*****************************************\r\n");
 1321              		.loc 1 687 3 view .LVU300
 1322 001a 2846     		mov	r0, r5
 1323 001c FFF7FEFF 		bl	puts
 1324              	.LVL108:
 688:../../applications/murata-dualstack-example-ns/src/murata-dualstack-example-ns.c ****   printf("\r\n");
 1325              		.loc 1 688 3 view .LVU301
 1326 0020 2046     		mov	r0, r4
 1327 0022 FFF7FEFF 		bl	puts
 1328              	.LVL109:
 689:../../applications/murata-dualstack-example-ns/src/murata-dualstack-example-ns.c ****   char UIDString[sizeof(short_UID)];
 1329              		.loc 1 689 3 view .LVU302
 690:../../applications/murata-dualstack-example-ns/src/murata-dualstack-example-ns.c ****   memcpy(UIDString, &short_UID, sizeof(short_UID));
 1330              		.loc 1 690 3 view .LVU303
 1331 0026 154B     		ldr	r3, .L86+12
 1332 0028 6C46     		mov	r4, sp
 1333 002a 93E80300 		ldm	r3, {r0, r1}
 1334 002e 84E80300 		stm	r4, {r0, r1}
 691:../../applications/murata-dualstack-example-ns/src/murata-dualstack-example-ns.c ****   printf("octa ID: ");
 1335              		.loc 1 691 3 view .LVU304
 1336 0032 1348     		ldr	r0, .L86+16
 1337 0034 FFF7FEFF 		bl	printf
 1338              	.LVL110:
 692:../../applications/murata-dualstack-example-ns/src/murata-dualstack-example-ns.c ****   for (const char* p = UIDString; *p; ++p)
ARM GAS  C:\Users\yvesk\AppData\Local\Temp\cchpqhiM.s 			page 37


 1339              		.loc 1 692 3 view .LVU305
 1340              	.LBB17:
 1341              		.loc 1 692 8 view .LVU306
 1342              	.L82:
 1343              		.loc 1 692 35 is_stmt 0 discriminator 1 view .LVU307
 1344 0038 2178     		ldrb	r1, [r4]	@ zero_extendqisi2
 1345              		.loc 1 692 3 discriminator 1 view .LVU308
 1346 003a 21B1     		cbz	r1, .L85
 693:../../applications/murata-dualstack-example-ns/src/murata-dualstack-example-ns.c ****     {
 694:../../applications/murata-dualstack-example-ns/src/murata-dualstack-example-ns.c ****         printf("%02x", *p);
 1347              		.loc 1 694 9 is_stmt 1 discriminator 3 view .LVU309
 1348 003c 1148     		ldr	r0, .L86+20
 1349 003e FFF7FEFF 		bl	printf
 1350              	.LVL111:
 692:../../applications/murata-dualstack-example-ns/src/murata-dualstack-example-ns.c ****   for (const char* p = UIDString; *p; ++p)
 1351              		.loc 1 692 39 is_stmt 0 discriminator 3 view .LVU310
 1352 0042 0134     		adds	r4, r4, #1
 1353              	.LVL112:
 692:../../applications/murata-dualstack-example-ns/src/murata-dualstack-example-ns.c ****   for (const char* p = UIDString; *p; ++p)
 1354              		.loc 1 692 39 discriminator 3 view .LVU311
 1355 0044 F8E7     		b	.L82
 1356              	.L85:
 692:../../applications/murata-dualstack-example-ns/src/murata-dualstack-example-ns.c ****   for (const char* p = UIDString; *p; ++p)
 1357              		.loc 1 692 39 discriminator 3 view .LVU312
 1358              	.LBE17:
 695:../../applications/murata-dualstack-example-ns/src/murata-dualstack-example-ns.c ****     }
 696:../../applications/murata-dualstack-example-ns/src/murata-dualstack-example-ns.c ****   printf("\r\n\r\n");
 1359              		.loc 1 696 3 is_stmt 1 view .LVU313
 1360 0046 1048     		ldr	r0, .L86+24
 1361 0048 FFF7FEFF 		bl	puts
 1362              	.LVL113:
 697:../../applications/murata-dualstack-example-ns/src/murata-dualstack-example-ns.c ****   HAL_GPIO_TogglePin(OCTA_BLED_GPIO_Port, OCTA_BLED_Pin);
 1363              		.loc 1 697 3 view .LVU314
 1364 004c 0F4C     		ldr	r4, .L86+28
 1365              	.LVL114:
 1366              		.loc 1 697 3 is_stmt 0 view .LVU315
 1367 004e 4FF40041 		mov	r1, #32768
 1368 0052 2046     		mov	r0, r4
 1369 0054 FFF7FEFF 		bl	HAL_GPIO_TogglePin
 1370              	.LVL115:
 698:../../applications/murata-dualstack-example-ns/src/murata-dualstack-example-ns.c ****   HAL_Delay(2000);
 1371              		.loc 1 698 3 is_stmt 1 view .LVU316
 1372 0058 4FF4FA60 		mov	r0, #2000
 1373 005c FFF7FEFF 		bl	HAL_Delay
 1374              	.LVL116:
 699:../../applications/murata-dualstack-example-ns/src/murata-dualstack-example-ns.c ****   HAL_GPIO_TogglePin(OCTA_BLED_GPIO_Port, OCTA_BLED_Pin);
 1375              		.loc 1 699 3 view .LVU317
 1376 0060 4FF40041 		mov	r1, #32768
 1377 0064 2046     		mov	r0, r4
 1378 0066 FFF7FEFF 		bl	HAL_GPIO_TogglePin
 1379              	.LVL117:
 700:../../applications/murata-dualstack-example-ns/src/murata-dualstack-example-ns.c **** }
 1380              		.loc 1 700 1 is_stmt 0 view .LVU318
 1381 006a 03B0     		add	sp, sp, #12
 1382              	.LCFI36:
 1383              		.cfi_def_cfa_offset 12
 1384              		@ sp needed
ARM GAS  C:\Users\yvesk\AppData\Local\Temp\cchpqhiM.s 			page 38


 1385 006c 30BD     		pop	{r4, r5, pc}
 1386              	.L87:
 1387 006e 00BF     		.align	2
 1388              	.L86:
 1389 0070 00000000 		.word	.LC6
 1390 0074 00000000 		.word	.LC10
 1391 0078 2C000000 		.word	.LC11
 1392 007c 00000000 		.word	short_UID
 1393 0080 5C000000 		.word	.LC12
 1394 0084 68000000 		.word	.LC13
 1395 0088 70000000 		.word	.LC14
 1396 008c 000C0048 		.word	1207962624
 1397              		.cfi_endproc
 1398              	.LFE147:
 1400              		.section	.text.main,"ax",%progbits
 1401              		.align	1
 1402              		.global	main
 1403              		.syntax unified
 1404              		.thumb
 1405              		.thumb_func
 1406              		.fpu fpv4-sp-d16
 1408              	main:
 1409              	.LFB135:
 182:../../applications/murata-dualstack-example-ns/src/murata-dualstack-example-ns.c ****   /* USER CODE BEGIN 1 */
 1410              		.loc 1 182 1 is_stmt 1 view -0
 1411              		.cfi_startproc
 1412              		@ args = 0, pretend = 0, frame = 0
 1413              		@ frame_needed = 0, uses_anonymous_args = 0
 1414 0000 38B5     		push	{r3, r4, r5, lr}
 1415              	.LCFI37:
 1416              		.cfi_def_cfa_offset 16
 1417              		.cfi_offset 3, -16
 1418              		.cfi_offset 4, -12
 1419              		.cfi_offset 5, -8
 1420              		.cfi_offset 14, -4
 190:../../applications/murata-dualstack-example-ns/src/murata-dualstack-example-ns.c **** 
 1421              		.loc 1 190 3 view .LVU320
 1422 0002 FFF7FEFF 		bl	HAL_Init
 1423              	.LVL118:
 197:../../applications/murata-dualstack-example-ns/src/murata-dualstack-example-ns.c **** 
 1424              		.loc 1 197 3 view .LVU321
 1425 0006 FFF7FEFF 		bl	SystemClock_Config
 1426              	.LVL119:
 204:../../applications/murata-dualstack-example-ns/src/murata-dualstack-example-ns.c **** 
 1427              		.loc 1 204 3 view .LVU322
 1428 000a FFF7FEFF 		bl	Initialize_Platform
 1429              	.LVL120:
 207:../../applications/murata-dualstack-example-ns/src/murata-dualstack-example-ns.c ****   InitializeTimer3(); 
 1430              		.loc 1 207 3 view .LVU323
 1431 000e FFF7FEFF 		bl	InitializeTimer2
 1432              	.LVL121:
 208:../../applications/murata-dualstack-example-ns/src/murata-dualstack-example-ns.c **** 
 1433              		.loc 1 208 3 view .LVU324
 1434 0012 FFF7FEFF 		bl	InitializeTimer3
 1435              	.LVL122:
 213:../../applications/murata-dualstack-example-ns/src/murata-dualstack-example-ns.c **** 
 1436              		.loc 1 213 3 view .LVU325
ARM GAS  C:\Users\yvesk\AppData\Local\Temp\cchpqhiM.s 			page 39


 213:../../applications/murata-dualstack-example-ns/src/murata-dualstack-example-ns.c **** 
 1437              		.loc 1 213 15 is_stmt 0 view .LVU326
 1438 0016 FFF7FEFF 		bl	get_UID
 1439              	.LVL123:
 213:../../applications/murata-dualstack-example-ns/src/murata-dualstack-example-ns.c **** 
 1440              		.loc 1 213 13 view .LVU327
 1441 001a 834C     		ldr	r4, .L116
 1442 001c C4E90001 		strd	r0, [r4]
 216:../../applications/murata-dualstack-example-ns/src/murata-dualstack-example-ns.c ****   setI2CInterface_SHT31(&common_I2C);
 1443              		.loc 1 216 3 is_stmt 1 view .LVU328
 1444 0020 824D     		ldr	r5, .L116+4
 1445 0022 2846     		mov	r0, r5
 1446 0024 FFF7FEFF 		bl	LSM303AGR_setI2CInterface
 1447              	.LVL124:
 217:../../applications/murata-dualstack-example-ns/src/murata-dualstack-example-ns.c ****   SHT31_begin(); 
 1448              		.loc 1 217 3 view .LVU329
 1449 0028 2846     		mov	r0, r5
 1450 002a FFF7FEFF 		bl	setI2CInterface_SHT31
 1451              	.LVL125:
 218:../../applications/murata-dualstack-example-ns/src/murata-dualstack-example-ns.c ****   LSM303AGR_initDefault();
 1452              		.loc 1 218 3 view .LVU330
 1453 002e FFF7FEFF 		bl	SHT31_begin
 1454              	.LVL126:
 219:../../applications/murata-dualstack-example-ns/src/murata-dualstack-example-ns.c **** 
 1455              		.loc 1 219 3 view .LVU331
 1456 0032 FFF7FEFF 		bl	LSM303AGR_initDefault
 1457              	.LVL127:
 222:../../applications/murata-dualstack-example-ns/src/murata-dualstack-example-ns.c **** 
 1458              		.loc 1 222 3 view .LVU332
 1459 0036 0222     		movs	r2, #2
 1460 0038 7D49     		ldr	r1, .L116+8
 1461 003a 7E48     		ldr	r0, .L116+12
 1462 003c FFF7FEFF 		bl	HAL_UART_Receive_IT
 1463              	.LVL128:
 225:../../applications/murata-dualstack-example-ns/src/murata-dualstack-example-ns.c ****   HAL_NVIC_EnableIRQ(EXTI1_IRQn);
 1464              		.loc 1 225 3 view .LVU333
 1465 0040 0022     		movs	r2, #0
 1466 0042 1146     		mov	r1, r2
 1467 0044 0720     		movs	r0, #7
 1468 0046 FFF7FEFF 		bl	HAL_NVIC_SetPriority
 1469              	.LVL129:
 226:../../applications/murata-dualstack-example-ns/src/murata-dualstack-example-ns.c **** 
 1470              		.loc 1 226 3 view .LVU334
 1471 004a 0720     		movs	r0, #7
 1472 004c FFF7FEFF 		bl	HAL_NVIC_EnableIRQ
 1473              	.LVL130:
 229:../../applications/murata-dualstack-example-ns/src/murata-dualstack-example-ns.c ****   
 1474              		.loc 1 229 3 view .LVU335
 1475 0050 FFF7FEFF 		bl	printWelcome
 1476              	.LVL131:
 232:../../applications/murata-dualstack-example-ns/src/murata-dualstack-example-ns.c **** 
 1477              		.loc 1 232 3 view .LVU336
 232:../../applications/murata-dualstack-example-ns/src/murata-dualstack-example-ns.c **** 
 1478              		.loc 1 232 17 is_stmt 0 view .LVU337
 1479 0054 0022     		movs	r2, #0
 1480 0056 D4E90001 		ldrd	r0, [r4]
 1481 005a FFF7FEFF 		bl	Murata_Initialize
ARM GAS  C:\Users\yvesk\AppData\Local\Temp\cchpqhiM.s 			page 40


 1482              	.LVL132:
 232:../../applications/murata-dualstack-example-ns/src/murata-dualstack-example-ns.c **** 
 1483              		.loc 1 232 15 view .LVU338
 1484 005e 764B     		ldr	r3, .L116+16
 1485 0060 1870     		strb	r0, [r3]
 234:../../applications/murata-dualstack-example-ns/src/murata-dualstack-example-ns.c ****   {
 1486              		.loc 1 234 3 is_stmt 1 view .LVU339
 234:../../applications/murata-dualstack-example-ns/src/murata-dualstack-example-ns.c ****   {
 1487              		.loc 1 234 6 is_stmt 0 view .LVU340
 1488 0062 0028     		cmp	r0, #0
 1489 0064 6DD0     		beq	.L91
 236:../../applications/murata-dualstack-example-ns/src/murata-dualstack-example-ns.c ****   }
 1490              		.loc 1 236 5 is_stmt 1 view .LVU341
 1491 0066 7548     		ldr	r0, .L116+20
 1492 0068 FFF7FEFF 		bl	puts
 1493              	.LVL133:
 1494 006c 69E0     		b	.L91
 1495              	.L115:
 296:../../applications/murata-dualstack-example-ns/src/murata-dualstack-example-ns.c ****     
 1496              		.loc 1 296 6 view .LVU342
 1497 006e 0020     		movs	r0, #0
 1498 0070 FFF7FEFF 		bl	IWDG_feed
 1499              	.LVL134:
 301:../../applications/murata-dualstack-example-ns/src/murata-dualstack-example-ns.c **** 
 1500              		.loc 1 301 5 view .LVU343
 301:../../applications/murata-dualstack-example-ns/src/murata-dualstack-example-ns.c **** 
 1501              		.loc 1 301 26 is_stmt 0 view .LVU344
 1502 0074 724B     		ldr	r3, .L116+24
 1503 0076 1B78     		ldrb	r3, [r3]	@ zero_extendqisi2
 301:../../applications/murata-dualstack-example-ns/src/murata-dualstack-example-ns.c **** 
 1504              		.loc 1 301 7 view .LVU345
 1505 0078 53B3     		cbz	r3, .L93
 303:../../applications/murata-dualstack-example-ns/src/murata-dualstack-example-ns.c ****         // send dash7 message with all info when user starts repping
 1506              		.loc 1 303 7 is_stmt 1 view .LVU346
 303:../../applications/murata-dualstack-example-ns/src/murata-dualstack-example-ns.c ****         // send dash7 message with all info when user starts repping
 1507              		.loc 1 303 17 is_stmt 0 view .LVU347
 1508 007a 724B     		ldr	r3, .L116+28
 1509 007c 1B78     		ldrb	r3, [r3]	@ zero_extendqisi2
 303:../../applications/murata-dualstack-example-ns/src/murata-dualstack-example-ns.c ****         // send dash7 message with all info when user starts repping
 1510              		.loc 1 303 9 view .LVU348
 1511 007e C3B1     		cbz	r3, .L94
 305:../../applications/murata-dualstack-example-ns/src/murata-dualstack-example-ns.c ****         printf("Started Repping\r\n");
 1512              		.loc 1 305 9 is_stmt 1 view .LVU349
 1513 0080 FFF7FEFF 		bl	LSM303AGR_initDouble
 1514              	.LVL135:
 306:../../applications/murata-dualstack-example-ns/src/murata-dualstack-example-ns.c ****         printf("LSM in double click mode \r\n");
 1515              		.loc 1 306 9 view .LVU350
 1516 0084 7048     		ldr	r0, .L116+32
 1517 0086 FFF7FEFF 		bl	puts
 1518              	.LVL136:
 307:../../applications/murata-dualstack-example-ns/src/murata-dualstack-example-ns.c ****         if (murata_init) {
 1519              		.loc 1 307 9 view .LVU351
 1520 008a 7048     		ldr	r0, .L116+36
 1521 008c FFF7FEFF 		bl	puts
 1522              	.LVL137:
 308:../../applications/murata-dualstack-example-ns/src/murata-dualstack-example-ns.c ****           printf("Sending D7 Message with BLE info + temp + hum\r\n");
 1523              		.loc 1 308 9 view .LVU352
ARM GAS  C:\Users\yvesk\AppData\Local\Temp\cchpqhiM.s 			page 41


 308:../../applications/murata-dualstack-example-ns/src/murata-dualstack-example-ns.c ****           printf("Sending D7 Message with BLE info + temp + hum\r\n");
 1524              		.loc 1 308 13 is_stmt 0 view .LVU353
 1525 0090 694B     		ldr	r3, .L116+16
 1526 0092 1B78     		ldrb	r3, [r3]	@ zero_extendqisi2
 308:../../applications/murata-dualstack-example-ns/src/murata-dualstack-example-ns.c ****           printf("Sending D7 Message with BLE info + temp + hum\r\n");
 1527              		.loc 1 308 12 view .LVU354
 1528 0094 CBB1     		cbz	r3, .L95
 1529              	.LBB18:
 309:../../applications/murata-dualstack-example-ns/src/murata-dualstack-example-ns.c ****           temp_hum_measurement();
 1530              		.loc 1 309 11 is_stmt 1 view .LVU355
 1531 0096 6E48     		ldr	r0, .L116+40
 1532 0098 FFF7FEFF 		bl	puts
 1533              	.LVL138:
 310:../../applications/murata-dualstack-example-ns/src/murata-dualstack-example-ns.c ****           send_message(1);
 1534              		.loc 1 310 11 view .LVU356
 1535 009c FFF7FEFF 		bl	temp_hum_measurement
 1536              	.LVL139:
 311:../../applications/murata-dualstack-example-ns/src/murata-dualstack-example-ns.c ****           //LoRaWAN_send(NULL);
 1537              		.loc 1 311 11 view .LVU357
 1538 00a0 0120     		movs	r0, #1
 1539 00a2 FFF7FEFF 		bl	send_message
 1540              	.LVL140:
 313:../../applications/murata-dualstack-example-ns/src/murata-dualstack-example-ns.c **** 
 1541              		.loc 1 313 11 view .LVU358
 1542 00a6 6B4B     		ldr	r3, .L116+44
 1543 00a8 1978     		ldrb	r1, [r3]	@ zero_extendqisi2
 1544 00aa 6B48     		ldr	r0, .L116+48
 1545 00ac FFF7FEFF 		bl	printf
 1546              	.LVL141:
 1547 00b0 0BE0     		b	.L95
 1548              	.L94:
 1549              	.LBE18:
 320:../../applications/murata-dualstack-example-ns/src/murata-dualstack-example-ns.c ****         printf("Stopped Repping\nLSM in default mode \r\n\n");
 1550              		.loc 1 320 9 view .LVU359
 1551 00b2 FFF7FEFF 		bl	LSM303AGR_initDefault
 1552              	.LVL142:
 321:../../applications/murata-dualstack-example-ns/src/murata-dualstack-example-ns.c ****         if (murata_init) {
 1553              		.loc 1 321 9 view .LVU360
 1554 00b6 6948     		ldr	r0, .L116+52
 1555 00b8 FFF7FEFF 		bl	puts
 1556              	.LVL143:
 322:../../applications/murata-dualstack-example-ns/src/murata-dualstack-example-ns.c ****           printf("Sending D7 Message with BLE info + temp + hum + amount of reps\r\n");
 1557              		.loc 1 322 9 view .LVU361
 322:../../applications/murata-dualstack-example-ns/src/murata-dualstack-example-ns.c ****           printf("Sending D7 Message with BLE info + temp + hum + amount of reps\r\n");
 1558              		.loc 1 322 13 is_stmt 0 view .LVU362
 1559 00bc 5E4B     		ldr	r3, .L116+16
 1560 00be 1B78     		ldrb	r3, [r3]	@ zero_extendqisi2
 322:../../applications/murata-dualstack-example-ns/src/murata-dualstack-example-ns.c ****           printf("Sending D7 Message with BLE info + temp + hum + amount of reps\r\n");
 1561              		.loc 1 322 12 view .LVU363
 1562 00c0 002B     		cmp	r3, #0
 1563 00c2 54D1     		bne	.L107
 1564              	.L96:
 333:../../applications/murata-dualstack-example-ns/src/murata-dualstack-example-ns.c ****       }
 1565              		.loc 1 333 9 is_stmt 1 view .LVU364
 333:../../applications/murata-dualstack-example-ns/src/murata-dualstack-example-ns.c ****       }
 1566              		.loc 1 333 20 is_stmt 0 view .LVU365
 1567 00c4 664B     		ldr	r3, .L116+56
ARM GAS  C:\Users\yvesk\AppData\Local\Temp\cchpqhiM.s 			page 42


 1568 00c6 0022     		movs	r2, #0
 1569 00c8 1A70     		strb	r2, [r3]
 1570              	.L95:
 335:../../applications/murata-dualstack-example-ns/src/murata-dualstack-example-ns.c **** 
 1571              		.loc 1 335 7 is_stmt 1 view .LVU366
 335:../../applications/murata-dualstack-example-ns/src/murata-dualstack-example-ns.c **** 
 1572              		.loc 1 335 25 is_stmt 0 view .LVU367
 1573 00ca 5D4B     		ldr	r3, .L116+24
 1574 00cc 0022     		movs	r2, #0
 1575 00ce 1A70     		strb	r2, [r3]
 1576              	.L93:
 344:../../applications/murata-dualstack-example-ns/src/murata-dualstack-example-ns.c ****       if (repMode==1) {
 1577              		.loc 1 344 5 is_stmt 1 view .LVU368
 344:../../applications/murata-dualstack-example-ns/src/murata-dualstack-example-ns.c ****       if (repMode==1) {
 1578              		.loc 1 344 16 is_stmt 0 view .LVU369
 1579 00d0 644B     		ldr	r3, .L116+60
 1580 00d2 1B78     		ldrb	r3, [r3]	@ zero_extendqisi2
 344:../../applications/murata-dualstack-example-ns/src/murata-dualstack-example-ns.c ****       if (repMode==1) {
 1581              		.loc 1 344 8 view .LVU370
 1582 00d4 7BB1     		cbz	r3, .L97
 345:../../applications/murata-dualstack-example-ns/src/murata-dualstack-example-ns.c ****       // Request to enter SLEEP mode
 1583              		.loc 1 345 7 is_stmt 1 view .LVU371
 345:../../applications/murata-dualstack-example-ns/src/murata-dualstack-example-ns.c ****       // Request to enter SLEEP mode
 1584              		.loc 1 345 18 is_stmt 0 view .LVU372
 1585 00d6 5B4B     		ldr	r3, .L116+28
 1586 00d8 1B78     		ldrb	r3, [r3]	@ zero_extendqisi2
 345:../../applications/murata-dualstack-example-ns/src/murata-dualstack-example-ns.c ****       // Request to enter SLEEP mode
 1587              		.loc 1 345 10 view .LVU373
 1588 00da 002B     		cmp	r3, #0
 1589 00dc 50D1     		bne	.L108
 1590              	.L98:
 354:../../applications/murata-dualstack-example-ns/src/murata-dualstack-example-ns.c ****  
 1591              		.loc 1 354 9 is_stmt 1 view .LVU374
 1592 00de 624C     		ldr	r4, .L116+64
 1593 00e0 2046     		mov	r0, r4
 1594 00e2 FFF7FEFF 		bl	HAL_TIM_Base_Stop_IT
 1595              	.LVL144:
 357:../../applications/murata-dualstack-example-ns/src/murata-dualstack-example-ns.c ****  
 1596              		.loc 1 357 9 view .LVU375
 1597 00e6 2368     		ldr	r3, [r4]
 1598 00e8 0025     		movs	r5, #0
 1599 00ea 5D62     		str	r5, [r3, #36]
 360:../../applications/murata-dualstack-example-ns/src/murata-dualstack-example-ns.c **** 
 1600              		.loc 1 360 9 view .LVU376
 1601 00ec 2046     		mov	r0, r4
 1602 00ee FFF7FEFF 		bl	HAL_TIM_Base_Start_IT
 1603              	.LVL145:
 364:../../applications/murata-dualstack-example-ns/src/murata-dualstack-example-ns.c ****     }  
 1604              		.loc 1 364 11 view .LVU377
 364:../../applications/murata-dualstack-example-ns/src/murata-dualstack-example-ns.c ****     }  
 1605              		.loc 1 364 18 is_stmt 0 view .LVU378
 1606 00f2 5C4B     		ldr	r3, .L116+60
 1607 00f4 1D70     		strb	r5, [r3]
 1608              	.L97:
 370:../../applications/murata-dualstack-example-ns/src/murata-dualstack-example-ns.c ****        //send dash7 localisation message
 1609              		.loc 1 370 5 is_stmt 1 view .LVU379
 370:../../applications/murata-dualstack-example-ns/src/murata-dualstack-example-ns.c ****        //send dash7 localisation message
ARM GAS  C:\Users\yvesk\AppData\Local\Temp\cchpqhiM.s 			page 43


 1610              		.loc 1 370 18 is_stmt 0 view .LVU380
 1611 00f6 5D4B     		ldr	r3, .L116+68
 1612 00f8 1B78     		ldrb	r3, [r3]	@ zero_extendqisi2
 370:../../applications/murata-dualstack-example-ns/src/murata-dualstack-example-ns.c ****        //send dash7 localisation message
 1613              		.loc 1 370 7 view .LVU381
 1614 00fa 33B1     		cbz	r3, .L99
 372:../../applications/murata-dualstack-example-ns/src/murata-dualstack-example-ns.c ****         printf("Sending dash7 localisation message (once per minute)\r\n\r\n");
 1615              		.loc 1 372 7 is_stmt 1 view .LVU382
 372:../../applications/murata-dualstack-example-ns/src/murata-dualstack-example-ns.c ****         printf("Sending dash7 localisation message (once per minute)\r\n\r\n");
 1616              		.loc 1 372 11 is_stmt 0 view .LVU383
 1617 00fc 4E4B     		ldr	r3, .L116+16
 1618 00fe 1B78     		ldrb	r3, [r3]	@ zero_extendqisi2
 372:../../applications/murata-dualstack-example-ns/src/murata-dualstack-example-ns.c ****         printf("Sending dash7 localisation message (once per minute)\r\n\r\n");
 1619              		.loc 1 372 10 view .LVU384
 1620 0100 002B     		cmp	r3, #0
 1621 0102 4DD1     		bne	.L109
 1622              	.L100:
 378:../../applications/murata-dualstack-example-ns/src/murata-dualstack-example-ns.c ****     }
 1623              		.loc 1 378 6 is_stmt 1 view .LVU385
 378:../../applications/murata-dualstack-example-ns/src/murata-dualstack-example-ns.c ****     }
 1624              		.loc 1 378 16 is_stmt 0 view .LVU386
 1625 0104 594B     		ldr	r3, .L116+68
 1626 0106 0022     		movs	r2, #0
 1627 0108 1A70     		strb	r2, [r3]
 1628              	.L99:
 381:../../applications/murata-dualstack-example-ns/src/murata-dualstack-example-ns.c ****       
 1629              		.loc 1 381 6 is_stmt 1 view .LVU387
 381:../../applications/murata-dualstack-example-ns/src/murata-dualstack-example-ns.c ****       
 1630              		.loc 1 381 19 is_stmt 0 view .LVU388
 1631 010a 594B     		ldr	r3, .L116+72
 1632 010c 1B78     		ldrb	r3, [r3]	@ zero_extendqisi2
 381:../../applications/murata-dualstack-example-ns/src/murata-dualstack-example-ns.c ****       
 1633              		.loc 1 381 8 view .LVU389
 1634 010e 33B1     		cbz	r3, .L101
 383:../../applications/murata-dualstack-example-ns/src/murata-dualstack-example-ns.c ****         printf("Inactive timer expired, sending last message\r\n\r\n");
 1635              		.loc 1 383 7 is_stmt 1 view .LVU390
 383:../../applications/murata-dualstack-example-ns/src/murata-dualstack-example-ns.c ****         printf("Inactive timer expired, sending last message\r\n\r\n");
 1636              		.loc 1 383 11 is_stmt 0 view .LVU391
 1637 0110 494B     		ldr	r3, .L116+16
 1638 0112 1B78     		ldrb	r3, [r3]	@ zero_extendqisi2
 383:../../applications/murata-dualstack-example-ns/src/murata-dualstack-example-ns.c ****         printf("Inactive timer expired, sending last message\r\n\r\n");
 1639              		.loc 1 383 10 view .LVU392
 1640 0114 002B     		cmp	r3, #0
 1641 0116 4CD1     		bne	.L110
 1642              	.L102:
 391:../../applications/murata-dualstack-example-ns/src/murata-dualstack-example-ns.c ****     } 
 1643              		.loc 1 391 6 is_stmt 1 view .LVU393
 391:../../applications/murata-dualstack-example-ns/src/murata-dualstack-example-ns.c ****     } 
 1644              		.loc 1 391 16 is_stmt 0 view .LVU394
 1645 0118 554B     		ldr	r3, .L116+72
 1646 011a 0022     		movs	r2, #0
 1647 011c 1A70     		strb	r2, [r3]
 1648              	.L101:
 394:../../applications/murata-dualstack-example-ns/src/murata-dualstack-example-ns.c ****     HAL_TIM_Base_Stop_IT(&inactive_timer);    
 1649              		.loc 1 394 5 is_stmt 1 view .LVU395
 394:../../applications/murata-dualstack-example-ns/src/murata-dualstack-example-ns.c ****     HAL_TIM_Base_Stop_IT(&inactive_timer);    
 1650              		.loc 1 394 19 is_stmt 0 view .LVU396
ARM GAS  C:\Users\yvesk\AppData\Local\Temp\cchpqhiM.s 			page 44


 1651 011e 554B     		ldr	r3, .L116+76
 1652 0120 1B78     		ldrb	r3, [r3]	@ zero_extendqisi2
 394:../../applications/murata-dualstack-example-ns/src/murata-dualstack-example-ns.c ****     HAL_TIM_Base_Stop_IT(&inactive_timer);    
 1653              		.loc 1 394 8 view .LVU397
 1654 0122 002B     		cmp	r3, #0
 1655 0124 54D1     		bne	.L111
 1656              	.L103:
 402:../../applications/murata-dualstack-example-ns/src/murata-dualstack-example-ns.c ****       printf("Going to LoRaWAN mode\r\n\r\n");
 1657              		.loc 1 402 5 is_stmt 1 view .LVU398
 402:../../applications/murata-dualstack-example-ns/src/murata-dualstack-example-ns.c ****       printf("Going to LoRaWAN mode\r\n\r\n");
 1658              		.loc 1 402 23 is_stmt 0 view .LVU399
 1659 0126 4B4B     		ldr	r3, .L116+44
 1660 0128 1B78     		ldrb	r3, [r3]	@ zero_extendqisi2
 1661 012a DBB2     		uxtb	r3, r3
 402:../../applications/murata-dualstack-example-ns/src/murata-dualstack-example-ns.c ****       printf("Going to LoRaWAN mode\r\n\r\n");
 1662              		.loc 1 402 8 view .LVU400
 1663 012c 032B     		cmp	r3, #3
 1664 012e 59D0     		beq	.L112
 1665              	.L104:
 410:../../applications/murata-dualstack-example-ns/src/murata-dualstack-example-ns.c ****       printf("Going to dash7 mode\r\n\r\n");
 1666              		.loc 1 410 6 is_stmt 1 view .LVU401
 410:../../applications/murata-dualstack-example-ns/src/murata-dualstack-example-ns.c ****       printf("Going to dash7 mode\r\n\r\n");
 1667              		.loc 1 410 24 is_stmt 0 view .LVU402
 1668 0130 514B     		ldr	r3, .L116+80
 1669 0132 1B78     		ldrb	r3, [r3]	@ zero_extendqisi2
 1670 0134 DBB2     		uxtb	r3, r3
 410:../../applications/murata-dualstack-example-ns/src/murata-dualstack-example-ns.c ****       printf("Going to dash7 mode\r\n\r\n");
 1671              		.loc 1 410 9 view .LVU403
 1672 0136 012B     		cmp	r3, #1
 1673 0138 61D0     		beq	.L113
 1674              	.L105:
 417:../../applications/murata-dualstack-example-ns/src/murata-dualstack-example-ns.c ****       ble_callback(); 
 1675              		.loc 1 417 5 is_stmt 1 view .LVU404
 417:../../applications/murata-dualstack-example-ns/src/murata-dualstack-example-ns.c ****       ble_callback(); 
 1676              		.loc 1 417 9 is_stmt 0 view .LVU405
 1677 013a 504B     		ldr	r3, .L116+84
 1678 013c 1B78     		ldrb	r3, [r3]	@ zero_extendqisi2
 417:../../applications/murata-dualstack-example-ns/src/murata-dualstack-example-ns.c ****       ble_callback(); 
 1679              		.loc 1 417 8 view .LVU406
 1680 013e 002B     		cmp	r3, #0
 1681 0140 67D1     		bne	.L114
 1682              	.L91:
 283:../../applications/murata-dualstack-example-ns/src/murata-dualstack-example-ns.c ****      IWDG_feed(NULL);
 1683              		.loc 1 283 11 view .LVU407
 1684 0142 4F4B     		ldr	r3, .L116+88
 1685 0144 1B78     		ldrb	r3, [r3]	@ zero_extendqisi2
 283:../../applications/murata-dualstack-example-ns/src/murata-dualstack-example-ns.c ****      IWDG_feed(NULL);
 1686              		.loc 1 283 10 view .LVU408
 1687 0146 002B     		cmp	r3, #0
 1688 0148 91D0     		beq	.L115
 284:../../applications/murata-dualstack-example-ns/src/murata-dualstack-example-ns.c ****     //HAL_Delay(5000);
 1689              		.loc 1 284 6 is_stmt 1 view .LVU409
 1690 014a 0020     		movs	r0, #0
 1691 014c FFF7FEFF 		bl	IWDG_feed
 1692              	.LVL146:
 286:../../applications/murata-dualstack-example-ns/src/murata-dualstack-example-ns.c ****     {
 1693              		.loc 1 286 5 view .LVU410
ARM GAS  C:\Users\yvesk\AppData\Local\Temp\cchpqhiM.s 			page 45


 286:../../applications/murata-dualstack-example-ns/src/murata-dualstack-example-ns.c ****     {
 1694              		.loc 1 286 8 is_stmt 0 view .LVU411
 1695 0150 4C4B     		ldr	r3, .L116+92
 1696 0152 1B78     		ldrb	r3, [r3]	@ zero_extendqisi2
 286:../../applications/murata-dualstack-example-ns/src/murata-dualstack-example-ns.c ****     {
 1697              		.loc 1 286 7 view .LVU412
 1698 0154 002B     		cmp	r3, #0
 1699 0156 F4D0     		beq	.L91
 288:../../applications/murata-dualstack-example-ns/src/murata-dualstack-example-ns.c ****       murata_data_ready = !Murata_process_fifo();
 1700              		.loc 1 288 7 is_stmt 1 view .LVU413
 1701 0158 4B48     		ldr	r0, .L116+96
 1702 015a FFF7FEFF 		bl	puts
 1703              	.LVL147:
 289:../../applications/murata-dualstack-example-ns/src/murata-dualstack-example-ns.c ****     }
 1704              		.loc 1 289 7 view .LVU414
 289:../../applications/murata-dualstack-example-ns/src/murata-dualstack-example-ns.c ****     }
 1705              		.loc 1 289 28 is_stmt 0 view .LVU415
 1706 015e FFF7FEFF 		bl	Murata_process_fifo
 1707              	.LVL148:
 289:../../applications/murata-dualstack-example-ns/src/murata-dualstack-example-ns.c ****     }
 1708              		.loc 1 289 27 view .LVU416
 1709 0162 B0FA80F0 		clz	r0, r0
 1710 0166 4009     		lsrs	r0, r0, #5
 289:../../applications/murata-dualstack-example-ns/src/murata-dualstack-example-ns.c ****     }
 1711              		.loc 1 289 25 view .LVU417
 1712 0168 464B     		ldr	r3, .L116+92
 1713 016a 1870     		strb	r0, [r3]
 1714 016c E9E7     		b	.L91
 1715              	.L107:
 1716              	.LBB19:
 323:../../applications/murata-dualstack-example-ns/src/murata-dualstack-example-ns.c ****           temp_hum_measurement();
 1717              		.loc 1 323 11 is_stmt 1 view .LVU418
 1718 016e 4748     		ldr	r0, .L116+100
 1719 0170 FFF7FEFF 		bl	puts
 1720              	.LVL149:
 324:../../applications/murata-dualstack-example-ns/src/murata-dualstack-example-ns.c ****         //Dash7_send_temphum();
 1721              		.loc 1 324 11 view .LVU419
 1722 0174 FFF7FEFF 		bl	temp_hum_measurement
 1723              	.LVL150:
 326:../../applications/murata-dualstack-example-ns/src/murata-dualstack-example-ns.c ****           //LoRaWAN_send(NULL);
 1724              		.loc 1 326 11 view .LVU420
 1725 0178 0220     		movs	r0, #2
 1726 017a FFF7FEFF 		bl	send_message
 1727              	.LVL151:
 1728 017e A1E7     		b	.L96
 1729              	.L108:
 1730              	.LBE19:
 347:../../applications/murata-dualstack-example-ns/src/murata-dualstack-example-ns.c ****       printf("Timer value: %d,\r\n\r\n",timerValue);
 1731              		.loc 1 347 7 view .LVU421
 347:../../applications/murata-dualstack-example-ns/src/murata-dualstack-example-ns.c ****       printf("Timer value: %d,\r\n\r\n",timerValue);
 1732              		.loc 1 347 20 is_stmt 0 view .LVU422
 1733 0180 434B     		ldr	r3, .L116+104
 1734 0182 1B68     		ldr	r3, [r3]
 1735 0184 596A     		ldr	r1, [r3, #36]
 1736              	.LVL152:
 348:../../applications/murata-dualstack-example-ns/src/murata-dualstack-example-ns.c ****       rep_counter++; 
 1737              		.loc 1 348 7 is_stmt 1 view .LVU423
ARM GAS  C:\Users\yvesk\AppData\Local\Temp\cchpqhiM.s 			page 46


 1738 0186 C9B2     		uxtb	r1, r1
 348:../../applications/murata-dualstack-example-ns/src/murata-dualstack-example-ns.c ****       rep_counter++; 
 1739              		.loc 1 348 7 is_stmt 0 view .LVU424
 1740 0188 4248     		ldr	r0, .L116+108
 1741 018a FFF7FEFF 		bl	printf
 1742              	.LVL153:
 349:../../applications/murata-dualstack-example-ns/src/murata-dualstack-example-ns.c ****       printf("Rep counter: %d,\r\n\r\n",rep_counter);
 1743              		.loc 1 349 7 is_stmt 1 view .LVU425
 349:../../applications/murata-dualstack-example-ns/src/murata-dualstack-example-ns.c ****       printf("Rep counter: %d,\r\n\r\n",rep_counter);
 1744              		.loc 1 349 18 is_stmt 0 view .LVU426
 1745 018e 344B     		ldr	r3, .L116+56
 1746 0190 1978     		ldrb	r1, [r3]	@ zero_extendqisi2
 1747 0192 0131     		adds	r1, r1, #1
 1748 0194 C9B2     		uxtb	r1, r1
 1749 0196 1970     		strb	r1, [r3]
 350:../../applications/murata-dualstack-example-ns/src/murata-dualstack-example-ns.c ****       } 
 1750              		.loc 1 350 7 is_stmt 1 view .LVU427
 1751 0198 3F48     		ldr	r0, .L116+112
 1752 019a FFF7FEFF 		bl	printf
 1753              	.LVL154:
 1754 019e 9EE7     		b	.L98
 1755              	.L109:
 1756              	.LBB20:
 373:../../applications/murata-dualstack-example-ns/src/murata-dualstack-example-ns.c ****           temp_hum_measurement();
 1757              		.loc 1 373 9 view .LVU428
 1758 01a0 3E48     		ldr	r0, .L116+116
 1759 01a2 FFF7FEFF 		bl	puts
 1760              	.LVL155:
 374:../../applications/murata-dualstack-example-ns/src/murata-dualstack-example-ns.c ****         send_message(1);
 1761              		.loc 1 374 11 view .LVU429
 1762 01a6 FFF7FEFF 		bl	temp_hum_measurement
 1763              	.LVL156:
 375:../../applications/murata-dualstack-example-ns/src/murata-dualstack-example-ns.c ****          
 1764              		.loc 1 375 9 view .LVU430
 1765 01aa 0120     		movs	r0, #1
 1766 01ac FFF7FEFF 		bl	send_message
 1767              	.LVL157:
 1768 01b0 A8E7     		b	.L100
 1769              	.L110:
 1770              	.LBE20:
 1771              	.LBB21:
 384:../../applications/murata-dualstack-example-ns/src/murata-dualstack-example-ns.c ****         temp_hum_measurement();
 1772              		.loc 1 384 9 view .LVU431
 1773 01b2 3B48     		ldr	r0, .L116+120
 1774 01b4 FFF7FEFF 		bl	puts
 1775              	.LVL158:
 385:../../applications/murata-dualstack-example-ns/src/murata-dualstack-example-ns.c ****         send_message(1); 
 1776              		.loc 1 385 9 view .LVU432
 1777 01b8 FFF7FEFF 		bl	temp_hum_measurement
 1778              	.LVL159:
 386:../../applications/murata-dualstack-example-ns/src/murata-dualstack-example-ns.c ****         __HAL_TIM_SET_COUNTER(&send_sleepmessage_timer, 0);
 1779              		.loc 1 386 9 view .LVU433
 1780 01bc 0120     		movs	r0, #1
 1781 01be FFF7FEFF 		bl	send_message
 1782              	.LVL160:
 387:../../applications/murata-dualstack-example-ns/src/murata-dualstack-example-ns.c ****         HAL_TIM_Base_Start_IT(&send_sleepmessage_timer);  
 1783              		.loc 1 387 9 view .LVU434
ARM GAS  C:\Users\yvesk\AppData\Local\Temp\cchpqhiM.s 			page 47


 1784 01c2 3848     		ldr	r0, .L116+124
 1785 01c4 0368     		ldr	r3, [r0]
 1786 01c6 0022     		movs	r2, #0
 1787 01c8 5A62     		str	r2, [r3, #36]
 388:../../applications/murata-dualstack-example-ns/src/murata-dualstack-example-ns.c ****         
 1788              		.loc 1 388 9 view .LVU435
 1789 01ca FFF7FEFF 		bl	HAL_TIM_Base_Start_IT
 1790              	.LVL161:
 1791 01ce A3E7     		b	.L102
 1792              	.L111:
 1793              	.LBE21:
 1794              	.LBB22:
 395:../../applications/murata-dualstack-example-ns/src/murata-dualstack-example-ns.c ****     __HAL_TIM_SET_COUNTER(&inactive_timer, 0);
 1795              		.loc 1 395 5 view .LVU436
 1796 01d0 254C     		ldr	r4, .L116+64
 1797 01d2 2046     		mov	r0, r4
 1798 01d4 FFF7FEFF 		bl	HAL_TIM_Base_Stop_IT
 1799              	.LVL162:
 396:../../applications/murata-dualstack-example-ns/src/murata-dualstack-example-ns.c ****     goToSleep(); 
 1800              		.loc 1 396 5 view .LVU437
 1801 01d8 2368     		ldr	r3, [r4]
 1802 01da 0022     		movs	r2, #0
 1803 01dc 5A62     		str	r2, [r3, #36]
 397:../../applications/murata-dualstack-example-ns/src/murata-dualstack-example-ns.c ****     }
 1804              		.loc 1 397 5 view .LVU438
 1805 01de FFF7FEFF 		bl	goToSleep
 1806              	.LVL163:
 1807 01e2 A0E7     		b	.L103
 1808              	.L112:
 1809              	.LBE22:
 403:../../applications/murata-dualstack-example-ns/src/murata-dualstack-example-ns.c ****       messageMode=1;      //go to lorawanmode
 1810              		.loc 1 403 7 view .LVU439
 1811 01e4 3048     		ldr	r0, .L116+128
 1812 01e6 FFF7FEFF 		bl	puts
 1813              	.LVL164:
 404:../../applications/murata-dualstack-example-ns/src/murata-dualstack-example-ns.c ****       successCounter=0;
 1814              		.loc 1 404 7 view .LVU440
 404:../../applications/murata-dualstack-example-ns/src/murata-dualstack-example-ns.c ****       successCounter=0;
 1815              		.loc 1 404 18 is_stmt 0 view .LVU441
 1816 01ea 304B     		ldr	r3, .L116+132
 1817 01ec 0122     		movs	r2, #1
 1818 01ee 1A70     		strb	r2, [r3]
 405:../../applications/murata-dualstack-example-ns/src/murata-dualstack-example-ns.c ****       failureCounter=4; 
 1819              		.loc 1 405 7 is_stmt 1 view .LVU442
 405:../../applications/murata-dualstack-example-ns/src/murata-dualstack-example-ns.c ****       failureCounter=4; 
 1820              		.loc 1 405 21 is_stmt 0 view .LVU443
 1821 01f0 214B     		ldr	r3, .L116+80
 1822 01f2 0022     		movs	r2, #0
 1823 01f4 1A70     		strb	r2, [r3]
 406:../../applications/murata-dualstack-example-ns/src/murata-dualstack-example-ns.c ****     }
 1824              		.loc 1 406 7 is_stmt 1 view .LVU444
 406:../../applications/murata-dualstack-example-ns/src/murata-dualstack-example-ns.c ****     }
 1825              		.loc 1 406 21 is_stmt 0 view .LVU445
 1826 01f6 174B     		ldr	r3, .L116+44
 1827 01f8 0422     		movs	r2, #4
 1828 01fa 1A70     		strb	r2, [r3]
 1829 01fc 98E7     		b	.L104
ARM GAS  C:\Users\yvesk\AppData\Local\Temp\cchpqhiM.s 			page 48


 1830              	.L113:
 411:../../applications/murata-dualstack-example-ns/src/murata-dualstack-example-ns.c ****       messageMode=0;        //go to dash7mode
 1831              		.loc 1 411 7 is_stmt 1 view .LVU446
 1832 01fe 2C48     		ldr	r0, .L116+136
 1833 0200 FFF7FEFF 		bl	puts
 1834              	.LVL165:
 412:../../applications/murata-dualstack-example-ns/src/murata-dualstack-example-ns.c ****       successCounter=2;     //step over the 1 value so that between messages this if isn't accessed
 1835              		.loc 1 412 7 view .LVU447
 412:../../applications/murata-dualstack-example-ns/src/murata-dualstack-example-ns.c ****       successCounter=2;     //step over the 1 value so that between messages this if isn't accessed
 1836              		.loc 1 412 18 is_stmt 0 view .LVU448
 1837 0204 294B     		ldr	r3, .L116+132
 1838 0206 0022     		movs	r2, #0
 1839 0208 1A70     		strb	r2, [r3]
 413:../../applications/murata-dualstack-example-ns/src/murata-dualstack-example-ns.c ****     }
 1840              		.loc 1 413 7 is_stmt 1 view .LVU449
 413:../../applications/murata-dualstack-example-ns/src/murata-dualstack-example-ns.c ****     }
 1841              		.loc 1 413 21 is_stmt 0 view .LVU450
 1842 020a 1B4B     		ldr	r3, .L116+80
 1843 020c 0222     		movs	r2, #2
 1844 020e 1A70     		strb	r2, [r3]
 1845 0210 93E7     		b	.L105
 1846              	.L114:
 1847              	.LBB23:
 418:../../applications/murata-dualstack-example-ns/src/murata-dualstack-example-ns.c ****       HAL_UART_Receive_IT(&BLE_UART, (uint8_t *)tmpbuf_ble, sizeof(tmpbuf_ble)); 
 1848              		.loc 1 418 7 is_stmt 1 view .LVU451
 1849 0212 FFF7FEFF 		bl	ble_callback
 1850              	.LVL166:
 419:../../applications/murata-dualstack-example-ns/src/murata-dualstack-example-ns.c ****       BLE_flag = 0; 
 1851              		.loc 1 419 7 view .LVU452
 1852 0216 0222     		movs	r2, #2
 1853 0218 0549     		ldr	r1, .L116+8
 1854 021a 0648     		ldr	r0, .L116+12
 1855 021c FFF7FEFF 		bl	HAL_UART_Receive_IT
 1856              	.LVL167:
 420:../../applications/murata-dualstack-example-ns/src/murata-dualstack-example-ns.c ****     }
 1857              		.loc 1 420 7 view .LVU453
 420:../../applications/murata-dualstack-example-ns/src/murata-dualstack-example-ns.c ****     }
 1858              		.loc 1 420 16 is_stmt 0 view .LVU454
 1859 0220 164B     		ldr	r3, .L116+84
 1860 0222 0022     		movs	r2, #0
 1861 0224 1A70     		strb	r2, [r3]
 1862 0226 8CE7     		b	.L91
 1863              	.L117:
 1864              		.align	2
 1865              	.L116:
 1866 0228 00000000 		.word	short_UID
 1867 022c 00000000 		.word	common_I2C
 1868 0230 00000000 		.word	tmpbuf_ble
 1869 0234 00000000 		.word	BLE_UART
 1870 0238 00000000 		.word	.LANCHOR4
 1871 023c 00000000 		.word	.LC15
 1872 0240 00000000 		.word	.LANCHOR13
 1873 0244 00000000 		.word	.LANCHOR14
 1874 0248 3C000000 		.word	.LC17
 1875 024c 50000000 		.word	.LC18
 1876 0250 6C000000 		.word	.LC19
 1877 0254 00000000 		.word	.LANCHOR15
ARM GAS  C:\Users\yvesk\AppData\Local\Temp\cchpqhiM.s 			page 49


 1878 0258 9C000000 		.word	.LC20
 1879 025c B4000000 		.word	.LC21
 1880 0260 00000000 		.word	.LANCHOR9
 1881 0264 00000000 		.word	.LANCHOR16
 1882 0268 00000000 		.word	.LANCHOR1
 1883 026c 00000000 		.word	.LANCHOR17
 1884 0270 00000000 		.word	.LANCHOR18
 1885 0274 00000000 		.word	.LANCHOR19
 1886 0278 00000000 		.word	.LANCHOR20
 1887 027c 00000000 		.word	.LANCHOR21
 1888 0280 00000000 		.word	.LANCHOR10
 1889 0284 00000000 		.word	.LANCHOR12
 1890 0288 24000000 		.word	.LC16
 1891 028c DC000000 		.word	.LC22
 1892 0290 00000000 		.word	.LANCHOR0
 1893 0294 1C010000 		.word	.LC23
 1894 0298 34010000 		.word	.LC24
 1895 029c 4C010000 		.word	.LC25
 1896 02a0 84010000 		.word	.LC26
 1897 02a4 00000000 		.word	.LANCHOR2
 1898 02a8 B4010000 		.word	.LC27
 1899 02ac 00000000 		.word	.LANCHOR11
 1900 02b0 D0010000 		.word	.LC28
 1901              	.LBE23:
 1902              		.cfi_endproc
 1903              	.LFE135:
 1905              		.section	.text.HAL_GPIO_EXTI_Callback,"ax",%progbits
 1906              		.align	1
 1907              		.global	HAL_GPIO_EXTI_Callback
 1908              		.syntax unified
 1909              		.thumb
 1910              		.thumb_func
 1911              		.fpu fpv4-sp-d16
 1913              	HAL_GPIO_EXTI_Callback:
 1914              	.LVL168:
 1915              	.LFB148:
 701:../../applications/murata-dualstack-example-ns/src/murata-dualstack-example-ns.c **** 
 702:../../applications/murata-dualstack-example-ns/src/murata-dualstack-example-ns.c **** /* USER CODE END 4 */
 703:../../applications/murata-dualstack-example-ns/src/murata-dualstack-example-ns.c **** 
 704:../../applications/murata-dualstack-example-ns/src/murata-dualstack-example-ns.c **** //-------------------------------------------------------start interrupt handlers -----------------
 705:../../applications/murata-dualstack-example-ns/src/murata-dualstack-example-ns.c **** 
 706:../../applications/murata-dualstack-example-ns/src/murata-dualstack-example-ns.c **** //See platform>octa>stm32l4xx_it.c there we placed exti15_10 function to capture interrupts on one 
 707:../../applications/murata-dualstack-example-ns/src/murata-dualstack-example-ns.c **** // (see slides of Mr weyn for the exact function name). In this function we call the "HAL_GPIO_EXTI
 708:../../applications/murata-dualstack-example-ns/src/murata-dualstack-example-ns.c **** // file. In this function the "HAL_GPIO_EXTI_Callback" is called, which we define below 
 709:../../applications/murata-dualstack-example-ns/src/murata-dualstack-example-ns.c **** void HAL_GPIO_EXTI_Callback(uint16_t GPIO_Pin) {
 1916              		.loc 1 709 48 is_stmt 1 view -0
 1917              		.cfi_startproc
 1918              		@ args = 0, pretend = 0, frame = 0
 1919              		@ frame_needed = 0, uses_anonymous_args = 0
 710:../../applications/murata-dualstack-example-ns/src/murata-dualstack-example-ns.c ****   if (GPIO_Pin==GPIO_Pin_13) {
 1920              		.loc 1 710 3 view .LVU456
 1921              		.loc 1 710 6 is_stmt 0 view .LVU457
 1922 0000 B0F5005F 		cmp	r0, #8192
 1923 0004 00D0     		beq	.L124
 1924 0006 7047     		bx	lr
 1925              	.L124:
 709:../../applications/murata-dualstack-example-ns/src/murata-dualstack-example-ns.c ****   if (GPIO_Pin==GPIO_Pin_13) {
ARM GAS  C:\Users\yvesk\AppData\Local\Temp\cchpqhiM.s 			page 50


 1926              		.loc 1 709 48 view .LVU458
 1927 0008 08B5     		push	{r3, lr}
 1928              	.LCFI38:
 1929              		.cfi_def_cfa_offset 8
 1930              		.cfi_offset 3, -8
 1931              		.cfi_offset 14, -4
 711:../../applications/murata-dualstack-example-ns/src/murata-dualstack-example-ns.c ****   repFlag = 1; 
 1932              		.loc 1 711 3 is_stmt 1 view .LVU459
 1933              		.loc 1 711 11 is_stmt 0 view .LVU460
 1934 000a 034B     		ldr	r3, .L125
 1935 000c 0122     		movs	r2, #1
 1936 000e 1A70     		strb	r2, [r3]
 712:../../applications/murata-dualstack-example-ns/src/murata-dualstack-example-ns.c ****   printf("interrupt accelerometer! \r\n");
 1937              		.loc 1 712 3 is_stmt 1 view .LVU461
 1938 0010 0248     		ldr	r0, .L125+4
 1939              	.LVL169:
 1940              		.loc 1 712 3 is_stmt 0 view .LVU462
 1941 0012 FFF7FEFF 		bl	puts
 1942              	.LVL170:
 713:../../applications/murata-dualstack-example-ns/src/murata-dualstack-example-ns.c ****   // we work with a flag so as to make sure that we don't stay in the callback for too long. This w
 714:../../applications/murata-dualstack-example-ns/src/murata-dualstack-example-ns.c ****   // the flag will call the measurement function in de while loop
 715:../../applications/murata-dualstack-example-ns/src/murata-dualstack-example-ns.c ****   } 
 716:../../applications/murata-dualstack-example-ns/src/murata-dualstack-example-ns.c **** }
 1943              		.loc 1 716 1 view .LVU463
 1944 0016 08BD     		pop	{r3, pc}
 1945              	.L126:
 1946              		.align	2
 1947              	.L125:
 1948 0018 00000000 		.word	.LANCHOR16
 1949 001c 00000000 		.word	.LC29
 1950              		.cfi_endproc
 1951              	.LFE148:
 1953              		.section	.text.EXTI1_IRQHandler,"ax",%progbits
 1954              		.align	1
 1955              		.global	EXTI1_IRQHandler
 1956              		.syntax unified
 1957              		.thumb
 1958              		.thumb_func
 1959              		.fpu fpv4-sp-d16
 1961              	EXTI1_IRQHandler:
 1962              	.LFB149:
 717:../../applications/murata-dualstack-example-ns/src/murata-dualstack-example-ns.c **** 
 718:../../applications/murata-dualstack-example-ns/src/murata-dualstack-example-ns.c **** void EXTI1_IRQHandler(void){
 1963              		.loc 1 718 28 is_stmt 1 view -0
 1964              		.cfi_startproc
 1965              		@ args = 0, pretend = 0, frame = 0
 1966              		@ frame_needed = 0, uses_anonymous_args = 0
 1967 0000 08B5     		push	{r3, lr}
 1968              	.LCFI39:
 1969              		.cfi_def_cfa_offset 8
 1970              		.cfi_offset 3, -8
 1971              		.cfi_offset 14, -4
 719:../../applications/murata-dualstack-example-ns/src/murata-dualstack-example-ns.c ****     //Start reps
 720:../../applications/murata-dualstack-example-ns/src/murata-dualstack-example-ns.c ****     __HAL_GPIO_EXTI_CLEAR_IT(GPIO_PIN_1);
 1972              		.loc 1 720 5 view .LVU465
 1973 0002 074B     		ldr	r3, .L129
 1974 0004 0222     		movs	r2, #2
ARM GAS  C:\Users\yvesk\AppData\Local\Temp\cchpqhiM.s 			page 51


 1975 0006 5A61     		str	r2, [r3, #20]
 721:../../applications/murata-dualstack-example-ns/src/murata-dualstack-example-ns.c ****     printf("INTERRUPT BUTTON! \r\n");
 1976              		.loc 1 721 5 view .LVU466
 1977 0008 0648     		ldr	r0, .L129+4
 1978 000a FFF7FEFF 		bl	puts
 1979              	.LVL171:
 722:../../applications/murata-dualstack-example-ns/src/murata-dualstack-example-ns.c ****     repMode= !repMode;
 1980              		.loc 1 722 5 view .LVU467
 1981 000e 064A     		ldr	r2, .L129+8
 1982 0010 1378     		ldrb	r3, [r2]	@ zero_extendqisi2
 1983 0012 83F00103 		eor	r3, r3, #1
 1984              		.loc 1 722 12 is_stmt 0 view .LVU468
 1985 0016 1370     		strb	r3, [r2]
 723:../../applications/murata-dualstack-example-ns/src/murata-dualstack-example-ns.c ****     changeAcceleroMode=1;
 1986              		.loc 1 723 5 is_stmt 1 view .LVU469
 1987              		.loc 1 723 23 is_stmt 0 view .LVU470
 1988 0018 044B     		ldr	r3, .L129+12
 1989 001a 0122     		movs	r2, #1
 1990 001c 1A70     		strb	r2, [r3]
 724:../../applications/murata-dualstack-example-ns/src/murata-dualstack-example-ns.c ****     //Change registers of accelero
 725:../../applications/murata-dualstack-example-ns/src/murata-dualstack-example-ns.c **** }
 1991              		.loc 1 725 1 view .LVU471
 1992 001e 08BD     		pop	{r3, pc}
 1993              	.L130:
 1994              		.align	2
 1995              	.L129:
 1996 0020 00040140 		.word	1073808384
 1997 0024 00000000 		.word	.LC30
 1998 0028 00000000 		.word	.LANCHOR14
 1999 002c 00000000 		.word	.LANCHOR13
 2000              		.cfi_endproc
 2001              	.LFE149:
 2003              		.section	.text.TIM2_IRQHandler,"ax",%progbits
 2004              		.align	1
 2005              		.global	TIM2_IRQHandler
 2006              		.syntax unified
 2007              		.thumb
 2008              		.thumb_func
 2009              		.fpu fpv4-sp-d16
 2011              	TIM2_IRQHandler:
 2012              	.LFB150:
 726:../../applications/murata-dualstack-example-ns/src/murata-dualstack-example-ns.c **** 
 727:../../applications/murata-dualstack-example-ns/src/murata-dualstack-example-ns.c **** void TIM2_IRQHandler( void ) {
 2013              		.loc 1 727 30 is_stmt 1 view -0
 2014              		.cfi_startproc
 2015              		@ args = 0, pretend = 0, frame = 0
 2016              		@ frame_needed = 0, uses_anonymous_args = 0
 2017 0000 08B5     		push	{r3, lr}
 2018              	.LCFI40:
 2019              		.cfi_def_cfa_offset 8
 2020              		.cfi_offset 3, -8
 2021              		.cfi_offset 14, -4
 728:../../applications/murata-dualstack-example-ns/src/murata-dualstack-example-ns.c **** 
 729:../../applications/murata-dualstack-example-ns/src/murata-dualstack-example-ns.c ****   //printf("elapsed period \r\n");
 730:../../applications/murata-dualstack-example-ns/src/murata-dualstack-example-ns.c ****  
 731:../../applications/murata-dualstack-example-ns/src/murata-dualstack-example-ns.c ****   if (__HAL_TIM_GET_FLAG(&localisation_timer, TIM_IT_UPDATE) != RESET) 
 2022              		.loc 1 731 3 view .LVU473
ARM GAS  C:\Users\yvesk\AppData\Local\Temp\cchpqhiM.s 			page 52


 2023              		.loc 1 731 7 is_stmt 0 view .LVU474
 2024 0002 0A4B     		ldr	r3, .L135
 2025 0004 1B68     		ldr	r3, [r3]
 2026 0006 1A69     		ldr	r2, [r3, #16]
 2027              		.loc 1 731 6 view .LVU475
 2028 0008 12F0010F 		tst	r2, #1
 2029 000c 03D0     		beq	.L131
 732:../../applications/murata-dualstack-example-ns/src/murata-dualstack-example-ns.c ****   //In case other interrupts are also running
 733:../../applications/murata-dualstack-example-ns/src/murata-dualstack-example-ns.c ****   {
 734:../../applications/murata-dualstack-example-ns/src/murata-dualstack-example-ns.c ****   
 735:../../applications/murata-dualstack-example-ns/src/murata-dualstack-example-ns.c ****     if (__HAL_TIM_GET_IT_SOURCE(&localisation_timer, TIM_IT_UPDATE) != RESET) {
 2030              		.loc 1 735 5 is_stmt 1 view .LVU476
 2031              		.loc 1 735 9 is_stmt 0 view .LVU477
 2032 000e DA68     		ldr	r2, [r3, #12]
 2033              		.loc 1 735 8 view .LVU478
 2034 0010 12F0010F 		tst	r2, #1
 2035 0014 00D1     		bne	.L134
 2036              	.L131:
 736:../../applications/murata-dualstack-example-ns/src/murata-dualstack-example-ns.c ****     
 737:../../applications/murata-dualstack-example-ns/src/murata-dualstack-example-ns.c ****     __HAL_TIM_CLEAR_IT(&localisation_timer, TIM_IT_UPDATE);
 738:../../applications/murata-dualstack-example-ns/src/murata-dualstack-example-ns.c ****     
 739:../../applications/murata-dualstack-example-ns/src/murata-dualstack-example-ns.c ****     
 740:../../applications/murata-dualstack-example-ns/src/murata-dualstack-example-ns.c ****     printf("elapsed period \r\n");
 741:../../applications/murata-dualstack-example-ns/src/murata-dualstack-example-ns.c ****     timer2flag = 1; 
 742:../../applications/murata-dualstack-example-ns/src/murata-dualstack-example-ns.c ****     
 743:../../applications/murata-dualstack-example-ns/src/murata-dualstack-example-ns.c ****     
 744:../../applications/murata-dualstack-example-ns/src/murata-dualstack-example-ns.c ****     }
 745:../../applications/murata-dualstack-example-ns/src/murata-dualstack-example-ns.c ****   
 746:../../applications/murata-dualstack-example-ns/src/murata-dualstack-example-ns.c ****   }
 747:../../applications/murata-dualstack-example-ns/src/murata-dualstack-example-ns.c ****  
 748:../../applications/murata-dualstack-example-ns/src/murata-dualstack-example-ns.c **** }
 2037              		.loc 1 748 1 view .LVU479
 2038 0016 08BD     		pop	{r3, pc}
 2039              	.L134:
 737:../../applications/murata-dualstack-example-ns/src/murata-dualstack-example-ns.c ****     
 2040              		.loc 1 737 5 is_stmt 1 view .LVU480
 2041 0018 6FF00102 		mvn	r2, #1
 2042 001c 1A61     		str	r2, [r3, #16]
 740:../../applications/murata-dualstack-example-ns/src/murata-dualstack-example-ns.c ****     timer2flag = 1; 
 2043              		.loc 1 740 5 view .LVU481
 2044 001e 0448     		ldr	r0, .L135+4
 2045 0020 FFF7FEFF 		bl	puts
 2046              	.LVL172:
 741:../../applications/murata-dualstack-example-ns/src/murata-dualstack-example-ns.c ****     
 2047              		.loc 1 741 5 view .LVU482
 741:../../applications/murata-dualstack-example-ns/src/murata-dualstack-example-ns.c ****     
 2048              		.loc 1 741 16 is_stmt 0 view .LVU483
 2049 0024 034B     		ldr	r3, .L135+8
 2050 0026 0122     		movs	r2, #1
 2051 0028 1A70     		strb	r2, [r3]
 2052              		.loc 1 748 1 view .LVU484
 2053 002a F4E7     		b	.L131
 2054              	.L136:
 2055              		.align	2
 2056              	.L135:
 2057 002c 00000000 		.word	.LANCHOR0
 2058 0030 00000000 		.word	.LC31
ARM GAS  C:\Users\yvesk\AppData\Local\Temp\cchpqhiM.s 			page 53


 2059 0034 00000000 		.word	.LANCHOR17
 2060              		.cfi_endproc
 2061              	.LFE150:
 2063              		.section	.text.TIM3_IRQHandler,"ax",%progbits
 2064              		.align	1
 2065              		.global	TIM3_IRQHandler
 2066              		.syntax unified
 2067              		.thumb
 2068              		.thumb_func
 2069              		.fpu fpv4-sp-d16
 2071              	TIM3_IRQHandler:
 2072              	.LFB151:
 749:../../applications/murata-dualstack-example-ns/src/murata-dualstack-example-ns.c **** 
 750:../../applications/murata-dualstack-example-ns/src/murata-dualstack-example-ns.c **** void TIM3_IRQHandler( void ) {
 2073              		.loc 1 750 30 is_stmt 1 view -0
 2074              		.cfi_startproc
 2075              		@ args = 0, pretend = 0, frame = 0
 2076              		@ frame_needed = 0, uses_anonymous_args = 0
 2077 0000 08B5     		push	{r3, lr}
 2078              	.LCFI41:
 2079              		.cfi_def_cfa_offset 8
 2080              		.cfi_offset 3, -8
 2081              		.cfi_offset 14, -4
 751:../../applications/murata-dualstack-example-ns/src/murata-dualstack-example-ns.c **** 
 752:../../applications/murata-dualstack-example-ns/src/murata-dualstack-example-ns.c ****   //printf("elapsed period \r\n");
 753:../../applications/murata-dualstack-example-ns/src/murata-dualstack-example-ns.c ****  
 754:../../applications/murata-dualstack-example-ns/src/murata-dualstack-example-ns.c ****   if (__HAL_TIM_GET_FLAG(&inactive_timer, TIM_IT_UPDATE) != RESET) 
 2082              		.loc 1 754 3 view .LVU486
 2083              		.loc 1 754 7 is_stmt 0 view .LVU487
 2084 0002 0D4B     		ldr	r3, .L142
 2085 0004 1B68     		ldr	r3, [r3]
 2086 0006 1A69     		ldr	r2, [r3, #16]
 2087              		.loc 1 754 6 view .LVU488
 2088 0008 12F0010F 		tst	r2, #1
 2089 000c 0CD0     		beq	.L137
 755:../../applications/murata-dualstack-example-ns/src/murata-dualstack-example-ns.c ****   //In case other interrupts are also running
 756:../../applications/murata-dualstack-example-ns/src/murata-dualstack-example-ns.c ****   {
 757:../../applications/murata-dualstack-example-ns/src/murata-dualstack-example-ns.c ****   
 758:../../applications/murata-dualstack-example-ns/src/murata-dualstack-example-ns.c ****     if (__HAL_TIM_GET_IT_SOURCE(&inactive_timer, TIM_IT_UPDATE) != RESET) {
 2090              		.loc 1 758 5 is_stmt 1 view .LVU489
 2091              		.loc 1 758 9 is_stmt 0 view .LVU490
 2092 000e DA68     		ldr	r2, [r3, #12]
 2093              		.loc 1 758 8 view .LVU491
 2094 0010 12F0010F 		tst	r2, #1
 2095 0014 08D0     		beq	.L137
 759:../../applications/murata-dualstack-example-ns/src/murata-dualstack-example-ns.c ****     
 760:../../applications/murata-dualstack-example-ns/src/murata-dualstack-example-ns.c ****     __HAL_TIM_CLEAR_IT(&inactive_timer, TIM_IT_UPDATE);
 2096              		.loc 1 760 5 is_stmt 1 view .LVU492
 2097 0016 6FF00102 		mvn	r2, #1
 2098 001a 1A61     		str	r2, [r3, #16]
 761:../../applications/murata-dualstack-example-ns/src/murata-dualstack-example-ns.c ****     
 762:../../applications/murata-dualstack-example-ns/src/murata-dualstack-example-ns.c ****     if (timer3_first>0) {
 2099              		.loc 1 762 5 view .LVU493
 2100              		.loc 1 762 21 is_stmt 0 view .LVU494
 2101 001c 074B     		ldr	r3, .L142+4
 2102 001e 1B78     		ldrb	r3, [r3]	@ zero_extendqisi2
 2103              		.loc 1 762 8 view .LVU495
ARM GAS  C:\Users\yvesk\AppData\Local\Temp\cchpqhiM.s 			page 54


 2104 0020 1BB9     		cbnz	r3, .L141
 2105              	.L139:
 763:../../applications/murata-dualstack-example-ns/src/murata-dualstack-example-ns.c ****     printf("elapsed period \r\n");
 764:../../applications/murata-dualstack-example-ns/src/murata-dualstack-example-ns.c ****     timer3flag = 1; 
 765:../../applications/murata-dualstack-example-ns/src/murata-dualstack-example-ns.c ****     
 766:../../applications/murata-dualstack-example-ns/src/murata-dualstack-example-ns.c ****     }
 767:../../applications/murata-dualstack-example-ns/src/murata-dualstack-example-ns.c ****     timer3_first=1; 
 2106              		.loc 1 767 5 is_stmt 1 view .LVU496
 2107              		.loc 1 767 17 is_stmt 0 view .LVU497
 2108 0022 064B     		ldr	r3, .L142+4
 2109 0024 0122     		movs	r2, #1
 2110 0026 1A70     		strb	r2, [r3]
 2111              	.L137:
 768:../../applications/murata-dualstack-example-ns/src/murata-dualstack-example-ns.c ****     }
 769:../../applications/murata-dualstack-example-ns/src/murata-dualstack-example-ns.c ****   
 770:../../applications/murata-dualstack-example-ns/src/murata-dualstack-example-ns.c ****   }
 771:../../applications/murata-dualstack-example-ns/src/murata-dualstack-example-ns.c ****  
 772:../../applications/murata-dualstack-example-ns/src/murata-dualstack-example-ns.c **** }
 2112              		.loc 1 772 1 view .LVU498
 2113 0028 08BD     		pop	{r3, pc}
 2114              	.L141:
 763:../../applications/murata-dualstack-example-ns/src/murata-dualstack-example-ns.c ****     printf("elapsed period \r\n");
 2115              		.loc 1 763 5 is_stmt 1 view .LVU499
 2116 002a 0548     		ldr	r0, .L142+8
 2117 002c FFF7FEFF 		bl	puts
 2118              	.LVL173:
 764:../../applications/murata-dualstack-example-ns/src/murata-dualstack-example-ns.c ****     
 2119              		.loc 1 764 5 view .LVU500
 764:../../applications/murata-dualstack-example-ns/src/murata-dualstack-example-ns.c ****     
 2120              		.loc 1 764 16 is_stmt 0 view .LVU501
 2121 0030 044B     		ldr	r3, .L142+12
 2122 0032 0122     		movs	r2, #1
 2123 0034 1A70     		strb	r2, [r3]
 2124 0036 F4E7     		b	.L139
 2125              	.L143:
 2126              		.align	2
 2127              	.L142:
 2128 0038 00000000 		.word	.LANCHOR1
 2129 003c 00000000 		.word	.LANCHOR3
 2130 0040 00000000 		.word	.LC31
 2131 0044 00000000 		.word	.LANCHOR18
 2132              		.cfi_endproc
 2133              	.LFE151:
 2135              		.section	.text.TIM4_IRQHandler,"ax",%progbits
 2136              		.align	1
 2137              		.global	TIM4_IRQHandler
 2138              		.syntax unified
 2139              		.thumb
 2140              		.thumb_func
 2141              		.fpu fpv4-sp-d16
 2143              	TIM4_IRQHandler:
 2144              	.LFB152:
 773:../../applications/murata-dualstack-example-ns/src/murata-dualstack-example-ns.c **** 
 774:../../applications/murata-dualstack-example-ns/src/murata-dualstack-example-ns.c **** 
 775:../../applications/murata-dualstack-example-ns/src/murata-dualstack-example-ns.c **** void TIM4_IRQHandler( void ) {
 2145              		.loc 1 775 30 is_stmt 1 view -0
 2146              		.cfi_startproc
ARM GAS  C:\Users\yvesk\AppData\Local\Temp\cchpqhiM.s 			page 55


 2147              		@ args = 0, pretend = 0, frame = 0
 2148              		@ frame_needed = 0, uses_anonymous_args = 0
 2149 0000 08B5     		push	{r3, lr}
 2150              	.LCFI42:
 2151              		.cfi_def_cfa_offset 8
 2152              		.cfi_offset 3, -8
 2153              		.cfi_offset 14, -4
 776:../../applications/murata-dualstack-example-ns/src/murata-dualstack-example-ns.c **** 
 777:../../applications/murata-dualstack-example-ns/src/murata-dualstack-example-ns.c ****   //printf("elapsed period \r\n");
 778:../../applications/murata-dualstack-example-ns/src/murata-dualstack-example-ns.c ****  
 779:../../applications/murata-dualstack-example-ns/src/murata-dualstack-example-ns.c ****   if (__HAL_TIM_GET_FLAG(&send_sleepmessage_timer, TIM_IT_UPDATE) != RESET) 
 2154              		.loc 1 779 3 view .LVU503
 2155              		.loc 1 779 7 is_stmt 0 view .LVU504
 2156 0002 0D4B     		ldr	r3, .L149
 2157 0004 1B68     		ldr	r3, [r3]
 2158 0006 1A69     		ldr	r2, [r3, #16]
 2159              		.loc 1 779 6 view .LVU505
 2160 0008 12F0010F 		tst	r2, #1
 2161 000c 0CD0     		beq	.L144
 780:../../applications/murata-dualstack-example-ns/src/murata-dualstack-example-ns.c ****   //In case other interrupts are also running
 781:../../applications/murata-dualstack-example-ns/src/murata-dualstack-example-ns.c ****   {
 782:../../applications/murata-dualstack-example-ns/src/murata-dualstack-example-ns.c ****   
 783:../../applications/murata-dualstack-example-ns/src/murata-dualstack-example-ns.c ****     if (__HAL_TIM_GET_IT_SOURCE(&send_sleepmessage_timer, TIM_IT_UPDATE) != RESET) {
 2162              		.loc 1 783 5 is_stmt 1 view .LVU506
 2163              		.loc 1 783 9 is_stmt 0 view .LVU507
 2164 000e DA68     		ldr	r2, [r3, #12]
 2165              		.loc 1 783 8 view .LVU508
 2166 0010 12F0010F 		tst	r2, #1
 2167 0014 08D0     		beq	.L144
 784:../../applications/murata-dualstack-example-ns/src/murata-dualstack-example-ns.c ****     
 785:../../applications/murata-dualstack-example-ns/src/murata-dualstack-example-ns.c ****     __HAL_TIM_CLEAR_IT(&send_sleepmessage_timer, TIM_IT_UPDATE);
 2168              		.loc 1 785 5 is_stmt 1 view .LVU509
 2169 0016 6FF00102 		mvn	r2, #1
 2170 001a 1A61     		str	r2, [r3, #16]
 786:../../applications/murata-dualstack-example-ns/src/murata-dualstack-example-ns.c ****     
 787:../../applications/murata-dualstack-example-ns/src/murata-dualstack-example-ns.c ****     if (timer4_first>0) {
 2171              		.loc 1 787 5 view .LVU510
 2172              		.loc 1 787 21 is_stmt 0 view .LVU511
 2173 001c 074B     		ldr	r3, .L149+4
 2174 001e 1B78     		ldrb	r3, [r3]	@ zero_extendqisi2
 2175              		.loc 1 787 8 view .LVU512
 2176 0020 1BB9     		cbnz	r3, .L148
 2177              	.L146:
 788:../../applications/murata-dualstack-example-ns/src/murata-dualstack-example-ns.c ****     printf("elapsed sleepmessage period s \r\n");
 789:../../applications/murata-dualstack-example-ns/src/murata-dualstack-example-ns.c ****     timer4flag = 1; 
 790:../../applications/murata-dualstack-example-ns/src/murata-dualstack-example-ns.c ****     
 791:../../applications/murata-dualstack-example-ns/src/murata-dualstack-example-ns.c ****     }
 792:../../applications/murata-dualstack-example-ns/src/murata-dualstack-example-ns.c ****     timer4_first=1; 
 2178              		.loc 1 792 5 is_stmt 1 view .LVU513
 2179              		.loc 1 792 17 is_stmt 0 view .LVU514
 2180 0022 064B     		ldr	r3, .L149+4
 2181 0024 0122     		movs	r2, #1
 2182 0026 1A70     		strb	r2, [r3]
 2183              	.L144:
 793:../../applications/murata-dualstack-example-ns/src/murata-dualstack-example-ns.c ****     }
 794:../../applications/murata-dualstack-example-ns/src/murata-dualstack-example-ns.c ****   
 795:../../applications/murata-dualstack-example-ns/src/murata-dualstack-example-ns.c ****   }
ARM GAS  C:\Users\yvesk\AppData\Local\Temp\cchpqhiM.s 			page 56


 796:../../applications/murata-dualstack-example-ns/src/murata-dualstack-example-ns.c ****  
 797:../../applications/murata-dualstack-example-ns/src/murata-dualstack-example-ns.c **** }
 2184              		.loc 1 797 1 view .LVU515
 2185 0028 08BD     		pop	{r3, pc}
 2186              	.L148:
 788:../../applications/murata-dualstack-example-ns/src/murata-dualstack-example-ns.c ****     printf("elapsed sleepmessage period s \r\n");
 2187              		.loc 1 788 5 is_stmt 1 view .LVU516
 2188 002a 0548     		ldr	r0, .L149+8
 2189 002c FFF7FEFF 		bl	puts
 2190              	.LVL174:
 789:../../applications/murata-dualstack-example-ns/src/murata-dualstack-example-ns.c ****     
 2191              		.loc 1 789 5 view .LVU517
 789:../../applications/murata-dualstack-example-ns/src/murata-dualstack-example-ns.c ****     
 2192              		.loc 1 789 16 is_stmt 0 view .LVU518
 2193 0030 044B     		ldr	r3, .L149+12
 2194 0032 0122     		movs	r2, #1
 2195 0034 1A70     		strb	r2, [r3]
 2196 0036 F4E7     		b	.L146
 2197              	.L150:
 2198              		.align	2
 2199              	.L149:
 2200 0038 00000000 		.word	.LANCHOR2
 2201 003c 00000000 		.word	.LANCHOR22
 2202 0040 00000000 		.word	.LC32
 2203 0044 00000000 		.word	.LANCHOR19
 2204              		.cfi_endproc
 2205              	.LFE152:
 2207              		.section	.text.HAL_UART_RxCpltCallback,"ax",%progbits
 2208              		.align	1
 2209              		.global	HAL_UART_RxCpltCallback
 2210              		.syntax unified
 2211              		.thumb
 2212              		.thumb_func
 2213              		.fpu fpv4-sp-d16
 2215              	HAL_UART_RxCpltCallback:
 2216              	.LVL175:
 2217              	.LFB153:
 798:../../applications/murata-dualstack-example-ns/src/murata-dualstack-example-ns.c **** 
 799:../../applications/murata-dualstack-example-ns/src/murata-dualstack-example-ns.c **** 
 800:../../applications/murata-dualstack-example-ns/src/murata-dualstack-example-ns.c **** // UART RX CALLBACK
 801:../../applications/murata-dualstack-example-ns/src/murata-dualstack-example-ns.c **** void HAL_UART_RxCpltCallback(UART_HandleTypeDef *huart)
 802:../../applications/murata-dualstack-example-ns/src/murata-dualstack-example-ns.c **** {
 2218              		.loc 1 802 1 is_stmt 1 view -0
 2219              		.cfi_startproc
 2220              		@ args = 0, pretend = 0, frame = 0
 2221              		@ frame_needed = 0, uses_anonymous_args = 0
 2222              		.loc 1 802 1 is_stmt 0 view .LVU520
 2223 0000 10B5     		push	{r4, lr}
 2224              	.LCFI43:
 2225              		.cfi_def_cfa_offset 8
 2226              		.cfi_offset 4, -8
 2227              		.cfi_offset 14, -4
 2228 0002 0446     		mov	r4, r0
 803:../../applications/murata-dualstack-example-ns/src/murata-dualstack-example-ns.c ****    
 804:../../applications/murata-dualstack-example-ns/src/murata-dualstack-example-ns.c ****   //printf(" in callback maar niet in juiste \r\n ");
 805:../../applications/murata-dualstack-example-ns/src/murata-dualstack-example-ns.c ****   if (huart == &P1_UART)
 2229              		.loc 1 805 3 is_stmt 1 view .LVU521
ARM GAS  C:\Users\yvesk\AppData\Local\Temp\cchpqhiM.s 			page 57


 2230              		.loc 1 805 6 is_stmt 0 view .LVU522
 2231 0004 084B     		ldr	r3, .L157
 2232 0006 9842     		cmp	r0, r3
 2233 0008 03D0     		beq	.L155
 2234              	.LVL176:
 2235              	.L152:
 806:../../applications/murata-dualstack-example-ns/src/murata-dualstack-example-ns.c ****   {
 807:../../applications/murata-dualstack-example-ns/src/murata-dualstack-example-ns.c ****     Murata_rxCallback();
 808:../../applications/murata-dualstack-example-ns/src/murata-dualstack-example-ns.c ****     murata_data_ready = 1;
 809:../../applications/murata-dualstack-example-ns/src/murata-dualstack-example-ns.c ****   }
 810:../../applications/murata-dualstack-example-ns/src/murata-dualstack-example-ns.c **** 
 811:../../applications/murata-dualstack-example-ns/src/murata-dualstack-example-ns.c ****   if (huart == &BLE_UART) {
 2236              		.loc 1 811 3 is_stmt 1 view .LVU523
 2237              		.loc 1 811 6 is_stmt 0 view .LVU524
 2238 000a 084B     		ldr	r3, .L157+4
 2239 000c 9C42     		cmp	r4, r3
 2240 000e 06D0     		beq	.L156
 2241              	.L151:
 812:../../applications/murata-dualstack-example-ns/src/murata-dualstack-example-ns.c ****         BLE_flag = 1; 
 813:../../applications/murata-dualstack-example-ns/src/murata-dualstack-example-ns.c ****   }
 814:../../applications/murata-dualstack-example-ns/src/murata-dualstack-example-ns.c **** }
 2242              		.loc 1 814 1 view .LVU525
 2243 0010 10BD     		pop	{r4, pc}
 2244              	.LVL177:
 2245              	.L155:
 807:../../applications/murata-dualstack-example-ns/src/murata-dualstack-example-ns.c ****     murata_data_ready = 1;
 2246              		.loc 1 807 5 is_stmt 1 view .LVU526
 2247 0012 FFF7FEFF 		bl	Murata_rxCallback
 2248              	.LVL178:
 808:../../applications/murata-dualstack-example-ns/src/murata-dualstack-example-ns.c ****   }
 2249              		.loc 1 808 5 view .LVU527
 808:../../applications/murata-dualstack-example-ns/src/murata-dualstack-example-ns.c ****   }
 2250              		.loc 1 808 23 is_stmt 0 view .LVU528
 2251 0016 064B     		ldr	r3, .L157+8
 2252 0018 0122     		movs	r2, #1
 2253 001a 1A70     		strb	r2, [r3]
 2254 001c F5E7     		b	.L152
 2255              	.L156:
 812:../../applications/murata-dualstack-example-ns/src/murata-dualstack-example-ns.c ****         BLE_flag = 1; 
 2256              		.loc 1 812 9 is_stmt 1 view .LVU529
 812:../../applications/murata-dualstack-example-ns/src/murata-dualstack-example-ns.c ****         BLE_flag = 1; 
 2257              		.loc 1 812 18 is_stmt 0 view .LVU530
 2258 001e 054B     		ldr	r3, .L157+12
 2259 0020 0122     		movs	r2, #1
 2260 0022 1A70     		strb	r2, [r3]
 2261              		.loc 1 814 1 view .LVU531
 2262 0024 F4E7     		b	.L151
 2263              	.L158:
 2264 0026 00BF     		.align	2
 2265              	.L157:
 2266 0028 00000000 		.word	P1_UART
 2267 002c 00000000 		.word	BLE_UART
 2268 0030 00000000 		.word	.LANCHOR12
 2269 0034 00000000 		.word	.LANCHOR21
 2270              		.cfi_endproc
 2271              	.LFE153:
 2273              		.section	.text.HAL_TIM_PeriodElapsedCallback,"ax",%progbits
ARM GAS  C:\Users\yvesk\AppData\Local\Temp\cchpqhiM.s 			page 58


 2274              		.align	1
 2275              		.global	HAL_TIM_PeriodElapsedCallback
 2276              		.syntax unified
 2277              		.thumb
 2278              		.thumb_func
 2279              		.fpu fpv4-sp-d16
 2281              	HAL_TIM_PeriodElapsedCallback:
 2282              	.LVL179:
 2283              	.LFB154:
 815:../../applications/murata-dualstack-example-ns/src/murata-dualstack-example-ns.c **** 
 816:../../applications/murata-dualstack-example-ns/src/murata-dualstack-example-ns.c **** 
 817:../../applications/murata-dualstack-example-ns/src/murata-dualstack-example-ns.c **** //--------------------------------------------------------------------end interrupt handlers-------
 818:../../applications/murata-dualstack-example-ns/src/murata-dualstack-example-ns.c **** 
 819:../../applications/murata-dualstack-example-ns/src/murata-dualstack-example-ns.c **** 
 820:../../applications/murata-dualstack-example-ns/src/murata-dualstack-example-ns.c **** /**
 821:../../applications/murata-dualstack-example-ns/src/murata-dualstack-example-ns.c ****   * @brief  Period elapsed callback in non blocking mode
 822:../../applications/murata-dualstack-example-ns/src/murata-dualstack-example-ns.c ****   * @note   This function is called  when TIM1 interrupt took place, inside
 823:../../applications/murata-dualstack-example-ns/src/murata-dualstack-example-ns.c ****   * HAL_TIM_IRQHandler(). It makes a direct call to HAL_IncTick() to increment
 824:../../applications/murata-dualstack-example-ns/src/murata-dualstack-example-ns.c ****   * a global variable "uwTick" used as application time base.
 825:../../applications/murata-dualstack-example-ns/src/murata-dualstack-example-ns.c ****   * @param  htim : TIM handle
 826:../../applications/murata-dualstack-example-ns/src/murata-dualstack-example-ns.c ****   * @retval None
 827:../../applications/murata-dualstack-example-ns/src/murata-dualstack-example-ns.c ****   */
 828:../../applications/murata-dualstack-example-ns/src/murata-dualstack-example-ns.c **** void HAL_TIM_PeriodElapsedCallback(TIM_HandleTypeDef *htim)
 829:../../applications/murata-dualstack-example-ns/src/murata-dualstack-example-ns.c **** {
 2284              		.loc 1 829 1 is_stmt 1 view -0
 2285              		.cfi_startproc
 2286              		@ args = 0, pretend = 0, frame = 0
 2287              		@ frame_needed = 0, uses_anonymous_args = 0
 2288              		.loc 1 829 1 is_stmt 0 view .LVU533
 2289 0000 08B5     		push	{r3, lr}
 2290              	.LCFI44:
 2291              		.cfi_def_cfa_offset 8
 2292              		.cfi_offset 3, -8
 2293              		.cfi_offset 14, -4
 830:../../applications/murata-dualstack-example-ns/src/murata-dualstack-example-ns.c ****   /* USER CODE BEGIN Callback 0 */
 831:../../applications/murata-dualstack-example-ns/src/murata-dualstack-example-ns.c **** 
 832:../../applications/murata-dualstack-example-ns/src/murata-dualstack-example-ns.c ****   /* USER CODE END Callback 0 */
 833:../../applications/murata-dualstack-example-ns/src/murata-dualstack-example-ns.c ****   if (htim->Instance == TIM1)
 2294              		.loc 1 833 3 is_stmt 1 view .LVU534
 2295              		.loc 1 833 11 is_stmt 0 view .LVU535
 2296 0002 0268     		ldr	r2, [r0]
 2297              		.loc 1 833 6 view .LVU536
 2298 0004 034B     		ldr	r3, .L163
 2299 0006 9A42     		cmp	r2, r3
 2300 0008 00D0     		beq	.L162
 2301              	.LVL180:
 2302              	.L159:
 834:../../applications/murata-dualstack-example-ns/src/murata-dualstack-example-ns.c ****   {
 835:../../applications/murata-dualstack-example-ns/src/murata-dualstack-example-ns.c ****     HAL_IncTick();
 836:../../applications/murata-dualstack-example-ns/src/murata-dualstack-example-ns.c ****   }
 837:../../applications/murata-dualstack-example-ns/src/murata-dualstack-example-ns.c ****   /* USER CODE BEGIN Callback 1 */
 838:../../applications/murata-dualstack-example-ns/src/murata-dualstack-example-ns.c **** 
 839:../../applications/murata-dualstack-example-ns/src/murata-dualstack-example-ns.c ****   /* USER CODE END Callback 1 */
 840:../../applications/murata-dualstack-example-ns/src/murata-dualstack-example-ns.c **** }
 2303              		.loc 1 840 1 view .LVU537
 2304 000a 08BD     		pop	{r3, pc}
 2305              	.LVL181:
ARM GAS  C:\Users\yvesk\AppData\Local\Temp\cchpqhiM.s 			page 59


 2306              	.L162:
 835:../../applications/murata-dualstack-example-ns/src/murata-dualstack-example-ns.c ****   }
 2307              		.loc 1 835 5 is_stmt 1 view .LVU538
 2308 000c FFF7FEFF 		bl	HAL_IncTick
 2309              	.LVL182:
 2310              		.loc 1 840 1 is_stmt 0 view .LVU539
 2311 0010 FBE7     		b	.L159
 2312              	.L164:
 2313 0012 00BF     		.align	2
 2314              	.L163:
 2315 0014 002C0140 		.word	1073818624
 2316              		.cfi_endproc
 2317              	.LFE154:
 2319              		.section	.text.Error_Handler,"ax",%progbits
 2320              		.align	1
 2321              		.global	Error_Handler
 2322              		.syntax unified
 2323              		.thumb
 2324              		.thumb_func
 2325              		.fpu fpv4-sp-d16
 2327              	Error_Handler:
 2328              	.LFB155:
 841:../../applications/murata-dualstack-example-ns/src/murata-dualstack-example-ns.c **** 
 842:../../applications/murata-dualstack-example-ns/src/murata-dualstack-example-ns.c **** /**
 843:../../applications/murata-dualstack-example-ns/src/murata-dualstack-example-ns.c ****   * @brief  This function is executed in case of error occurrence.
 844:../../applications/murata-dualstack-example-ns/src/murata-dualstack-example-ns.c ****   * @retval None
 845:../../applications/murata-dualstack-example-ns/src/murata-dualstack-example-ns.c ****   */
 846:../../applications/murata-dualstack-example-ns/src/murata-dualstack-example-ns.c **** void Error_Handler(void)
 847:../../applications/murata-dualstack-example-ns/src/murata-dualstack-example-ns.c **** {
 2329              		.loc 1 847 1 is_stmt 1 view -0
 2330              		.cfi_startproc
 2331              		@ args = 0, pretend = 0, frame = 0
 2332              		@ frame_needed = 0, uses_anonymous_args = 0
 2333              		@ link register save eliminated.
 848:../../applications/murata-dualstack-example-ns/src/murata-dualstack-example-ns.c ****   /* USER CODE BEGIN Error_Handler_Debug */
 849:../../applications/murata-dualstack-example-ns/src/murata-dualstack-example-ns.c ****   /* User can add his own implementation to report the HAL error return state */
 850:../../applications/murata-dualstack-example-ns/src/murata-dualstack-example-ns.c **** 
 851:../../applications/murata-dualstack-example-ns/src/murata-dualstack-example-ns.c ****   /* USER CODE END Error_Handler_Debug */
 852:../../applications/murata-dualstack-example-ns/src/murata-dualstack-example-ns.c **** }
 2334              		.loc 1 852 1 view .LVU541
 2335 0000 7047     		bx	lr
 2336              		.cfi_endproc
 2337              	.LFE155:
 2339              		.global	BLE_flag
 2340              		.global	timer4_first
 2341              		.global	timer3_first
 2342              		.global	messageMode
 2343              		.global	changeAcceleroMode
 2344              		.global	repMode
 2345              		.global	repFlag
 2346              		.global	timer4flag
 2347              		.global	timer3flag
 2348              		.global	timer2flag
 2349              		.global	temperatureflag
 2350              		.global	val
 2351              		.comm	data,1,1
 2352              		.global	gewicht
ARM GAS  C:\Users\yvesk\AppData\Local\Temp\cchpqhiM.s 			page 60


 2353              		.comm	tmpbuf_ble,2,4
 2354              		.comm	SHTData,8,4
 2355              		.global	isActiveSending
 2356              		.global	messageCounter
 2357              		.global	successCounter
 2358              		.global	failureCounter
 2359              		.global	rep_counter
 2360              		.global	murata_data_ready
 2361              		.comm	short_UID,8,8
 2362              		.global	murata_init
 2363              		.global	DASH7_Counter
 2364              		.global	LoRaWAN_Counter
 2365              		.comm	threadToNotify,4,4
 2366              		.comm	murata_reset_pin,4,4
 2367              		.comm	murata_wakeup_pin,4,4
 2368              		.comm	magRawData,6,4
 2369              		.comm	magRegisterData,6,4
 2370              		.comm	accRawData,6,4
 2371              		.comm	accRegisterData,6,4
 2372              		.comm	LSM303AGR_hi2c,4,4
 2373              		.comm	LSM303AGR_setting,1,1
 2374              		.comm	murata_rx_process_mutex_id,4,4
 2375              		.comm	txMutexId,4,4
 2376              		.comm	moduleCheckTimId,4,4
 2377              		.comm	dash7TimId,4,4
 2378              		.comm	loraWANTimId,4,4
 2379              		.comm	iwdgTimId,4,4
 2380              		.comm	murata_rx_processing_handle,4,4
 2381              		.comm	defaultTaskHandle,4,4
 2382              		.comm	P3_header,44,4
 2383              		.comm	P2_header,44,4
 2384              		.comm	P1_header,44,4
 2385              		.comm	FLASH_SPI,100,4
 2386              		.comm	P3_SPI,100,4
 2387              		.comm	P2_SPI,100,4
 2388              		.comm	P1_SPI,100,4
 2389              		.comm	P3_I2C,76,4
 2390              		.comm	P2_I2C,76,4
 2391              		.comm	P1_I2C,76,4
 2392              		.comm	common_I2C,76,4
 2393              		.comm	P3_UART,120,4
 2394              		.comm	P2_UART,120,4
 2395              		.comm	P1_UART,120,4
 2396              		.comm	BLE_UART,120,4
 2397              		.comm	USB_UART,120,4
 2398              		.comm	hiwdg,16,4
 2399              		.comm	P3_DIO6,8,4
 2400              		.comm	P3_DIO5,8,4
 2401              		.comm	P3_DIO4,8,4
 2402              		.comm	P3_DIO3,8,4
 2403              		.comm	P3_DIO2,8,4
 2404              		.comm	P3_DIO1,8,4
 2405              		.comm	P2_DIO6,8,4
 2406              		.comm	P2_DIO5,8,4
 2407              		.comm	P2_DIO4,8,4
 2408              		.comm	P2_DIO3,8,4
 2409              		.comm	P2_DIO2,8,4
ARM GAS  C:\Users\yvesk\AppData\Local\Temp\cchpqhiM.s 			page 61


 2410              		.comm	P2_DIO1,8,4
 2411              		.comm	P1_DIO6,8,4
 2412              		.comm	P1_DIO5,8,4
 2413              		.comm	P1_DIO4,8,4
 2414              		.comm	P1_DIO3,8,4
 2415              		.comm	P1_DIO2,8,4
 2416              		.comm	P1_DIO1,8,4
 2417              		.section	.bss.BLE_flag,"aw",%nobits
 2418              		.set	.LANCHOR21,. + 0
 2421              	BLE_flag:
 2422 0000 00       		.space	1
 2423              		.section	.bss.DASH7_Counter,"aw",%nobits
 2424              		.align	1
 2425              		.set	.LANCHOR6,. + 0
 2428              	DASH7_Counter:
 2429 0000 0000     		.space	2
 2430              		.section	.bss.LoRaWAN_Counter,"aw",%nobits
 2431              		.align	1
 2432              		.set	.LANCHOR5,. + 0
 2435              	LoRaWAN_Counter:
 2436 0000 0000     		.space	2
 2437              		.section	.bss.changeAcceleroMode,"aw",%nobits
 2438              		.set	.LANCHOR13,. + 0
 2441              	changeAcceleroMode:
 2442 0000 00       		.space	1
 2443              		.section	.bss.failureCounter,"aw",%nobits
 2444              		.set	.LANCHOR15,. + 0
 2447              	failureCounter:
 2448 0000 00       		.space	1
 2449              		.section	.bss.gewicht,"aw",%nobits
 2452              	gewicht:
 2453 0000 00       		.space	1
 2454              		.section	.bss.isActiveSending,"aw",%nobits
 2455              		.set	.LANCHOR10,. + 0
 2458              	isActiveSending:
 2459 0000 00       		.space	1
 2460              		.section	.bss.messageCounter,"aw",%nobits
 2461              		.set	.LANCHOR7,. + 0
 2464              	messageCounter:
 2465 0000 00       		.space	1
 2466              		.section	.bss.messageMode,"aw",%nobits
 2467              		.set	.LANCHOR11,. + 0
 2470              	messageMode:
 2471 0000 00       		.space	1
 2472              		.section	.bss.murata_data_ready,"aw",%nobits
 2473              		.set	.LANCHOR12,. + 0
 2476              	murata_data_ready:
 2477 0000 00       		.space	1
 2478              		.section	.bss.murata_init,"aw",%nobits
 2479              		.set	.LANCHOR4,. + 0
 2482              	murata_init:
 2483 0000 00       		.space	1
 2484              		.section	.bss.repFlag,"aw",%nobits
 2485              		.set	.LANCHOR16,. + 0
 2488              	repFlag:
 2489 0000 00       		.space	1
 2490              		.section	.bss.repMode,"aw",%nobits
ARM GAS  C:\Users\yvesk\AppData\Local\Temp\cchpqhiM.s 			page 62


 2491              		.set	.LANCHOR14,. + 0
 2494              	repMode:
 2495 0000 00       		.space	1
 2496              		.section	.bss.rep_counter,"aw",%nobits
 2497              		.set	.LANCHOR9,. + 0
 2500              	rep_counter:
 2501 0000 00       		.space	1
 2502              		.section	.bss.successCounter,"aw",%nobits
 2503              		.set	.LANCHOR20,. + 0
 2506              	successCounter:
 2507 0000 00       		.space	1
 2508              		.section	.bss.temperatureflag,"aw",%nobits
 2511              	temperatureflag:
 2512 0000 00       		.space	1
 2513              		.section	.bss.timer2flag,"aw",%nobits
 2514              		.set	.LANCHOR17,. + 0
 2517              	timer2flag:
 2518 0000 00       		.space	1
 2519              		.section	.bss.timer3_first,"aw",%nobits
 2520              		.set	.LANCHOR3,. + 0
 2523              	timer3_first:
 2524 0000 00       		.space	1
 2525              		.section	.bss.timer3flag,"aw",%nobits
 2526              		.set	.LANCHOR18,. + 0
 2529              	timer3flag:
 2530 0000 00       		.space	1
 2531              		.section	.bss.timer4_first,"aw",%nobits
 2532              		.set	.LANCHOR22,. + 0
 2535              	timer4_first:
 2536 0000 00       		.space	1
 2537              		.section	.bss.timer4flag,"aw",%nobits
 2538              		.set	.LANCHOR19,. + 0
 2541              	timer4flag:
 2542 0000 00       		.space	1
 2543              		.section	.bss.val,"aw",%nobits
 2544              		.set	.LANCHOR8,. + 0
 2547              	val:
 2548 0000 00       		.space	1
 2549              		.section	.data.inactive_timer,"aw"
 2550              		.align	2
 2551              		.set	.LANCHOR1,. + 0
 2554              	inactive_timer:
 2555 0000 00040040 		.word	1073742848
 2556 0004 00000000 		.space	60
 2556      00000000 
 2556      00000000 
 2556      00000000 
 2556      00000000 
 2557              		.section	.data.localisation_timer,"aw"
 2558              		.align	2
 2559              		.set	.LANCHOR0,. + 0
 2562              	localisation_timer:
 2563 0000 00000040 		.word	1073741824
 2564 0004 00000000 		.space	60
 2564      00000000 
 2564      00000000 
 2564      00000000 
ARM GAS  C:\Users\yvesk\AppData\Local\Temp\cchpqhiM.s 			page 63


 2564      00000000 
 2565              		.section	.data.send_sleepmessage_timer,"aw"
 2566              		.align	2
 2567              		.set	.LANCHOR2,. + 0
 2570              	send_sleepmessage_timer:
 2571 0000 00080040 		.word	1073743872
 2572 0004 00000000 		.space	60
 2572      00000000 
 2572      00000000 
 2572      00000000 
 2572      00000000 
 2573              		.section	.rodata.EXTI1_IRQHandler.str1.4,"aMS",%progbits,1
 2574              		.align	2
 2575              	.LC30:
 2576 0000 494E5445 		.ascii	"INTERRUPT BUTTON! \015\000"
 2576      52525550 
 2576      54204255 
 2576      54544F4E 
 2576      21200D00 
 2577              		.section	.rodata.HAL_GPIO_EXTI_Callback.str1.4,"aMS",%progbits,1
 2578              		.align	2
 2579              	.LC29:
 2580 0000 696E7465 		.ascii	"interrupt accelerometer! \015\000"
 2580      72727570 
 2580      74206163 
 2580      63656C65 
 2580      726F6D65 
 2581              		.section	.rodata.LoRaWAN_send.str1.4,"aMS",%progbits,1
 2582              		.align	2
 2583              	.LC2:
 2584 0000 6D757261 		.ascii	"murata not initialized, not sending\015\000"
 2584      7461206E 
 2584      6F742069 
 2584      6E697469 
 2584      616C697A 
 2585              		.section	.rodata.LoRaWAN_send_self.str1.4,"aMS",%progbits,1
 2586              		.align	2
 2587              	.LC3:
 2588 0000 74697320 		.ascii	"tis ni gelukt :( \000"
 2588      6E692067 
 2588      656C756B 
 2588      74203A28 
 2588      2000
 2589              		.section	.rodata.TIM2_IRQHandler.str1.4,"aMS",%progbits,1
 2590              		.align	2
 2591              	.LC31:
 2592 0000 656C6170 		.ascii	"elapsed period \015\000"
 2592      73656420 
 2592      70657269 
 2592      6F64200D 
 2592      00
 2593              		.section	.rodata.TIM4_IRQHandler.str1.4,"aMS",%progbits,1
 2594              		.align	2
 2595              	.LC32:
 2596 0000 656C6170 		.ascii	"elapsed sleepmessage period s \015\000"
 2596      73656420 
 2596      736C6565 
ARM GAS  C:\Users\yvesk\AppData\Local\Temp\cchpqhiM.s 			page 64


 2596      706D6573 
 2596      73616765 
 2597              		.section	.rodata.ble_callback.str1.4,"aMS",%progbits,1
 2598              		.align	2
 2599              	.LC9:
 2600 0000 25640D0A 		.ascii	"%d\015\012\000"
 2600      00
 2601              		.section	.rodata.goToSleep.str1.4,"aMS",%progbits,1
 2602              		.align	2
 2603              	.LC0:
 2604 0000 676F696E 		.ascii	"going into sleepmode\015\000"
 2604      6720696E 
 2604      746F2073 
 2604      6C656570 
 2604      6D6F6465 
 2605 0016 0000     		.space	2
 2606              	.LC1:
 2607 0018 2063616D 		.ascii	" came out of sleepmode \015\000"
 2607      65206F75 
 2607      74206F66 
 2607      20736C65 
 2607      65706D6F 
 2608              		.section	.rodata.main.str1.4,"aMS",%progbits,1
 2609              		.align	2
 2610              	.LC15:
 2611 0000 4D757261 		.ascii	"Murata dualstack module init OK\015\012\015\000"
 2611      74612064 
 2611      75616C73 
 2611      7461636B 
 2611      206D6F64 
 2612 0023 00       		.space	1
 2613              	.LC16:
 2614 0024 70726F63 		.ascii	"processing murata fifo\015\000"
 2614      65737369 
 2614      6E67206D 
 2614      75726174 
 2614      61206669 
 2615              	.LC17:
 2616 003c 53746172 		.ascii	"Started Repping\015\000"
 2616      74656420 
 2616      52657070 
 2616      696E670D 
 2616      00
 2617 004d 000000   		.space	3
 2618              	.LC18:
 2619 0050 4C534D20 		.ascii	"LSM in double click mode \015\000"
 2619      696E2064 
 2619      6F75626C 
 2619      6520636C 
 2619      69636B20 
 2620 006b 00       		.space	1
 2621              	.LC19:
 2622 006c 53656E64 		.ascii	"Sending D7 Message with BLE info + temp + hum\015\000"
 2622      696E6720 
 2622      4437204D 
 2622      65737361 
 2622      67652077 
ARM GAS  C:\Users\yvesk\AppData\Local\Temp\cchpqhiM.s 			page 65


 2623 009b 00       		.space	1
 2624              	.LC20:
 2625 009c 4661696C 		.ascii	"Failure counter = %d\015\012\000"
 2625      75726520 
 2625      636F756E 
 2625      74657220 
 2625      3D202564 
 2626 00b3 00       		.space	1
 2627              	.LC21:
 2628 00b4 53746F70 		.ascii	"Stopped Repping\012LSM in default mode \015\012\000"
 2628      70656420 
 2628      52657070 
 2628      696E670A 
 2628      4C534D20 
 2629 00db 00       		.space	1
 2630              	.LC22:
 2631 00dc 53656E64 		.ascii	"Sending D7 Message with BLE info + temp + hum + amo"
 2631      696E6720 
 2631      4437204D 
 2631      65737361 
 2631      67652077 
 2632 010f 756E7420 		.ascii	"unt of reps\015\000"
 2632      6F662072 
 2632      6570730D 
 2632      00
 2633              	.LC23:
 2634 011c 54696D65 		.ascii	"Timer value: %d,\015\012\015\012\000"
 2634      72207661 
 2634      6C75653A 
 2634      2025642C 
 2634      0D0A0D0A 
 2635 0131 000000   		.space	3
 2636              	.LC24:
 2637 0134 52657020 		.ascii	"Rep counter: %d,\015\012\015\012\000"
 2637      636F756E 
 2637      7465723A 
 2637      2025642C 
 2637      0D0A0D0A 
 2638 0149 000000   		.space	3
 2639              	.LC25:
 2640 014c 53656E64 		.ascii	"Sending dash7 localisation message (once per minute"
 2640      696E6720 
 2640      64617368 
 2640      37206C6F 
 2640      63616C69 
 2641 017f 290D0A0D 		.ascii	")\015\012\015\000"
 2641      00
 2642              	.LC26:
 2643 0184 496E6163 		.ascii	"Inactive timer expired, sending last message\015\012"
 2643      74697665 
 2643      2074696D 
 2643      65722065 
 2643      78706972 
 2644 01b2 0D00     		.ascii	"\015\000"
 2645              	.LC27:
 2646 01b4 476F696E 		.ascii	"Going to LoRaWAN mode\015\012\015\000"
 2646      6720746F 
ARM GAS  C:\Users\yvesk\AppData\Local\Temp\cchpqhiM.s 			page 66


 2646      204C6F52 
 2646      6157414E 
 2646      206D6F64 
 2647 01cd 000000   		.space	3
 2648              	.LC28:
 2649 01d0 476F696E 		.ascii	"Going to dash7 mode\015\012\015\000"
 2649      6720746F 
 2649      20646173 
 2649      6837206D 
 2649      6F64650D 
 2650              		.section	.rodata.printWelcome.str1.4,"aMS",%progbits,1
 2651              		.align	2
 2652              	.LC10:
 2653 0000 2A2A2A2A 		.ascii	"*****************************************\015\000"
 2653      2A2A2A2A 
 2653      2A2A2A2A 
 2653      2A2A2A2A 
 2653      2A2A2A2A 
 2654 002b 00       		.space	1
 2655              	.LC11:
 2656 002c 4D757261 		.ascii	"Murata Dual Stack example without scheduler\015\000"
 2656      74612044 
 2656      75616C20 
 2656      53746163 
 2656      6B206578 
 2657 0059 000000   		.space	3
 2658              	.LC12:
 2659 005c 6F637461 		.ascii	"octa ID: \000"
 2659      2049443A 
 2659      2000
 2660 0066 0000     		.space	2
 2661              	.LC13:
 2662 0068 25303278 		.ascii	"%02x\000"
 2662      00
 2663 006d 000000   		.space	3
 2664              	.LC14:
 2665 0070 0D0A0D00 		.ascii	"\015\012\015\000"
 2666              		.section	.rodata.print_temp_hum.str1.4,"aMS",%progbits,1
 2667              		.align	2
 2668              	.LC6:
 2669 0000 0D00     		.ascii	"\015\000"
 2670 0002 0000     		.space	2
 2671              	.LC7:
 2672 0004 54656D70 		.ascii	"Temperature: %.2f \302\260C  \015\012\000"
 2672      65726174 
 2672      7572653A 
 2672      20252E32 
 2672      6620C2B0 
 2673 001e 0000     		.space	2
 2674              	.LC8:
 2675 0020 48756D69 		.ascii	"Humidity: %.2f %% \015\012\000"
 2675      64697479 
 2675      3A20252E 
 2675      32662025 
 2675      25200D0A 
 2676              		.section	.rodata.send_message.str1.4,"aMS",%progbits,1
 2677              		.align	2
ARM GAS  C:\Users\yvesk\AppData\Local\Temp\cchpqhiM.s 			page 67


 2678              	.LC4:
 2679 0000 4E6F2063 		.ascii	"No case was matched\015\000"
 2679      61736520 
 2679      77617320 
 2679      6D617463 
 2679      6865640D 
 2680 0015 000000   		.space	3
 2681              	.LC5:
 2682 0018 73656E64 		.ascii	"sending out of reach lorawan message\015\000"
 2682      696E6720 
 2682      6F757420 
 2682      6F662072 
 2682      65616368 
 2683              		.weak	SystemClock_Config
 2684              		.text
 2685              	.Letext0:
 2686              		.file 2 "c:\\program files (x86)\\gnu tools arm embedded\\8 2019-q3-update\\arm-none-eabi\\include
 2687              		.file 3 "c:\\program files (x86)\\gnu tools arm embedded\\8 2019-q3-update\\arm-none-eabi\\include
 2688              		.file 4 "../../core/ST/CMSIS/Include/core_cm4.h"
 2689              		.file 5 "../../core/ST/CMSIS/Device/ST/STM32L4xx/Include/system_stm32l4xx.h"
 2690              		.file 6 "../../core/ST/CMSIS/Device/ST/STM32L4xx/Include/stm32l496xx.h"
 2691              		.file 7 "../../core/ST/CMSIS/Device/ST/STM32L4xx/Include/stm32l4xx.h"
 2692              		.file 8 "../../core/ST/STM32L4xx_HAL_Driver/Inc/stm32l4xx_hal_def.h"
 2693              		.file 9 "../../core/ST/STM32L4xx_HAL_Driver/Inc/stm32l4xx_hal_dma.h"
 2694              		.file 10 "../../core/ST/STM32L4xx_HAL_Driver/Inc/stm32l4xx_hal_i2c.h"
 2695              		.file 11 "../../core/ST/STM32L4xx_HAL_Driver/Inc/stm32l4xx_hal_iwdg.h"
 2696              		.file 12 "../../core/ST/STM32L4xx_HAL_Driver/Inc/stm32l4xx_hal_spi.h"
 2697              		.file 13 "../../core/ST/STM32L4xx_HAL_Driver/Inc/stm32l4xx_hal_tim.h"
 2698              		.file 14 "../../core/ST/STM32L4xx_HAL_Driver/Inc/stm32l4xx_hal_uart.h"
 2699              		.file 15 "../../core/ST/STM32L4xx_HAL_Driver/Inc/stm32l4xx_hal.h"
 2700              		.file 16 "../../core/ST/Middlewares/Third_Party/FreeRTOS/Source/include/task.h"
 2701              		.file 17 "../../core/ST/Middlewares/Third_Party/FreeRTOS/Source/include/timers.h"
 2702              		.file 18 "../../core/ST/Middlewares/Third_Party/FreeRTOS/Source/include/queue.h"
 2703              		.file 19 "../../core/ST/Middlewares/Third_Party/FreeRTOS/Source/include/semphr.h"
 2704              		.file 20 "../../core/ST/Middlewares/Third_Party/FreeRTOS/Source/CMSIS_RTOS/cmsis_os.h"
 2705              		.file 21 "../../core/platform/octa/inc/gpio.h"
 2706              		.file 22 "../../core/platform/octa/inc/iwdg.h"
 2707              		.file 23 "../../core/platform/octa/inc/uart.h"
 2708              		.file 24 "../../core/platform/octa/inc/i2c.h"
 2709              		.file 25 "../../core/platform/octa/inc/spi.h"
 2710              		.file 26 "../../core/platform/octa/inc/octa.h"
 2711              		.file 27 "../../applications/murata-dualstack-example-ns/inc/murata-dualstack-example-ns.h"
 2712              		.file 28 "../../core/drivers/LSM303AGR/inc/LSM303AGRSensor.h"
 2713              		.file 29 "c:\\program files (x86)\\gnu tools arm embedded\\8 2019-q3-update\\lib\\gcc\\arm-none-ea
 2714              		.file 30 "c:\\program files (x86)\\gnu tools arm embedded\\8 2019-q3-update\\arm-none-eabi\\includ
 2715              		.file 31 "c:\\program files (x86)\\gnu tools arm embedded\\8 2019-q3-update\\arm-none-eabi\\includ
 2716              		.file 32 "c:\\program files (x86)\\gnu tools arm embedded\\8 2019-q3-update\\arm-none-eabi\\includ
 2717              		.file 33 "../../shields/Murata-dualstack/inc/murata.h"
 2718              		.file 34 "<built-in>"
 2719              		.file 35 "c:\\program files (x86)\\gnu tools arm embedded\\8 2019-q3-update\\arm-none-eabi\\includ
 2720              		.file 36 "../../core/ST/STM32L4xx_HAL_Driver/Inc/stm32l4xx_hal_gpio.h"
 2721              		.file 37 "../../core/ST/STM32L4xx_HAL_Driver/Inc/stm32l4xx_hal_pwr.h"
 2722              		.file 38 "../../core/platform/octa/inc/sysclock.h"
 2723              		.file 39 "../../core/platform/common/inc/platform.h"
 2724              		.file 40 "../../core/ST/STM32L4xx_HAL_Driver/Inc/stm32l4xx_hal_cortex.h"
ARM GAS  C:\Users\yvesk\AppData\Local\Temp\cchpqhiM.s 			page 68


DEFINED SYMBOLS
                            *ABS*:00000000 murata-dualstack-example-ns.c
C:\Users\yvesk\AppData\Local\Temp\cchpqhiM.s:18     .text.InitializeTimer2:00000000 $t
C:\Users\yvesk\AppData\Local\Temp\cchpqhiM.s:26     .text.InitializeTimer2:00000000 InitializeTimer2
C:\Users\yvesk\AppData\Local\Temp\cchpqhiM.s:103    .text.InitializeTimer2:00000050 $d
C:\Users\yvesk\AppData\Local\Temp\cchpqhiM.s:109    .text.InitializeTimer3:00000000 $t
C:\Users\yvesk\AppData\Local\Temp\cchpqhiM.s:116    .text.InitializeTimer3:00000000 InitializeTimer3
C:\Users\yvesk\AppData\Local\Temp\cchpqhiM.s:192    .text.InitializeTimer3:00000050 $d
C:\Users\yvesk\AppData\Local\Temp\cchpqhiM.s:198    .text.InitializeTimer4:00000000 $t
C:\Users\yvesk\AppData\Local\Temp\cchpqhiM.s:205    .text.InitializeTimer4:00000000 InitializeTimer4
C:\Users\yvesk\AppData\Local\Temp\cchpqhiM.s:282    .text.InitializeTimer4:00000050 $d
C:\Users\yvesk\AppData\Local\Temp\cchpqhiM.s:289    .text.goToSleep:00000000 $t
C:\Users\yvesk\AppData\Local\Temp\cchpqhiM.s:296    .text.goToSleep:00000000 goToSleep
C:\Users\yvesk\AppData\Local\Temp\cchpqhiM.s:339    .text.goToSleep:0000002c $d
C:\Users\yvesk\AppData\Local\Temp\cchpqhiM.s:346    .text.LoRaWAN_send:00000000 $t
C:\Users\yvesk\AppData\Local\Temp\cchpqhiM.s:353    .text.LoRaWAN_send:00000000 LoRaWAN_send
C:\Users\yvesk\AppData\Local\Temp\cchpqhiM.s:461    .text.LoRaWAN_send:00000064 $d
                            *COM*:00000008 SHTData
C:\Users\yvesk\AppData\Local\Temp\cchpqhiM.s:469    .text.LoRaWAN_send_self:00000000 $t
C:\Users\yvesk\AppData\Local\Temp\cchpqhiM.s:476    .text.LoRaWAN_send_self:00000000 LoRaWAN_send_self
C:\Users\yvesk\AppData\Local\Temp\cchpqhiM.s:584    .text.LoRaWAN_send_self:0000006c $d
C:\Users\yvesk\AppData\Local\Temp\cchpqhiM.s:593    .text.Dash7_send:00000000 $t
C:\Users\yvesk\AppData\Local\Temp\cchpqhiM.s:600    .text.Dash7_send:00000000 Dash7_send
C:\Users\yvesk\AppData\Local\Temp\cchpqhiM.s:715    .text.Dash7_send:0000005c $d
C:\Users\yvesk\AppData\Local\Temp\cchpqhiM.s:722    .text.Dash7_send_temphum:00000000 $t
C:\Users\yvesk\AppData\Local\Temp\cchpqhiM.s:729    .text.Dash7_send_temphum:00000000 Dash7_send_temphum
C:\Users\yvesk\AppData\Local\Temp\cchpqhiM.s:853    .text.Dash7_send_temphum:00000078 $d
C:\Users\yvesk\AppData\Local\Temp\cchpqhiM.s:863    .text.Dash7_send_allInfo:00000000 $t
C:\Users\yvesk\AppData\Local\Temp\cchpqhiM.s:870    .text.Dash7_send_allInfo:00000000 Dash7_send_allInfo
C:\Users\yvesk\AppData\Local\Temp\cchpqhiM.s:997    .text.Dash7_send_allInfo:0000007c $d
C:\Users\yvesk\AppData\Local\Temp\cchpqhiM.s:1008   .text.send_message:00000000 $t
C:\Users\yvesk\AppData\Local\Temp\cchpqhiM.s:1015   .text.send_message:00000000 send_message
C:\Users\yvesk\AppData\Local\Temp\cchpqhiM.s:1106   .text.send_message:00000050 $d
C:\Users\yvesk\AppData\Local\Temp\cchpqhiM.s:1116   .text.print_temp_hum:00000000 $t
C:\Users\yvesk\AppData\Local\Temp\cchpqhiM.s:1123   .text.print_temp_hum:00000000 print_temp_hum
C:\Users\yvesk\AppData\Local\Temp\cchpqhiM.s:1171   .text.print_temp_hum:00000034 $d
C:\Users\yvesk\AppData\Local\Temp\cchpqhiM.s:1179   .text.temp_hum_measurement:00000000 $t
C:\Users\yvesk\AppData\Local\Temp\cchpqhiM.s:1186   .text.temp_hum_measurement:00000000 temp_hum_measurement
C:\Users\yvesk\AppData\Local\Temp\cchpqhiM.s:1209   .text.temp_hum_measurement:00000010 $d
C:\Users\yvesk\AppData\Local\Temp\cchpqhiM.s:1214   .text.ble_callback:00000000 $t
C:\Users\yvesk\AppData\Local\Temp\cchpqhiM.s:1221   .text.ble_callback:00000000 ble_callback
C:\Users\yvesk\AppData\Local\Temp\cchpqhiM.s:1258   .text.ble_callback:00000024 $d
                            *COM*:00000002 tmpbuf_ble
C:\Users\yvesk\AppData\Local\Temp\cchpqhiM.s:1265   .text.vApplicationIdleHook:00000000 $t
C:\Users\yvesk\AppData\Local\Temp\cchpqhiM.s:1272   .text.vApplicationIdleHook:00000000 vApplicationIdleHook
C:\Users\yvesk\AppData\Local\Temp\cchpqhiM.s:1285   .text.printWelcome:00000000 $t
C:\Users\yvesk\AppData\Local\Temp\cchpqhiM.s:1292   .text.printWelcome:00000000 printWelcome
C:\Users\yvesk\AppData\Local\Temp\cchpqhiM.s:1389   .text.printWelcome:00000070 $d
                            *COM*:00000008 short_UID
C:\Users\yvesk\AppData\Local\Temp\cchpqhiM.s:1401   .text.main:00000000 $t
C:\Users\yvesk\AppData\Local\Temp\cchpqhiM.s:1408   .text.main:00000000 main
C:\Users\yvesk\AppData\Local\Temp\cchpqhiM.s:1866   .text.main:00000228 $d
                            *COM*:0000004c common_I2C
                            *COM*:00000078 BLE_UART
C:\Users\yvesk\AppData\Local\Temp\cchpqhiM.s:1906   .text.HAL_GPIO_EXTI_Callback:00000000 $t
C:\Users\yvesk\AppData\Local\Temp\cchpqhiM.s:1913   .text.HAL_GPIO_EXTI_Callback:00000000 HAL_GPIO_EXTI_Callback
C:\Users\yvesk\AppData\Local\Temp\cchpqhiM.s:1948   .text.HAL_GPIO_EXTI_Callback:00000018 $d
ARM GAS  C:\Users\yvesk\AppData\Local\Temp\cchpqhiM.s 			page 69


C:\Users\yvesk\AppData\Local\Temp\cchpqhiM.s:1954   .text.EXTI1_IRQHandler:00000000 $t
C:\Users\yvesk\AppData\Local\Temp\cchpqhiM.s:1961   .text.EXTI1_IRQHandler:00000000 EXTI1_IRQHandler
C:\Users\yvesk\AppData\Local\Temp\cchpqhiM.s:1996   .text.EXTI1_IRQHandler:00000020 $d
C:\Users\yvesk\AppData\Local\Temp\cchpqhiM.s:2004   .text.TIM2_IRQHandler:00000000 $t
C:\Users\yvesk\AppData\Local\Temp\cchpqhiM.s:2011   .text.TIM2_IRQHandler:00000000 TIM2_IRQHandler
C:\Users\yvesk\AppData\Local\Temp\cchpqhiM.s:2057   .text.TIM2_IRQHandler:0000002c $d
C:\Users\yvesk\AppData\Local\Temp\cchpqhiM.s:2064   .text.TIM3_IRQHandler:00000000 $t
C:\Users\yvesk\AppData\Local\Temp\cchpqhiM.s:2071   .text.TIM3_IRQHandler:00000000 TIM3_IRQHandler
C:\Users\yvesk\AppData\Local\Temp\cchpqhiM.s:2128   .text.TIM3_IRQHandler:00000038 $d
C:\Users\yvesk\AppData\Local\Temp\cchpqhiM.s:2136   .text.TIM4_IRQHandler:00000000 $t
C:\Users\yvesk\AppData\Local\Temp\cchpqhiM.s:2143   .text.TIM4_IRQHandler:00000000 TIM4_IRQHandler
C:\Users\yvesk\AppData\Local\Temp\cchpqhiM.s:2200   .text.TIM4_IRQHandler:00000038 $d
C:\Users\yvesk\AppData\Local\Temp\cchpqhiM.s:2208   .text.HAL_UART_RxCpltCallback:00000000 $t
C:\Users\yvesk\AppData\Local\Temp\cchpqhiM.s:2215   .text.HAL_UART_RxCpltCallback:00000000 HAL_UART_RxCpltCallback
C:\Users\yvesk\AppData\Local\Temp\cchpqhiM.s:2266   .text.HAL_UART_RxCpltCallback:00000028 $d
                            *COM*:00000078 P1_UART
C:\Users\yvesk\AppData\Local\Temp\cchpqhiM.s:2274   .text.HAL_TIM_PeriodElapsedCallback:00000000 $t
C:\Users\yvesk\AppData\Local\Temp\cchpqhiM.s:2281   .text.HAL_TIM_PeriodElapsedCallback:00000000 HAL_TIM_PeriodElapsedCallback
C:\Users\yvesk\AppData\Local\Temp\cchpqhiM.s:2315   .text.HAL_TIM_PeriodElapsedCallback:00000014 $d
C:\Users\yvesk\AppData\Local\Temp\cchpqhiM.s:2320   .text.Error_Handler:00000000 $t
C:\Users\yvesk\AppData\Local\Temp\cchpqhiM.s:2327   .text.Error_Handler:00000000 Error_Handler
C:\Users\yvesk\AppData\Local\Temp\cchpqhiM.s:2421   .bss.BLE_flag:00000000 BLE_flag
C:\Users\yvesk\AppData\Local\Temp\cchpqhiM.s:2535   .bss.timer4_first:00000000 timer4_first
C:\Users\yvesk\AppData\Local\Temp\cchpqhiM.s:2523   .bss.timer3_first:00000000 timer3_first
C:\Users\yvesk\AppData\Local\Temp\cchpqhiM.s:2470   .bss.messageMode:00000000 messageMode
C:\Users\yvesk\AppData\Local\Temp\cchpqhiM.s:2441   .bss.changeAcceleroMode:00000000 changeAcceleroMode
C:\Users\yvesk\AppData\Local\Temp\cchpqhiM.s:2494   .bss.repMode:00000000 repMode
C:\Users\yvesk\AppData\Local\Temp\cchpqhiM.s:2488   .bss.repFlag:00000000 repFlag
C:\Users\yvesk\AppData\Local\Temp\cchpqhiM.s:2541   .bss.timer4flag:00000000 timer4flag
C:\Users\yvesk\AppData\Local\Temp\cchpqhiM.s:2529   .bss.timer3flag:00000000 timer3flag
C:\Users\yvesk\AppData\Local\Temp\cchpqhiM.s:2517   .bss.timer2flag:00000000 timer2flag
C:\Users\yvesk\AppData\Local\Temp\cchpqhiM.s:2511   .bss.temperatureflag:00000000 temperatureflag
C:\Users\yvesk\AppData\Local\Temp\cchpqhiM.s:2547   .bss.val:00000000 val
                            *COM*:00000001 data
C:\Users\yvesk\AppData\Local\Temp\cchpqhiM.s:2452   .bss.gewicht:00000000 gewicht
C:\Users\yvesk\AppData\Local\Temp\cchpqhiM.s:2458   .bss.isActiveSending:00000000 isActiveSending
C:\Users\yvesk\AppData\Local\Temp\cchpqhiM.s:2464   .bss.messageCounter:00000000 messageCounter
C:\Users\yvesk\AppData\Local\Temp\cchpqhiM.s:2506   .bss.successCounter:00000000 successCounter
C:\Users\yvesk\AppData\Local\Temp\cchpqhiM.s:2447   .bss.failureCounter:00000000 failureCounter
C:\Users\yvesk\AppData\Local\Temp\cchpqhiM.s:2500   .bss.rep_counter:00000000 rep_counter
C:\Users\yvesk\AppData\Local\Temp\cchpqhiM.s:2476   .bss.murata_data_ready:00000000 murata_data_ready
C:\Users\yvesk\AppData\Local\Temp\cchpqhiM.s:2482   .bss.murata_init:00000000 murata_init
C:\Users\yvesk\AppData\Local\Temp\cchpqhiM.s:2428   .bss.DASH7_Counter:00000000 DASH7_Counter
C:\Users\yvesk\AppData\Local\Temp\cchpqhiM.s:2435   .bss.LoRaWAN_Counter:00000000 LoRaWAN_Counter
                            *COM*:00000004 threadToNotify
                            *COM*:00000004 murata_reset_pin
                            *COM*:00000004 murata_wakeup_pin
                            *COM*:00000006 magRawData
                            *COM*:00000006 magRegisterData
                            *COM*:00000006 accRawData
                            *COM*:00000006 accRegisterData
                            *COM*:00000004 LSM303AGR_hi2c
                            *COM*:00000001 LSM303AGR_setting
                            *COM*:00000004 murata_rx_process_mutex_id
                            *COM*:00000004 txMutexId
                            *COM*:00000004 moduleCheckTimId
                            *COM*:00000004 dash7TimId
ARM GAS  C:\Users\yvesk\AppData\Local\Temp\cchpqhiM.s 			page 70


                            *COM*:00000004 loraWANTimId
                            *COM*:00000004 iwdgTimId
                            *COM*:00000004 murata_rx_processing_handle
                            *COM*:00000004 defaultTaskHandle
                            *COM*:0000002c P3_header
                            *COM*:0000002c P2_header
                            *COM*:0000002c P1_header
                            *COM*:00000064 FLASH_SPI
                            *COM*:00000064 P3_SPI
                            *COM*:00000064 P2_SPI
                            *COM*:00000064 P1_SPI
                            *COM*:0000004c P3_I2C
                            *COM*:0000004c P2_I2C
                            *COM*:0000004c P1_I2C
                            *COM*:00000078 P3_UART
                            *COM*:00000078 P2_UART
                            *COM*:00000078 USB_UART
                            *COM*:00000010 hiwdg
                            *COM*:00000008 P3_DIO6
                            *COM*:00000008 P3_DIO5
                            *COM*:00000008 P3_DIO4
                            *COM*:00000008 P3_DIO3
                            *COM*:00000008 P3_DIO2
                            *COM*:00000008 P3_DIO1
                            *COM*:00000008 P2_DIO6
                            *COM*:00000008 P2_DIO5
                            *COM*:00000008 P2_DIO4
                            *COM*:00000008 P2_DIO3
                            *COM*:00000008 P2_DIO2
                            *COM*:00000008 P2_DIO1
                            *COM*:00000008 P1_DIO6
                            *COM*:00000008 P1_DIO5
                            *COM*:00000008 P1_DIO4
                            *COM*:00000008 P1_DIO3
                            *COM*:00000008 P1_DIO2
                            *COM*:00000008 P1_DIO1
C:\Users\yvesk\AppData\Local\Temp\cchpqhiM.s:2422   .bss.BLE_flag:00000000 $d
C:\Users\yvesk\AppData\Local\Temp\cchpqhiM.s:2424   .bss.DASH7_Counter:00000000 $d
C:\Users\yvesk\AppData\Local\Temp\cchpqhiM.s:2431   .bss.LoRaWAN_Counter:00000000 $d
C:\Users\yvesk\AppData\Local\Temp\cchpqhiM.s:2442   .bss.changeAcceleroMode:00000000 $d
C:\Users\yvesk\AppData\Local\Temp\cchpqhiM.s:2448   .bss.failureCounter:00000000 $d
C:\Users\yvesk\AppData\Local\Temp\cchpqhiM.s:2453   .bss.gewicht:00000000 $d
C:\Users\yvesk\AppData\Local\Temp\cchpqhiM.s:2459   .bss.isActiveSending:00000000 $d
C:\Users\yvesk\AppData\Local\Temp\cchpqhiM.s:2465   .bss.messageCounter:00000000 $d
C:\Users\yvesk\AppData\Local\Temp\cchpqhiM.s:2471   .bss.messageMode:00000000 $d
C:\Users\yvesk\AppData\Local\Temp\cchpqhiM.s:2477   .bss.murata_data_ready:00000000 $d
C:\Users\yvesk\AppData\Local\Temp\cchpqhiM.s:2483   .bss.murata_init:00000000 $d
C:\Users\yvesk\AppData\Local\Temp\cchpqhiM.s:2489   .bss.repFlag:00000000 $d
C:\Users\yvesk\AppData\Local\Temp\cchpqhiM.s:2495   .bss.repMode:00000000 $d
C:\Users\yvesk\AppData\Local\Temp\cchpqhiM.s:2501   .bss.rep_counter:00000000 $d
C:\Users\yvesk\AppData\Local\Temp\cchpqhiM.s:2507   .bss.successCounter:00000000 $d
C:\Users\yvesk\AppData\Local\Temp\cchpqhiM.s:2512   .bss.temperatureflag:00000000 $d
C:\Users\yvesk\AppData\Local\Temp\cchpqhiM.s:2518   .bss.timer2flag:00000000 $d
C:\Users\yvesk\AppData\Local\Temp\cchpqhiM.s:2524   .bss.timer3_first:00000000 $d
C:\Users\yvesk\AppData\Local\Temp\cchpqhiM.s:2530   .bss.timer3flag:00000000 $d
C:\Users\yvesk\AppData\Local\Temp\cchpqhiM.s:2536   .bss.timer4_first:00000000 $d
C:\Users\yvesk\AppData\Local\Temp\cchpqhiM.s:2542   .bss.timer4flag:00000000 $d
ARM GAS  C:\Users\yvesk\AppData\Local\Temp\cchpqhiM.s 			page 71


C:\Users\yvesk\AppData\Local\Temp\cchpqhiM.s:2548   .bss.val:00000000 $d
C:\Users\yvesk\AppData\Local\Temp\cchpqhiM.s:2550   .data.inactive_timer:00000000 $d
C:\Users\yvesk\AppData\Local\Temp\cchpqhiM.s:2554   .data.inactive_timer:00000000 inactive_timer
C:\Users\yvesk\AppData\Local\Temp\cchpqhiM.s:2558   .data.localisation_timer:00000000 $d
C:\Users\yvesk\AppData\Local\Temp\cchpqhiM.s:2562   .data.localisation_timer:00000000 localisation_timer
C:\Users\yvesk\AppData\Local\Temp\cchpqhiM.s:2566   .data.send_sleepmessage_timer:00000000 $d
C:\Users\yvesk\AppData\Local\Temp\cchpqhiM.s:2570   .data.send_sleepmessage_timer:00000000 send_sleepmessage_timer
C:\Users\yvesk\AppData\Local\Temp\cchpqhiM.s:2574   .rodata.EXTI1_IRQHandler.str1.4:00000000 $d
C:\Users\yvesk\AppData\Local\Temp\cchpqhiM.s:2578   .rodata.HAL_GPIO_EXTI_Callback.str1.4:00000000 $d
C:\Users\yvesk\AppData\Local\Temp\cchpqhiM.s:2582   .rodata.LoRaWAN_send.str1.4:00000000 $d
C:\Users\yvesk\AppData\Local\Temp\cchpqhiM.s:2586   .rodata.LoRaWAN_send_self.str1.4:00000000 $d
C:\Users\yvesk\AppData\Local\Temp\cchpqhiM.s:2590   .rodata.TIM2_IRQHandler.str1.4:00000000 $d
C:\Users\yvesk\AppData\Local\Temp\cchpqhiM.s:2594   .rodata.TIM4_IRQHandler.str1.4:00000000 $d
C:\Users\yvesk\AppData\Local\Temp\cchpqhiM.s:2598   .rodata.ble_callback.str1.4:00000000 $d
C:\Users\yvesk\AppData\Local\Temp\cchpqhiM.s:2602   .rodata.goToSleep.str1.4:00000000 $d
C:\Users\yvesk\AppData\Local\Temp\cchpqhiM.s:2609   .rodata.main.str1.4:00000000 $d
C:\Users\yvesk\AppData\Local\Temp\cchpqhiM.s:2651   .rodata.printWelcome.str1.4:00000000 $d
C:\Users\yvesk\AppData\Local\Temp\cchpqhiM.s:2667   .rodata.print_temp_hum.str1.4:00000000 $d
C:\Users\yvesk\AppData\Local\Temp\cchpqhiM.s:2677   .rodata.send_message.str1.4:00000000 $d

UNDEFINED SYMBOLS
HAL_TIM_Base_Init
HAL_TIM_Base_Start_IT
HAL_NVIC_SetPriority
HAL_NVIC_EnableIRQ
puts
HAL_SuspendTick
HAL_PWR_EnterSTOPMode
HAL_ResumeTick
SystemClock_Config
Murata_LoRaWAN_Send
printf
Murata_Dash7_Send
__aeabi_f2d
SHT31_get_temp_hum
HAL_GPIO_TogglePin
HAL_Delay
HAL_Init
Initialize_Platform
get_UID
LSM303AGR_setI2CInterface
setI2CInterface_SHT31
SHT31_begin
LSM303AGR_initDefault
HAL_UART_Receive_IT
Murata_Initialize
IWDG_feed
LSM303AGR_initDouble
HAL_TIM_Base_Stop_IT
Murata_process_fifo
Murata_rxCallback
HAL_IncTick
