ARM GAS  C:\Users\yvesk\AppData\Local\Temp\ccFDdKFl.s 			page 1


   1              		.cpu cortex-m4
   2              		.eabi_attribute 27, 1
   3              		.eabi_attribute 28, 1
   4              		.eabi_attribute 20, 1
   5              		.eabi_attribute 21, 1
   6              		.eabi_attribute 23, 3
   7              		.eabi_attribute 24, 1
   8              		.eabi_attribute 25, 1
   9              		.eabi_attribute 26, 1
  10              		.eabi_attribute 30, 1
  11              		.eabi_attribute 34, 1
  12              		.eabi_attribute 18, 4
  13              		.file	"murata-dualstack-example-ns.c"
  14              		.text
  15              	.Ltext0:
  16              		.cfi_sections	.debug_frame
  17              		.section	.text.LoRaWAN_send,"ax",%progbits
  18              		.align	1
  19              		.global	LoRaWAN_send
  20              		.arch armv7e-m
  21              		.syntax unified
  22              		.thumb
  23              		.thumb_func
  24              		.fpu fpv4-sp-d16
  26              	LoRaWAN_send:
  27              	.LVL0:
  28              	.LFB133:
  29              		.file 1 "../../applications/murata-dualstack-example-ns/src/murata-dualstack-example-ns.c"
   1:../../applications/murata-dualstack-example-ns/src/murata-dualstack-example-ns.c **** /* USER CODE BEGIN Header */
   2:../../applications/murata-dualstack-example-ns/src/murata-dualstack-example-ns.c **** /**
   3:../../applications/murata-dualstack-example-ns/src/murata-dualstack-example-ns.c ****   ******************************************************************************
   4:../../applications/murata-dualstack-example-ns/src/murata-dualstack-example-ns.c ****   * @file           : main.c
   5:../../applications/murata-dualstack-example-ns/src/murata-dualstack-example-ns.c ****   * @brief          : Main program body
   6:../../applications/murata-dualstack-example-ns/src/murata-dualstack-example-ns.c ****   ******************************************************************************
   7:../../applications/murata-dualstack-example-ns/src/murata-dualstack-example-ns.c ****   * This notice applies to any and all portions of this file
   8:../../applications/murata-dualstack-example-ns/src/murata-dualstack-example-ns.c ****   * that are not between comment pairs USER CODE BEGIN and
   9:../../applications/murata-dualstack-example-ns/src/murata-dualstack-example-ns.c ****   * USER CODE END. Other portions of this file, whether 
  10:../../applications/murata-dualstack-example-ns/src/murata-dualstack-example-ns.c ****   * inserted by the user or by software development tools
  11:../../applications/murata-dualstack-example-ns/src/murata-dualstack-example-ns.c ****   * are owned by their respective copyright owners.
  12:../../applications/murata-dualstack-example-ns/src/murata-dualstack-example-ns.c ****   *
  13:../../applications/murata-dualstack-example-ns/src/murata-dualstack-example-ns.c ****   * Copyright (c) 2019 STMicroelectronics International N.V. 
  14:../../applications/murata-dualstack-example-ns/src/murata-dualstack-example-ns.c ****   * All rights reserved.
  15:../../applications/murata-dualstack-example-ns/src/murata-dualstack-example-ns.c ****   *
  16:../../applications/murata-dualstack-example-ns/src/murata-dualstack-example-ns.c ****   * Redistribution and use in source and binary forms, with or without 
  17:../../applications/murata-dualstack-example-ns/src/murata-dualstack-example-ns.c ****   * modification, are permitted, provided that the following conditions are met:
  18:../../applications/murata-dualstack-example-ns/src/murata-dualstack-example-ns.c ****   *
  19:../../applications/murata-dualstack-example-ns/src/murata-dualstack-example-ns.c ****   * 1. Redistribution of source code must retain the above copyright notice, 
  20:../../applications/murata-dualstack-example-ns/src/murata-dualstack-example-ns.c ****   *    this list of conditions and the following disclaimer.
  21:../../applications/murata-dualstack-example-ns/src/murata-dualstack-example-ns.c ****   * 2. Redistributions in binary form must reproduce the above copyright notice,
  22:../../applications/murata-dualstack-example-ns/src/murata-dualstack-example-ns.c ****   *    this list of conditions and the following disclaimer in the documentation
  23:../../applications/murata-dualstack-example-ns/src/murata-dualstack-example-ns.c ****   *    and/or other materials provided with the distribution.
  24:../../applications/murata-dualstack-example-ns/src/murata-dualstack-example-ns.c ****   * 3. Neither the name of STMicroelectronics nor the names of other 
  25:../../applications/murata-dualstack-example-ns/src/murata-dualstack-example-ns.c ****   *    contributors to this software may be used to endorse or promote products 
  26:../../applications/murata-dualstack-example-ns/src/murata-dualstack-example-ns.c ****   *    derived from this software without specific written permission.
  27:../../applications/murata-dualstack-example-ns/src/murata-dualstack-example-ns.c ****   * 4. This software, including modifications and/or derivative works of this 
  28:../../applications/murata-dualstack-example-ns/src/murata-dualstack-example-ns.c ****   *    software, must execute solely and exclusively on microcontroller or
  29:../../applications/murata-dualstack-example-ns/src/murata-dualstack-example-ns.c ****   *    microprocessor devices manufactured by or for STMicroelectronics.
ARM GAS  C:\Users\yvesk\AppData\Local\Temp\ccFDdKFl.s 			page 2


  30:../../applications/murata-dualstack-example-ns/src/murata-dualstack-example-ns.c ****   * 5. Redistribution and use of this software other than as permitted under 
  31:../../applications/murata-dualstack-example-ns/src/murata-dualstack-example-ns.c ****   *    this license is void and will automatically terminate your rights under 
  32:../../applications/murata-dualstack-example-ns/src/murata-dualstack-example-ns.c ****   *    this license. 
  33:../../applications/murata-dualstack-example-ns/src/murata-dualstack-example-ns.c ****   *
  34:../../applications/murata-dualstack-example-ns/src/murata-dualstack-example-ns.c ****   * THIS SOFTWARE IS PROVIDED BY STMICROELECTRONICS AND CONTRIBUTORS "AS IS" 
  35:../../applications/murata-dualstack-example-ns/src/murata-dualstack-example-ns.c ****   * AND ANY EXPRESS, IMPLIED OR STATUTORY WARRANTIES, INCLUDING, BUT NOT 
  36:../../applications/murata-dualstack-example-ns/src/murata-dualstack-example-ns.c ****   * LIMITED TO, THE IMPLIED WARRANTIES OF MERCHANTABILITY, FITNESS FOR A 
  37:../../applications/murata-dualstack-example-ns/src/murata-dualstack-example-ns.c ****   * PARTICULAR PURPOSE AND NON-INFRINGEMENT OF THIRD PARTY INTELLECTUAL PROPERTY
  38:../../applications/murata-dualstack-example-ns/src/murata-dualstack-example-ns.c ****   * RIGHTS ARE DISCLAIMED TO THE FULLEST EXTENT PERMITTED BY LAW. IN NO EVENT 
  39:../../applications/murata-dualstack-example-ns/src/murata-dualstack-example-ns.c ****   * SHALL STMICROELECTRONICS OR CONTRIBUTORS BE LIABLE FOR ANY DIRECT, INDIRECT,
  40:../../applications/murata-dualstack-example-ns/src/murata-dualstack-example-ns.c ****   * INCIDENTAL, SPECIAL, EXEMPLARY, OR CONSEQUENTIAL DAMAGES (INCLUDING, BUT NOT
  41:../../applications/murata-dualstack-example-ns/src/murata-dualstack-example-ns.c ****   * LIMITED TO, PROCUREMENT OF SUBSTITUTE GOODS OR SERVICES; LOSS OF USE, DATA, 
  42:../../applications/murata-dualstack-example-ns/src/murata-dualstack-example-ns.c ****   * OR PROFITS; OR BUSINESS INTERRUPTION) HOWEVER CAUSED AND ON ANY THEORY OF 
  43:../../applications/murata-dualstack-example-ns/src/murata-dualstack-example-ns.c ****   * LIABILITY, WHETHER IN CONTRACT, STRICT LIABILITY, OR TORT (INCLUDING 
  44:../../applications/murata-dualstack-example-ns/src/murata-dualstack-example-ns.c ****   * NEGLIGENCE OR OTHERWISE) ARISING IN ANY WAY OUT OF THE USE OF THIS SOFTWARE,
  45:../../applications/murata-dualstack-example-ns/src/murata-dualstack-example-ns.c ****   * EVEN IF ADVISED OF THE POSSIBILITY OF SUCH DAMAGE.
  46:../../applications/murata-dualstack-example-ns/src/murata-dualstack-example-ns.c ****   *
  47:../../applications/murata-dualstack-example-ns/src/murata-dualstack-example-ns.c ****   ******************************************************************************
  48:../../applications/murata-dualstack-example-ns/src/murata-dualstack-example-ns.c ****   */
  49:../../applications/murata-dualstack-example-ns/src/murata-dualstack-example-ns.c **** /* USER CODE END Header */
  50:../../applications/murata-dualstack-example-ns/src/murata-dualstack-example-ns.c **** 
  51:../../applications/murata-dualstack-example-ns/src/murata-dualstack-example-ns.c **** /* Includes ------------------------------------------------------------------*/
  52:../../applications/murata-dualstack-example-ns/src/murata-dualstack-example-ns.c **** #include "murata-dualstack-example-ns.h"
  53:../../applications/murata-dualstack-example-ns/src/murata-dualstack-example-ns.c **** 
  54:../../applications/murata-dualstack-example-ns/src/murata-dualstack-example-ns.c **** /* Private includes ----------------------------------------------------------*/
  55:../../applications/murata-dualstack-example-ns/src/murata-dualstack-example-ns.c **** /* USER CODE BEGIN Includes */
  56:../../applications/murata-dualstack-example-ns/src/murata-dualstack-example-ns.c **** //#include "murata.h"
  57:../../applications/murata-dualstack-example-ns/src/murata-dualstack-example-ns.c **** #include "C:\Users\yvesk\Documents\Academiejaar 2019-2020\IOT\Practicum\octa-stack-students-master\
  58:../../applications/murata-dualstack-example-ns/src/murata-dualstack-example-ns.c **** #include <stdio.h>
  59:../../applications/murata-dualstack-example-ns/src/murata-dualstack-example-ns.c **** #include "C:\Users\yvesk\Documents\Academiejaar 2019-2020\IOT\Practicum\Project_code\shields\Murata
  60:../../applications/murata-dualstack-example-ns/src/murata-dualstack-example-ns.c **** #include "C:\Users\yvesk\Documents\Academiejaar 2019-2020\IOT\Practicum\Project_code\core\drivers\S
  61:../../applications/murata-dualstack-example-ns/src/murata-dualstack-example-ns.c **** //#include "murata.h"
  62:../../applications/murata-dualstack-example-ns/src/murata-dualstack-example-ns.c **** 
  63:../../applications/murata-dualstack-example-ns/src/murata-dualstack-example-ns.c **** /* USER CODE END Includes */
  64:../../applications/murata-dualstack-example-ns/src/murata-dualstack-example-ns.c **** 
  65:../../applications/murata-dualstack-example-ns/src/murata-dualstack-example-ns.c **** /* Private typedef -----------------------------------------------------------*/
  66:../../applications/murata-dualstack-example-ns/src/murata-dualstack-example-ns.c **** /* USER CODE BEGIN PTD */
  67:../../applications/murata-dualstack-example-ns/src/murata-dualstack-example-ns.c **** 
  68:../../applications/murata-dualstack-example-ns/src/murata-dualstack-example-ns.c **** /* USER CODE END PTD */
  69:../../applications/murata-dualstack-example-ns/src/murata-dualstack-example-ns.c **** 
  70:../../applications/murata-dualstack-example-ns/src/murata-dualstack-example-ns.c **** /* Private define ------------------------------------------------------------*/
  71:../../applications/murata-dualstack-example-ns/src/murata-dualstack-example-ns.c **** /* USER CODE BEGIN PD */
  72:../../applications/murata-dualstack-example-ns/src/murata-dualstack-example-ns.c **** #define IWDG_INTERVAL           5    //seconds
  73:../../applications/murata-dualstack-example-ns/src/murata-dualstack-example-ns.c **** #define LORAWAN_INTERVAL        60   //seconds
  74:../../applications/murata-dualstack-example-ns/src/murata-dualstack-example-ns.c **** #define DASH7_INTERVAL          20  //seconds
  75:../../applications/murata-dualstack-example-ns/src/murata-dualstack-example-ns.c **** #define MODULE_CHECK_INTERVAL   3600 //seconds
  76:../../applications/murata-dualstack-example-ns/src/murata-dualstack-example-ns.c **** 
  77:../../applications/murata-dualstack-example-ns/src/murata-dualstack-example-ns.c **** #define HAL_EXTI_MODULE_ENABLED
  78:../../applications/murata-dualstack-example-ns/src/murata-dualstack-example-ns.c **** #define temp_hum_timer    3
  79:../../applications/murata-dualstack-example-ns/src/murata-dualstack-example-ns.c **** 
  80:../../applications/murata-dualstack-example-ns/src/murata-dualstack-example-ns.c **** /* USER CODE END PD */
  81:../../applications/murata-dualstack-example-ns/src/murata-dualstack-example-ns.c **** 
  82:../../applications/murata-dualstack-example-ns/src/murata-dualstack-example-ns.c **** /* Private macro -------------------------------------------------------------*/
  83:../../applications/murata-dualstack-example-ns/src/murata-dualstack-example-ns.c **** /* USER CODE BEGIN PM */
  84:../../applications/murata-dualstack-example-ns/src/murata-dualstack-example-ns.c **** 
  85:../../applications/murata-dualstack-example-ns/src/murata-dualstack-example-ns.c **** /* USER CODE END PM */
  86:../../applications/murata-dualstack-example-ns/src/murata-dualstack-example-ns.c **** 
ARM GAS  C:\Users\yvesk\AppData\Local\Temp\ccFDdKFl.s 			page 3


  87:../../applications/murata-dualstack-example-ns/src/murata-dualstack-example-ns.c **** /* Private user code ---------------------------------------------------------*/
  88:../../applications/murata-dualstack-example-ns/src/murata-dualstack-example-ns.c **** /* USER CODE BEGIN 0 */
  89:../../applications/murata-dualstack-example-ns/src/murata-dualstack-example-ns.c **** uint16_t LoRaWAN_Counter = 0;
  90:../../applications/murata-dualstack-example-ns/src/murata-dualstack-example-ns.c **** uint16_t DASH7_Counter = 0;
  91:../../applications/murata-dualstack-example-ns/src/murata-dualstack-example-ns.c **** uint8_t murata_init = 0;
  92:../../applications/murata-dualstack-example-ns/src/murata-dualstack-example-ns.c **** uint64_t short_UID;
  93:../../applications/murata-dualstack-example-ns/src/murata-dualstack-example-ns.c **** uint8_t murata_data_ready = 0;
  94:../../applications/murata-dualstack-example-ns/src/murata-dualstack-example-ns.c **** 
  95:../../applications/murata-dualstack-example-ns/src/murata-dualstack-example-ns.c **** //Zelf
  96:../../applications/murata-dualstack-example-ns/src/murata-dualstack-example-ns.c **** uint16_t rep_counter = 0; 
  97:../../applications/murata-dualstack-example-ns/src/murata-dualstack-example-ns.c **** float SHTData[2];
  98:../../applications/murata-dualstack-example-ns/src/murata-dualstack-example-ns.c **** uint8_t data; 
  99:../../applications/murata-dualstack-example-ns/src/murata-dualstack-example-ns.c **** volatile _Bool temperatureflag=0; 
 100:../../applications/murata-dualstack-example-ns/src/murata-dualstack-example-ns.c **** /* USER CODE END 0 */
 101:../../applications/murata-dualstack-example-ns/src/murata-dualstack-example-ns.c **** 
 102:../../applications/murata-dualstack-example-ns/src/murata-dualstack-example-ns.c **** /**
 103:../../applications/murata-dualstack-example-ns/src/murata-dualstack-example-ns.c ****   * @brief  The application entry point.
 104:../../applications/murata-dualstack-example-ns/src/murata-dualstack-example-ns.c ****   * @retval int
 105:../../applications/murata-dualstack-example-ns/src/murata-dualstack-example-ns.c ****   */
 106:../../applications/murata-dualstack-example-ns/src/murata-dualstack-example-ns.c **** int main(void)
 107:../../applications/murata-dualstack-example-ns/src/murata-dualstack-example-ns.c **** {
 108:../../applications/murata-dualstack-example-ns/src/murata-dualstack-example-ns.c ****   /* USER CODE BEGIN 1 */
 109:../../applications/murata-dualstack-example-ns/src/murata-dualstack-example-ns.c **** 
 110:../../applications/murata-dualstack-example-ns/src/murata-dualstack-example-ns.c ****   /* USER CODE END 1 */
 111:../../applications/murata-dualstack-example-ns/src/murata-dualstack-example-ns.c **** 
 112:../../applications/murata-dualstack-example-ns/src/murata-dualstack-example-ns.c ****   /* MCU Configuration--------------------------------------------------------*/
 113:../../applications/murata-dualstack-example-ns/src/murata-dualstack-example-ns.c **** 
 114:../../applications/murata-dualstack-example-ns/src/murata-dualstack-example-ns.c ****   /* Reset of all peripherals, Initializes the Flash interface and the Systick. */
 115:../../applications/murata-dualstack-example-ns/src/murata-dualstack-example-ns.c ****   HAL_Init();
 116:../../applications/murata-dualstack-example-ns/src/murata-dualstack-example-ns.c **** 
 117:../../applications/murata-dualstack-example-ns/src/murata-dualstack-example-ns.c ****   /* USER CODE BEGIN Init */
 118:../../applications/murata-dualstack-example-ns/src/murata-dualstack-example-ns.c **** 
 119:../../applications/murata-dualstack-example-ns/src/murata-dualstack-example-ns.c ****   /* USER CODE END Init */
 120:../../applications/murata-dualstack-example-ns/src/murata-dualstack-example-ns.c **** 
 121:../../applications/murata-dualstack-example-ns/src/murata-dualstack-example-ns.c ****   /* Configure the system clock */
 122:../../applications/murata-dualstack-example-ns/src/murata-dualstack-example-ns.c ****   SystemClock_Config();
 123:../../applications/murata-dualstack-example-ns/src/murata-dualstack-example-ns.c **** 
 124:../../applications/murata-dualstack-example-ns/src/murata-dualstack-example-ns.c ****   /* USER CODE BEGIN SysInit */
 125:../../applications/murata-dualstack-example-ns/src/murata-dualstack-example-ns.c **** 
 126:../../applications/murata-dualstack-example-ns/src/murata-dualstack-example-ns.c ****   /* USER CODE END SysInit */
 127:../../applications/murata-dualstack-example-ns/src/murata-dualstack-example-ns.c **** 
 128:../../applications/murata-dualstack-example-ns/src/murata-dualstack-example-ns.c ****   /* Initialize the platform, OCTA in this case */
 129:../../applications/murata-dualstack-example-ns/src/murata-dualstack-example-ns.c ****   Initialize_Platform();
 130:../../applications/murata-dualstack-example-ns/src/murata-dualstack-example-ns.c ****   /* USER CODE BEGIN 2 */
 131:../../applications/murata-dualstack-example-ns/src/murata-dualstack-example-ns.c **** 
 132:../../applications/murata-dualstack-example-ns/src/murata-dualstack-example-ns.c ****   // Get Unique ID of octa
 133:../../applications/murata-dualstack-example-ns/src/murata-dualstack-example-ns.c ****   short_UID = get_UID();
 134:../../applications/murata-dualstack-example-ns/src/murata-dualstack-example-ns.c **** 
 135:../../applications/murata-dualstack-example-ns/src/murata-dualstack-example-ns.c ****   //LSM30AGR (accelerometer)
 136:../../applications/murata-dualstack-example-ns/src/murata-dualstack-example-ns.c ****   LSM303AGR_setI2CInterface(&common_I2C);
 137:../../applications/murata-dualstack-example-ns/src/murata-dualstack-example-ns.c ****   setI2CInterface_SHT31(&common_I2C);
 138:../../applications/murata-dualstack-example-ns/src/murata-dualstack-example-ns.c ****   SHT31_begin(); 
 139:../../applications/murata-dualstack-example-ns/src/murata-dualstack-example-ns.c ****   LSM303AGR_init();
 140:../../applications/murata-dualstack-example-ns/src/murata-dualstack-example-ns.c **** 
 141:../../applications/murata-dualstack-example-ns/src/murata-dualstack-example-ns.c ****   // Print Welcome Message
 142:../../applications/murata-dualstack-example-ns/src/murata-dualstack-example-ns.c ****   printWelcome();
 143:../../applications/murata-dualstack-example-ns/src/murata-dualstack-example-ns.c ****   
ARM GAS  C:\Users\yvesk\AppData\Local\Temp\ccFDdKFl.s 			page 4


 144:../../applications/murata-dualstack-example-ns/src/murata-dualstack-example-ns.c ****   // LORAWAN
 145:../../applications/murata-dualstack-example-ns/src/murata-dualstack-example-ns.c ****   murata_init = Murata_Initialize(short_UID, 0);
 146:../../applications/murata-dualstack-example-ns/src/murata-dualstack-example-ns.c **** 
 147:../../applications/murata-dualstack-example-ns/src/murata-dualstack-example-ns.c ****   if (murata_init)
 148:../../applications/murata-dualstack-example-ns/src/murata-dualstack-example-ns.c ****   {
 149:../../applications/murata-dualstack-example-ns/src/murata-dualstack-example-ns.c ****     printf("Murata dualstack module init OK\r\n\r\n");
 150:../../applications/murata-dualstack-example-ns/src/murata-dualstack-example-ns.c ****   }
 151:../../applications/murata-dualstack-example-ns/src/murata-dualstack-example-ns.c **** 
 152:../../applications/murata-dualstack-example-ns/src/murata-dualstack-example-ns.c **** 
 153:../../applications/murata-dualstack-example-ns/src/murata-dualstack-example-ns.c ****   /* USER CODE END 2 */
 154:../../applications/murata-dualstack-example-ns/src/murata-dualstack-example-ns.c **** 
 155:../../applications/murata-dualstack-example-ns/src/murata-dualstack-example-ns.c ****   /* USER CODE BEGIN RTOS_MUTEX */
 156:../../applications/murata-dualstack-example-ns/src/murata-dualstack-example-ns.c ****   /* add mutexes, ... */
 157:../../applications/murata-dualstack-example-ns/src/murata-dualstack-example-ns.c **** 
 158:../../applications/murata-dualstack-example-ns/src/murata-dualstack-example-ns.c ****   // TX MUTEX ensuring no transmits are happening at the same time
 159:../../applications/murata-dualstack-example-ns/src/murata-dualstack-example-ns.c **** 
 160:../../applications/murata-dualstack-example-ns/src/murata-dualstack-example-ns.c ****   /* USER CODE END RTOS_MUTEX */
 161:../../applications/murata-dualstack-example-ns/src/murata-dualstack-example-ns.c **** 
 162:../../applications/murata-dualstack-example-ns/src/murata-dualstack-example-ns.c ****   /* USER CODE BEGIN RTOS_SEMAPHORES */
 163:../../applications/murata-dualstack-example-ns/src/murata-dualstack-example-ns.c ****   /* add semaphores, ... */
 164:../../applications/murata-dualstack-example-ns/src/murata-dualstack-example-ns.c ****   /* USER CODE END RTOS_SEMAPHORES */
 165:../../applications/murata-dualstack-example-ns/src/murata-dualstack-example-ns.c **** 
 166:../../applications/murata-dualstack-example-ns/src/murata-dualstack-example-ns.c ****   /* Create the thread(s) */
 167:../../applications/murata-dualstack-example-ns/src/murata-dualstack-example-ns.c **** 
 168:../../applications/murata-dualstack-example-ns/src/murata-dualstack-example-ns.c ****   /* USER CODE BEGIN RTOS_TIMERS */
 169:../../applications/murata-dualstack-example-ns/src/murata-dualstack-example-ns.c ****   /* start timers, add new ones, ... */
 170:../../applications/murata-dualstack-example-ns/src/murata-dualstack-example-ns.c **** 
 171:../../applications/murata-dualstack-example-ns/src/murata-dualstack-example-ns.c ****   //feed IWDG every 5 seconds
 172:../../applications/murata-dualstack-example-ns/src/murata-dualstack-example-ns.c ****   IWDG_feed(NULL);
 173:../../applications/murata-dualstack-example-ns/src/murata-dualstack-example-ns.c **** 
 174:../../applications/murata-dualstack-example-ns/src/murata-dualstack-example-ns.c ****   /* USER CODE END RTOS_TIMERS */
 175:../../applications/murata-dualstack-example-ns/src/murata-dualstack-example-ns.c **** 
 176:../../applications/murata-dualstack-example-ns/src/murata-dualstack-example-ns.c ****   /* USER CODE BEGIN RTOS_THREADS */
 177:../../applications/murata-dualstack-example-ns/src/murata-dualstack-example-ns.c ****   /* add threads, ... */
 178:../../applications/murata-dualstack-example-ns/src/murata-dualstack-example-ns.c **** 
 179:../../applications/murata-dualstack-example-ns/src/murata-dualstack-example-ns.c ****   /* USER CODE END RTOS_THREADS */
 180:../../applications/murata-dualstack-example-ns/src/murata-dualstack-example-ns.c **** 
 181:../../applications/murata-dualstack-example-ns/src/murata-dualstack-example-ns.c ****   /* USER CODE BEGIN RTOS_QUEUES */
 182:../../applications/murata-dualstack-example-ns/src/murata-dualstack-example-ns.c ****   /* add queues, ... */
 183:../../applications/murata-dualstack-example-ns/src/murata-dualstack-example-ns.c ****   /* USER CODE END RTOS_QUEUES */
 184:../../applications/murata-dualstack-example-ns/src/murata-dualstack-example-ns.c **** 
 185:../../applications/murata-dualstack-example-ns/src/murata-dualstack-example-ns.c ****   /* Start scheduler */
 186:../../applications/murata-dualstack-example-ns/src/murata-dualstack-example-ns.c **** 
 187:../../applications/murata-dualstack-example-ns/src/murata-dualstack-example-ns.c ****   /* We should never get here as control is now taken by the scheduler */
 188:../../applications/murata-dualstack-example-ns/src/murata-dualstack-example-ns.c **** 
 189:../../applications/murata-dualstack-example-ns/src/murata-dualstack-example-ns.c ****   /* Infinite loop */
 190:../../applications/murata-dualstack-example-ns/src/murata-dualstack-example-ns.c ****   uint8_t counter = 0;
 191:../../applications/murata-dualstack-example-ns/src/murata-dualstack-example-ns.c ****   uint8_t use_lora = 1;
 192:../../applications/murata-dualstack-example-ns/src/murata-dualstack-example-ns.c ****   /* USER CODE BEGIN WHILE */
 193:../../applications/murata-dualstack-example-ns/src/murata-dualstack-example-ns.c ****   while (1)
 194:../../applications/murata-dualstack-example-ns/src/murata-dualstack-example-ns.c ****   { 
 195:../../applications/murata-dualstack-example-ns/src/murata-dualstack-example-ns.c ****     IWDG_feed(NULL);
 196:../../applications/murata-dualstack-example-ns/src/murata-dualstack-example-ns.c **** 
 197:../../applications/murata-dualstack-example-ns/src/murata-dualstack-example-ns.c ****     if(murata_data_ready)
 198:../../applications/murata-dualstack-example-ns/src/murata-dualstack-example-ns.c ****     {
 199:../../applications/murata-dualstack-example-ns/src/murata-dualstack-example-ns.c ****       printf("processing murata fifo\r\n");
 200:../../applications/murata-dualstack-example-ns/src/murata-dualstack-example-ns.c ****       murata_data_ready = !Murata_process_fifo();
ARM GAS  C:\Users\yvesk\AppData\Local\Temp\ccFDdKFl.s 			page 5


 201:../../applications/murata-dualstack-example-ns/src/murata-dualstack-example-ns.c ****     }
 202:../../applications/murata-dualstack-example-ns/src/murata-dualstack-example-ns.c **** 
 203:../../applications/murata-dualstack-example-ns/src/murata-dualstack-example-ns.c **** 
 204:../../applications/murata-dualstack-example-ns/src/murata-dualstack-example-ns.c ****     //------gekopieerd van no-scheduler-example------
 205:../../applications/murata-dualstack-example-ns/src/murata-dualstack-example-ns.c ****      IWDG_feed(NULL); 
 206:../../applications/murata-dualstack-example-ns/src/murata-dualstack-example-ns.c ****     
 207:../../applications/murata-dualstack-example-ns/src/murata-dualstack-example-ns.c ****     //LSM303AGR_readRegister(0x31, data, 0);
 208:../../applications/murata-dualstack-example-ns/src/murata-dualstack-example-ns.c **** 
 209:../../applications/murata-dualstack-example-ns/src/murata-dualstack-example-ns.c ****     //de interrupt zal zorgen dat de flag op 1 staat, dan doen we een measurement van temp
 210:../../applications/murata-dualstack-example-ns/src/murata-dualstack-example-ns.c ****     if (temperatureflag==1) {
 211:../../applications/murata-dualstack-example-ns/src/murata-dualstack-example-ns.c ****       // Request to enter SLEEP mode
 212:../../applications/murata-dualstack-example-ns/src/murata-dualstack-example-ns.c **** 
 213:../../applications/murata-dualstack-example-ns/src/murata-dualstack-example-ns.c ****       rep_counter++; 
 214:../../applications/murata-dualstack-example-ns/src/murata-dualstack-example-ns.c ****       printf("%d,\r\n\r\n",rep_counter);
 215:../../applications/murata-dualstack-example-ns/src/murata-dualstack-example-ns.c **** 
 216:../../applications/murata-dualstack-example-ns/src/murata-dualstack-example-ns.c **** 
 217:../../applications/murata-dualstack-example-ns/src/murata-dualstack-example-ns.c ****       if (rep_counter==4) {
 218:../../applications/murata-dualstack-example-ns/src/murata-dualstack-example-ns.c ****         printf("going into sleepmode\r\n"); 
 219:../../applications/murata-dualstack-example-ns/src/murata-dualstack-example-ns.c ****       //HAL_PWR_EnterStopmode(PWR_MAINREGULATOR_ON, PWR_SLEEPENTRY_WFI);
 220:../../applications/murata-dualstack-example-ns/src/murata-dualstack-example-ns.c ****       HAL_PWR_EnterStopmode(PWR_MAINREGULATOR_ON, PWR_SLEEPENTRY_WFI);
 221:../../applications/murata-dualstack-example-ns/src/murata-dualstack-example-ns.c ****       printf(" into sleepmode gegaan\r\n"); 
 222:../../applications/murata-dualstack-example-ns/src/murata-dualstack-example-ns.c ****       }
 223:../../applications/murata-dualstack-example-ns/src/murata-dualstack-example-ns.c **** 
 224:../../applications/murata-dualstack-example-ns/src/murata-dualstack-example-ns.c ****       murata_init=Murata_Initialize(short_UID,0);
 225:../../applications/murata-dualstack-example-ns/src/murata-dualstack-example-ns.c **** 
 226:../../applications/murata-dualstack-example-ns/src/murata-dualstack-example-ns.c ****       if (murata_init) {
 227:../../applications/murata-dualstack-example-ns/src/murata-dualstack-example-ns.c ****         printf("Lorawan module init ok\r\n\r\n");
 228:../../applications/murata-dualstack-example-ns/src/murata-dualstack-example-ns.c ****       
 229:../../applications/murata-dualstack-example-ns/src/murata-dualstack-example-ns.c ****           temp_hum_measurement();
 230:../../applications/murata-dualstack-example-ns/src/murata-dualstack-example-ns.c ****           //LoRaWAN_send(&payload);
 231:../../applications/murata-dualstack-example-ns/src/murata-dualstack-example-ns.c ****         //LoRaWAN_send_self();
 232:../../applications/murata-dualstack-example-ns/src/murata-dualstack-example-ns.c ****         
 233:../../applications/murata-dualstack-example-ns/src/murata-dualstack-example-ns.c ****         Dash7_send_temphum(); 
 234:../../applications/murata-dualstack-example-ns/src/murata-dualstack-example-ns.c ****         //LoRaWAN_send_temphum(); 
 235:../../applications/murata-dualstack-example-ns/src/murata-dualstack-example-ns.c **** 
 236:../../applications/murata-dualstack-example-ns/src/murata-dualstack-example-ns.c ****       }
 237:../../applications/murata-dualstack-example-ns/src/murata-dualstack-example-ns.c ****       
 238:../../applications/murata-dualstack-example-ns/src/murata-dualstack-example-ns.c ****         
 239:../../applications/murata-dualstack-example-ns/src/murata-dualstack-example-ns.c ****         //murata_process_rx_response();
 240:../../applications/murata-dualstack-example-ns/src/murata-dualstack-example-ns.c ****           temperatureflag=0; 
 241:../../applications/murata-dualstack-example-ns/src/murata-dualstack-example-ns.c ****     //     lora_init=Murata_Initialize(short_UID);
 242:../../applications/murata-dualstack-example-ns/src/murata-dualstack-example-ns.c ****     } 
 243:../../applications/murata-dualstack-example-ns/src/murata-dualstack-example-ns.c ****     
 244:../../applications/murata-dualstack-example-ns/src/murata-dualstack-example-ns.c ****     // SEND 5 D7 messages, every 10 sec.
 245:../../applications/murata-dualstack-example-ns/src/murata-dualstack-example-ns.c ****     // Afterwards, send 3 LoRaWAN messages, every minute
 246:../../applications/murata-dualstack-example-ns/src/murata-dualstack-example-ns.c ****     /* if(DASH7_Counter<5)
 247:../../applications/murata-dualstack-example-ns/src/murata-dualstack-example-ns.c ****     {
 248:../../applications/murata-dualstack-example-ns/src/murata-dualstack-example-ns.c ****       if(counter==DASH7_INTERVAL)
 249:../../applications/murata-dualstack-example-ns/src/murata-dualstack-example-ns.c ****       {
 250:../../applications/murata-dualstack-example-ns/src/murata-dualstack-example-ns.c ****         Dash7_send(NULL);
 251:../../applications/murata-dualstack-example-ns/src/murata-dualstack-example-ns.c ****         counter = 0;
 252:../../applications/murata-dualstack-example-ns/src/murata-dualstack-example-ns.c ****       }
 253:../../applications/murata-dualstack-example-ns/src/murata-dualstack-example-ns.c ****     }
 254:../../applications/murata-dualstack-example-ns/src/murata-dualstack-example-ns.c ****     else
 255:../../applications/murata-dualstack-example-ns/src/murata-dualstack-example-ns.c ****     { 
 256:../../applications/murata-dualstack-example-ns/src/murata-dualstack-example-ns.c ****       if(LoRaWAN_Counter == 0)
 257:../../applications/murata-dualstack-example-ns/src/murata-dualstack-example-ns.c ****         Murata_LoRaWAN_Join();
ARM GAS  C:\Users\yvesk\AppData\Local\Temp\ccFDdKFl.s 			page 6


 258:../../applications/murata-dualstack-example-ns/src/murata-dualstack-example-ns.c ****       if(LoRaWAN_Counter<3)
 259:../../applications/murata-dualstack-example-ns/src/murata-dualstack-example-ns.c ****       {
 260:../../applications/murata-dualstack-example-ns/src/murata-dualstack-example-ns.c ****         if (counter == LORAWAN_INTERVAL)
 261:../../applications/murata-dualstack-example-ns/src/murata-dualstack-example-ns.c ****         {
 262:../../applications/murata-dualstack-example-ns/src/murata-dualstack-example-ns.c ****           LoRaWAN_send(NULL);
 263:../../applications/murata-dualstack-example-ns/src/murata-dualstack-example-ns.c ****           counter = 0;
 264:../../applications/murata-dualstack-example-ns/src/murata-dualstack-example-ns.c ****         }
 265:../../applications/murata-dualstack-example-ns/src/murata-dualstack-example-ns.c ****       }
 266:../../applications/murata-dualstack-example-ns/src/murata-dualstack-example-ns.c ****       if(LoRaWAN_Counter == 3)
 267:../../applications/murata-dualstack-example-ns/src/murata-dualstack-example-ns.c ****       {
 268:../../applications/murata-dualstack-example-ns/src/murata-dualstack-example-ns.c ****         //reset counters to restart flow
 269:../../applications/murata-dualstack-example-ns/src/murata-dualstack-example-ns.c ****         DASH7_Counter = 0;
 270:../../applications/murata-dualstack-example-ns/src/murata-dualstack-example-ns.c ****         LoRaWAN_Counter = 0;
 271:../../applications/murata-dualstack-example-ns/src/murata-dualstack-example-ns.c ****       }
 272:../../applications/murata-dualstack-example-ns/src/murata-dualstack-example-ns.c ****     }
 273:../../applications/murata-dualstack-example-ns/src/murata-dualstack-example-ns.c ****    
 274:../../applications/murata-dualstack-example-ns/src/murata-dualstack-example-ns.c ****     counter++; */
 275:../../applications/murata-dualstack-example-ns/src/murata-dualstack-example-ns.c ****     HAL_Delay(1000);
 276:../../applications/murata-dualstack-example-ns/src/murata-dualstack-example-ns.c ****     
 277:../../applications/murata-dualstack-example-ns/src/murata-dualstack-example-ns.c **** 
 278:../../applications/murata-dualstack-example-ns/src/murata-dualstack-example-ns.c ****     /* USER CODE END WHILE */
 279:../../applications/murata-dualstack-example-ns/src/murata-dualstack-example-ns.c ****     
 280:../../applications/murata-dualstack-example-ns/src/murata-dualstack-example-ns.c ****     /* USER CODE BEGIN 3 */
 281:../../applications/murata-dualstack-example-ns/src/murata-dualstack-example-ns.c ****   }
 282:../../applications/murata-dualstack-example-ns/src/murata-dualstack-example-ns.c ****   /* USER CODE END 3 */
 283:../../applications/murata-dualstack-example-ns/src/murata-dualstack-example-ns.c **** }
 284:../../applications/murata-dualstack-example-ns/src/murata-dualstack-example-ns.c **** 
 285:../../applications/murata-dualstack-example-ns/src/murata-dualstack-example-ns.c **** 
 286:../../applications/murata-dualstack-example-ns/src/murata-dualstack-example-ns.c **** void LoRaWAN_send(void const *argument)
 287:../../applications/murata-dualstack-example-ns/src/murata-dualstack-example-ns.c **** {
  30              		.loc 1 287 1 view -0
  31              		.cfi_startproc
  32              		@ args = 0, pretend = 0, frame = 8
  33              		@ frame_needed = 0, uses_anonymous_args = 0
  34              		.loc 1 287 1 is_stmt 0 view .LVU1
  35 0000 00B5     		push	{lr}
  36              	.LCFI0:
  37              		.cfi_def_cfa_offset 4
  38              		.cfi_offset 14, -4
  39 0002 83B0     		sub	sp, sp, #12
  40              	.LCFI1:
  41              		.cfi_def_cfa_offset 16
 288:../../applications/murata-dualstack-example-ns/src/murata-dualstack-example-ns.c ****   if (murata_init)
  42              		.loc 1 288 3 is_stmt 1 view .LVU2
  43              		.loc 1 288 7 is_stmt 0 view .LVU3
  44 0004 124B     		ldr	r3, .L7
  45 0006 1B78     		ldrb	r3, [r3]	@ zero_extendqisi2
  46              		.loc 1 288 6 view .LVU4
  47 0008 EBB1     		cbz	r3, .L2
  48              	.LBB2:
 289:../../applications/murata-dualstack-example-ns/src/murata-dualstack-example-ns.c ****   {
 290:../../applications/murata-dualstack-example-ns/src/murata-dualstack-example-ns.c ****     uint8_t loraMessage[5];
  49              		.loc 1 290 5 is_stmt 1 view .LVU5
 291:../../applications/murata-dualstack-example-ns/src/murata-dualstack-example-ns.c ****     uint8_t i = 0;
  50              		.loc 1 291 5 view .LVU6
  51              	.LVL1:
 292:../../applications/murata-dualstack-example-ns/src/murata-dualstack-example-ns.c ****     //uint16 counter to uint8 array (little endian)
ARM GAS  C:\Users\yvesk\AppData\Local\Temp\ccFDdKFl.s 			page 7


 293:../../applications/murata-dualstack-example-ns/src/murata-dualstack-example-ns.c ****     //counter (large) type byte
 294:../../applications/murata-dualstack-example-ns/src/murata-dualstack-example-ns.c ****     loraMessage[i++] = 0x14;
  52              		.loc 1 294 5 view .LVU7
  53              		.loc 1 294 22 is_stmt 0 view .LVU8
  54 000a 1423     		movs	r3, #20
  55 000c 8DF80030 		strb	r3, [sp]
 295:../../applications/murata-dualstack-example-ns/src/murata-dualstack-example-ns.c ****     loraMessage[i++] = LoRaWAN_Counter;
  56              		.loc 1 295 5 is_stmt 1 view .LVU9
  57              		.loc 1 295 22 is_stmt 0 view .LVU10
  58 0010 104B     		ldr	r3, .L7+4
  59 0012 1B88     		ldrh	r3, [r3]
  60              	.LVL2:
  61              		.loc 1 295 22 view .LVU11
  62 0014 8DF80130 		strb	r3, [sp, #1]
 296:../../applications/murata-dualstack-example-ns/src/murata-dualstack-example-ns.c ****     loraMessage[i++] = LoRaWAN_Counter >> 8;
  63              		.loc 1 296 5 is_stmt 1 view .LVU12
  64              	.LVL3:
  65              		.loc 1 296 22 is_stmt 0 view .LVU13
  66 0018 1B0A     		lsrs	r3, r3, #8
  67 001a 8DF80230 		strb	r3, [sp, #2]
 297:../../applications/murata-dualstack-example-ns/src/murata-dualstack-example-ns.c ****     //osMutexWait(txMutexId, osWaitForever);
 298:../../applications/murata-dualstack-example-ns/src/murata-dualstack-example-ns.c ****     if(!Murata_LoRaWAN_Send((uint8_t *)loraMessage, i))
  68              		.loc 1 298 5 is_stmt 1 view .LVU14
  69              		.loc 1 298 9 is_stmt 0 view .LVU15
  70 001e 0321     		movs	r1, #3
  71 0020 6846     		mov	r0, sp
  72              	.LVL4:
  73              		.loc 1 298 9 view .LVU16
  74 0022 FFF7FEFF 		bl	Murata_LoRaWAN_Send
  75              	.LVL5:
  76              		.loc 1 298 7 view .LVU17
  77 0026 50B9     		cbnz	r0, .L3
 299:../../applications/murata-dualstack-example-ns/src/murata-dualstack-example-ns.c ****     {
 300:../../applications/murata-dualstack-example-ns/src/murata-dualstack-example-ns.c ****       murata_init++;
  78              		.loc 1 300 7 is_stmt 1 view .LVU18
  79              		.loc 1 300 18 is_stmt 0 view .LVU19
  80 0028 094A     		ldr	r2, .L7
  81 002a 1378     		ldrb	r3, [r2]	@ zero_extendqisi2
  82 002c 0133     		adds	r3, r3, #1
  83 002e 1370     		strb	r3, [r2]
 301:../../applications/murata-dualstack-example-ns/src/murata-dualstack-example-ns.c ****       if(murata_init == 10)
  84              		.loc 1 301 7 is_stmt 1 view .LVU20
  85              	.L4:
 302:../../applications/murata-dualstack-example-ns/src/murata-dualstack-example-ns.c ****         murata_init == 0;
 303:../../applications/murata-dualstack-example-ns/src/murata-dualstack-example-ns.c ****     }
 304:../../applications/murata-dualstack-example-ns/src/murata-dualstack-example-ns.c ****     else
 305:../../applications/murata-dualstack-example-ns/src/murata-dualstack-example-ns.c ****     {
 306:../../applications/murata-dualstack-example-ns/src/murata-dualstack-example-ns.c ****       murata_init = 1;
 307:../../applications/murata-dualstack-example-ns/src/murata-dualstack-example-ns.c ****     }
 308:../../applications/murata-dualstack-example-ns/src/murata-dualstack-example-ns.c ****     //BLOCK TX MUTEX FOR 3s
 309:../../applications/murata-dualstack-example-ns/src/murata-dualstack-example-ns.c ****     //osDelay(3000);
 310:../../applications/murata-dualstack-example-ns/src/murata-dualstack-example-ns.c ****     //osMutexRelease(txMutexId);
 311:../../applications/murata-dualstack-example-ns/src/murata-dualstack-example-ns.c ****     LoRaWAN_Counter++;
  86              		.loc 1 311 5 discriminator 1 view .LVU21
  87              		.loc 1 311 20 is_stmt 0 discriminator 1 view .LVU22
  88 0030 084A     		ldr	r2, .L7+4
  89 0032 1388     		ldrh	r3, [r2]
ARM GAS  C:\Users\yvesk\AppData\Local\Temp\ccFDdKFl.s 			page 8


  90 0034 0133     		adds	r3, r3, #1
  91 0036 1380     		strh	r3, [r2]	@ movhi
  92              	.LVL6:
  93              	.L1:
  94              		.loc 1 311 20 discriminator 1 view .LVU23
  95              	.LBE2:
 312:../../applications/murata-dualstack-example-ns/src/murata-dualstack-example-ns.c ****   }
 313:../../applications/murata-dualstack-example-ns/src/murata-dualstack-example-ns.c ****   else{
 314:../../applications/murata-dualstack-example-ns/src/murata-dualstack-example-ns.c ****     printf("murata not initialized, not sending\r\n");
 315:../../applications/murata-dualstack-example-ns/src/murata-dualstack-example-ns.c ****   }
 316:../../applications/murata-dualstack-example-ns/src/murata-dualstack-example-ns.c **** }
  96              		.loc 1 316 1 view .LVU24
  97 0038 03B0     		add	sp, sp, #12
  98              	.LCFI2:
  99              		.cfi_remember_state
 100              		.cfi_def_cfa_offset 4
 101              		@ sp needed
 102 003a 5DF804FB 		ldr	pc, [sp], #4
 103              	.LVL7:
 104              	.L3:
 105              	.LCFI3:
 106              		.cfi_restore_state
 107              	.LBB3:
 306:../../applications/murata-dualstack-example-ns/src/murata-dualstack-example-ns.c ****     }
 108              		.loc 1 306 7 is_stmt 1 view .LVU25
 306:../../applications/murata-dualstack-example-ns/src/murata-dualstack-example-ns.c ****     }
 109              		.loc 1 306 19 is_stmt 0 view .LVU26
 110 003e 044B     		ldr	r3, .L7
 111 0040 0122     		movs	r2, #1
 112 0042 1A70     		strb	r2, [r3]
 113 0044 F4E7     		b	.L4
 114              	.LVL8:
 115              	.L2:
 306:../../applications/murata-dualstack-example-ns/src/murata-dualstack-example-ns.c ****     }
 116              		.loc 1 306 19 view .LVU27
 117              	.LBE3:
 314:../../applications/murata-dualstack-example-ns/src/murata-dualstack-example-ns.c ****   }
 118              		.loc 1 314 5 is_stmt 1 view .LVU28
 119 0046 0448     		ldr	r0, .L7+8
 120              	.LVL9:
 314:../../applications/murata-dualstack-example-ns/src/murata-dualstack-example-ns.c ****   }
 121              		.loc 1 314 5 is_stmt 0 view .LVU29
 122 0048 FFF7FEFF 		bl	puts
 123              	.LVL10:
 124              		.loc 1 316 1 view .LVU30
 125 004c F4E7     		b	.L1
 126              	.L8:
 127 004e 00BF     		.align	2
 128              	.L7:
 129 0050 00000000 		.word	.LANCHOR0
 130 0054 00000000 		.word	.LANCHOR1
 131 0058 00000000 		.word	.LC0
 132              		.cfi_endproc
 133              	.LFE133:
 135              		.section	.text.LoRaWAN_send_temphum,"ax",%progbits
 136              		.align	1
 137              		.global	LoRaWAN_send_temphum
ARM GAS  C:\Users\yvesk\AppData\Local\Temp\ccFDdKFl.s 			page 9


 138              		.syntax unified
 139              		.thumb
 140              		.thumb_func
 141              		.fpu fpv4-sp-d16
 143              	LoRaWAN_send_temphum:
 144              	.LVL11:
 145              	.LFB134:
 317:../../applications/murata-dualstack-example-ns/src/murata-dualstack-example-ns.c **** 
 318:../../applications/murata-dualstack-example-ns/src/murata-dualstack-example-ns.c **** void LoRaWAN_send_temphum(void const *argument)
 319:../../applications/murata-dualstack-example-ns/src/murata-dualstack-example-ns.c **** {
 146              		.loc 1 319 1 is_stmt 1 view -0
 147              		.cfi_startproc
 148              		@ args = 0, pretend = 0, frame = 8
 149              		@ frame_needed = 0, uses_anonymous_args = 0
 150              		.loc 1 319 1 is_stmt 0 view .LVU32
 151 0000 00B5     		push	{lr}
 152              	.LCFI4:
 153              		.cfi_def_cfa_offset 4
 154              		.cfi_offset 14, -4
 155 0002 83B0     		sub	sp, sp, #12
 156              	.LCFI5:
 157              		.cfi_def_cfa_offset 16
 320:../../applications/murata-dualstack-example-ns/src/murata-dualstack-example-ns.c ****   if (murata_init)
 158              		.loc 1 320 3 is_stmt 1 view .LVU33
 159              		.loc 1 320 7 is_stmt 0 view .LVU34
 160 0004 174B     		ldr	r3, .L15
 161 0006 1B78     		ldrb	r3, [r3]	@ zero_extendqisi2
 162              		.loc 1 320 6 view .LVU35
 163 0008 3BB3     		cbz	r3, .L10
 164              	.LBB4:
 321:../../applications/murata-dualstack-example-ns/src/murata-dualstack-example-ns.c ****   {
 322:../../applications/murata-dualstack-example-ns/src/murata-dualstack-example-ns.c ****     uint8_t loraMessage[5];
 165              		.loc 1 322 5 is_stmt 1 view .LVU36
 323:../../applications/murata-dualstack-example-ns/src/murata-dualstack-example-ns.c ****     uint8_t i = 0;
 166              		.loc 1 323 5 view .LVU37
 167              	.LVL12:
 324:../../applications/murata-dualstack-example-ns/src/murata-dualstack-example-ns.c ****     //uint16 counter to uint8 array (little endian)
 325:../../applications/murata-dualstack-example-ns/src/murata-dualstack-example-ns.c ****     //counter (large) type byte
 326:../../applications/murata-dualstack-example-ns/src/murata-dualstack-example-ns.c ****     loraMessage[i++] = SHTData[0];
 168              		.loc 1 326 5 view .LVU38
 169              		.loc 1 326 31 is_stmt 0 view .LVU39
 170 000a 174A     		ldr	r2, .L15+4
 171 000c D2ED007A 		vldr.32	s15, [r2]
 172              	.LVL13:
 173              		.loc 1 326 22 view .LVU40
 174 0010 FCEEE77A 		vcvt.u32.f32	s15, s15
 175 0014 17EE903A 		vmov	r3, s15	@ int
 176 0018 8DF80030 		strb	r3, [sp]
 327:../../applications/murata-dualstack-example-ns/src/murata-dualstack-example-ns.c ****     loraMessage[i++] = SHTData[1];
 177              		.loc 1 327 5 is_stmt 1 view .LVU41
 178              		.loc 1 327 31 is_stmt 0 view .LVU42
 179 001c D2ED017A 		vldr.32	s15, [r2, #4]
 180              	.LVL14:
 181              		.loc 1 327 22 view .LVU43
 182 0020 FCEEE77A 		vcvt.u32.f32	s15, s15
 183 0024 17EE903A 		vmov	r3, s15	@ int
 184 0028 8DF80130 		strb	r3, [sp, #1]
ARM GAS  C:\Users\yvesk\AppData\Local\Temp\ccFDdKFl.s 			page 10


 328:../../applications/murata-dualstack-example-ns/src/murata-dualstack-example-ns.c ****     loraMessage[i++] = 0x00;
 185              		.loc 1 328 5 is_stmt 1 view .LVU44
 186              	.LVL15:
 187              		.loc 1 328 22 is_stmt 0 view .LVU45
 188 002c 0023     		movs	r3, #0
 189 002e 8DF80230 		strb	r3, [sp, #2]
 329:../../applications/murata-dualstack-example-ns/src/murata-dualstack-example-ns.c ****     //osMutexWait(txMutexId, osWaitForever);
 330:../../applications/murata-dualstack-example-ns/src/murata-dualstack-example-ns.c ****     if(!Murata_LoRaWAN_Send((uint8_t *)loraMessage, i))
 190              		.loc 1 330 5 is_stmt 1 view .LVU46
 191              		.loc 1 330 9 is_stmt 0 view .LVU47
 192 0032 0321     		movs	r1, #3
 193 0034 6846     		mov	r0, sp
 194              	.LVL16:
 195              		.loc 1 330 9 view .LVU48
 196 0036 FFF7FEFF 		bl	Murata_LoRaWAN_Send
 197              	.LVL17:
 198              		.loc 1 330 7 view .LVU49
 199 003a 50B9     		cbnz	r0, .L11
 331:../../applications/murata-dualstack-example-ns/src/murata-dualstack-example-ns.c ****     {
 332:../../applications/murata-dualstack-example-ns/src/murata-dualstack-example-ns.c ****       murata_init++;
 200              		.loc 1 332 7 is_stmt 1 view .LVU50
 201              		.loc 1 332 18 is_stmt 0 view .LVU51
 202 003c 094A     		ldr	r2, .L15
 203 003e 1378     		ldrb	r3, [r2]	@ zero_extendqisi2
 204 0040 0133     		adds	r3, r3, #1
 205 0042 1370     		strb	r3, [r2]
 333:../../applications/murata-dualstack-example-ns/src/murata-dualstack-example-ns.c ****       if(murata_init == 10)
 206              		.loc 1 333 7 is_stmt 1 view .LVU52
 207              	.L12:
 334:../../applications/murata-dualstack-example-ns/src/murata-dualstack-example-ns.c ****         murata_init == 0;
 335:../../applications/murata-dualstack-example-ns/src/murata-dualstack-example-ns.c ****     }
 336:../../applications/murata-dualstack-example-ns/src/murata-dualstack-example-ns.c ****     else
 337:../../applications/murata-dualstack-example-ns/src/murata-dualstack-example-ns.c ****     {
 338:../../applications/murata-dualstack-example-ns/src/murata-dualstack-example-ns.c ****       murata_init = 1;
 339:../../applications/murata-dualstack-example-ns/src/murata-dualstack-example-ns.c ****     }
 340:../../applications/murata-dualstack-example-ns/src/murata-dualstack-example-ns.c ****     //BLOCK TX MUTEX FOR 3s
 341:../../applications/murata-dualstack-example-ns/src/murata-dualstack-example-ns.c ****     //osDelay(3000);
 342:../../applications/murata-dualstack-example-ns/src/murata-dualstack-example-ns.c ****     //osMutexRelease(txMutexId);
 343:../../applications/murata-dualstack-example-ns/src/murata-dualstack-example-ns.c ****     LoRaWAN_Counter++;
 208              		.loc 1 343 5 discriminator 1 view .LVU53
 209              		.loc 1 343 20 is_stmt 0 discriminator 1 view .LVU54
 210 0044 094A     		ldr	r2, .L15+8
 211 0046 1388     		ldrh	r3, [r2]
 212 0048 0133     		adds	r3, r3, #1
 213 004a 1380     		strh	r3, [r2]	@ movhi
 214              	.LVL18:
 215              	.L9:
 216              		.loc 1 343 20 discriminator 1 view .LVU55
 217              	.LBE4:
 344:../../applications/murata-dualstack-example-ns/src/murata-dualstack-example-ns.c ****   }
 345:../../applications/murata-dualstack-example-ns/src/murata-dualstack-example-ns.c ****   else{
 346:../../applications/murata-dualstack-example-ns/src/murata-dualstack-example-ns.c ****     printf("murata not initialized, not sending\r\n");
 347:../../applications/murata-dualstack-example-ns/src/murata-dualstack-example-ns.c ****   }
 348:../../applications/murata-dualstack-example-ns/src/murata-dualstack-example-ns.c **** }
 218              		.loc 1 348 1 view .LVU56
 219 004c 03B0     		add	sp, sp, #12
 220              	.LCFI6:
ARM GAS  C:\Users\yvesk\AppData\Local\Temp\ccFDdKFl.s 			page 11


 221              		.cfi_remember_state
 222              		.cfi_def_cfa_offset 4
 223              		@ sp needed
 224 004e 5DF804FB 		ldr	pc, [sp], #4
 225              	.LVL19:
 226              	.L11:
 227              	.LCFI7:
 228              		.cfi_restore_state
 229              	.LBB5:
 338:../../applications/murata-dualstack-example-ns/src/murata-dualstack-example-ns.c ****     }
 230              		.loc 1 338 7 is_stmt 1 view .LVU57
 338:../../applications/murata-dualstack-example-ns/src/murata-dualstack-example-ns.c ****     }
 231              		.loc 1 338 19 is_stmt 0 view .LVU58
 232 0052 044B     		ldr	r3, .L15
 233 0054 0122     		movs	r2, #1
 234 0056 1A70     		strb	r2, [r3]
 235 0058 F4E7     		b	.L12
 236              	.LVL20:
 237              	.L10:
 338:../../applications/murata-dualstack-example-ns/src/murata-dualstack-example-ns.c ****     }
 238              		.loc 1 338 19 view .LVU59
 239              	.LBE5:
 346:../../applications/murata-dualstack-example-ns/src/murata-dualstack-example-ns.c ****   }
 240              		.loc 1 346 5 is_stmt 1 view .LVU60
 241 005a 0548     		ldr	r0, .L15+12
 242              	.LVL21:
 346:../../applications/murata-dualstack-example-ns/src/murata-dualstack-example-ns.c ****   }
 243              		.loc 1 346 5 is_stmt 0 view .LVU61
 244 005c FFF7FEFF 		bl	puts
 245              	.LVL22:
 246              		.loc 1 348 1 view .LVU62
 247 0060 F4E7     		b	.L9
 248              	.L16:
 249 0062 00BF     		.align	2
 250              	.L15:
 251 0064 00000000 		.word	.LANCHOR0
 252 0068 00000000 		.word	SHTData
 253 006c 00000000 		.word	.LANCHOR1
 254 0070 00000000 		.word	.LC0
 255              		.cfi_endproc
 256              	.LFE134:
 258              		.section	.text.Dash7_send,"ax",%progbits
 259              		.align	1
 260              		.global	Dash7_send
 261              		.syntax unified
 262              		.thumb
 263              		.thumb_func
 264              		.fpu fpv4-sp-d16
 266              	Dash7_send:
 267              	.LVL23:
 268              	.LFB135:
 349:../../applications/murata-dualstack-example-ns/src/murata-dualstack-example-ns.c **** 
 350:../../applications/murata-dualstack-example-ns/src/murata-dualstack-example-ns.c **** void Dash7_send(void const *argument)
 351:../../applications/murata-dualstack-example-ns/src/murata-dualstack-example-ns.c **** {
 269              		.loc 1 351 1 is_stmt 1 view -0
 270              		.cfi_startproc
 271              		@ args = 0, pretend = 0, frame = 8
ARM GAS  C:\Users\yvesk\AppData\Local\Temp\ccFDdKFl.s 			page 12


 272              		@ frame_needed = 0, uses_anonymous_args = 0
 273              		.loc 1 351 1 is_stmt 0 view .LVU64
 274 0000 00B5     		push	{lr}
 275              	.LCFI8:
 276              		.cfi_def_cfa_offset 4
 277              		.cfi_offset 14, -4
 278 0002 83B0     		sub	sp, sp, #12
 279              	.LCFI9:
 280              		.cfi_def_cfa_offset 16
 352:../../applications/murata-dualstack-example-ns/src/murata-dualstack-example-ns.c ****   if (murata_init)
 281              		.loc 1 352 3 is_stmt 1 view .LVU65
 282              		.loc 1 352 7 is_stmt 0 view .LVU66
 283 0004 124B     		ldr	r3, .L23
 284 0006 1B78     		ldrb	r3, [r3]	@ zero_extendqisi2
 285              		.loc 1 352 6 view .LVU67
 286 0008 EBB1     		cbz	r3, .L18
 287              	.LBB6:
 353:../../applications/murata-dualstack-example-ns/src/murata-dualstack-example-ns.c ****   {
 354:../../applications/murata-dualstack-example-ns/src/murata-dualstack-example-ns.c ****     uint8_t dash7Message[5];
 288              		.loc 1 354 5 is_stmt 1 view .LVU68
 355:../../applications/murata-dualstack-example-ns/src/murata-dualstack-example-ns.c ****     uint8_t i = 0;
 289              		.loc 1 355 5 view .LVU69
 290              	.LVL24:
 356:../../applications/murata-dualstack-example-ns/src/murata-dualstack-example-ns.c ****     //uint16 counter to uint8 array (little endian)
 357:../../applications/murata-dualstack-example-ns/src/murata-dualstack-example-ns.c ****     //counter (large) type byte
 358:../../applications/murata-dualstack-example-ns/src/murata-dualstack-example-ns.c ****     dash7Message[i++] = 0x14;
 291              		.loc 1 358 5 view .LVU70
 292              		.loc 1 358 23 is_stmt 0 view .LVU71
 293 000a 1423     		movs	r3, #20
 294 000c 8DF80030 		strb	r3, [sp]
 359:../../applications/murata-dualstack-example-ns/src/murata-dualstack-example-ns.c ****     dash7Message[i++] = DASH7_Counter;
 295              		.loc 1 359 5 is_stmt 1 view .LVU72
 296              		.loc 1 359 23 is_stmt 0 view .LVU73
 297 0010 104B     		ldr	r3, .L23+4
 298 0012 1B88     		ldrh	r3, [r3]
 299              	.LVL25:
 300              		.loc 1 359 23 view .LVU74
 301 0014 8DF80130 		strb	r3, [sp, #1]
 360:../../applications/murata-dualstack-example-ns/src/murata-dualstack-example-ns.c ****     dash7Message[i++] = DASH7_Counter >> 8;
 302              		.loc 1 360 5 is_stmt 1 view .LVU75
 303              	.LVL26:
 304              		.loc 1 360 23 is_stmt 0 view .LVU76
 305 0018 1B0A     		lsrs	r3, r3, #8
 306 001a 8DF80230 		strb	r3, [sp, #2]
 361:../../applications/murata-dualstack-example-ns/src/murata-dualstack-example-ns.c ****     //osMutexWait(txMutexId, osWaitForever);
 362:../../applications/murata-dualstack-example-ns/src/murata-dualstack-example-ns.c ****     if(!Murata_Dash7_Send((uint8_t *)dash7Message, i))
 307              		.loc 1 362 5 is_stmt 1 view .LVU77
 308              		.loc 1 362 9 is_stmt 0 view .LVU78
 309 001e 0321     		movs	r1, #3
 310 0020 6846     		mov	r0, sp
 311              	.LVL27:
 312              		.loc 1 362 9 view .LVU79
 313 0022 FFF7FEFF 		bl	Murata_Dash7_Send
 314              	.LVL28:
 315              		.loc 1 362 7 view .LVU80
 316 0026 50B9     		cbnz	r0, .L19
 363:../../applications/murata-dualstack-example-ns/src/murata-dualstack-example-ns.c ****     {
ARM GAS  C:\Users\yvesk\AppData\Local\Temp\ccFDdKFl.s 			page 13


 364:../../applications/murata-dualstack-example-ns/src/murata-dualstack-example-ns.c ****       murata_init++;
 317              		.loc 1 364 7 is_stmt 1 view .LVU81
 318              		.loc 1 364 18 is_stmt 0 view .LVU82
 319 0028 094A     		ldr	r2, .L23
 320 002a 1378     		ldrb	r3, [r2]	@ zero_extendqisi2
 321 002c 0133     		adds	r3, r3, #1
 322 002e 1370     		strb	r3, [r2]
 365:../../applications/murata-dualstack-example-ns/src/murata-dualstack-example-ns.c ****       if(murata_init == 10)
 323              		.loc 1 365 7 is_stmt 1 view .LVU83
 324              	.L20:
 366:../../applications/murata-dualstack-example-ns/src/murata-dualstack-example-ns.c ****         murata_init == 0;
 367:../../applications/murata-dualstack-example-ns/src/murata-dualstack-example-ns.c ****     }
 368:../../applications/murata-dualstack-example-ns/src/murata-dualstack-example-ns.c ****     else
 369:../../applications/murata-dualstack-example-ns/src/murata-dualstack-example-ns.c ****     {
 370:../../applications/murata-dualstack-example-ns/src/murata-dualstack-example-ns.c ****       murata_init = 1;
 371:../../applications/murata-dualstack-example-ns/src/murata-dualstack-example-ns.c ****     }
 372:../../applications/murata-dualstack-example-ns/src/murata-dualstack-example-ns.c ****     //BLOCK TX MUTEX FOR 3s
 373:../../applications/murata-dualstack-example-ns/src/murata-dualstack-example-ns.c ****     //osDelay(3000);
 374:../../applications/murata-dualstack-example-ns/src/murata-dualstack-example-ns.c ****     //osMutexRelease(txMutexId);
 375:../../applications/murata-dualstack-example-ns/src/murata-dualstack-example-ns.c ****     DASH7_Counter++;
 325              		.loc 1 375 5 discriminator 1 view .LVU84
 326              		.loc 1 375 18 is_stmt 0 discriminator 1 view .LVU85
 327 0030 084A     		ldr	r2, .L23+4
 328 0032 1388     		ldrh	r3, [r2]
 329 0034 0133     		adds	r3, r3, #1
 330 0036 1380     		strh	r3, [r2]	@ movhi
 331              	.LVL29:
 332              	.L17:
 333              		.loc 1 375 18 discriminator 1 view .LVU86
 334              	.LBE6:
 376:../../applications/murata-dualstack-example-ns/src/murata-dualstack-example-ns.c ****   }
 377:../../applications/murata-dualstack-example-ns/src/murata-dualstack-example-ns.c ****   else{
 378:../../applications/murata-dualstack-example-ns/src/murata-dualstack-example-ns.c ****     printf("murata not initialized, not sending\r\n");
 379:../../applications/murata-dualstack-example-ns/src/murata-dualstack-example-ns.c ****   }
 380:../../applications/murata-dualstack-example-ns/src/murata-dualstack-example-ns.c **** }
 335              		.loc 1 380 1 view .LVU87
 336 0038 03B0     		add	sp, sp, #12
 337              	.LCFI10:
 338              		.cfi_remember_state
 339              		.cfi_def_cfa_offset 4
 340              		@ sp needed
 341 003a 5DF804FB 		ldr	pc, [sp], #4
 342              	.LVL30:
 343              	.L19:
 344              	.LCFI11:
 345              		.cfi_restore_state
 346              	.LBB7:
 370:../../applications/murata-dualstack-example-ns/src/murata-dualstack-example-ns.c ****     }
 347              		.loc 1 370 7 is_stmt 1 view .LVU88
 370:../../applications/murata-dualstack-example-ns/src/murata-dualstack-example-ns.c ****     }
 348              		.loc 1 370 19 is_stmt 0 view .LVU89
 349 003e 044B     		ldr	r3, .L23
 350 0040 0122     		movs	r2, #1
 351 0042 1A70     		strb	r2, [r3]
 352 0044 F4E7     		b	.L20
 353              	.LVL31:
 354              	.L18:
ARM GAS  C:\Users\yvesk\AppData\Local\Temp\ccFDdKFl.s 			page 14


 370:../../applications/murata-dualstack-example-ns/src/murata-dualstack-example-ns.c ****     }
 355              		.loc 1 370 19 view .LVU90
 356              	.LBE7:
 378:../../applications/murata-dualstack-example-ns/src/murata-dualstack-example-ns.c ****   }
 357              		.loc 1 378 5 is_stmt 1 view .LVU91
 358 0046 0448     		ldr	r0, .L23+8
 359              	.LVL32:
 378:../../applications/murata-dualstack-example-ns/src/murata-dualstack-example-ns.c ****   }
 360              		.loc 1 378 5 is_stmt 0 view .LVU92
 361 0048 FFF7FEFF 		bl	puts
 362              	.LVL33:
 363              		.loc 1 380 1 view .LVU93
 364 004c F4E7     		b	.L17
 365              	.L24:
 366 004e 00BF     		.align	2
 367              	.L23:
 368 0050 00000000 		.word	.LANCHOR0
 369 0054 00000000 		.word	.LANCHOR2
 370 0058 00000000 		.word	.LC0
 371              		.cfi_endproc
 372              	.LFE135:
 374              		.section	.text.Dash7_send_temphum,"ax",%progbits
 375              		.align	1
 376              		.global	Dash7_send_temphum
 377              		.syntax unified
 378              		.thumb
 379              		.thumb_func
 380              		.fpu fpv4-sp-d16
 382              	Dash7_send_temphum:
 383              	.LVL34:
 384              	.LFB136:
 381:../../applications/murata-dualstack-example-ns/src/murata-dualstack-example-ns.c **** 
 382:../../applications/murata-dualstack-example-ns/src/murata-dualstack-example-ns.c **** 
 383:../../applications/murata-dualstack-example-ns/src/murata-dualstack-example-ns.c **** void Dash7_send_temphum(void const *argument)
 384:../../applications/murata-dualstack-example-ns/src/murata-dualstack-example-ns.c **** {
 385              		.loc 1 384 1 is_stmt 1 view -0
 386              		.cfi_startproc
 387              		@ args = 0, pretend = 0, frame = 8
 388              		@ frame_needed = 0, uses_anonymous_args = 0
 389              		.loc 1 384 1 is_stmt 0 view .LVU95
 390 0000 00B5     		push	{lr}
 391              	.LCFI12:
 392              		.cfi_def_cfa_offset 4
 393              		.cfi_offset 14, -4
 394 0002 83B0     		sub	sp, sp, #12
 395              	.LCFI13:
 396              		.cfi_def_cfa_offset 16
 385:../../applications/murata-dualstack-example-ns/src/murata-dualstack-example-ns.c ****   if (murata_init)
 397              		.loc 1 385 3 is_stmt 1 view .LVU96
 398              		.loc 1 385 7 is_stmt 0 view .LVU97
 399 0004 174B     		ldr	r3, .L31
 400 0006 1B78     		ldrb	r3, [r3]	@ zero_extendqisi2
 401              		.loc 1 385 6 view .LVU98
 402 0008 3BB3     		cbz	r3, .L26
 403              	.LBB8:
 386:../../applications/murata-dualstack-example-ns/src/murata-dualstack-example-ns.c ****   {
 387:../../applications/murata-dualstack-example-ns/src/murata-dualstack-example-ns.c ****     uint8_t dash7Message[5];
ARM GAS  C:\Users\yvesk\AppData\Local\Temp\ccFDdKFl.s 			page 15


 404              		.loc 1 387 5 is_stmt 1 view .LVU99
 388:../../applications/murata-dualstack-example-ns/src/murata-dualstack-example-ns.c ****     uint8_t i = 0;
 405              		.loc 1 388 5 view .LVU100
 406              	.LVL35:
 389:../../applications/murata-dualstack-example-ns/src/murata-dualstack-example-ns.c ****     //uint16 counter to uint8 array (little endian)
 390:../../applications/murata-dualstack-example-ns/src/murata-dualstack-example-ns.c ****     //counter (large) type byte
 391:../../applications/murata-dualstack-example-ns/src/murata-dualstack-example-ns.c ****     dash7Message[i++] = SHTData[0];
 407              		.loc 1 391 5 view .LVU101
 408              		.loc 1 391 32 is_stmt 0 view .LVU102
 409 000a 174A     		ldr	r2, .L31+4
 410 000c D2ED007A 		vldr.32	s15, [r2]
 411              	.LVL36:
 412              		.loc 1 391 23 view .LVU103
 413 0010 FCEEE77A 		vcvt.u32.f32	s15, s15
 414 0014 17EE903A 		vmov	r3, s15	@ int
 415 0018 8DF80030 		strb	r3, [sp]
 392:../../applications/murata-dualstack-example-ns/src/murata-dualstack-example-ns.c ****     dash7Message[i++] = SHTData[1];
 416              		.loc 1 392 5 is_stmt 1 view .LVU104
 417              		.loc 1 392 32 is_stmt 0 view .LVU105
 418 001c D2ED017A 		vldr.32	s15, [r2, #4]
 419              	.LVL37:
 420              		.loc 1 392 23 view .LVU106
 421 0020 FCEEE77A 		vcvt.u32.f32	s15, s15
 422 0024 17EE903A 		vmov	r3, s15	@ int
 423 0028 8DF80130 		strb	r3, [sp, #1]
 393:../../applications/murata-dualstack-example-ns/src/murata-dualstack-example-ns.c ****     dash7Message[i++] = 0x00;
 424              		.loc 1 393 5 is_stmt 1 view .LVU107
 425              	.LVL38:
 426              		.loc 1 393 23 is_stmt 0 view .LVU108
 427 002c 0023     		movs	r3, #0
 428 002e 8DF80230 		strb	r3, [sp, #2]
 394:../../applications/murata-dualstack-example-ns/src/murata-dualstack-example-ns.c ****     //osMutexWait(txMutexId, osWaitForever);
 395:../../applications/murata-dualstack-example-ns/src/murata-dualstack-example-ns.c ****     if(!Murata_Dash7_Send((uint8_t *)dash7Message, i))
 429              		.loc 1 395 5 is_stmt 1 view .LVU109
 430              		.loc 1 395 9 is_stmt 0 view .LVU110
 431 0032 0321     		movs	r1, #3
 432 0034 6846     		mov	r0, sp
 433              	.LVL39:
 434              		.loc 1 395 9 view .LVU111
 435 0036 FFF7FEFF 		bl	Murata_Dash7_Send
 436              	.LVL40:
 437              		.loc 1 395 7 view .LVU112
 438 003a 50B9     		cbnz	r0, .L27
 396:../../applications/murata-dualstack-example-ns/src/murata-dualstack-example-ns.c ****     {
 397:../../applications/murata-dualstack-example-ns/src/murata-dualstack-example-ns.c ****       murata_init++;
 439              		.loc 1 397 7 is_stmt 1 view .LVU113
 440              		.loc 1 397 18 is_stmt 0 view .LVU114
 441 003c 094A     		ldr	r2, .L31
 442 003e 1378     		ldrb	r3, [r2]	@ zero_extendqisi2
 443 0040 0133     		adds	r3, r3, #1
 444 0042 1370     		strb	r3, [r2]
 398:../../applications/murata-dualstack-example-ns/src/murata-dualstack-example-ns.c ****       if(murata_init == 10)
 445              		.loc 1 398 7 is_stmt 1 view .LVU115
 446              	.L28:
 399:../../applications/murata-dualstack-example-ns/src/murata-dualstack-example-ns.c ****         murata_init == 0;
 400:../../applications/murata-dualstack-example-ns/src/murata-dualstack-example-ns.c ****     }
 401:../../applications/murata-dualstack-example-ns/src/murata-dualstack-example-ns.c ****     else
ARM GAS  C:\Users\yvesk\AppData\Local\Temp\ccFDdKFl.s 			page 16


 402:../../applications/murata-dualstack-example-ns/src/murata-dualstack-example-ns.c ****     {
 403:../../applications/murata-dualstack-example-ns/src/murata-dualstack-example-ns.c ****       murata_init = 1;
 404:../../applications/murata-dualstack-example-ns/src/murata-dualstack-example-ns.c ****     }
 405:../../applications/murata-dualstack-example-ns/src/murata-dualstack-example-ns.c ****     //BLOCK TX MUTEX FOR 3s
 406:../../applications/murata-dualstack-example-ns/src/murata-dualstack-example-ns.c ****     //osDelay(3000);
 407:../../applications/murata-dualstack-example-ns/src/murata-dualstack-example-ns.c ****     //osMutexRelease(txMutexId);
 408:../../applications/murata-dualstack-example-ns/src/murata-dualstack-example-ns.c ****     DASH7_Counter++;
 447              		.loc 1 408 5 discriminator 1 view .LVU116
 448              		.loc 1 408 18 is_stmt 0 discriminator 1 view .LVU117
 449 0044 094A     		ldr	r2, .L31+8
 450 0046 1388     		ldrh	r3, [r2]
 451 0048 0133     		adds	r3, r3, #1
 452 004a 1380     		strh	r3, [r2]	@ movhi
 453              	.LVL41:
 454              	.L25:
 455              		.loc 1 408 18 discriminator 1 view .LVU118
 456              	.LBE8:
 409:../../applications/murata-dualstack-example-ns/src/murata-dualstack-example-ns.c ****   }
 410:../../applications/murata-dualstack-example-ns/src/murata-dualstack-example-ns.c ****   else{
 411:../../applications/murata-dualstack-example-ns/src/murata-dualstack-example-ns.c ****     printf("murata not initialized, not sending\r\n");
 412:../../applications/murata-dualstack-example-ns/src/murata-dualstack-example-ns.c ****   }
 413:../../applications/murata-dualstack-example-ns/src/murata-dualstack-example-ns.c **** }
 457              		.loc 1 413 1 view .LVU119
 458 004c 03B0     		add	sp, sp, #12
 459              	.LCFI14:
 460              		.cfi_remember_state
 461              		.cfi_def_cfa_offset 4
 462              		@ sp needed
 463 004e 5DF804FB 		ldr	pc, [sp], #4
 464              	.LVL42:
 465              	.L27:
 466              	.LCFI15:
 467              		.cfi_restore_state
 468              	.LBB9:
 403:../../applications/murata-dualstack-example-ns/src/murata-dualstack-example-ns.c ****     }
 469              		.loc 1 403 7 is_stmt 1 view .LVU120
 403:../../applications/murata-dualstack-example-ns/src/murata-dualstack-example-ns.c ****     }
 470              		.loc 1 403 19 is_stmt 0 view .LVU121
 471 0052 044B     		ldr	r3, .L31
 472 0054 0122     		movs	r2, #1
 473 0056 1A70     		strb	r2, [r3]
 474 0058 F4E7     		b	.L28
 475              	.LVL43:
 476              	.L26:
 403:../../applications/murata-dualstack-example-ns/src/murata-dualstack-example-ns.c ****     }
 477              		.loc 1 403 19 view .LVU122
 478              	.LBE9:
 411:../../applications/murata-dualstack-example-ns/src/murata-dualstack-example-ns.c ****   }
 479              		.loc 1 411 5 is_stmt 1 view .LVU123
 480 005a 0548     		ldr	r0, .L31+12
 481              	.LVL44:
 411:../../applications/murata-dualstack-example-ns/src/murata-dualstack-example-ns.c ****   }
 482              		.loc 1 411 5 is_stmt 0 view .LVU124
 483 005c FFF7FEFF 		bl	puts
 484              	.LVL45:
 485              		.loc 1 413 1 view .LVU125
 486 0060 F4E7     		b	.L25
ARM GAS  C:\Users\yvesk\AppData\Local\Temp\ccFDdKFl.s 			page 17


 487              	.L32:
 488 0062 00BF     		.align	2
 489              	.L31:
 490 0064 00000000 		.word	.LANCHOR0
 491 0068 00000000 		.word	SHTData
 492 006c 00000000 		.word	.LANCHOR2
 493 0070 00000000 		.word	.LC0
 494              		.cfi_endproc
 495              	.LFE136:
 497              		.global	__aeabi_f2d
 498              		.section	.text.print_temp_hum,"ax",%progbits
 499              		.align	1
 500              		.global	print_temp_hum
 501              		.syntax unified
 502              		.thumb
 503              		.thumb_func
 504              		.fpu fpv4-sp-d16
 506              	print_temp_hum:
 507              	.LFB137:
 414:../../applications/murata-dualstack-example-ns/src/murata-dualstack-example-ns.c **** 
 415:../../applications/murata-dualstack-example-ns/src/murata-dualstack-example-ns.c **** void print_temp_hum(void){
 508              		.loc 1 415 26 is_stmt 1 view -0
 509              		.cfi_startproc
 510              		@ args = 0, pretend = 0, frame = 0
 511              		@ frame_needed = 0, uses_anonymous_args = 0
 512 0000 38B5     		push	{r3, r4, r5, lr}
 513              	.LCFI16:
 514              		.cfi_def_cfa_offset 16
 515              		.cfi_offset 3, -16
 516              		.cfi_offset 4, -12
 517              		.cfi_offset 5, -8
 518              		.cfi_offset 14, -4
 416:../../applications/murata-dualstack-example-ns/src/murata-dualstack-example-ns.c ****   printf("\r\n");
 519              		.loc 1 416 3 view .LVU127
 520 0002 0C4C     		ldr	r4, .L35
 521 0004 2046     		mov	r0, r4
 522 0006 FFF7FEFF 		bl	puts
 523              	.LVL46:
 417:../../applications/murata-dualstack-example-ns/src/murata-dualstack-example-ns.c ****   printf("Temperature: %.2f C  \r\n", SHTData[0]);
 524              		.loc 1 417 3 view .LVU128
 525              		.loc 1 417 48 is_stmt 0 view .LVU129
 526 000a 0B4D     		ldr	r5, .L35+4
 527              		.loc 1 417 3 view .LVU130
 528 000c 2868     		ldr	r0, [r5]	@ float
 529 000e FFF7FEFF 		bl	__aeabi_f2d
 530              	.LVL47:
 531 0012 0246     		mov	r2, r0
 532 0014 0B46     		mov	r3, r1
 533 0016 0948     		ldr	r0, .L35+8
 534 0018 FFF7FEFF 		bl	printf
 535              	.LVL48:
 418:../../applications/murata-dualstack-example-ns/src/murata-dualstack-example-ns.c ****   printf("Humidity: %.2f %% \r\n", SHTData[1]);
 536              		.loc 1 418 3 is_stmt 1 view .LVU131
 537 001c 6868     		ldr	r0, [r5, #4]	@ float
 538 001e FFF7FEFF 		bl	__aeabi_f2d
 539              	.LVL49:
 540 0022 0246     		mov	r2, r0
ARM GAS  C:\Users\yvesk\AppData\Local\Temp\ccFDdKFl.s 			page 18


 541 0024 0B46     		mov	r3, r1
 542 0026 0648     		ldr	r0, .L35+12
 543 0028 FFF7FEFF 		bl	printf
 544              	.LVL50:
 419:../../applications/murata-dualstack-example-ns/src/murata-dualstack-example-ns.c ****   printf("\r\n");
 545              		.loc 1 419 3 view .LVU132
 546 002c 2046     		mov	r0, r4
 547 002e FFF7FEFF 		bl	puts
 548              	.LVL51:
 420:../../applications/murata-dualstack-example-ns/src/murata-dualstack-example-ns.c **** }
 549              		.loc 1 420 1 is_stmt 0 view .LVU133
 550 0032 38BD     		pop	{r3, r4, r5, pc}
 551              	.L36:
 552              		.align	2
 553              	.L35:
 554 0034 00000000 		.word	.LC1
 555 0038 00000000 		.word	SHTData
 556 003c 04000000 		.word	.LC2
 557 0040 20000000 		.word	.LC3
 558              		.cfi_endproc
 559              	.LFE137:
 561              		.section	.text.temp_hum_measurement,"ax",%progbits
 562              		.align	1
 563              		.global	temp_hum_measurement
 564              		.syntax unified
 565              		.thumb
 566              		.thumb_func
 567              		.fpu fpv4-sp-d16
 569              	temp_hum_measurement:
 570              	.LFB138:
 421:../../applications/murata-dualstack-example-ns/src/murata-dualstack-example-ns.c **** 
 422:../../applications/murata-dualstack-example-ns/src/murata-dualstack-example-ns.c **** void temp_hum_measurement(void){
 571              		.loc 1 422 32 is_stmt 1 view -0
 572              		.cfi_startproc
 573              		@ args = 0, pretend = 0, frame = 0
 574              		@ frame_needed = 0, uses_anonymous_args = 0
 575 0000 08B5     		push	{r3, lr}
 576              	.LCFI17:
 577              		.cfi_def_cfa_offset 8
 578              		.cfi_offset 3, -8
 579              		.cfi_offset 14, -4
 423:../../applications/murata-dualstack-example-ns/src/murata-dualstack-example-ns.c **** 
 424:../../applications/murata-dualstack-example-ns/src/murata-dualstack-example-ns.c ****   SHT31_get_temp_hum(SHTData);
 580              		.loc 1 424 3 view .LVU135
 581 0002 0348     		ldr	r0, .L39
 582 0004 FFF7FEFF 		bl	SHT31_get_temp_hum
 583              	.LVL52:
 425:../../applications/murata-dualstack-example-ns/src/murata-dualstack-example-ns.c ****   print_temp_hum();
 584              		.loc 1 425 3 view .LVU136
 585 0008 FFF7FEFF 		bl	print_temp_hum
 586              	.LVL53:
 426:../../applications/murata-dualstack-example-ns/src/murata-dualstack-example-ns.c **** }
 587              		.loc 1 426 1 is_stmt 0 view .LVU137
 588 000c 08BD     		pop	{r3, pc}
 589              	.L40:
 590 000e 00BF     		.align	2
 591              	.L39:
ARM GAS  C:\Users\yvesk\AppData\Local\Temp\ccFDdKFl.s 			page 19


 592 0010 00000000 		.word	SHTData
 593              		.cfi_endproc
 594              	.LFE138:
 596              		.section	.text.HAL_UART_RxCpltCallback,"ax",%progbits
 597              		.align	1
 598              		.global	HAL_UART_RxCpltCallback
 599              		.syntax unified
 600              		.thumb
 601              		.thumb_func
 602              		.fpu fpv4-sp-d16
 604              	HAL_UART_RxCpltCallback:
 605              	.LVL54:
 606              	.LFB139:
 427:../../applications/murata-dualstack-example-ns/src/murata-dualstack-example-ns.c **** 
 428:../../applications/murata-dualstack-example-ns/src/murata-dualstack-example-ns.c **** // UART RX CALLBACK
 429:../../applications/murata-dualstack-example-ns/src/murata-dualstack-example-ns.c **** void HAL_UART_RxCpltCallback(UART_HandleTypeDef *huart)
 430:../../applications/murata-dualstack-example-ns/src/murata-dualstack-example-ns.c **** {
 607              		.loc 1 430 1 is_stmt 1 view -0
 608              		.cfi_startproc
 609              		@ args = 0, pretend = 0, frame = 0
 610              		@ frame_needed = 0, uses_anonymous_args = 0
 611              		.loc 1 430 1 is_stmt 0 view .LVU139
 612 0000 08B5     		push	{r3, lr}
 613              	.LCFI18:
 614              		.cfi_def_cfa_offset 8
 615              		.cfi_offset 3, -8
 616              		.cfi_offset 14, -4
 431:../../applications/murata-dualstack-example-ns/src/murata-dualstack-example-ns.c ****   if (huart == &P1_UART)
 617              		.loc 1 431 3 is_stmt 1 view .LVU140
 618              		.loc 1 431 6 is_stmt 0 view .LVU141
 619 0002 054B     		ldr	r3, .L45
 620 0004 8342     		cmp	r3, r0
 621 0006 00D0     		beq	.L44
 622              	.LVL55:
 623              	.L41:
 432:../../applications/murata-dualstack-example-ns/src/murata-dualstack-example-ns.c ****   {
 433:../../applications/murata-dualstack-example-ns/src/murata-dualstack-example-ns.c ****     Murata_rxCallback();
 434:../../applications/murata-dualstack-example-ns/src/murata-dualstack-example-ns.c ****     murata_data_ready = 1;
 435:../../applications/murata-dualstack-example-ns/src/murata-dualstack-example-ns.c ****   }
 436:../../applications/murata-dualstack-example-ns/src/murata-dualstack-example-ns.c **** }
 624              		.loc 1 436 1 view .LVU142
 625 0008 08BD     		pop	{r3, pc}
 626              	.LVL56:
 627              	.L44:
 433:../../applications/murata-dualstack-example-ns/src/murata-dualstack-example-ns.c ****     murata_data_ready = 1;
 628              		.loc 1 433 5 is_stmt 1 view .LVU143
 629 000a FFF7FEFF 		bl	Murata_rxCallback
 630              	.LVL57:
 434:../../applications/murata-dualstack-example-ns/src/murata-dualstack-example-ns.c ****   }
 631              		.loc 1 434 5 view .LVU144
 434:../../applications/murata-dualstack-example-ns/src/murata-dualstack-example-ns.c ****   }
 632              		.loc 1 434 23 is_stmt 0 view .LVU145
 633 000e 034B     		ldr	r3, .L45+4
 634 0010 0122     		movs	r2, #1
 635 0012 1A70     		strb	r2, [r3]
 636              		.loc 1 436 1 view .LVU146
 637 0014 F8E7     		b	.L41
ARM GAS  C:\Users\yvesk\AppData\Local\Temp\ccFDdKFl.s 			page 20


 638              	.L46:
 639 0016 00BF     		.align	2
 640              	.L45:
 641 0018 00000000 		.word	P1_UART
 642 001c 00000000 		.word	.LANCHOR3
 643              		.cfi_endproc
 644              	.LFE139:
 646              		.section	.text.vApplicationIdleHook,"ax",%progbits
 647              		.align	1
 648              		.global	vApplicationIdleHook
 649              		.syntax unified
 650              		.thumb
 651              		.thumb_func
 652              		.fpu fpv4-sp-d16
 654              	vApplicationIdleHook:
 655              	.LFB140:
 437:../../applications/murata-dualstack-example-ns/src/murata-dualstack-example-ns.c **** 
 438:../../applications/murata-dualstack-example-ns/src/murata-dualstack-example-ns.c **** void vApplicationIdleHook(){
 656              		.loc 1 438 28 is_stmt 1 view -0
 657              		.cfi_startproc
 658              		@ args = 0, pretend = 0, frame = 0
 659              		@ frame_needed = 0, uses_anonymous_args = 0
 660              		@ link register save eliminated.
 439:../../applications/murata-dualstack-example-ns/src/murata-dualstack-example-ns.c ****   #if LOW_POWER
 440:../../applications/murata-dualstack-example-ns/src/murata-dualstack-example-ns.c ****     HAL_PWR_EnterSLEEPMode(PWR_MAINREGULATOR_ON, PWR_SLEEPENTRY_WFE);
 441:../../applications/murata-dualstack-example-ns/src/murata-dualstack-example-ns.c ****   #endif
 442:../../applications/murata-dualstack-example-ns/src/murata-dualstack-example-ns.c **** }
 661              		.loc 1 442 1 view .LVU148
 662 0000 7047     		bx	lr
 663              		.cfi_endproc
 664              	.LFE140:
 666              		.section	.text.printWelcome,"ax",%progbits
 667              		.align	1
 668              		.global	printWelcome
 669              		.syntax unified
 670              		.thumb
 671              		.thumb_func
 672              		.fpu fpv4-sp-d16
 674              	printWelcome:
 675              	.LFB141:
 443:../../applications/murata-dualstack-example-ns/src/murata-dualstack-example-ns.c **** 
 444:../../applications/murata-dualstack-example-ns/src/murata-dualstack-example-ns.c **** void printWelcome(void)
 445:../../applications/murata-dualstack-example-ns/src/murata-dualstack-example-ns.c **** {
 676              		.loc 1 445 1 view -0
 677              		.cfi_startproc
 678              		@ args = 0, pretend = 0, frame = 8
 679              		@ frame_needed = 0, uses_anonymous_args = 0
 680 0000 30B5     		push	{r4, r5, lr}
 681              	.LCFI19:
 682              		.cfi_def_cfa_offset 12
 683              		.cfi_offset 4, -12
 684              		.cfi_offset 5, -8
 685              		.cfi_offset 14, -4
 686 0002 83B0     		sub	sp, sp, #12
 687              	.LCFI20:
 688              		.cfi_def_cfa_offset 24
 446:../../applications/murata-dualstack-example-ns/src/murata-dualstack-example-ns.c ****   printf("\r\n");
ARM GAS  C:\Users\yvesk\AppData\Local\Temp\ccFDdKFl.s 			page 21


 689              		.loc 1 446 3 view .LVU150
 690 0004 1A4C     		ldr	r4, .L53
 691 0006 2046     		mov	r0, r4
 692 0008 FFF7FEFF 		bl	puts
 693              	.LVL58:
 447:../../applications/murata-dualstack-example-ns/src/murata-dualstack-example-ns.c ****   printf("*****************************************\r\n");
 694              		.loc 1 447 3 view .LVU151
 695 000c 194D     		ldr	r5, .L53+4
 696 000e 2846     		mov	r0, r5
 697 0010 FFF7FEFF 		bl	puts
 698              	.LVL59:
 448:../../applications/murata-dualstack-example-ns/src/murata-dualstack-example-ns.c ****   printf("Murata Dual Stack example without scheduler\r\n");
 699              		.loc 1 448 3 view .LVU152
 700 0014 1848     		ldr	r0, .L53+8
 701 0016 FFF7FEFF 		bl	puts
 702              	.LVL60:
 449:../../applications/murata-dualstack-example-ns/src/murata-dualstack-example-ns.c ****   printf("*****************************************\r\n");
 703              		.loc 1 449 3 view .LVU153
 704 001a 2846     		mov	r0, r5
 705 001c FFF7FEFF 		bl	puts
 706              	.LVL61:
 450:../../applications/murata-dualstack-example-ns/src/murata-dualstack-example-ns.c ****   printf("\r\n");
 707              		.loc 1 450 3 view .LVU154
 708 0020 2046     		mov	r0, r4
 709 0022 FFF7FEFF 		bl	puts
 710              	.LVL62:
 451:../../applications/murata-dualstack-example-ns/src/murata-dualstack-example-ns.c ****   char UIDString[sizeof(short_UID)];
 711              		.loc 1 451 3 view .LVU155
 452:../../applications/murata-dualstack-example-ns/src/murata-dualstack-example-ns.c ****   memcpy(UIDString, &short_UID, sizeof(short_UID));
 712              		.loc 1 452 3 view .LVU156
 713 0026 154B     		ldr	r3, .L53+12
 714 0028 6C46     		mov	r4, sp
 715 002a 93E80300 		ldm	r3, {r0, r1}
 716 002e 84E80300 		stm	r4, {r0, r1}
 453:../../applications/murata-dualstack-example-ns/src/murata-dualstack-example-ns.c ****   printf("octa ID: ");
 717              		.loc 1 453 3 view .LVU157
 718 0032 1348     		ldr	r0, .L53+16
 719 0034 FFF7FEFF 		bl	printf
 720              	.LVL63:
 454:../../applications/murata-dualstack-example-ns/src/murata-dualstack-example-ns.c ****   for (const char* p = UIDString; *p; ++p)
 721              		.loc 1 454 3 view .LVU158
 722              	.LBB10:
 723              		.loc 1 454 8 view .LVU159
 724              	.L49:
 725              		.loc 1 454 35 is_stmt 0 discriminator 1 view .LVU160
 726 0038 2178     		ldrb	r1, [r4]	@ zero_extendqisi2
 727              		.loc 1 454 3 discriminator 1 view .LVU161
 728 003a 21B1     		cbz	r1, .L52
 455:../../applications/murata-dualstack-example-ns/src/murata-dualstack-example-ns.c ****     {
 456:../../applications/murata-dualstack-example-ns/src/murata-dualstack-example-ns.c ****         printf("%02x", *p);
 729              		.loc 1 456 9 is_stmt 1 discriminator 3 view .LVU162
 730 003c 1148     		ldr	r0, .L53+20
 731 003e FFF7FEFF 		bl	printf
 732              	.LVL64:
 454:../../applications/murata-dualstack-example-ns/src/murata-dualstack-example-ns.c ****   for (const char* p = UIDString; *p; ++p)
 733              		.loc 1 454 39 is_stmt 0 discriminator 3 view .LVU163
 734 0042 0134     		adds	r4, r4, #1
ARM GAS  C:\Users\yvesk\AppData\Local\Temp\ccFDdKFl.s 			page 22


 735              	.LVL65:
 454:../../applications/murata-dualstack-example-ns/src/murata-dualstack-example-ns.c ****   for (const char* p = UIDString; *p; ++p)
 736              		.loc 1 454 39 discriminator 3 view .LVU164
 737 0044 F8E7     		b	.L49
 738              	.L52:
 454:../../applications/murata-dualstack-example-ns/src/murata-dualstack-example-ns.c ****   for (const char* p = UIDString; *p; ++p)
 739              		.loc 1 454 39 discriminator 3 view .LVU165
 740              	.LBE10:
 457:../../applications/murata-dualstack-example-ns/src/murata-dualstack-example-ns.c ****     }
 458:../../applications/murata-dualstack-example-ns/src/murata-dualstack-example-ns.c ****   printf("\r\n\r\n");
 741              		.loc 1 458 3 is_stmt 1 view .LVU166
 742 0046 1048     		ldr	r0, .L53+24
 743 0048 FFF7FEFF 		bl	puts
 744              	.LVL66:
 459:../../applications/murata-dualstack-example-ns/src/murata-dualstack-example-ns.c ****   HAL_GPIO_TogglePin(OCTA_BLED_GPIO_Port, OCTA_BLED_Pin);
 745              		.loc 1 459 3 view .LVU167
 746 004c 0F4C     		ldr	r4, .L53+28
 747              	.LVL67:
 748              		.loc 1 459 3 is_stmt 0 view .LVU168
 749 004e 4FF40041 		mov	r1, #32768
 750 0052 2046     		mov	r0, r4
 751 0054 FFF7FEFF 		bl	HAL_GPIO_TogglePin
 752              	.LVL68:
 460:../../applications/murata-dualstack-example-ns/src/murata-dualstack-example-ns.c ****   HAL_Delay(2000);
 753              		.loc 1 460 3 is_stmt 1 view .LVU169
 754 0058 4FF4FA60 		mov	r0, #2000
 755 005c FFF7FEFF 		bl	HAL_Delay
 756              	.LVL69:
 461:../../applications/murata-dualstack-example-ns/src/murata-dualstack-example-ns.c ****   HAL_GPIO_TogglePin(OCTA_BLED_GPIO_Port, OCTA_BLED_Pin);
 757              		.loc 1 461 3 view .LVU170
 758 0060 4FF40041 		mov	r1, #32768
 759 0064 2046     		mov	r0, r4
 760 0066 FFF7FEFF 		bl	HAL_GPIO_TogglePin
 761              	.LVL70:
 462:../../applications/murata-dualstack-example-ns/src/murata-dualstack-example-ns.c **** }
 762              		.loc 1 462 1 is_stmt 0 view .LVU171
 763 006a 03B0     		add	sp, sp, #12
 764              	.LCFI21:
 765              		.cfi_def_cfa_offset 12
 766              		@ sp needed
 767 006c 30BD     		pop	{r4, r5, pc}
 768              	.L54:
 769 006e 00BF     		.align	2
 770              	.L53:
 771 0070 00000000 		.word	.LC1
 772 0074 00000000 		.word	.LC4
 773 0078 2C000000 		.word	.LC5
 774 007c 00000000 		.word	short_UID
 775 0080 5C000000 		.word	.LC6
 776 0084 68000000 		.word	.LC7
 777 0088 70000000 		.word	.LC8
 778 008c 000C0048 		.word	1207962624
 779              		.cfi_endproc
 780              	.LFE141:
 782              		.section	.text.main,"ax",%progbits
 783              		.align	1
 784              		.global	main
ARM GAS  C:\Users\yvesk\AppData\Local\Temp\ccFDdKFl.s 			page 23


 785              		.syntax unified
 786              		.thumb
 787              		.thumb_func
 788              		.fpu fpv4-sp-d16
 790              	main:
 791              	.LFB132:
 107:../../applications/murata-dualstack-example-ns/src/murata-dualstack-example-ns.c ****   /* USER CODE BEGIN 1 */
 792              		.loc 1 107 1 is_stmt 1 view -0
 793              		.cfi_startproc
 794              		@ args = 0, pretend = 0, frame = 0
 795              		@ frame_needed = 0, uses_anonymous_args = 0
 796 0000 38B5     		push	{r3, r4, r5, lr}
 797              	.LCFI22:
 798              		.cfi_def_cfa_offset 16
 799              		.cfi_offset 3, -16
 800              		.cfi_offset 4, -12
 801              		.cfi_offset 5, -8
 802              		.cfi_offset 14, -4
 115:../../applications/murata-dualstack-example-ns/src/murata-dualstack-example-ns.c **** 
 803              		.loc 1 115 3 view .LVU173
 804 0002 FFF7FEFF 		bl	HAL_Init
 805              	.LVL71:
 122:../../applications/murata-dualstack-example-ns/src/murata-dualstack-example-ns.c **** 
 806              		.loc 1 122 3 view .LVU174
 807 0006 FFF7FEFF 		bl	SystemClock_Config
 808              	.LVL72:
 129:../../applications/murata-dualstack-example-ns/src/murata-dualstack-example-ns.c ****   /* USER CODE BEGIN 2 */
 809              		.loc 1 129 3 view .LVU175
 810 000a FFF7FEFF 		bl	Initialize_Platform
 811              	.LVL73:
 133:../../applications/murata-dualstack-example-ns/src/murata-dualstack-example-ns.c **** 
 812              		.loc 1 133 3 view .LVU176
 133:../../applications/murata-dualstack-example-ns/src/murata-dualstack-example-ns.c **** 
 813              		.loc 1 133 15 is_stmt 0 view .LVU177
 814 000e FFF7FEFF 		bl	get_UID
 815              	.LVL74:
 133:../../applications/murata-dualstack-example-ns/src/murata-dualstack-example-ns.c **** 
 816              		.loc 1 133 13 view .LVU178
 817 0012 344C     		ldr	r4, .L67
 818 0014 C4E90001 		strd	r0, [r4]
 136:../../applications/murata-dualstack-example-ns/src/murata-dualstack-example-ns.c ****   setI2CInterface_SHT31(&common_I2C);
 819              		.loc 1 136 3 is_stmt 1 view .LVU179
 820 0018 334D     		ldr	r5, .L67+4
 821 001a 2846     		mov	r0, r5
 822 001c FFF7FEFF 		bl	LSM303AGR_setI2CInterface
 823              	.LVL75:
 137:../../applications/murata-dualstack-example-ns/src/murata-dualstack-example-ns.c ****   SHT31_begin(); 
 824              		.loc 1 137 3 view .LVU180
 825 0020 2846     		mov	r0, r5
 826 0022 FFF7FEFF 		bl	setI2CInterface_SHT31
 827              	.LVL76:
 138:../../applications/murata-dualstack-example-ns/src/murata-dualstack-example-ns.c ****   LSM303AGR_init();
 828              		.loc 1 138 3 view .LVU181
 829 0026 FFF7FEFF 		bl	SHT31_begin
 830              	.LVL77:
 139:../../applications/murata-dualstack-example-ns/src/murata-dualstack-example-ns.c **** 
 831              		.loc 1 139 3 view .LVU182
ARM GAS  C:\Users\yvesk\AppData\Local\Temp\ccFDdKFl.s 			page 24


 832 002a FFF7FEFF 		bl	LSM303AGR_init
 833              	.LVL78:
 142:../../applications/murata-dualstack-example-ns/src/murata-dualstack-example-ns.c ****   
 834              		.loc 1 142 3 view .LVU183
 835 002e FFF7FEFF 		bl	printWelcome
 836              	.LVL79:
 145:../../applications/murata-dualstack-example-ns/src/murata-dualstack-example-ns.c **** 
 837              		.loc 1 145 3 view .LVU184
 145:../../applications/murata-dualstack-example-ns/src/murata-dualstack-example-ns.c **** 
 838              		.loc 1 145 17 is_stmt 0 view .LVU185
 839 0032 0022     		movs	r2, #0
 840 0034 D4E90001 		ldrd	r0, [r4]
 841 0038 FFF7FEFF 		bl	Murata_Initialize
 842              	.LVL80:
 145:../../applications/murata-dualstack-example-ns/src/murata-dualstack-example-ns.c **** 
 843              		.loc 1 145 15 view .LVU186
 844 003c 2B4B     		ldr	r3, .L67+8
 845 003e 1870     		strb	r0, [r3]
 147:../../applications/murata-dualstack-example-ns/src/murata-dualstack-example-ns.c ****   {
 846              		.loc 1 147 3 is_stmt 1 view .LVU187
 147:../../applications/murata-dualstack-example-ns/src/murata-dualstack-example-ns.c ****   {
 847              		.loc 1 147 6 is_stmt 0 view .LVU188
 848 0040 18B9     		cbnz	r0, .L63
 849              	.L56:
 172:../../applications/murata-dualstack-example-ns/src/murata-dualstack-example-ns.c **** 
 850              		.loc 1 172 3 is_stmt 1 view .LVU189
 851 0042 0020     		movs	r0, #0
 852 0044 FFF7FEFF 		bl	IWDG_feed
 853              	.LVL81:
 190:../../applications/murata-dualstack-example-ns/src/murata-dualstack-example-ns.c ****   uint8_t use_lora = 1;
 854              		.loc 1 190 3 view .LVU190
 191:../../applications/murata-dualstack-example-ns/src/murata-dualstack-example-ns.c ****   /* USER CODE BEGIN WHILE */
 855              		.loc 1 191 3 view .LVU191
 191:../../applications/murata-dualstack-example-ns/src/murata-dualstack-example-ns.c ****   /* USER CODE BEGIN WHILE */
 856              		.loc 1 191 3 is_stmt 0 view .LVU192
 857 0048 27E0     		b	.L61
 858              	.LVL82:
 859              	.L63:
 149:../../applications/murata-dualstack-example-ns/src/murata-dualstack-example-ns.c ****   }
 860              		.loc 1 149 5 is_stmt 1 view .LVU193
 861 004a 2948     		ldr	r0, .L67+12
 862 004c FFF7FEFF 		bl	puts
 863              	.LVL83:
 864 0050 F7E7     		b	.L56
 865              	.LVL84:
 866              	.L64:
 199:../../applications/murata-dualstack-example-ns/src/murata-dualstack-example-ns.c ****       murata_data_ready = !Murata_process_fifo();
 867              		.loc 1 199 7 view .LVU194
 868 0052 2848     		ldr	r0, .L67+16
 869 0054 FFF7FEFF 		bl	puts
 870              	.LVL85:
 200:../../applications/murata-dualstack-example-ns/src/murata-dualstack-example-ns.c ****     }
 871              		.loc 1 200 7 view .LVU195
 200:../../applications/murata-dualstack-example-ns/src/murata-dualstack-example-ns.c ****     }
 872              		.loc 1 200 28 is_stmt 0 view .LVU196
 873 0058 FFF7FEFF 		bl	Murata_process_fifo
 874              	.LVL86:
ARM GAS  C:\Users\yvesk\AppData\Local\Temp\ccFDdKFl.s 			page 25


 200:../../applications/murata-dualstack-example-ns/src/murata-dualstack-example-ns.c ****     }
 875              		.loc 1 200 27 view .LVU197
 876 005c B0FA80F0 		clz	r0, r0
 877 0060 4009     		lsrs	r0, r0, #5
 200:../../applications/murata-dualstack-example-ns/src/murata-dualstack-example-ns.c ****     }
 878              		.loc 1 200 25 view .LVU198
 879 0062 254B     		ldr	r3, .L67+20
 880 0064 1870     		strb	r0, [r3]
 881 0066 1FE0     		b	.L57
 882              	.L65:
 883              	.LBB11:
 218:../../applications/murata-dualstack-example-ns/src/murata-dualstack-example-ns.c ****       //HAL_PWR_EnterStopmode(PWR_MAINREGULATOR_ON, PWR_SLEEPENTRY_WFI);
 884              		.loc 1 218 9 is_stmt 1 view .LVU199
 885 0068 2448     		ldr	r0, .L67+24
 886 006a FFF7FEFF 		bl	puts
 887              	.LVL87:
 220:../../applications/murata-dualstack-example-ns/src/murata-dualstack-example-ns.c ****       printf(" into sleepmode gegaan\r\n"); 
 888              		.loc 1 220 7 view .LVU200
 889 006e 0121     		movs	r1, #1
 890 0070 0020     		movs	r0, #0
 891 0072 FFF7FEFF 		bl	HAL_PWR_EnterStopmode
 892              	.LVL88:
 221:../../applications/murata-dualstack-example-ns/src/murata-dualstack-example-ns.c ****       }
 893              		.loc 1 221 7 view .LVU201
 894 0076 2248     		ldr	r0, .L67+28
 895 0078 FFF7FEFF 		bl	puts
 896              	.LVL89:
 897 007c 26E0     		b	.L59
 898              	.L66:
 899              	.LBE11:
 900              	.LBB12:
 227:../../applications/murata-dualstack-example-ns/src/murata-dualstack-example-ns.c ****       
 901              		.loc 1 227 9 view .LVU202
 902 007e 2148     		ldr	r0, .L67+32
 903 0080 FFF7FEFF 		bl	puts
 904              	.LVL90:
 229:../../applications/murata-dualstack-example-ns/src/murata-dualstack-example-ns.c ****           //LoRaWAN_send(&payload);
 905              		.loc 1 229 11 view .LVU203
 906 0084 FFF7FEFF 		bl	temp_hum_measurement
 907              	.LVL91:
 233:../../applications/murata-dualstack-example-ns/src/murata-dualstack-example-ns.c ****         //LoRaWAN_send_temphum(); 
 908              		.loc 1 233 9 view .LVU204
 909 0088 FFF7FEFF 		bl	Dash7_send_temphum
 910              	.LVL92:
 911              	.L60:
 912              	.LBE12:
 240:../../applications/murata-dualstack-example-ns/src/murata-dualstack-example-ns.c ****     //     lora_init=Murata_Initialize(short_UID);
 913              		.loc 1 240 11 view .LVU205
 240:../../applications/murata-dualstack-example-ns/src/murata-dualstack-example-ns.c ****     //     lora_init=Murata_Initialize(short_UID);
 914              		.loc 1 240 26 is_stmt 0 view .LVU206
 915 008c 1E4B     		ldr	r3, .L67+36
 916 008e 0022     		movs	r2, #0
 917 0090 1A70     		strb	r2, [r3]
 918              	.L58:
 275:../../applications/murata-dualstack-example-ns/src/murata-dualstack-example-ns.c ****     
 919              		.loc 1 275 5 is_stmt 1 view .LVU207
 920 0092 4FF47A70 		mov	r0, #1000
ARM GAS  C:\Users\yvesk\AppData\Local\Temp\ccFDdKFl.s 			page 26


 921 0096 FFF7FEFF 		bl	HAL_Delay
 922              	.LVL93:
 923              	.L61:
 193:../../applications/murata-dualstack-example-ns/src/murata-dualstack-example-ns.c ****   { 
 924              		.loc 1 193 3 view .LVU208
 195:../../applications/murata-dualstack-example-ns/src/murata-dualstack-example-ns.c **** 
 925              		.loc 1 195 5 view .LVU209
 926 009a 0020     		movs	r0, #0
 927 009c FFF7FEFF 		bl	IWDG_feed
 928              	.LVL94:
 197:../../applications/murata-dualstack-example-ns/src/murata-dualstack-example-ns.c ****     {
 929              		.loc 1 197 5 view .LVU210
 197:../../applications/murata-dualstack-example-ns/src/murata-dualstack-example-ns.c ****     {
 930              		.loc 1 197 8 is_stmt 0 view .LVU211
 931 00a0 154B     		ldr	r3, .L67+20
 932 00a2 1B78     		ldrb	r3, [r3]	@ zero_extendqisi2
 197:../../applications/murata-dualstack-example-ns/src/murata-dualstack-example-ns.c ****     {
 933              		.loc 1 197 7 view .LVU212
 934 00a4 002B     		cmp	r3, #0
 935 00a6 D4D1     		bne	.L64
 936              	.L57:
 205:../../applications/murata-dualstack-example-ns/src/murata-dualstack-example-ns.c ****     
 937              		.loc 1 205 6 is_stmt 1 view .LVU213
 938 00a8 0020     		movs	r0, #0
 939 00aa FFF7FEFF 		bl	IWDG_feed
 940              	.LVL95:
 210:../../applications/murata-dualstack-example-ns/src/murata-dualstack-example-ns.c ****       // Request to enter SLEEP mode
 941              		.loc 1 210 5 view .LVU214
 210:../../applications/murata-dualstack-example-ns/src/murata-dualstack-example-ns.c ****       // Request to enter SLEEP mode
 942              		.loc 1 210 24 is_stmt 0 view .LVU215
 943 00ae 164B     		ldr	r3, .L67+36
 944 00b0 1B78     		ldrb	r3, [r3]	@ zero_extendqisi2
 210:../../applications/murata-dualstack-example-ns/src/murata-dualstack-example-ns.c ****       // Request to enter SLEEP mode
 945              		.loc 1 210 8 view .LVU216
 946 00b2 002B     		cmp	r3, #0
 947 00b4 EDD0     		beq	.L58
 213:../../applications/murata-dualstack-example-ns/src/murata-dualstack-example-ns.c ****       printf("%d,\r\n\r\n",rep_counter);
 948              		.loc 1 213 7 is_stmt 1 view .LVU217
 213:../../applications/murata-dualstack-example-ns/src/murata-dualstack-example-ns.c ****       printf("%d,\r\n\r\n",rep_counter);
 949              		.loc 1 213 18 is_stmt 0 view .LVU218
 950 00b6 154C     		ldr	r4, .L67+40
 951 00b8 2188     		ldrh	r1, [r4]
 952 00ba 0131     		adds	r1, r1, #1
 953 00bc 89B2     		uxth	r1, r1
 954 00be 2180     		strh	r1, [r4]	@ movhi
 214:../../applications/murata-dualstack-example-ns/src/murata-dualstack-example-ns.c **** 
 955              		.loc 1 214 7 is_stmt 1 view .LVU219
 956 00c0 1348     		ldr	r0, .L67+44
 957 00c2 FFF7FEFF 		bl	printf
 958              	.LVL96:
 217:../../applications/murata-dualstack-example-ns/src/murata-dualstack-example-ns.c ****         printf("going into sleepmode\r\n"); 
 959              		.loc 1 217 7 view .LVU220
 217:../../applications/murata-dualstack-example-ns/src/murata-dualstack-example-ns.c ****         printf("going into sleepmode\r\n"); 
 960              		.loc 1 217 22 is_stmt 0 view .LVU221
 961 00c6 2388     		ldrh	r3, [r4]
 217:../../applications/murata-dualstack-example-ns/src/murata-dualstack-example-ns.c ****         printf("going into sleepmode\r\n"); 
 962              		.loc 1 217 10 view .LVU222
ARM GAS  C:\Users\yvesk\AppData\Local\Temp\ccFDdKFl.s 			page 27


 963 00c8 042B     		cmp	r3, #4
 964 00ca CDD0     		beq	.L65
 965              	.L59:
 224:../../applications/murata-dualstack-example-ns/src/murata-dualstack-example-ns.c **** 
 966              		.loc 1 224 7 is_stmt 1 view .LVU223
 224:../../applications/murata-dualstack-example-ns/src/murata-dualstack-example-ns.c **** 
 967              		.loc 1 224 19 is_stmt 0 view .LVU224
 968 00cc 0022     		movs	r2, #0
 969 00ce 054B     		ldr	r3, .L67
 970 00d0 D3E90001 		ldrd	r0, [r3]
 971 00d4 FFF7FEFF 		bl	Murata_Initialize
 972              	.LVL97:
 224:../../applications/murata-dualstack-example-ns/src/murata-dualstack-example-ns.c **** 
 973              		.loc 1 224 18 view .LVU225
 974 00d8 044B     		ldr	r3, .L67+8
 975 00da 1870     		strb	r0, [r3]
 226:../../applications/murata-dualstack-example-ns/src/murata-dualstack-example-ns.c ****         printf("Lorawan module init ok\r\n\r\n");
 976              		.loc 1 226 7 is_stmt 1 view .LVU226
 226:../../applications/murata-dualstack-example-ns/src/murata-dualstack-example-ns.c ****         printf("Lorawan module init ok\r\n\r\n");
 977              		.loc 1 226 10 is_stmt 0 view .LVU227
 978 00dc 0028     		cmp	r0, #0
 979 00de D5D0     		beq	.L60
 980 00e0 CDE7     		b	.L66
 981              	.L68:
 982 00e2 00BF     		.align	2
 983              	.L67:
 984 00e4 00000000 		.word	short_UID
 985 00e8 00000000 		.word	common_I2C
 986 00ec 00000000 		.word	.LANCHOR0
 987 00f0 00000000 		.word	.LC9
 988 00f4 24000000 		.word	.LC10
 989 00f8 00000000 		.word	.LANCHOR3
 990 00fc 44000000 		.word	.LC12
 991 0100 5C000000 		.word	.LC13
 992 0104 74000000 		.word	.LC14
 993 0108 00000000 		.word	.LANCHOR4
 994 010c 00000000 		.word	.LANCHOR5
 995 0110 3C000000 		.word	.LC11
 996              		.cfi_endproc
 997              	.LFE132:
 999              		.section	.text.LoRaWAN_send_self,"ax",%progbits
 1000              		.align	1
 1001              		.global	LoRaWAN_send_self
 1002              		.syntax unified
 1003              		.thumb
 1004              		.thumb_func
 1005              		.fpu fpv4-sp-d16
 1007              	LoRaWAN_send_self:
 1008              	.LFB142:
 463:../../applications/murata-dualstack-example-ns/src/murata-dualstack-example-ns.c **** 
 464:../../applications/murata-dualstack-example-ns/src/murata-dualstack-example-ns.c **** /* USER CODE END 4 */
 465:../../applications/murata-dualstack-example-ns/src/murata-dualstack-example-ns.c **** 
 466:../../applications/murata-dualstack-example-ns/src/murata-dualstack-example-ns.c **** 
 467:../../applications/murata-dualstack-example-ns/src/murata-dualstack-example-ns.c **** void LoRaWAN_send_self()
 468:../../applications/murata-dualstack-example-ns/src/murata-dualstack-example-ns.c **** {
 1009              		.loc 1 468 1 is_stmt 1 view -0
 1010              		.cfi_startproc
ARM GAS  C:\Users\yvesk\AppData\Local\Temp\ccFDdKFl.s 			page 28


 1011              		@ args = 0, pretend = 0, frame = 8
 1012              		@ frame_needed = 0, uses_anonymous_args = 0
 1013 0000 00B5     		push	{lr}
 1014              	.LCFI23:
 1015              		.cfi_def_cfa_offset 4
 1016              		.cfi_offset 14, -4
 1017 0002 83B0     		sub	sp, sp, #12
 1018              	.LCFI24:
 1019              		.cfi_def_cfa_offset 16
 469:../../applications/murata-dualstack-example-ns/src/murata-dualstack-example-ns.c ****   if (murata_init)
 1020              		.loc 1 469 3 view .LVU229
 1021              		.loc 1 469 7 is_stmt 0 view .LVU230
 1022 0004 194B     		ldr	r3, .L76
 1023 0006 1B78     		ldrb	r3, [r3]	@ zero_extendqisi2
 1024              		.loc 1 469 6 view .LVU231
 1025 0008 63B3     		cbz	r3, .L70
 1026              	.LBB13:
 470:../../applications/murata-dualstack-example-ns/src/murata-dualstack-example-ns.c ****   {
 471:../../applications/murata-dualstack-example-ns/src/murata-dualstack-example-ns.c ****     uint8_t loraMessage[5];
 1027              		.loc 1 471 5 is_stmt 1 view .LVU232
 472:../../applications/murata-dualstack-example-ns/src/murata-dualstack-example-ns.c ****     uint8_t i = 0;
 1028              		.loc 1 472 5 view .LVU233
 1029              	.LVL98:
 473:../../applications/murata-dualstack-example-ns/src/murata-dualstack-example-ns.c ****     //uint16 counter to uint8 array (little endian)
 474:../../applications/murata-dualstack-example-ns/src/murata-dualstack-example-ns.c ****     //counter (large) type byte
 475:../../applications/murata-dualstack-example-ns/src/murata-dualstack-example-ns.c **** 
 476:../../applications/murata-dualstack-example-ns/src/murata-dualstack-example-ns.c ****     //first data transfer works, but afterwards it stays in a kind of 'transmitted' loop. Find wher
 477:../../applications/murata-dualstack-example-ns/src/murata-dualstack-example-ns.c ****     loraMessage[i++] = SHTData[0];
 1030              		.loc 1 477 5 view .LVU234
 1031              		.loc 1 477 31 is_stmt 0 view .LVU235
 1032 000a 194A     		ldr	r2, .L76+4
 1033 000c D2ED007A 		vldr.32	s15, [r2]
 1034              	.LVL99:
 1035              		.loc 1 477 22 view .LVU236
 1036 0010 FCEEE77A 		vcvt.u32.f32	s15, s15
 1037 0014 17EE903A 		vmov	r3, s15	@ int
 1038 0018 8DF80030 		strb	r3, [sp]
 478:../../applications/murata-dualstack-example-ns/src/murata-dualstack-example-ns.c ****     loraMessage[i++] = SHTData[1];
 1039              		.loc 1 478 5 is_stmt 1 view .LVU237
 1040              		.loc 1 478 31 is_stmt 0 view .LVU238
 1041 001c D2ED017A 		vldr.32	s15, [r2, #4]
 1042              	.LVL100:
 1043              		.loc 1 478 22 view .LVU239
 1044 0020 FCEEE77A 		vcvt.u32.f32	s15, s15
 1045 0024 17EE903A 		vmov	r3, s15	@ int
 1046 0028 8DF80130 		strb	r3, [sp, #1]
 479:../../applications/murata-dualstack-example-ns/src/murata-dualstack-example-ns.c ****     loraMessage[i++] = LoRaWAN_Counter >> 8;
 1047              		.loc 1 479 5 is_stmt 1 view .LVU240
 1048              	.LVL101:
 1049              		.loc 1 479 22 is_stmt 0 view .LVU241
 1050 002c 114B     		ldr	r3, .L76+8
 1051 002e 1B88     		ldrh	r3, [r3]
 1052 0030 1B0A     		lsrs	r3, r3, #8
 1053 0032 8DF80230 		strb	r3, [sp, #2]
 480:../../applications/murata-dualstack-example-ns/src/murata-dualstack-example-ns.c ****    // osMutexWait(txMutexId, osWaitForever);
 481:../../applications/murata-dualstack-example-ns/src/murata-dualstack-example-ns.c ****     if(!Murata_LoRaWAN_Send((uint8_t *)loraMessage, i))
 1054              		.loc 1 481 5 is_stmt 1 view .LVU242
ARM GAS  C:\Users\yvesk\AppData\Local\Temp\ccFDdKFl.s 			page 29


 1055              		.loc 1 481 9 is_stmt 0 view .LVU243
 1056 0036 0321     		movs	r1, #3
 1057 0038 6846     		mov	r0, sp
 1058 003a FFF7FEFF 		bl	Murata_LoRaWAN_Send
 1059              	.LVL102:
 1060              		.loc 1 481 7 view .LVU244
 1061 003e 48B1     		cbz	r0, .L75
 482:../../applications/murata-dualstack-example-ns/src/murata-dualstack-example-ns.c ****     {
 483:../../applications/murata-dualstack-example-ns/src/murata-dualstack-example-ns.c ****       printf("tis ni gelukt :( ");
 484:../../applications/murata-dualstack-example-ns/src/murata-dualstack-example-ns.c ****       murata_init++;
 485:../../applications/murata-dualstack-example-ns/src/murata-dualstack-example-ns.c ****       if(murata_init == 10)
 486:../../applications/murata-dualstack-example-ns/src/murata-dualstack-example-ns.c ****         murata_init == 0;
 487:../../applications/murata-dualstack-example-ns/src/murata-dualstack-example-ns.c ****     }
 488:../../applications/murata-dualstack-example-ns/src/murata-dualstack-example-ns.c ****     else
 489:../../applications/murata-dualstack-example-ns/src/murata-dualstack-example-ns.c ****     {
 490:../../applications/murata-dualstack-example-ns/src/murata-dualstack-example-ns.c ****       murata_init = 1;
 1062              		.loc 1 490 7 is_stmt 1 view .LVU245
 1063              		.loc 1 490 19 is_stmt 0 view .LVU246
 1064 0040 0A4B     		ldr	r3, .L76
 1065 0042 0122     		movs	r2, #1
 1066 0044 1A70     		strb	r2, [r3]
 1067              	.L72:
 491:../../applications/murata-dualstack-example-ns/src/murata-dualstack-example-ns.c ****     }
 492:../../applications/murata-dualstack-example-ns/src/murata-dualstack-example-ns.c ****     //BLOCK TX MUTEX FOR 3s
 493:../../applications/murata-dualstack-example-ns/src/murata-dualstack-example-ns.c ****     // osDelay(3000);
 494:../../applications/murata-dualstack-example-ns/src/murata-dualstack-example-ns.c ****     // osMutexRelease(txMutexId);
 495:../../applications/murata-dualstack-example-ns/src/murata-dualstack-example-ns.c ****     LoRaWAN_Counter++;
 1068              		.loc 1 495 5 is_stmt 1 discriminator 1 view .LVU247
 1069              		.loc 1 495 20 is_stmt 0 discriminator 1 view .LVU248
 1070 0046 0B4A     		ldr	r2, .L76+8
 1071 0048 1388     		ldrh	r3, [r2]
 1072 004a 0133     		adds	r3, r3, #1
 1073 004c 1380     		strh	r3, [r2]	@ movhi
 1074              	.LVL103:
 1075              	.L69:
 1076              		.loc 1 495 20 discriminator 1 view .LVU249
 1077              	.LBE13:
 496:../../applications/murata-dualstack-example-ns/src/murata-dualstack-example-ns.c ****   }
 497:../../applications/murata-dualstack-example-ns/src/murata-dualstack-example-ns.c ****   else{
 498:../../applications/murata-dualstack-example-ns/src/murata-dualstack-example-ns.c ****     printf("murata not initialized, not sending\r\n");
 499:../../applications/murata-dualstack-example-ns/src/murata-dualstack-example-ns.c ****   }
 500:../../applications/murata-dualstack-example-ns/src/murata-dualstack-example-ns.c **** }
 1078              		.loc 1 500 1 view .LVU250
 1079 004e 03B0     		add	sp, sp, #12
 1080              	.LCFI25:
 1081              		.cfi_remember_state
 1082              		.cfi_def_cfa_offset 4
 1083              		@ sp needed
 1084 0050 5DF804FB 		ldr	pc, [sp], #4
 1085              	.LVL104:
 1086              	.L75:
 1087              	.LCFI26:
 1088              		.cfi_restore_state
 1089              	.LBB14:
 483:../../applications/murata-dualstack-example-ns/src/murata-dualstack-example-ns.c ****       murata_init++;
 1090              		.loc 1 483 7 is_stmt 1 view .LVU251
 1091 0054 0848     		ldr	r0, .L76+12
ARM GAS  C:\Users\yvesk\AppData\Local\Temp\ccFDdKFl.s 			page 30


 1092 0056 FFF7FEFF 		bl	printf
 1093              	.LVL105:
 484:../../applications/murata-dualstack-example-ns/src/murata-dualstack-example-ns.c ****       if(murata_init == 10)
 1094              		.loc 1 484 7 view .LVU252
 484:../../applications/murata-dualstack-example-ns/src/murata-dualstack-example-ns.c ****       if(murata_init == 10)
 1095              		.loc 1 484 18 is_stmt 0 view .LVU253
 1096 005a 044A     		ldr	r2, .L76
 1097 005c 1378     		ldrb	r3, [r2]	@ zero_extendqisi2
 1098 005e 0133     		adds	r3, r3, #1
 1099 0060 1370     		strb	r3, [r2]
 485:../../applications/murata-dualstack-example-ns/src/murata-dualstack-example-ns.c ****         murata_init == 0;
 1100              		.loc 1 485 7 is_stmt 1 view .LVU254
 1101 0062 F0E7     		b	.L72
 1102              	.LVL106:
 1103              	.L70:
 485:../../applications/murata-dualstack-example-ns/src/murata-dualstack-example-ns.c ****         murata_init == 0;
 1104              		.loc 1 485 7 is_stmt 0 view .LVU255
 1105              	.LBE14:
 498:../../applications/murata-dualstack-example-ns/src/murata-dualstack-example-ns.c ****   }
 1106              		.loc 1 498 5 is_stmt 1 view .LVU256
 1107 0064 0548     		ldr	r0, .L76+16
 1108 0066 FFF7FEFF 		bl	puts
 1109              	.LVL107:
 1110              		.loc 1 500 1 is_stmt 0 view .LVU257
 1111 006a F0E7     		b	.L69
 1112              	.L77:
 1113              		.align	2
 1114              	.L76:
 1115 006c 00000000 		.word	.LANCHOR0
 1116 0070 00000000 		.word	SHTData
 1117 0074 00000000 		.word	.LANCHOR1
 1118 0078 00000000 		.word	.LC15
 1119 007c 00000000 		.word	.LC0
 1120              		.cfi_endproc
 1121              	.LFE142:
 1123              		.section	.text.HAL_GPIO_EXTI_Callback,"ax",%progbits
 1124              		.align	1
 1125              		.global	HAL_GPIO_EXTI_Callback
 1126              		.syntax unified
 1127              		.thumb
 1128              		.thumb_func
 1129              		.fpu fpv4-sp-d16
 1131              	HAL_GPIO_EXTI_Callback:
 1132              	.LVL108:
 1133              	.LFB143:
 501:../../applications/murata-dualstack-example-ns/src/murata-dualstack-example-ns.c **** 
 502:../../applications/murata-dualstack-example-ns/src/murata-dualstack-example-ns.c **** //See platform>octa>stm32l4xx_it.c there we placed exti15_10 function to capture interrupts on one 
 503:../../applications/murata-dualstack-example-ns/src/murata-dualstack-example-ns.c **** // (see slides of Mr weyn for the exact function name). In this function we call the "HAL_GPIO_EXTI
 504:../../applications/murata-dualstack-example-ns/src/murata-dualstack-example-ns.c **** // file. In this function the "HAL_GPIO_EXTI_Callback" is called, which we define below 
 505:../../applications/murata-dualstack-example-ns/src/murata-dualstack-example-ns.c **** void HAL_GPIO_EXTI_Callback(uint16_t GPIO_Pin) {
 1134              		.loc 1 505 48 is_stmt 1 view -0
 1135              		.cfi_startproc
 1136              		@ args = 0, pretend = 0, frame = 0
 1137              		@ frame_needed = 0, uses_anonymous_args = 0
 506:../../applications/murata-dualstack-example-ns/src/murata-dualstack-example-ns.c ****   if (GPIO_Pin==GPIO_Pin_13) {
 1138              		.loc 1 506 3 view .LVU259
 1139              		.loc 1 506 6 is_stmt 0 view .LVU260
ARM GAS  C:\Users\yvesk\AppData\Local\Temp\ccFDdKFl.s 			page 31


 1140 0000 B0F5005F 		cmp	r0, #8192
 1141 0004 00D0     		beq	.L84
 1142 0006 7047     		bx	lr
 1143              	.L84:
 505:../../applications/murata-dualstack-example-ns/src/murata-dualstack-example-ns.c ****   if (GPIO_Pin==GPIO_Pin_13) {
 1144              		.loc 1 505 48 view .LVU261
 1145 0008 08B5     		push	{r3, lr}
 1146              	.LCFI27:
 1147              		.cfi_def_cfa_offset 8
 1148              		.cfi_offset 3, -8
 1149              		.cfi_offset 14, -4
 507:../../applications/murata-dualstack-example-ns/src/murata-dualstack-example-ns.c ****   temperatureflag = 1; 
 1150              		.loc 1 507 3 is_stmt 1 view .LVU262
 1151              		.loc 1 507 19 is_stmt 0 view .LVU263
 1152 000a 034B     		ldr	r3, .L85
 1153 000c 0122     		movs	r2, #1
 1154 000e 1A70     		strb	r2, [r3]
 508:../../applications/murata-dualstack-example-ns/src/murata-dualstack-example-ns.c ****   printf("interrupt accelerometer! \r\n");
 1155              		.loc 1 508 3 is_stmt 1 view .LVU264
 1156 0010 0248     		ldr	r0, .L85+4
 1157              	.LVL109:
 1158              		.loc 1 508 3 is_stmt 0 view .LVU265
 1159 0012 FFF7FEFF 		bl	puts
 1160              	.LVL110:
 509:../../applications/murata-dualstack-example-ns/src/murata-dualstack-example-ns.c ****   // we work with a flag so as to make sure that we don't stay in the callback for too long. This w
 510:../../applications/murata-dualstack-example-ns/src/murata-dualstack-example-ns.c ****   // the flag will call the measurement function in de while loop
 511:../../applications/murata-dualstack-example-ns/src/murata-dualstack-example-ns.c ****   } 
 512:../../applications/murata-dualstack-example-ns/src/murata-dualstack-example-ns.c **** }
 1161              		.loc 1 512 1 view .LVU266
 1162 0016 08BD     		pop	{r3, pc}
 1163              	.L86:
 1164              		.align	2
 1165              	.L85:
 1166 0018 00000000 		.word	.LANCHOR4
 1167 001c 00000000 		.word	.LC16
 1168              		.cfi_endproc
 1169              	.LFE143:
 1171              		.section	.text.HAL_TIM_PeriodElapsedCallback,"ax",%progbits
 1172              		.align	1
 1173              		.global	HAL_TIM_PeriodElapsedCallback
 1174              		.syntax unified
 1175              		.thumb
 1176              		.thumb_func
 1177              		.fpu fpv4-sp-d16
 1179              	HAL_TIM_PeriodElapsedCallback:
 1180              	.LVL111:
 1181              	.LFB144:
 513:../../applications/murata-dualstack-example-ns/src/murata-dualstack-example-ns.c **** 
 514:../../applications/murata-dualstack-example-ns/src/murata-dualstack-example-ns.c **** 
 515:../../applications/murata-dualstack-example-ns/src/murata-dualstack-example-ns.c **** /**
 516:../../applications/murata-dualstack-example-ns/src/murata-dualstack-example-ns.c ****   * @brief  Period elapsed callback in non blocking mode
 517:../../applications/murata-dualstack-example-ns/src/murata-dualstack-example-ns.c ****   * @note   This function is called  when TIM1 interrupt took place, inside
 518:../../applications/murata-dualstack-example-ns/src/murata-dualstack-example-ns.c ****   * HAL_TIM_IRQHandler(). It makes a direct call to HAL_IncTick() to increment
 519:../../applications/murata-dualstack-example-ns/src/murata-dualstack-example-ns.c ****   * a global variable "uwTick" used as application time base.
 520:../../applications/murata-dualstack-example-ns/src/murata-dualstack-example-ns.c ****   * @param  htim : TIM handle
 521:../../applications/murata-dualstack-example-ns/src/murata-dualstack-example-ns.c ****   * @retval None
 522:../../applications/murata-dualstack-example-ns/src/murata-dualstack-example-ns.c ****   */
ARM GAS  C:\Users\yvesk\AppData\Local\Temp\ccFDdKFl.s 			page 32


 523:../../applications/murata-dualstack-example-ns/src/murata-dualstack-example-ns.c **** void HAL_TIM_PeriodElapsedCallback(TIM_HandleTypeDef *htim)
 524:../../applications/murata-dualstack-example-ns/src/murata-dualstack-example-ns.c **** {
 1182              		.loc 1 524 1 is_stmt 1 view -0
 1183              		.cfi_startproc
 1184              		@ args = 0, pretend = 0, frame = 0
 1185              		@ frame_needed = 0, uses_anonymous_args = 0
 1186              		.loc 1 524 1 is_stmt 0 view .LVU268
 1187 0000 08B5     		push	{r3, lr}
 1188              	.LCFI28:
 1189              		.cfi_def_cfa_offset 8
 1190              		.cfi_offset 3, -8
 1191              		.cfi_offset 14, -4
 525:../../applications/murata-dualstack-example-ns/src/murata-dualstack-example-ns.c ****   /* USER CODE BEGIN Callback 0 */
 526:../../applications/murata-dualstack-example-ns/src/murata-dualstack-example-ns.c **** 
 527:../../applications/murata-dualstack-example-ns/src/murata-dualstack-example-ns.c ****   /* USER CODE END Callback 0 */
 528:../../applications/murata-dualstack-example-ns/src/murata-dualstack-example-ns.c ****   if (htim->Instance == TIM1)
 1192              		.loc 1 528 3 is_stmt 1 view .LVU269
 1193              		.loc 1 528 11 is_stmt 0 view .LVU270
 1194 0002 0268     		ldr	r2, [r0]
 1195              		.loc 1 528 6 view .LVU271
 1196 0004 034B     		ldr	r3, .L91
 1197 0006 9A42     		cmp	r2, r3
 1198 0008 00D0     		beq	.L90
 1199              	.LVL112:
 1200              	.L87:
 529:../../applications/murata-dualstack-example-ns/src/murata-dualstack-example-ns.c ****   {
 530:../../applications/murata-dualstack-example-ns/src/murata-dualstack-example-ns.c ****     HAL_IncTick();
 531:../../applications/murata-dualstack-example-ns/src/murata-dualstack-example-ns.c ****   }
 532:../../applications/murata-dualstack-example-ns/src/murata-dualstack-example-ns.c ****   /* USER CODE BEGIN Callback 1 */
 533:../../applications/murata-dualstack-example-ns/src/murata-dualstack-example-ns.c **** 
 534:../../applications/murata-dualstack-example-ns/src/murata-dualstack-example-ns.c ****   /* USER CODE END Callback 1 */
 535:../../applications/murata-dualstack-example-ns/src/murata-dualstack-example-ns.c **** }
 1201              		.loc 1 535 1 view .LVU272
 1202 000a 08BD     		pop	{r3, pc}
 1203              	.LVL113:
 1204              	.L90:
 530:../../applications/murata-dualstack-example-ns/src/murata-dualstack-example-ns.c ****   }
 1205              		.loc 1 530 5 is_stmt 1 view .LVU273
 1206 000c FFF7FEFF 		bl	HAL_IncTick
 1207              	.LVL114:
 1208              		.loc 1 535 1 is_stmt 0 view .LVU274
 1209 0010 FBE7     		b	.L87
 1210              	.L92:
 1211 0012 00BF     		.align	2
 1212              	.L91:
 1213 0014 002C0140 		.word	1073818624
 1214              		.cfi_endproc
 1215              	.LFE144:
 1217              		.section	.text.Error_Handler,"ax",%progbits
 1218              		.align	1
 1219              		.global	Error_Handler
 1220              		.syntax unified
 1221              		.thumb
 1222              		.thumb_func
 1223              		.fpu fpv4-sp-d16
 1225              	Error_Handler:
 1226              	.LFB145:
ARM GAS  C:\Users\yvesk\AppData\Local\Temp\ccFDdKFl.s 			page 33


 536:../../applications/murata-dualstack-example-ns/src/murata-dualstack-example-ns.c **** 
 537:../../applications/murata-dualstack-example-ns/src/murata-dualstack-example-ns.c **** /**
 538:../../applications/murata-dualstack-example-ns/src/murata-dualstack-example-ns.c ****   * @brief  This function is executed in case of error occurrence.
 539:../../applications/murata-dualstack-example-ns/src/murata-dualstack-example-ns.c ****   * @retval None
 540:../../applications/murata-dualstack-example-ns/src/murata-dualstack-example-ns.c ****   */
 541:../../applications/murata-dualstack-example-ns/src/murata-dualstack-example-ns.c **** void Error_Handler(void)
 542:../../applications/murata-dualstack-example-ns/src/murata-dualstack-example-ns.c **** {
 1227              		.loc 1 542 1 is_stmt 1 view -0
 1228              		.cfi_startproc
 1229              		@ args = 0, pretend = 0, frame = 0
 1230              		@ frame_needed = 0, uses_anonymous_args = 0
 1231              		@ link register save eliminated.
 543:../../applications/murata-dualstack-example-ns/src/murata-dualstack-example-ns.c ****   /* USER CODE BEGIN Error_Handler_Debug */
 544:../../applications/murata-dualstack-example-ns/src/murata-dualstack-example-ns.c ****   /* User can add his own implementation to report the HAL error return state */
 545:../../applications/murata-dualstack-example-ns/src/murata-dualstack-example-ns.c **** 
 546:../../applications/murata-dualstack-example-ns/src/murata-dualstack-example-ns.c ****   /* USER CODE END Error_Handler_Debug */
 547:../../applications/murata-dualstack-example-ns/src/murata-dualstack-example-ns.c **** }
 1232              		.loc 1 547 1 view .LVU276
 1233 0000 7047     		bx	lr
 1234              		.cfi_endproc
 1235              	.LFE145:
 1237              		.global	temperatureflag
 1238              		.comm	data,1,1
 1239              		.comm	SHTData,8,4
 1240              		.global	rep_counter
 1241              		.global	murata_data_ready
 1242              		.comm	short_UID,8,8
 1243              		.global	murata_init
 1244              		.global	DASH7_Counter
 1245              		.global	LoRaWAN_Counter
 1246              		.comm	temp,4,4
 1247              		.comm	humidity,4,4
 1248              		.comm	_i2caddr,1,1
 1249              		.comm	SHThi2cLib,4,4
 1250              		.comm	threadToNotify,4,4
 1251              		.comm	murata_reset_pin,4,4
 1252              		.comm	murata_wakeup_pin,4,4
 1253              		.comm	magRawData,6,4
 1254              		.comm	magRegisterData,6,4
 1255              		.comm	accRawData,6,4
 1256              		.comm	accRegisterData,6,4
 1257              		.comm	LSM303AGR_hi2c,4,4
 1258              		.comm	LSM303AGR_setting,1,1
 1259              		.comm	murata_rx_process_mutex_id,4,4
 1260              		.comm	txMutexId,4,4
 1261              		.comm	moduleCheckTimId,4,4
 1262              		.comm	dash7TimId,4,4
 1263              		.comm	loraWANTimId,4,4
 1264              		.comm	iwdgTimId,4,4
 1265              		.comm	murata_rx_processing_handle,4,4
 1266              		.comm	defaultTaskHandle,4,4
 1267              		.comm	P3_header,44,4
 1268              		.comm	P2_header,44,4
 1269              		.comm	P1_header,44,4
 1270              		.comm	FLASH_SPI,100,4
 1271              		.comm	P3_SPI,100,4
 1272              		.comm	P2_SPI,100,4
ARM GAS  C:\Users\yvesk\AppData\Local\Temp\ccFDdKFl.s 			page 34


 1273              		.comm	P1_SPI,100,4
 1274              		.comm	P3_I2C,76,4
 1275              		.comm	P2_I2C,76,4
 1276              		.comm	P1_I2C,76,4
 1277              		.comm	common_I2C,76,4
 1278              		.comm	P3_UART,120,4
 1279              		.comm	P2_UART,120,4
 1280              		.comm	P1_UART,120,4
 1281              		.comm	BLE_UART,120,4
 1282              		.comm	USB_UART,120,4
 1283              		.comm	hiwdg,16,4
 1284              		.comm	P3_DIO6,8,4
 1285              		.comm	P3_DIO5,8,4
 1286              		.comm	P3_DIO4,8,4
 1287              		.comm	P3_DIO3,8,4
 1288              		.comm	P3_DIO2,8,4
 1289              		.comm	P3_DIO1,8,4
 1290              		.comm	P2_DIO6,8,4
 1291              		.comm	P2_DIO5,8,4
 1292              		.comm	P2_DIO4,8,4
 1293              		.comm	P2_DIO3,8,4
 1294              		.comm	P2_DIO2,8,4
 1295              		.comm	P2_DIO1,8,4
 1296              		.comm	P1_DIO6,8,4
 1297              		.comm	P1_DIO5,8,4
 1298              		.comm	P1_DIO4,8,4
 1299              		.comm	P1_DIO3,8,4
 1300              		.comm	P1_DIO2,8,4
 1301              		.comm	P1_DIO1,8,4
 1302              		.section	.bss.DASH7_Counter,"aw",%nobits
 1303              		.align	1
 1304              		.set	.LANCHOR2,. + 0
 1307              	DASH7_Counter:
 1308 0000 0000     		.space	2
 1309              		.section	.bss.LoRaWAN_Counter,"aw",%nobits
 1310              		.align	1
 1311              		.set	.LANCHOR1,. + 0
 1314              	LoRaWAN_Counter:
 1315 0000 0000     		.space	2
 1316              		.section	.bss.murata_data_ready,"aw",%nobits
 1317              		.set	.LANCHOR3,. + 0
 1320              	murata_data_ready:
 1321 0000 00       		.space	1
 1322              		.section	.bss.murata_init,"aw",%nobits
 1323              		.set	.LANCHOR0,. + 0
 1326              	murata_init:
 1327 0000 00       		.space	1
 1328              		.section	.bss.rep_counter,"aw",%nobits
 1329              		.align	1
 1330              		.set	.LANCHOR5,. + 0
 1333              	rep_counter:
 1334 0000 0000     		.space	2
 1335              		.section	.bss.temperatureflag,"aw",%nobits
 1336              		.set	.LANCHOR4,. + 0
 1339              	temperatureflag:
 1340 0000 00       		.space	1
 1341              		.section	.rodata.HAL_GPIO_EXTI_Callback.str1.4,"aMS",%progbits,1
ARM GAS  C:\Users\yvesk\AppData\Local\Temp\ccFDdKFl.s 			page 35


 1342              		.align	2
 1343              	.LC16:
 1344 0000 696E7465 		.ascii	"interrupt accelerometer! \015\000"
 1344      72727570 
 1344      74206163 
 1344      63656C65 
 1344      726F6D65 
 1345              		.section	.rodata.LoRaWAN_send.str1.4,"aMS",%progbits,1
 1346              		.align	2
 1347              	.LC0:
 1348 0000 6D757261 		.ascii	"murata not initialized, not sending\015\000"
 1348      7461206E 
 1348      6F742069 
 1348      6E697469 
 1348      616C697A 
 1349              		.section	.rodata.LoRaWAN_send_self.str1.4,"aMS",%progbits,1
 1350              		.align	2
 1351              	.LC15:
 1352 0000 74697320 		.ascii	"tis ni gelukt :( \000"
 1352      6E692067 
 1352      656C756B 
 1352      74203A28 
 1352      2000
 1353              		.section	.rodata.main.str1.4,"aMS",%progbits,1
 1354              		.align	2
 1355              	.LC9:
 1356 0000 4D757261 		.ascii	"Murata dualstack module init OK\015\012\015\000"
 1356      74612064 
 1356      75616C73 
 1356      7461636B 
 1356      206D6F64 
 1357 0023 00       		.space	1
 1358              	.LC10:
 1359 0024 70726F63 		.ascii	"processing murata fifo\015\000"
 1359      65737369 
 1359      6E67206D 
 1359      75726174 
 1359      61206669 
 1360              	.LC11:
 1361 003c 25642C0D 		.ascii	"%d,\015\012\015\012\000"
 1361      0A0D0A00 
 1362              	.LC12:
 1363 0044 676F696E 		.ascii	"going into sleepmode\015\000"
 1363      6720696E 
 1363      746F2073 
 1363      6C656570 
 1363      6D6F6465 
 1364 005a 0000     		.space	2
 1365              	.LC13:
 1366 005c 20696E74 		.ascii	" into sleepmode gegaan\015\000"
 1366      6F20736C 
 1366      6565706D 
 1366      6F646520 
 1366      67656761 
 1367              	.LC14:
 1368 0074 4C6F7261 		.ascii	"Lorawan module init ok\015\012\015\000"
 1368      77616E20 
ARM GAS  C:\Users\yvesk\AppData\Local\Temp\ccFDdKFl.s 			page 36


 1368      6D6F6475 
 1368      6C652069 
 1368      6E697420 
 1369              		.section	.rodata.printWelcome.str1.4,"aMS",%progbits,1
 1370              		.align	2
 1371              	.LC4:
 1372 0000 2A2A2A2A 		.ascii	"*****************************************\015\000"
 1372      2A2A2A2A 
 1372      2A2A2A2A 
 1372      2A2A2A2A 
 1372      2A2A2A2A 
 1373 002b 00       		.space	1
 1374              	.LC5:
 1375 002c 4D757261 		.ascii	"Murata Dual Stack example without scheduler\015\000"
 1375      74612044 
 1375      75616C20 
 1375      53746163 
 1375      6B206578 
 1376 0059 000000   		.space	3
 1377              	.LC6:
 1378 005c 6F637461 		.ascii	"octa ID: \000"
 1378      2049443A 
 1378      2000
 1379 0066 0000     		.space	2
 1380              	.LC7:
 1381 0068 25303278 		.ascii	"%02x\000"
 1381      00
 1382 006d 000000   		.space	3
 1383              	.LC8:
 1384 0070 0D0A0D00 		.ascii	"\015\012\015\000"
 1385              		.section	.rodata.print_temp_hum.str1.4,"aMS",%progbits,1
 1386              		.align	2
 1387              	.LC1:
 1388 0000 0D00     		.ascii	"\015\000"
 1389 0002 0000     		.space	2
 1390              	.LC2:
 1391 0004 54656D70 		.ascii	"Temperature: %.2f \302\260C  \015\012\000"
 1391      65726174 
 1391      7572653A 
 1391      20252E32 
 1391      6620C2B0 
 1392 001e 0000     		.space	2
 1393              	.LC3:
 1394 0020 48756D69 		.ascii	"Humidity: %.2f %% \015\012\000"
 1394      64697479 
 1394      3A20252E 
 1394      32662025 
 1394      25200D0A 
 1395              		.weak	SystemClock_Config
 1396              		.text
 1397              	.Letext0:
 1398              		.file 2 "c:\\program files (x86)\\gnu tools arm embedded\\8 2019-q3-update\\arm-none-eabi\\include
 1399              		.file 3 "c:\\program files (x86)\\gnu tools arm embedded\\8 2019-q3-update\\arm-none-eabi\\include
 1400              		.file 4 "../../core/ST/CMSIS/Include/core_cm4.h"
 1401              		.file 5 "../../core/ST/CMSIS/Device/ST/STM32L4xx/Include/system_stm32l4xx.h"
 1402              		.file 6 "../../core/ST/CMSIS/Device/ST/STM32L4xx/Include/stm32l496xx.h"
 1403              		.file 7 "../../core/ST/STM32L4xx_HAL_Driver/Inc/stm32l4xx_hal_def.h"
ARM GAS  C:\Users\yvesk\AppData\Local\Temp\ccFDdKFl.s 			page 37


 1404              		.file 8 "../../core/ST/STM32L4xx_HAL_Driver/Inc/stm32l4xx_hal_dma.h"
 1405              		.file 9 "../../core/ST/STM32L4xx_HAL_Driver/Inc/stm32l4xx_hal_i2c.h"
 1406              		.file 10 "../../core/ST/STM32L4xx_HAL_Driver/Inc/stm32l4xx_hal_iwdg.h"
 1407              		.file 11 "../../core/ST/STM32L4xx_HAL_Driver/Inc/stm32l4xx_hal_spi.h"
 1408              		.file 12 "../../core/ST/STM32L4xx_HAL_Driver/Inc/stm32l4xx_hal_tim.h"
 1409              		.file 13 "../../core/ST/STM32L4xx_HAL_Driver/Inc/stm32l4xx_hal_uart.h"
 1410              		.file 14 "../../core/ST/STM32L4xx_HAL_Driver/Inc/stm32l4xx_hal.h"
 1411              		.file 15 "../../core/ST/Middlewares/Third_Party/FreeRTOS/Source/include/task.h"
 1412              		.file 16 "../../core/ST/Middlewares/Third_Party/FreeRTOS/Source/include/timers.h"
 1413              		.file 17 "../../core/ST/Middlewares/Third_Party/FreeRTOS/Source/include/queue.h"
 1414              		.file 18 "../../core/ST/Middlewares/Third_Party/FreeRTOS/Source/include/semphr.h"
 1415              		.file 19 "../../core/ST/Middlewares/Third_Party/FreeRTOS/Source/CMSIS_RTOS/cmsis_os.h"
 1416              		.file 20 "../../core/platform/octa/inc/gpio.h"
 1417              		.file 21 "../../core/platform/octa/inc/iwdg.h"
 1418              		.file 22 "../../core/platform/octa/inc/uart.h"
 1419              		.file 23 "../../core/platform/octa/inc/i2c.h"
 1420              		.file 24 "../../core/platform/octa/inc/spi.h"
 1421              		.file 25 "../../core/platform/octa/inc/octa.h"
 1422              		.file 26 "../../applications/murata-dualstack-example-ns/inc/murata-dualstack-example-ns.h"
 1423              		.file 27 "C:\\Users\\yvesk\\Documents\\Academiejaar 2019-2020\\IOT\\Practicum\\octa-stack-students
 1424              		.file 28 "c:\\program files (x86)\\gnu tools arm embedded\\8 2019-q3-update\\lib\\gcc\\arm-none-ea
 1425              		.file 29 "c:\\program files (x86)\\gnu tools arm embedded\\8 2019-q3-update\\arm-none-eabi\\includ
 1426              		.file 30 "c:\\program files (x86)\\gnu tools arm embedded\\8 2019-q3-update\\arm-none-eabi\\includ
 1427              		.file 31 "c:\\program files (x86)\\gnu tools arm embedded\\8 2019-q3-update\\arm-none-eabi\\includ
 1428              		.file 32 "C:\\Users\\yvesk\\Documents\\Academiejaar 2019-2020\\IOT\\Practicum\\Project_code\\shiel
 1429              		.file 33 "C:\\Users\\yvesk\\Documents\\Academiejaar 2019-2020\\IOT\\Practicum\\Project_code\\core\
 1430              		.file 34 "<built-in>"
 1431              		.file 35 "c:\\program files (x86)\\gnu tools arm embedded\\8 2019-q3-update\\arm-none-eabi\\includ
 1432              		.file 36 "../../core/ST/STM32L4xx_HAL_Driver/Inc/stm32l4xx_hal_gpio.h"
 1433              		.file 37 "../../core/platform/octa/inc/sysclock.h"
 1434              		.file 38 "../../core/platform/common/inc/platform.h"
ARM GAS  C:\Users\yvesk\AppData\Local\Temp\ccFDdKFl.s 			page 38


DEFINED SYMBOLS
                            *ABS*:00000000 murata-dualstack-example-ns.c
C:\Users\yvesk\AppData\Local\Temp\ccFDdKFl.s:18     .text.LoRaWAN_send:00000000 $t
C:\Users\yvesk\AppData\Local\Temp\ccFDdKFl.s:26     .text.LoRaWAN_send:00000000 LoRaWAN_send
C:\Users\yvesk\AppData\Local\Temp\ccFDdKFl.s:129    .text.LoRaWAN_send:00000050 $d
C:\Users\yvesk\AppData\Local\Temp\ccFDdKFl.s:136    .text.LoRaWAN_send_temphum:00000000 $t
C:\Users\yvesk\AppData\Local\Temp\ccFDdKFl.s:143    .text.LoRaWAN_send_temphum:00000000 LoRaWAN_send_temphum
C:\Users\yvesk\AppData\Local\Temp\ccFDdKFl.s:251    .text.LoRaWAN_send_temphum:00000064 $d
                            *COM*:00000008 SHTData
C:\Users\yvesk\AppData\Local\Temp\ccFDdKFl.s:259    .text.Dash7_send:00000000 $t
C:\Users\yvesk\AppData\Local\Temp\ccFDdKFl.s:266    .text.Dash7_send:00000000 Dash7_send
C:\Users\yvesk\AppData\Local\Temp\ccFDdKFl.s:368    .text.Dash7_send:00000050 $d
C:\Users\yvesk\AppData\Local\Temp\ccFDdKFl.s:375    .text.Dash7_send_temphum:00000000 $t
C:\Users\yvesk\AppData\Local\Temp\ccFDdKFl.s:382    .text.Dash7_send_temphum:00000000 Dash7_send_temphum
C:\Users\yvesk\AppData\Local\Temp\ccFDdKFl.s:490    .text.Dash7_send_temphum:00000064 $d
C:\Users\yvesk\AppData\Local\Temp\ccFDdKFl.s:499    .text.print_temp_hum:00000000 $t
C:\Users\yvesk\AppData\Local\Temp\ccFDdKFl.s:506    .text.print_temp_hum:00000000 print_temp_hum
C:\Users\yvesk\AppData\Local\Temp\ccFDdKFl.s:554    .text.print_temp_hum:00000034 $d
C:\Users\yvesk\AppData\Local\Temp\ccFDdKFl.s:562    .text.temp_hum_measurement:00000000 $t
C:\Users\yvesk\AppData\Local\Temp\ccFDdKFl.s:569    .text.temp_hum_measurement:00000000 temp_hum_measurement
C:\Users\yvesk\AppData\Local\Temp\ccFDdKFl.s:592    .text.temp_hum_measurement:00000010 $d
C:\Users\yvesk\AppData\Local\Temp\ccFDdKFl.s:597    .text.HAL_UART_RxCpltCallback:00000000 $t
C:\Users\yvesk\AppData\Local\Temp\ccFDdKFl.s:604    .text.HAL_UART_RxCpltCallback:00000000 HAL_UART_RxCpltCallback
C:\Users\yvesk\AppData\Local\Temp\ccFDdKFl.s:641    .text.HAL_UART_RxCpltCallback:00000018 $d
                            *COM*:00000078 P1_UART
C:\Users\yvesk\AppData\Local\Temp\ccFDdKFl.s:647    .text.vApplicationIdleHook:00000000 $t
C:\Users\yvesk\AppData\Local\Temp\ccFDdKFl.s:654    .text.vApplicationIdleHook:00000000 vApplicationIdleHook
C:\Users\yvesk\AppData\Local\Temp\ccFDdKFl.s:667    .text.printWelcome:00000000 $t
C:\Users\yvesk\AppData\Local\Temp\ccFDdKFl.s:674    .text.printWelcome:00000000 printWelcome
C:\Users\yvesk\AppData\Local\Temp\ccFDdKFl.s:771    .text.printWelcome:00000070 $d
                            *COM*:00000008 short_UID
C:\Users\yvesk\AppData\Local\Temp\ccFDdKFl.s:783    .text.main:00000000 $t
C:\Users\yvesk\AppData\Local\Temp\ccFDdKFl.s:790    .text.main:00000000 main
C:\Users\yvesk\AppData\Local\Temp\ccFDdKFl.s:984    .text.main:000000e4 $d
                            *COM*:0000004c common_I2C
C:\Users\yvesk\AppData\Local\Temp\ccFDdKFl.s:1000   .text.LoRaWAN_send_self:00000000 $t
C:\Users\yvesk\AppData\Local\Temp\ccFDdKFl.s:1007   .text.LoRaWAN_send_self:00000000 LoRaWAN_send_self
C:\Users\yvesk\AppData\Local\Temp\ccFDdKFl.s:1115   .text.LoRaWAN_send_self:0000006c $d
C:\Users\yvesk\AppData\Local\Temp\ccFDdKFl.s:1124   .text.HAL_GPIO_EXTI_Callback:00000000 $t
C:\Users\yvesk\AppData\Local\Temp\ccFDdKFl.s:1131   .text.HAL_GPIO_EXTI_Callback:00000000 HAL_GPIO_EXTI_Callback
C:\Users\yvesk\AppData\Local\Temp\ccFDdKFl.s:1166   .text.HAL_GPIO_EXTI_Callback:00000018 $d
C:\Users\yvesk\AppData\Local\Temp\ccFDdKFl.s:1172   .text.HAL_TIM_PeriodElapsedCallback:00000000 $t
C:\Users\yvesk\AppData\Local\Temp\ccFDdKFl.s:1179   .text.HAL_TIM_PeriodElapsedCallback:00000000 HAL_TIM_PeriodElapsedCallback
C:\Users\yvesk\AppData\Local\Temp\ccFDdKFl.s:1213   .text.HAL_TIM_PeriodElapsedCallback:00000014 $d
C:\Users\yvesk\AppData\Local\Temp\ccFDdKFl.s:1218   .text.Error_Handler:00000000 $t
C:\Users\yvesk\AppData\Local\Temp\ccFDdKFl.s:1225   .text.Error_Handler:00000000 Error_Handler
C:\Users\yvesk\AppData\Local\Temp\ccFDdKFl.s:1339   .bss.temperatureflag:00000000 temperatureflag
                            *COM*:00000001 data
C:\Users\yvesk\AppData\Local\Temp\ccFDdKFl.s:1333   .bss.rep_counter:00000000 rep_counter
C:\Users\yvesk\AppData\Local\Temp\ccFDdKFl.s:1320   .bss.murata_data_ready:00000000 murata_data_ready
C:\Users\yvesk\AppData\Local\Temp\ccFDdKFl.s:1326   .bss.murata_init:00000000 murata_init
C:\Users\yvesk\AppData\Local\Temp\ccFDdKFl.s:1307   .bss.DASH7_Counter:00000000 DASH7_Counter
C:\Users\yvesk\AppData\Local\Temp\ccFDdKFl.s:1314   .bss.LoRaWAN_Counter:00000000 LoRaWAN_Counter
                            *COM*:00000004 temp
                            *COM*:00000004 humidity
                            *COM*:00000001 _i2caddr
                            *COM*:00000004 SHThi2cLib
ARM GAS  C:\Users\yvesk\AppData\Local\Temp\ccFDdKFl.s 			page 39


                            *COM*:00000004 threadToNotify
                            *COM*:00000004 murata_reset_pin
                            *COM*:00000004 murata_wakeup_pin
                            *COM*:00000006 magRawData
                            *COM*:00000006 magRegisterData
                            *COM*:00000006 accRawData
                            *COM*:00000006 accRegisterData
                            *COM*:00000004 LSM303AGR_hi2c
                            *COM*:00000001 LSM303AGR_setting
                            *COM*:00000004 murata_rx_process_mutex_id
                            *COM*:00000004 txMutexId
                            *COM*:00000004 moduleCheckTimId
                            *COM*:00000004 dash7TimId
                            *COM*:00000004 loraWANTimId
                            *COM*:00000004 iwdgTimId
                            *COM*:00000004 murata_rx_processing_handle
                            *COM*:00000004 defaultTaskHandle
                            *COM*:0000002c P3_header
                            *COM*:0000002c P2_header
                            *COM*:0000002c P1_header
                            *COM*:00000064 FLASH_SPI
                            *COM*:00000064 P3_SPI
                            *COM*:00000064 P2_SPI
                            *COM*:00000064 P1_SPI
                            *COM*:0000004c P3_I2C
                            *COM*:0000004c P2_I2C
                            *COM*:0000004c P1_I2C
                            *COM*:00000078 P3_UART
                            *COM*:00000078 P2_UART
                            *COM*:00000078 BLE_UART
                            *COM*:00000078 USB_UART
                            *COM*:00000010 hiwdg
                            *COM*:00000008 P3_DIO6
                            *COM*:00000008 P3_DIO5
                            *COM*:00000008 P3_DIO4
                            *COM*:00000008 P3_DIO3
                            *COM*:00000008 P3_DIO2
                            *COM*:00000008 P3_DIO1
                            *COM*:00000008 P2_DIO6
                            *COM*:00000008 P2_DIO5
                            *COM*:00000008 P2_DIO4
                            *COM*:00000008 P2_DIO3
                            *COM*:00000008 P2_DIO2
                            *COM*:00000008 P2_DIO1
                            *COM*:00000008 P1_DIO6
                            *COM*:00000008 P1_DIO5
                            *COM*:00000008 P1_DIO4
                            *COM*:00000008 P1_DIO3
                            *COM*:00000008 P1_DIO2
                            *COM*:00000008 P1_DIO1
C:\Users\yvesk\AppData\Local\Temp\ccFDdKFl.s:1303   .bss.DASH7_Counter:00000000 $d
C:\Users\yvesk\AppData\Local\Temp\ccFDdKFl.s:1310   .bss.LoRaWAN_Counter:00000000 $d
C:\Users\yvesk\AppData\Local\Temp\ccFDdKFl.s:1321   .bss.murata_data_ready:00000000 $d
C:\Users\yvesk\AppData\Local\Temp\ccFDdKFl.s:1327   .bss.murata_init:00000000 $d
C:\Users\yvesk\AppData\Local\Temp\ccFDdKFl.s:1329   .bss.rep_counter:00000000 $d
C:\Users\yvesk\AppData\Local\Temp\ccFDdKFl.s:1340   .bss.temperatureflag:00000000 $d
C:\Users\yvesk\AppData\Local\Temp\ccFDdKFl.s:1342   .rodata.HAL_GPIO_EXTI_Callback.str1.4:00000000 $d
ARM GAS  C:\Users\yvesk\AppData\Local\Temp\ccFDdKFl.s 			page 40


C:\Users\yvesk\AppData\Local\Temp\ccFDdKFl.s:1346   .rodata.LoRaWAN_send.str1.4:00000000 $d
C:\Users\yvesk\AppData\Local\Temp\ccFDdKFl.s:1350   .rodata.LoRaWAN_send_self.str1.4:00000000 $d
C:\Users\yvesk\AppData\Local\Temp\ccFDdKFl.s:1354   .rodata.main.str1.4:00000000 $d
C:\Users\yvesk\AppData\Local\Temp\ccFDdKFl.s:1370   .rodata.printWelcome.str1.4:00000000 $d
C:\Users\yvesk\AppData\Local\Temp\ccFDdKFl.s:1386   .rodata.print_temp_hum.str1.4:00000000 $d

UNDEFINED SYMBOLS
Murata_LoRaWAN_Send
puts
Murata_Dash7_Send
__aeabi_f2d
printf
SHT31_get_temp_hum
Murata_rxCallback
HAL_GPIO_TogglePin
HAL_Delay
HAL_Init
SystemClock_Config
Initialize_Platform
get_UID
LSM303AGR_setI2CInterface
setI2CInterface_SHT31
SHT31_begin
LSM303AGR_init
Murata_Initialize
IWDG_feed
Murata_process_fifo
HAL_PWR_EnterStopmode
HAL_IncTick
