ARM GAS  C:\Users\yvesk\AppData\Local\Temp\cc7ZgnLm.s 			page 1


   1              		.cpu cortex-m4
   2              		.eabi_attribute 27, 1
   3              		.eabi_attribute 28, 1
   4              		.eabi_attribute 20, 1
   5              		.eabi_attribute 21, 1
   6              		.eabi_attribute 23, 3
   7              		.eabi_attribute 24, 1
   8              		.eabi_attribute 25, 1
   9              		.eabi_attribute 26, 1
  10              		.eabi_attribute 30, 1
  11              		.eabi_attribute 34, 1
  12              		.eabi_attribute 18, 4
  13              		.file	"murata-dualstack-example-ns.c"
  14              		.text
  15              	.Ltext0:
  16              		.cfi_sections	.debug_frame
  17              		.section	.text.InitializeTimer2,"ax",%progbits
  18              		.align	1
  19              		.global	InitializeTimer2
  20              		.arch armv7e-m
  21              		.syntax unified
  22              		.thumb
  23              		.thumb_func
  24              		.fpu fpv4-sp-d16
  26              	InitializeTimer2:
  27              	.LFB132:
  28              		.file 1 "../../applications/murata-dualstack-example-ns/src/murata-dualstack-example-ns.c"
   1:../../applications/murata-dualstack-example-ns/src/murata-dualstack-example-ns.c **** /* USER CODE BEGIN Header */
   2:../../applications/murata-dualstack-example-ns/src/murata-dualstack-example-ns.c **** /**
   3:../../applications/murata-dualstack-example-ns/src/murata-dualstack-example-ns.c ****   ******************************************************************************
   4:../../applications/murata-dualstack-example-ns/src/murata-dualstack-example-ns.c ****   * @file           : main.c
   5:../../applications/murata-dualstack-example-ns/src/murata-dualstack-example-ns.c ****   * @brief          : Main program body
   6:../../applications/murata-dualstack-example-ns/src/murata-dualstack-example-ns.c ****   ******************************************************************************
   7:../../applications/murata-dualstack-example-ns/src/murata-dualstack-example-ns.c ****   * This notice applies to any and all portions of this file
   8:../../applications/murata-dualstack-example-ns/src/murata-dualstack-example-ns.c ****   * that are not between comment pairs USER CODE BEGIN and
   9:../../applications/murata-dualstack-example-ns/src/murata-dualstack-example-ns.c ****   * USER CODE END. Other portions of this file, whether 
  10:../../applications/murata-dualstack-example-ns/src/murata-dualstack-example-ns.c ****   * inserted by the user or by software development tools
  11:../../applications/murata-dualstack-example-ns/src/murata-dualstack-example-ns.c ****   * are owned by their respective copyright owners.
  12:../../applications/murata-dualstack-example-ns/src/murata-dualstack-example-ns.c ****   *
  13:../../applications/murata-dualstack-example-ns/src/murata-dualstack-example-ns.c ****   * Copyright (c) 2019 STMicroelectronics International N.V. 
  14:../../applications/murata-dualstack-example-ns/src/murata-dualstack-example-ns.c ****   * All rights reserved.
  15:../../applications/murata-dualstack-example-ns/src/murata-dualstack-example-ns.c ****   *
  16:../../applications/murata-dualstack-example-ns/src/murata-dualstack-example-ns.c ****   * Redistribution and use in source and binary forms, with or without 
  17:../../applications/murata-dualstack-example-ns/src/murata-dualstack-example-ns.c ****   * modification, are permitted, provided that the following conditions are met:
  18:../../applications/murata-dualstack-example-ns/src/murata-dualstack-example-ns.c ****   *
  19:../../applications/murata-dualstack-example-ns/src/murata-dualstack-example-ns.c ****   * 1. Redistribution of source code must retain the above copyright notice, 
  20:../../applications/murata-dualstack-example-ns/src/murata-dualstack-example-ns.c ****   *    this list of conditions and the following disclaimer.
  21:../../applications/murata-dualstack-example-ns/src/murata-dualstack-example-ns.c ****   * 2. Redistributions in binary form must reproduce the above copyright notice,
  22:../../applications/murata-dualstack-example-ns/src/murata-dualstack-example-ns.c ****   *    this list of conditions and the following disclaimer in the documentation
  23:../../applications/murata-dualstack-example-ns/src/murata-dualstack-example-ns.c ****   *    and/or other materials provided with the distribution.
  24:../../applications/murata-dualstack-example-ns/src/murata-dualstack-example-ns.c ****   * 3. Neither the name of STMicroelectronics nor the names of other 
  25:../../applications/murata-dualstack-example-ns/src/murata-dualstack-example-ns.c ****   *    contributors to this software may be used to endorse or promote products 
  26:../../applications/murata-dualstack-example-ns/src/murata-dualstack-example-ns.c ****   *    derived from this software without specific written permission.
  27:../../applications/murata-dualstack-example-ns/src/murata-dualstack-example-ns.c ****   * 4. This software, including modifications and/or derivative works of this 
  28:../../applications/murata-dualstack-example-ns/src/murata-dualstack-example-ns.c ****   *    software, must execute solely and exclusively on microcontroller or
  29:../../applications/murata-dualstack-example-ns/src/murata-dualstack-example-ns.c ****   *    microprocessor devices manufactured by or for STMicroelectronics.
  30:../../applications/murata-dualstack-example-ns/src/murata-dualstack-example-ns.c ****   * 5. Redistribution and use of this software other than as permitted under 
ARM GAS  C:\Users\yvesk\AppData\Local\Temp\cc7ZgnLm.s 			page 2


  31:../../applications/murata-dualstack-example-ns/src/murata-dualstack-example-ns.c ****   *    this license is void and will automatically terminate your rights under 
  32:../../applications/murata-dualstack-example-ns/src/murata-dualstack-example-ns.c ****   *    this license. 
  33:../../applications/murata-dualstack-example-ns/src/murata-dualstack-example-ns.c ****   *
  34:../../applications/murata-dualstack-example-ns/src/murata-dualstack-example-ns.c ****   * THIS SOFTWARE IS PROVIDED BY STMICROELECTRONICS AND CONTRIBUTORS "AS IS" 
  35:../../applications/murata-dualstack-example-ns/src/murata-dualstack-example-ns.c ****   * AND ANY EXPRESS, IMPLIED OR STATUTORY WARRANTIES, INCLUDING, BUT NOT 
  36:../../applications/murata-dualstack-example-ns/src/murata-dualstack-example-ns.c ****   * LIMITED TO, THE IMPLIED WARRANTIES OF MERCHANTABILITY, FITNESS FOR A 
  37:../../applications/murata-dualstack-example-ns/src/murata-dualstack-example-ns.c ****   * PARTICULAR PURPOSE AND NON-INFRINGEMENT OF THIRD PARTY INTELLECTUAL PROPERTY
  38:../../applications/murata-dualstack-example-ns/src/murata-dualstack-example-ns.c ****   * RIGHTS ARE DISCLAIMED TO THE FULLEST EXTENT PERMITTED BY LAW. IN NO EVENT 
  39:../../applications/murata-dualstack-example-ns/src/murata-dualstack-example-ns.c ****   * SHALL STMICROELECTRONICS OR CONTRIBUTORS BE LIABLE FOR ANY DIRECT, INDIRECT,
  40:../../applications/murata-dualstack-example-ns/src/murata-dualstack-example-ns.c ****   * INCIDENTAL, SPECIAL, EXEMPLARY, OR CONSEQUENTIAL DAMAGES (INCLUDING, BUT NOT
  41:../../applications/murata-dualstack-example-ns/src/murata-dualstack-example-ns.c ****   * LIMITED TO, PROCUREMENT OF SUBSTITUTE GOODS OR SERVICES; LOSS OF USE, DATA, 
  42:../../applications/murata-dualstack-example-ns/src/murata-dualstack-example-ns.c ****   * OR PROFITS; OR BUSINESS INTERRUPTION) HOWEVER CAUSED AND ON ANY THEORY OF 
  43:../../applications/murata-dualstack-example-ns/src/murata-dualstack-example-ns.c ****   * LIABILITY, WHETHER IN CONTRACT, STRICT LIABILITY, OR TORT (INCLUDING 
  44:../../applications/murata-dualstack-example-ns/src/murata-dualstack-example-ns.c ****   * NEGLIGENCE OR OTHERWISE) ARISING IN ANY WAY OUT OF THE USE OF THIS SOFTWARE,
  45:../../applications/murata-dualstack-example-ns/src/murata-dualstack-example-ns.c ****   * EVEN IF ADVISED OF THE POSSIBILITY OF SUCH DAMAGE.
  46:../../applications/murata-dualstack-example-ns/src/murata-dualstack-example-ns.c ****   *
  47:../../applications/murata-dualstack-example-ns/src/murata-dualstack-example-ns.c ****   ******************************************************************************
  48:../../applications/murata-dualstack-example-ns/src/murata-dualstack-example-ns.c ****   */
  49:../../applications/murata-dualstack-example-ns/src/murata-dualstack-example-ns.c **** /* USER CODE END Header */
  50:../../applications/murata-dualstack-example-ns/src/murata-dualstack-example-ns.c **** 
  51:../../applications/murata-dualstack-example-ns/src/murata-dualstack-example-ns.c **** 
  52:../../applications/murata-dualstack-example-ns/src/murata-dualstack-example-ns.c **** /* ---------------------------------------------------------------------------*/
  53:../../applications/murata-dualstack-example-ns/src/murata-dualstack-example-ns.c **** /* -----------------------------Includes and defines--------------------------------------*/
  54:../../applications/murata-dualstack-example-ns/src/murata-dualstack-example-ns.c **** /* ---------------------------------------------------------------------------*/
  55:../../applications/murata-dualstack-example-ns/src/murata-dualstack-example-ns.c **** #include "murata-dualstack-example-ns.h"
  56:../../applications/murata-dualstack-example-ns/src/murata-dualstack-example-ns.c **** 
  57:../../applications/murata-dualstack-example-ns/src/murata-dualstack-example-ns.c **** /* Private includes ----------------------------------------------------------*/
  58:../../applications/murata-dualstack-example-ns/src/murata-dualstack-example-ns.c **** /* USER CODE BEGIN Includes */
  59:../../applications/murata-dualstack-example-ns/src/murata-dualstack-example-ns.c **** //#include "murata.h"
  60:../../applications/murata-dualstack-example-ns/src/murata-dualstack-example-ns.c **** #include <LSM303AGRSensor.h>
  61:../../applications/murata-dualstack-example-ns/src/murata-dualstack-example-ns.c **** #include <stdio.h>
  62:../../applications/murata-dualstack-example-ns/src/murata-dualstack-example-ns.c **** #include <murata.h>
  63:../../applications/murata-dualstack-example-ns/src/murata-dualstack-example-ns.c **** //#include "murata.h"
  64:../../applications/murata-dualstack-example-ns/src/murata-dualstack-example-ns.c **** 
  65:../../applications/murata-dualstack-example-ns/src/murata-dualstack-example-ns.c **** /* USER CODE END Includes */
  66:../../applications/murata-dualstack-example-ns/src/murata-dualstack-example-ns.c **** 
  67:../../applications/murata-dualstack-example-ns/src/murata-dualstack-example-ns.c **** /* Private typedef -----------------------------------------------------------*/
  68:../../applications/murata-dualstack-example-ns/src/murata-dualstack-example-ns.c **** /* USER CODE BEGIN PTD */
  69:../../applications/murata-dualstack-example-ns/src/murata-dualstack-example-ns.c **** 
  70:../../applications/murata-dualstack-example-ns/src/murata-dualstack-example-ns.c **** /* USER CODE END PTD */
  71:../../applications/murata-dualstack-example-ns/src/murata-dualstack-example-ns.c **** 
  72:../../applications/murata-dualstack-example-ns/src/murata-dualstack-example-ns.c **** /* Private define ------------------------------------------------------------*/
  73:../../applications/murata-dualstack-example-ns/src/murata-dualstack-example-ns.c **** /* USER CODE BEGIN PD */
  74:../../applications/murata-dualstack-example-ns/src/murata-dualstack-example-ns.c **** #define IWDG_INTERVAL           5    //seconds
  75:../../applications/murata-dualstack-example-ns/src/murata-dualstack-example-ns.c **** #define LORAWAN_INTERVAL        60   //seconds
  76:../../applications/murata-dualstack-example-ns/src/murata-dualstack-example-ns.c **** #define DASH7_INTERVAL          20  //seconds
  77:../../applications/murata-dualstack-example-ns/src/murata-dualstack-example-ns.c **** #define MODULE_CHECK_INTERVAL   3600 //seconds
  78:../../applications/murata-dualstack-example-ns/src/murata-dualstack-example-ns.c **** 
  79:../../applications/murata-dualstack-example-ns/src/murata-dualstack-example-ns.c **** #define HAL_EXTI_MODULE_ENABLED
  80:../../applications/murata-dualstack-example-ns/src/murata-dualstack-example-ns.c **** #define temp_hum_timer    3
  81:../../applications/murata-dualstack-example-ns/src/murata-dualstack-example-ns.c **** 
  82:../../applications/murata-dualstack-example-ns/src/murata-dualstack-example-ns.c **** /* USER CODE END PD */
  83:../../applications/murata-dualstack-example-ns/src/murata-dualstack-example-ns.c **** 
  84:../../applications/murata-dualstack-example-ns/src/murata-dualstack-example-ns.c **** /* Private macro -------------------------------------------------------------*/
  85:../../applications/murata-dualstack-example-ns/src/murata-dualstack-example-ns.c **** /* USER CODE BEGIN PM */
  86:../../applications/murata-dualstack-example-ns/src/murata-dualstack-example-ns.c **** 
  87:../../applications/murata-dualstack-example-ns/src/murata-dualstack-example-ns.c **** /* USER CODE END PM */
ARM GAS  C:\Users\yvesk\AppData\Local\Temp\cc7ZgnLm.s 			page 3


  88:../../applications/murata-dualstack-example-ns/src/murata-dualstack-example-ns.c **** 
  89:../../applications/murata-dualstack-example-ns/src/murata-dualstack-example-ns.c **** /* ---------------------------------------------------------------------------*/
  90:../../applications/murata-dualstack-example-ns/src/murata-dualstack-example-ns.c **** /* ----------------------------- Variables-----------------------------------------------*/
  91:../../applications/murata-dualstack-example-ns/src/murata-dualstack-example-ns.c **** /* ---------------------------------------------------------------------------*/
  92:../../applications/murata-dualstack-example-ns/src/murata-dualstack-example-ns.c **** 
  93:../../applications/murata-dualstack-example-ns/src/murata-dualstack-example-ns.c **** /* Private user code ---------------------------------------------------------*/
  94:../../applications/murata-dualstack-example-ns/src/murata-dualstack-example-ns.c **** /* USER CODE BEGIN 0 */
  95:../../applications/murata-dualstack-example-ns/src/murata-dualstack-example-ns.c **** uint16_t LoRaWAN_Counter = 0;
  96:../../applications/murata-dualstack-example-ns/src/murata-dualstack-example-ns.c **** uint16_t DASH7_Counter = 0;
  97:../../applications/murata-dualstack-example-ns/src/murata-dualstack-example-ns.c **** uint8_t murata_init = 0;
  98:../../applications/murata-dualstack-example-ns/src/murata-dualstack-example-ns.c **** uint64_t short_UID;
  99:../../applications/murata-dualstack-example-ns/src/murata-dualstack-example-ns.c **** uint8_t murata_data_ready = 0;
 100:../../applications/murata-dualstack-example-ns/src/murata-dualstack-example-ns.c **** 
 101:../../applications/murata-dualstack-example-ns/src/murata-dualstack-example-ns.c **** //Zelf
 102:../../applications/murata-dualstack-example-ns/src/murata-dualstack-example-ns.c **** uint8_t rep_counter = 0; 
 103:../../applications/murata-dualstack-example-ns/src/murata-dualstack-example-ns.c **** extern volatile uint8_t failureCounter=0; 
 104:../../applications/murata-dualstack-example-ns/src/murata-dualstack-example-ns.c **** extern volatile uint8_t successCounter=0;
 105:../../applications/murata-dualstack-example-ns/src/murata-dualstack-example-ns.c **** extern volatile uint8_t messageCounter=0; 
 106:../../applications/murata-dualstack-example-ns/src/murata-dualstack-example-ns.c **** extern volatile _Bool isActiveSending=0; 
 107:../../applications/murata-dualstack-example-ns/src/murata-dualstack-example-ns.c **** extern volatile _Bool succes=0;
 108:../../applications/murata-dualstack-example-ns/src/murata-dualstack-example-ns.c **** volatile _Bool about_to_sleep= 0; 
 109:../../applications/murata-dualstack-example-ns/src/murata-dualstack-example-ns.c **** 
 110:../../applications/murata-dualstack-example-ns/src/murata-dualstack-example-ns.c **** float SHTData[2];
 111:../../applications/murata-dualstack-example-ns/src/murata-dualstack-example-ns.c **** volatile uint8_t tmpbuf_ble[2];
 112:../../applications/murata-dualstack-example-ns/src/murata-dualstack-example-ns.c **** uint8_t gewicht=0;
 113:../../applications/murata-dualstack-example-ns/src/murata-dualstack-example-ns.c **** uint8_t data; 
 114:../../applications/murata-dualstack-example-ns/src/murata-dualstack-example-ns.c **** uint8_t val =0;
 115:../../applications/murata-dualstack-example-ns/src/murata-dualstack-example-ns.c **** uint8_t loracounter=0; 
 116:../../applications/murata-dualstack-example-ns/src/murata-dualstack-example-ns.c **** volatile _Bool temperatureflag=0; 
 117:../../applications/murata-dualstack-example-ns/src/murata-dualstack-example-ns.c **** volatile _Bool timer2flag=0; 
 118:../../applications/murata-dualstack-example-ns/src/murata-dualstack-example-ns.c **** volatile _Bool timer3flag=0; 
 119:../../applications/murata-dualstack-example-ns/src/murata-dualstack-example-ns.c **** volatile _Bool timer4flag=0;
 120:../../applications/murata-dualstack-example-ns/src/murata-dualstack-example-ns.c **** volatile _Bool repFlag=0;
 121:../../applications/murata-dualstack-example-ns/src/murata-dualstack-example-ns.c **** volatile _Bool repMode=0; 
 122:../../applications/murata-dualstack-example-ns/src/murata-dualstack-example-ns.c **** _Bool changeAcceleroMode=0; 
 123:../../applications/murata-dualstack-example-ns/src/murata-dualstack-example-ns.c **** _Bool volatile messageMode=0; 
 124:../../applications/murata-dualstack-example-ns/src/murata-dualstack-example-ns.c **** volatile _Bool timer3_first=0; 
 125:../../applications/murata-dualstack-example-ns/src/murata-dualstack-example-ns.c **** volatile _Bool timer4_first=0;
 126:../../applications/murata-dualstack-example-ns/src/murata-dualstack-example-ns.c **** volatile _Bool BLE_flag=0;
 127:../../applications/murata-dualstack-example-ns/src/murata-dualstack-example-ns.c **** volatile _Bool lorawanflag=0;
 128:../../applications/murata-dualstack-example-ns/src/murata-dualstack-example-ns.c **** 
 129:../../applications/murata-dualstack-example-ns/src/murata-dualstack-example-ns.c **** 
 130:../../applications/murata-dualstack-example-ns/src/murata-dualstack-example-ns.c **** /* USER CODE END 0 */
 131:../../applications/murata-dualstack-example-ns/src/murata-dualstack-example-ns.c **** 
 132:../../applications/murata-dualstack-example-ns/src/murata-dualstack-example-ns.c **** 
 133:../../applications/murata-dualstack-example-ns/src/murata-dualstack-example-ns.c ****  
 134:../../applications/murata-dualstack-example-ns/src/murata-dualstack-example-ns.c **** static TIM_HandleTypeDef localisation_timer = { 
 135:../../applications/murata-dualstack-example-ns/src/murata-dualstack-example-ns.c ****     .Instance = TIM2
 136:../../applications/murata-dualstack-example-ns/src/murata-dualstack-example-ns.c **** };
 137:../../applications/murata-dualstack-example-ns/src/murata-dualstack-example-ns.c **** 
 138:../../applications/murata-dualstack-example-ns/src/murata-dualstack-example-ns.c **** static TIM_HandleTypeDef inactive_timer = { 
 139:../../applications/murata-dualstack-example-ns/src/murata-dualstack-example-ns.c ****     .Instance = TIM3
 140:../../applications/murata-dualstack-example-ns/src/murata-dualstack-example-ns.c **** };
 141:../../applications/murata-dualstack-example-ns/src/murata-dualstack-example-ns.c **** 
 142:../../applications/murata-dualstack-example-ns/src/murata-dualstack-example-ns.c **** /* static TIM_HandleTypeDef send_sleepmessage_timer = { 
 143:../../applications/murata-dualstack-example-ns/src/murata-dualstack-example-ns.c ****     .Instance = TIM4
 144:../../applications/murata-dualstack-example-ns/src/murata-dualstack-example-ns.c **** }; */
ARM GAS  C:\Users\yvesk\AppData\Local\Temp\cc7ZgnLm.s 			page 4


 145:../../applications/murata-dualstack-example-ns/src/murata-dualstack-example-ns.c ****  
 146:../../applications/murata-dualstack-example-ns/src/murata-dualstack-example-ns.c **** void InitializeTimer2()
 147:../../applications/murata-dualstack-example-ns/src/murata-dualstack-example-ns.c **** {
  29              		.loc 1 147 1 view -0
  30              		.cfi_startproc
  31              		@ args = 0, pretend = 0, frame = 8
  32              		@ frame_needed = 0, uses_anonymous_args = 0
  33 0000 30B5     		push	{r4, r5, lr}
  34              	.LCFI0:
  35              		.cfi_def_cfa_offset 12
  36              		.cfi_offset 4, -12
  37              		.cfi_offset 5, -8
  38              		.cfi_offset 14, -4
  39 0002 83B0     		sub	sp, sp, #12
  40              	.LCFI1:
  41              		.cfi_def_cfa_offset 24
 148:../../applications/murata-dualstack-example-ns/src/murata-dualstack-example-ns.c ****     __TIM2_CLK_ENABLE();
  42              		.loc 1 148 5 view .LVU1
  43              	.LBB2:
  44              		.loc 1 148 5 view .LVU2
  45              		.loc 1 148 5 view .LVU3
  46 0004 124B     		ldr	r3, .L3
  47 0006 9A6D     		ldr	r2, [r3, #88]
  48 0008 42F00102 		orr	r2, r2, #1
  49 000c 9A65     		str	r2, [r3, #88]
  50              		.loc 1 148 5 view .LVU4
  51 000e 9B6D     		ldr	r3, [r3, #88]
  52 0010 03F00103 		and	r3, r3, #1
  53 0014 0193     		str	r3, [sp, #4]
  54              		.loc 1 148 5 view .LVU5
  55 0016 019B     		ldr	r3, [sp, #4]
  56              	.LBE2:
 149:../../applications/murata-dualstack-example-ns/src/murata-dualstack-example-ns.c ****     localisation_timer.Init.Prescaler = 16000;                            //1 step = clockperiod x 
  57              		.loc 1 149 5 view .LVU6
  58              		.loc 1 149 39 is_stmt 0 view .LVU7
  59 0018 0E4C     		ldr	r4, .L3+4
  60 001a 4FF47A53 		mov	r3, #16000
  61 001e 6360     		str	r3, [r4, #4]
 150:../../applications/murata-dualstack-example-ns/src/murata-dualstack-example-ns.c ****     localisation_timer.Init.CounterMode = TIM_COUNTERMODE_UP;             //timer will count up
  62              		.loc 1 150 5 is_stmt 1 view .LVU8
  63              		.loc 1 150 41 is_stmt 0 view .LVU9
  64 0020 0025     		movs	r5, #0
  65 0022 A560     		str	r5, [r4, #8]
 151:../../applications/murata-dualstack-example-ns/src/murata-dualstack-example-ns.c ****     localisation_timer.Init.Period = 60000;                                 //60000 steps of clockp
  66              		.loc 1 151 5 is_stmt 1 view .LVU10
  67              		.loc 1 151 36 is_stmt 0 view .LVU11
  68 0024 4EF66023 		movw	r3, #60000
  69 0028 E360     		str	r3, [r4, #12]
 152:../../applications/murata-dualstack-example-ns/src/murata-dualstack-example-ns.c ****     localisation_timer.Init.ClockDivision = TIM_CLOCKDIVISION_DIV1;
  70              		.loc 1 152 5 is_stmt 1 view .LVU12
  71              		.loc 1 152 43 is_stmt 0 view .LVU13
  72 002a 2561     		str	r5, [r4, #16]
 153:../../applications/murata-dualstack-example-ns/src/murata-dualstack-example-ns.c ****     localisation_timer.Init.RepetitionCounter = 0;
  73              		.loc 1 153 5 is_stmt 1 view .LVU14
  74              		.loc 1 153 47 is_stmt 0 view .LVU15
  75 002c 6561     		str	r5, [r4, #20]
 154:../../applications/murata-dualstack-example-ns/src/murata-dualstack-example-ns.c ****     HAL_TIM_Base_Init(&localisation_timer);
ARM GAS  C:\Users\yvesk\AppData\Local\Temp\cc7ZgnLm.s 			page 5


  76              		.loc 1 154 5 is_stmt 1 view .LVU16
  77 002e 2046     		mov	r0, r4
  78 0030 FFF7FEFF 		bl	HAL_TIM_Base_Init
  79              	.LVL0:
 155:../../applications/murata-dualstack-example-ns/src/murata-dualstack-example-ns.c ****     HAL_TIM_Base_Start_IT(&localisation_timer);
  80              		.loc 1 155 5 view .LVU17
  81 0034 2046     		mov	r0, r4
  82 0036 FFF7FEFF 		bl	HAL_TIM_Base_Start_IT
  83              	.LVL1:
 156:../../applications/murata-dualstack-example-ns/src/murata-dualstack-example-ns.c ****     HAL_NVIC_SetPriority(TIM2_IRQn, 0, 0);                              //set de priority of the in
  84              		.loc 1 156 5 view .LVU18
  85 003a 2A46     		mov	r2, r5
  86 003c 2946     		mov	r1, r5
  87 003e 1C20     		movs	r0, #28
  88 0040 FFF7FEFF 		bl	HAL_NVIC_SetPriority
  89              	.LVL2:
 157:../../applications/murata-dualstack-example-ns/src/murata-dualstack-example-ns.c ****     HAL_NVIC_EnableIRQ(TIM2_IRQn);                                     //enable de interrupt van ti
  90              		.loc 1 157 5 view .LVU19
  91 0044 1C20     		movs	r0, #28
  92 0046 FFF7FEFF 		bl	HAL_NVIC_EnableIRQ
  93              	.LVL3:
 158:../../applications/murata-dualstack-example-ns/src/murata-dualstack-example-ns.c **** } 
  94              		.loc 1 158 1 is_stmt 0 view .LVU20
  95 004a 03B0     		add	sp, sp, #12
  96              	.LCFI2:
  97              		.cfi_def_cfa_offset 12
  98              		@ sp needed
  99 004c 30BD     		pop	{r4, r5, pc}
 100              	.L4:
 101 004e 00BF     		.align	2
 102              	.L3:
 103 0050 00100240 		.word	1073876992
 104 0054 00000000 		.word	.LANCHOR0
 105              		.cfi_endproc
 106              	.LFE132:
 108              		.section	.text.InitializeTimer3,"ax",%progbits
 109              		.align	1
 110              		.global	InitializeTimer3
 111              		.syntax unified
 112              		.thumb
 113              		.thumb_func
 114              		.fpu fpv4-sp-d16
 116              	InitializeTimer3:
 117              	.LFB133:
 159:../../applications/murata-dualstack-example-ns/src/murata-dualstack-example-ns.c **** 
 160:../../applications/murata-dualstack-example-ns/src/murata-dualstack-example-ns.c **** void InitializeTimer3()
 161:../../applications/murata-dualstack-example-ns/src/murata-dualstack-example-ns.c **** {
 118              		.loc 1 161 1 is_stmt 1 view -0
 119              		.cfi_startproc
 120              		@ args = 0, pretend = 0, frame = 8
 121              		@ frame_needed = 0, uses_anonymous_args = 0
 122 0000 30B5     		push	{r4, r5, lr}
 123              	.LCFI3:
 124              		.cfi_def_cfa_offset 12
 125              		.cfi_offset 4, -12
 126              		.cfi_offset 5, -8
 127              		.cfi_offset 14, -4
ARM GAS  C:\Users\yvesk\AppData\Local\Temp\cc7ZgnLm.s 			page 6


 128 0002 83B0     		sub	sp, sp, #12
 129              	.LCFI4:
 130              		.cfi_def_cfa_offset 24
 162:../../applications/murata-dualstack-example-ns/src/murata-dualstack-example-ns.c ****     __TIM3_CLK_ENABLE();
 131              		.loc 1 162 5 view .LVU22
 132              	.LBB3:
 133              		.loc 1 162 5 view .LVU23
 134              		.loc 1 162 5 view .LVU24
 135 0004 124B     		ldr	r3, .L7
 136 0006 9A6D     		ldr	r2, [r3, #88]
 137 0008 42F00202 		orr	r2, r2, #2
 138 000c 9A65     		str	r2, [r3, #88]
 139              		.loc 1 162 5 view .LVU25
 140 000e 9B6D     		ldr	r3, [r3, #88]
 141 0010 03F00203 		and	r3, r3, #2
 142 0014 0193     		str	r3, [sp, #4]
 143              		.loc 1 162 5 view .LVU26
 144 0016 019B     		ldr	r3, [sp, #4]
 145              	.LBE3:
 163:../../applications/murata-dualstack-example-ns/src/murata-dualstack-example-ns.c ****     inactive_timer.Init.Prescaler = 16000;                            //1 step = clockperiod x pres
 146              		.loc 1 163 5 view .LVU27
 147              		.loc 1 163 35 is_stmt 0 view .LVU28
 148 0018 0E4C     		ldr	r4, .L7+4
 149 001a 4FF47A53 		mov	r3, #16000
 150 001e 6360     		str	r3, [r4, #4]
 164:../../applications/murata-dualstack-example-ns/src/murata-dualstack-example-ns.c ****     inactive_timer.Init.CounterMode = TIM_COUNTERMODE_UP;             //timer will count up
 151              		.loc 1 164 5 is_stmt 1 view .LVU29
 152              		.loc 1 164 37 is_stmt 0 view .LVU30
 153 0020 0025     		movs	r5, #0
 154 0022 A560     		str	r5, [r4, #8]
 165:../../applications/murata-dualstack-example-ns/src/murata-dualstack-example-ns.c ****     inactive_timer.Init.Period = 30000;                                 //60000 steps of clockperio
 155              		.loc 1 165 5 is_stmt 1 view .LVU31
 156              		.loc 1 165 32 is_stmt 0 view .LVU32
 157 0024 47F23053 		movw	r3, #30000
 158 0028 E360     		str	r3, [r4, #12]
 166:../../applications/murata-dualstack-example-ns/src/murata-dualstack-example-ns.c ****     inactive_timer.Init.ClockDivision = TIM_CLOCKDIVISION_DIV1;
 159              		.loc 1 166 5 is_stmt 1 view .LVU33
 160              		.loc 1 166 39 is_stmt 0 view .LVU34
 161 002a 2561     		str	r5, [r4, #16]
 167:../../applications/murata-dualstack-example-ns/src/murata-dualstack-example-ns.c ****     inactive_timer.Init.RepetitionCounter = 0;
 162              		.loc 1 167 5 is_stmt 1 view .LVU35
 163              		.loc 1 167 43 is_stmt 0 view .LVU36
 164 002c 6561     		str	r5, [r4, #20]
 168:../../applications/murata-dualstack-example-ns/src/murata-dualstack-example-ns.c ****     HAL_TIM_Base_Init(&inactive_timer);
 165              		.loc 1 168 5 is_stmt 1 view .LVU37
 166 002e 2046     		mov	r0, r4
 167 0030 FFF7FEFF 		bl	HAL_TIM_Base_Init
 168              	.LVL4:
 169:../../applications/murata-dualstack-example-ns/src/murata-dualstack-example-ns.c ****     HAL_TIM_Base_Start_IT(&inactive_timer);
 169              		.loc 1 169 5 view .LVU38
 170 0034 2046     		mov	r0, r4
 171 0036 FFF7FEFF 		bl	HAL_TIM_Base_Start_IT
 172              	.LVL5:
 170:../../applications/murata-dualstack-example-ns/src/murata-dualstack-example-ns.c ****     HAL_NVIC_SetPriority(TIM3_IRQn, 0, 0); 
 173              		.loc 1 170 5 view .LVU39
 174 003a 2A46     		mov	r2, r5
 175 003c 2946     		mov	r1, r5
ARM GAS  C:\Users\yvesk\AppData\Local\Temp\cc7ZgnLm.s 			page 7


 176 003e 1D20     		movs	r0, #29
 177 0040 FFF7FEFF 		bl	HAL_NVIC_SetPriority
 178              	.LVL6:
 171:../../applications/murata-dualstack-example-ns/src/murata-dualstack-example-ns.c ****     HAL_NVIC_EnableIRQ(TIM3_IRQn); 
 179              		.loc 1 171 5 view .LVU40
 180 0044 1D20     		movs	r0, #29
 181 0046 FFF7FEFF 		bl	HAL_NVIC_EnableIRQ
 182              	.LVL7:
 172:../../applications/murata-dualstack-example-ns/src/murata-dualstack-example-ns.c **** }
 183              		.loc 1 172 1 is_stmt 0 view .LVU41
 184 004a 03B0     		add	sp, sp, #12
 185              	.LCFI5:
 186              		.cfi_def_cfa_offset 12
 187              		@ sp needed
 188 004c 30BD     		pop	{r4, r5, pc}
 189              	.L8:
 190 004e 00BF     		.align	2
 191              	.L7:
 192 0050 00100240 		.word	1073876992
 193 0054 00000000 		.word	.LANCHOR1
 194              		.cfi_endproc
 195              	.LFE133:
 197              		.section	.text.goToSleep,"ax",%progbits
 198              		.align	1
 199              		.global	goToSleep
 200              		.syntax unified
 201              		.thumb
 202              		.thumb_func
 203              		.fpu fpv4-sp-d16
 205              	goToSleep:
 206              	.LFB135:
 173:../../applications/murata-dualstack-example-ns/src/murata-dualstack-example-ns.c **** 
 174:../../applications/murata-dualstack-example-ns/src/murata-dualstack-example-ns.c **** /* void InitializeTimer4()
 175:../../applications/murata-dualstack-example-ns/src/murata-dualstack-example-ns.c **** {
 176:../../applications/murata-dualstack-example-ns/src/murata-dualstack-example-ns.c ****     __TIM4_CLK_ENABLE();
 177:../../applications/murata-dualstack-example-ns/src/murata-dualstack-example-ns.c ****     inactive_timer.Init.Prescaler = 16000;                            //1 step = clockperiod x pres
 178:../../applications/murata-dualstack-example-ns/src/murata-dualstack-example-ns.c ****     inactive_timer.Init.CounterMode = TIM_COUNTERMODE_UP;             //timer will count up
 179:../../applications/murata-dualstack-example-ns/src/murata-dualstack-example-ns.c ****     inactive_timer.Init.Period = 6000;                                 //6000 steps of clockperiodx
 180:../../applications/murata-dualstack-example-ns/src/murata-dualstack-example-ns.c ****     inactive_timer.Init.ClockDivision = TIM_CLOCKDIVISION_DIV1;
 181:../../applications/murata-dualstack-example-ns/src/murata-dualstack-example-ns.c ****     inactive_timer.Init.RepetitionCounter = 0;
 182:../../applications/murata-dualstack-example-ns/src/murata-dualstack-example-ns.c ****     HAL_TIM_Base_Init(&send_sleepmessage_timer);
 183:../../applications/murata-dualstack-example-ns/src/murata-dualstack-example-ns.c ****     HAL_TIM_Base_Start_IT(&send_sleepmessage_timer);
 184:../../applications/murata-dualstack-example-ns/src/murata-dualstack-example-ns.c ****     HAL_NVIC_SetPriority(TIM4_IRQn, 0, 0); 
 185:../../applications/murata-dualstack-example-ns/src/murata-dualstack-example-ns.c ****     HAL_NVIC_EnableIRQ(TIM4_IRQn); 
 186:../../applications/murata-dualstack-example-ns/src/murata-dualstack-example-ns.c **** }
 187:../../applications/murata-dualstack-example-ns/src/murata-dualstack-example-ns.c **** 
 188:../../applications/murata-dualstack-example-ns/src/murata-dualstack-example-ns.c **** 
 189:../../applications/murata-dualstack-example-ns/src/murata-dualstack-example-ns.c **** 
 190:../../applications/murata-dualstack-example-ns/src/murata-dualstack-example-ns.c **** /* ---------------------------------------------------------------------------*/
 191:../../applications/murata-dualstack-example-ns/src/murata-dualstack-example-ns.c **** /* ----------------------------- Main -----------------------------------------------*/
 192:../../applications/murata-dualstack-example-ns/src/murata-dualstack-example-ns.c **** /* ---------------------------------------------------------------------------*/
 193:../../applications/murata-dualstack-example-ns/src/murata-dualstack-example-ns.c **** 
 194:../../applications/murata-dualstack-example-ns/src/murata-dualstack-example-ns.c **** /**
 195:../../applications/murata-dualstack-example-ns/src/murata-dualstack-example-ns.c ****   * @brief  The application entry point.
 196:../../applications/murata-dualstack-example-ns/src/murata-dualstack-example-ns.c ****   * @retval int
 197:../../applications/murata-dualstack-example-ns/src/murata-dualstack-example-ns.c ****   */
 198:../../applications/murata-dualstack-example-ns/src/murata-dualstack-example-ns.c **** int main(void)
ARM GAS  C:\Users\yvesk\AppData\Local\Temp\cc7ZgnLm.s 			page 8


 199:../../applications/murata-dualstack-example-ns/src/murata-dualstack-example-ns.c **** {
 200:../../applications/murata-dualstack-example-ns/src/murata-dualstack-example-ns.c ****   /* USER CODE BEGIN 1 */
 201:../../applications/murata-dualstack-example-ns/src/murata-dualstack-example-ns.c **** 
 202:../../applications/murata-dualstack-example-ns/src/murata-dualstack-example-ns.c ****   /* USER CODE END 1 */
 203:../../applications/murata-dualstack-example-ns/src/murata-dualstack-example-ns.c **** 
 204:../../applications/murata-dualstack-example-ns/src/murata-dualstack-example-ns.c ****   /* MCU Configuration--------------------------------------------------------*/
 205:../../applications/murata-dualstack-example-ns/src/murata-dualstack-example-ns.c **** 
 206:../../applications/murata-dualstack-example-ns/src/murata-dualstack-example-ns.c ****   /* Reset of all peripherals, Initializes the Flash interface and the Systick. */
 207:../../applications/murata-dualstack-example-ns/src/murata-dualstack-example-ns.c ****   HAL_Init();
 208:../../applications/murata-dualstack-example-ns/src/murata-dualstack-example-ns.c **** 
 209:../../applications/murata-dualstack-example-ns/src/murata-dualstack-example-ns.c ****   /* USER CODE BEGIN Init */
 210:../../applications/murata-dualstack-example-ns/src/murata-dualstack-example-ns.c **** 
 211:../../applications/murata-dualstack-example-ns/src/murata-dualstack-example-ns.c ****   /* USER CODE END Init */
 212:../../applications/murata-dualstack-example-ns/src/murata-dualstack-example-ns.c **** 
 213:../../applications/murata-dualstack-example-ns/src/murata-dualstack-example-ns.c ****   /* Configure the system clock */
 214:../../applications/murata-dualstack-example-ns/src/murata-dualstack-example-ns.c ****   SystemClock_Config();
 215:../../applications/murata-dualstack-example-ns/src/murata-dualstack-example-ns.c **** 
 216:../../applications/murata-dualstack-example-ns/src/murata-dualstack-example-ns.c ****   /* USER CODE BEGIN SysInit */
 217:../../applications/murata-dualstack-example-ns/src/murata-dualstack-example-ns.c **** 
 218:../../applications/murata-dualstack-example-ns/src/murata-dualstack-example-ns.c ****   /* USER CODE END SysInit */
 219:../../applications/murata-dualstack-example-ns/src/murata-dualstack-example-ns.c **** 
 220:../../applications/murata-dualstack-example-ns/src/murata-dualstack-example-ns.c ****   /* Initialize the platform, OCTA in this case */
 221:../../applications/murata-dualstack-example-ns/src/murata-dualstack-example-ns.c ****   Initialize_Platform();
 222:../../applications/murata-dualstack-example-ns/src/murata-dualstack-example-ns.c **** 
 223:../../applications/murata-dualstack-example-ns/src/murata-dualstack-example-ns.c ****   /* Initialize the the timer */
 224:../../applications/murata-dualstack-example-ns/src/murata-dualstack-example-ns.c ****   InitializeTimer2();
 225:../../applications/murata-dualstack-example-ns/src/murata-dualstack-example-ns.c ****   InitializeTimer3(); 
 226:../../applications/murata-dualstack-example-ns/src/murata-dualstack-example-ns.c **** 
 227:../../applications/murata-dualstack-example-ns/src/murata-dualstack-example-ns.c ****   /* USER CODE BEGIN 2 */
 228:../../applications/murata-dualstack-example-ns/src/murata-dualstack-example-ns.c **** 
 229:../../applications/murata-dualstack-example-ns/src/murata-dualstack-example-ns.c ****   // Get Unique ID of octa
 230:../../applications/murata-dualstack-example-ns/src/murata-dualstack-example-ns.c ****   short_UID = get_UID();
 231:../../applications/murata-dualstack-example-ns/src/murata-dualstack-example-ns.c **** 
 232:../../applications/murata-dualstack-example-ns/src/murata-dualstack-example-ns.c ****   //LSM30AGR (accelerometer)
 233:../../applications/murata-dualstack-example-ns/src/murata-dualstack-example-ns.c ****   LSM303AGR_setI2CInterface(&common_I2C);
 234:../../applications/murata-dualstack-example-ns/src/murata-dualstack-example-ns.c ****   setI2CInterface_SHT31(&common_I2C);
 235:../../applications/murata-dualstack-example-ns/src/murata-dualstack-example-ns.c ****   SHT31_begin(); 
 236:../../applications/murata-dualstack-example-ns/src/murata-dualstack-example-ns.c ****   LSM303AGR_initDefault();
 237:../../applications/murata-dualstack-example-ns/src/murata-dualstack-example-ns.c **** 
 238:../../applications/murata-dualstack-example-ns/src/murata-dualstack-example-ns.c ****   //initialize BLE
 239:../../applications/murata-dualstack-example-ns/src/murata-dualstack-example-ns.c ****   HAL_UART_Receive_IT(&BLE_UART, (uint8_t *)tmpbuf_ble,sizeof(tmpbuf_ble)); 
 240:../../applications/murata-dualstack-example-ns/src/murata-dualstack-example-ns.c **** 
 241:../../applications/murata-dualstack-example-ns/src/murata-dualstack-example-ns.c ****   /* EXTI interrupt init*/
 242:../../applications/murata-dualstack-example-ns/src/murata-dualstack-example-ns.c ****   HAL_NVIC_SetPriority(EXTI1_IRQn, 0, 0);
 243:../../applications/murata-dualstack-example-ns/src/murata-dualstack-example-ns.c ****   HAL_NVIC_EnableIRQ(EXTI1_IRQn);
 244:../../applications/murata-dualstack-example-ns/src/murata-dualstack-example-ns.c **** 
 245:../../applications/murata-dualstack-example-ns/src/murata-dualstack-example-ns.c ****   HAL_NVIC_SetPriority(EXTI0_IRQn, 0, 0);
 246:../../applications/murata-dualstack-example-ns/src/murata-dualstack-example-ns.c ****   HAL_NVIC_EnableIRQ(EXTI0_IRQn);
 247:../../applications/murata-dualstack-example-ns/src/murata-dualstack-example-ns.c **** 
 248:../../applications/murata-dualstack-example-ns/src/murata-dualstack-example-ns.c **** 
 249:../../applications/murata-dualstack-example-ns/src/murata-dualstack-example-ns.c **** 
 250:../../applications/murata-dualstack-example-ns/src/murata-dualstack-example-ns.c ****   // Print Welcome Message
 251:../../applications/murata-dualstack-example-ns/src/murata-dualstack-example-ns.c ****   printWelcome();
 252:../../applications/murata-dualstack-example-ns/src/murata-dualstack-example-ns.c ****   
 253:../../applications/murata-dualstack-example-ns/src/murata-dualstack-example-ns.c ****   // LORAWAN
 254:../../applications/murata-dualstack-example-ns/src/murata-dualstack-example-ns.c ****   murata_init = Murata_Initialize(short_UID, 0);
 255:../../applications/murata-dualstack-example-ns/src/murata-dualstack-example-ns.c **** 
ARM GAS  C:\Users\yvesk\AppData\Local\Temp\cc7ZgnLm.s 			page 9


 256:../../applications/murata-dualstack-example-ns/src/murata-dualstack-example-ns.c ****   if (murata_init)
 257:../../applications/murata-dualstack-example-ns/src/murata-dualstack-example-ns.c ****   {
 258:../../applications/murata-dualstack-example-ns/src/murata-dualstack-example-ns.c ****     printf("Murata dualstack module init OK\r\n\r\n");
 259:../../applications/murata-dualstack-example-ns/src/murata-dualstack-example-ns.c ****   }
 260:../../applications/murata-dualstack-example-ns/src/murata-dualstack-example-ns.c **** 
 261:../../applications/murata-dualstack-example-ns/src/murata-dualstack-example-ns.c **** 
 262:../../applications/murata-dualstack-example-ns/src/murata-dualstack-example-ns.c ****   /* USER CODE END 2 */
 263:../../applications/murata-dualstack-example-ns/src/murata-dualstack-example-ns.c **** HAL_Delay(2000);
 264:../../applications/murata-dualstack-example-ns/src/murata-dualstack-example-ns.c **** quickBlink(); 
 265:../../applications/murata-dualstack-example-ns/src/murata-dualstack-example-ns.c **** 
 266:../../applications/murata-dualstack-example-ns/src/murata-dualstack-example-ns.c ****  
 267:../../applications/murata-dualstack-example-ns/src/murata-dualstack-example-ns.c ****   uint8_t counter = 0;
 268:../../applications/murata-dualstack-example-ns/src/murata-dualstack-example-ns.c ****   uint8_t use_lora = 1;
 269:../../applications/murata-dualstack-example-ns/src/murata-dualstack-example-ns.c ****   uint8_t timerValue = 0; 
 270:../../applications/murata-dualstack-example-ns/src/murata-dualstack-example-ns.c ****   /* USER CODE BEGIN WHILE */
 271:../../applications/murata-dualstack-example-ns/src/murata-dualstack-example-ns.c **** 
 272:../../applications/murata-dualstack-example-ns/src/murata-dualstack-example-ns.c ****   /* while(1) {
 273:../../applications/murata-dualstack-example-ns/src/murata-dualstack-example-ns.c ****     LoRaWAN_send(NULL); 
 274:../../applications/murata-dualstack-example-ns/src/murata-dualstack-example-ns.c ****     HAL_Delay(5000);
 275:../../applications/murata-dualstack-example-ns/src/murata-dualstack-example-ns.c ****     IWDG_feed(NULL);
 276:../../applications/murata-dualstack-example-ns/src/murata-dualstack-example-ns.c ****   } */
 277:../../applications/murata-dualstack-example-ns/src/murata-dualstack-example-ns.c **** 
 278:../../applications/murata-dualstack-example-ns/src/murata-dualstack-example-ns.c ****   while (1)
 279:../../applications/murata-dualstack-example-ns/src/murata-dualstack-example-ns.c ****   { 
 280:../../applications/murata-dualstack-example-ns/src/murata-dualstack-example-ns.c ****     while(isActiveSending) {
 281:../../applications/murata-dualstack-example-ns/src/murata-dualstack-example-ns.c ****     IWDG_feed(NULL);
 282:../../applications/murata-dualstack-example-ns/src/murata-dualstack-example-ns.c ****     HAL_Delay(5000);
 283:../../applications/murata-dualstack-example-ns/src/murata-dualstack-example-ns.c ****       if(murata_data_ready)
 284:../../applications/murata-dualstack-example-ns/src/murata-dualstack-example-ns.c ****         {
 285:../../applications/murata-dualstack-example-ns/src/murata-dualstack-example-ns.c ****           //printf("processing murata fifo\r\n");
 286:../../applications/murata-dualstack-example-ns/src/murata-dualstack-example-ns.c ****           murata_data_ready = !Murata_process_fifo();
 287:../../applications/murata-dualstack-example-ns/src/murata-dualstack-example-ns.c ****         }
 288:../../applications/murata-dualstack-example-ns/src/murata-dualstack-example-ns.c **** 
 289:../../applications/murata-dualstack-example-ns/src/murata-dualstack-example-ns.c ****     }
 290:../../applications/murata-dualstack-example-ns/src/murata-dualstack-example-ns.c **** 
 291:../../applications/murata-dualstack-example-ns/src/murata-dualstack-example-ns.c **** 
 292:../../applications/murata-dualstack-example-ns/src/murata-dualstack-example-ns.c ****      IWDG_feed(NULL); 
 293:../../applications/murata-dualstack-example-ns/src/murata-dualstack-example-ns.c ****     
 294:../../applications/murata-dualstack-example-ns/src/murata-dualstack-example-ns.c ****     //In standaard modus staat de changeAcceleroMode op 0, dit zorgt ervoor dat voor de minste bewe
 295:../../applications/murata-dualstack-example-ns/src/murata-dualstack-example-ns.c ****     //het toestel wakker wordt en het zijn locatie begint te verzenden.
 296:../../applications/murata-dualstack-example-ns/src/murata-dualstack-example-ns.c ****     //als op de button wordt gedrukt door de gebruiker zal in de interrupthandler de changeAccelero
 297:../../applications/murata-dualstack-example-ns/src/murata-dualstack-example-ns.c ****     // op 1 worden gezet. Ook wordt de repMode vlag getoggled. Elke keer als er op de knop wordt ge
 298:../../applications/murata-dualstack-example-ns/src/murata-dualstack-example-ns.c ****     //zijn er dus twee mogelijkheden: 
 299:../../applications/murata-dualstack-example-ns/src/murata-dualstack-example-ns.c ****     //1) changeAcceleroMode=1 + repMode=1 : gebruiker wil starten met reppen, de acc zal nu enkel r
 300:../../applications/murata-dualstack-example-ns/src/murata-dualstack-example-ns.c ****     //2) changeAcceleroMode=1 + repMode=0 : gebruiker wil stoppen met reppen, de default changeAcce
 301:../../applications/murata-dualstack-example-ns/src/murata-dualstack-example-ns.c ****     if(changeAcceleroMode==1){
 302:../../applications/murata-dualstack-example-ns/src/murata-dualstack-example-ns.c ****     
 303:../../applications/murata-dualstack-example-ns/src/murata-dualstack-example-ns.c ****       if(repMode==1){
 304:../../applications/murata-dualstack-example-ns/src/murata-dualstack-example-ns.c ****         // send dash7 message with all info when user starts repping
 305:../../applications/murata-dualstack-example-ns/src/murata-dualstack-example-ns.c ****         LSM303AGR_initDouble();         //vanaf nu laten we de accelorometer enkel interrupten bij 
 306:../../applications/murata-dualstack-example-ns/src/murata-dualstack-example-ns.c ****         printf("Started Repping\r\n");
 307:../../applications/murata-dualstack-example-ns/src/murata-dualstack-example-ns.c ****         printf("LSM in double click mode \r\n");
 308:../../applications/murata-dualstack-example-ns/src/murata-dualstack-example-ns.c ****         if (murata_init) {
 309:../../applications/murata-dualstack-example-ns/src/murata-dualstack-example-ns.c ****           printf("Sending D7 Message with BLE info + temp + hum\r\n");
 310:../../applications/murata-dualstack-example-ns/src/murata-dualstack-example-ns.c ****           temp_hum_measurement();
 311:../../applications/murata-dualstack-example-ns/src/murata-dualstack-example-ns.c ****           send_message(1);
 312:../../applications/murata-dualstack-example-ns/src/murata-dualstack-example-ns.c ****           //LoRaWAN_send(NULL);
ARM GAS  C:\Users\yvesk\AppData\Local\Temp\cc7ZgnLm.s 			page 10


 313:../../applications/murata-dualstack-example-ns/src/murata-dualstack-example-ns.c ****          
 314:../../applications/murata-dualstack-example-ns/src/murata-dualstack-example-ns.c ****         //TODO: Send BLE info
 315:../../applications/murata-dualstack-example-ns/src/murata-dualstack-example-ns.c ****         }
 316:../../applications/murata-dualstack-example-ns/src/murata-dualstack-example-ns.c ****         
 317:../../applications/murata-dualstack-example-ns/src/murata-dualstack-example-ns.c ****       }else{
 318:../../applications/murata-dualstack-example-ns/src/murata-dualstack-example-ns.c ****         // send dash7 message with all info when user stopped repping
 319:../../applications/murata-dualstack-example-ns/src/murata-dualstack-example-ns.c ****         LSM303AGR_initDefault();    //vanaf nu laten we de accelerometer interrupten bij elke beweg
 320:../../applications/murata-dualstack-example-ns/src/murata-dualstack-example-ns.c ****         printf("Stopped Repping\nLSM in default mode \r\n\n");
 321:../../applications/murata-dualstack-example-ns/src/murata-dualstack-example-ns.c ****         if (murata_init) {
 322:../../applications/murata-dualstack-example-ns/src/murata-dualstack-example-ns.c ****           printf("Sending D7 Message with BLE info + temp + hum + amount of reps\r\n");
 323:../../applications/murata-dualstack-example-ns/src/murata-dualstack-example-ns.c ****           temp_hum_measurement();
 324:../../applications/murata-dualstack-example-ns/src/murata-dualstack-example-ns.c ****         //Dash7_send_temphum();
 325:../../applications/murata-dualstack-example-ns/src/murata-dualstack-example-ns.c ****           send_message(2); 
 326:../../applications/murata-dualstack-example-ns/src/murata-dualstack-example-ns.c ****           //LoRaWAN_send(NULL);
 327:../../applications/murata-dualstack-example-ns/src/murata-dualstack-example-ns.c **** 
 328:../../applications/murata-dualstack-example-ns/src/murata-dualstack-example-ns.c ****         //TODO: Also send BLE info and reps
 329:../../applications/murata-dualstack-example-ns/src/murata-dualstack-example-ns.c **** 
 330:../../applications/murata-dualstack-example-ns/src/murata-dualstack-example-ns.c ****         //Set reps to zero again, for the next user
 331:../../applications/murata-dualstack-example-ns/src/murata-dualstack-example-ns.c ****         }
 332:../../applications/murata-dualstack-example-ns/src/murata-dualstack-example-ns.c ****         rep_counter=0;  //reset the rep counter
 333:../../applications/murata-dualstack-example-ns/src/murata-dualstack-example-ns.c ****       }
 334:../../applications/murata-dualstack-example-ns/src/murata-dualstack-example-ns.c ****       changeAcceleroMode=0; //set acceleromode flag back to zero
 335:../../applications/murata-dualstack-example-ns/src/murata-dualstack-example-ns.c **** 
 336:../../applications/murata-dualstack-example-ns/src/murata-dualstack-example-ns.c ****     }
 337:../../applications/murata-dualstack-example-ns/src/murata-dualstack-example-ns.c **** 
 338:../../applications/murata-dualstack-example-ns/src/murata-dualstack-example-ns.c ****     //als er een rep wordt geregistreerd zal dit een double interrupt genereren en in de handler wo
 339:../../applications/murata-dualstack-example-ns/src/murata-dualstack-example-ns.c ****     //we sturen dan ff de localisationtimer value  en de rep counter naar putty maar we checken eer
 340:../../applications/murata-dualstack-example-ns/src/murata-dualstack-example-ns.c ****     //en de repflag dus niet per ongeluk op 1 werd gezet door een random beweging van de dumbbel in
 341:../../applications/murata-dualstack-example-ns/src/murata-dualstack-example-ns.c ****     //we resetten dan ook de inactive timer zodat het device niet in sleep gaat (want er wordt nog 
 342:../../applications/murata-dualstack-example-ns/src/murata-dualstack-example-ns.c ****     //
 343:../../applications/murata-dualstack-example-ns/src/murata-dualstack-example-ns.c ****     if (repFlag==1) {
 344:../../applications/murata-dualstack-example-ns/src/murata-dualstack-example-ns.c ****       if (repMode==1) {
 345:../../applications/murata-dualstack-example-ns/src/murata-dualstack-example-ns.c ****       // Request to enter SLEEP mode
 346:../../applications/murata-dualstack-example-ns/src/murata-dualstack-example-ns.c ****       //timerValue = __HAL_TIM_GET_COUNTER(&localisation_timer);
 347:../../applications/murata-dualstack-example-ns/src/murata-dualstack-example-ns.c ****       //printf("Timer value: %d,\r\n\r\n",timerValue);
 348:../../applications/murata-dualstack-example-ns/src/murata-dualstack-example-ns.c ****       rep_counter++; 
 349:../../applications/murata-dualstack-example-ns/src/murata-dualstack-example-ns.c ****       printf("Rep counter: %d,\r\n\r\n",rep_counter);
 350:../../applications/murata-dualstack-example-ns/src/murata-dualstack-example-ns.c ****       } 
 351:../../applications/murata-dualstack-example-ns/src/murata-dualstack-example-ns.c **** 
 352:../../applications/murata-dualstack-example-ns/src/murata-dualstack-example-ns.c ****         //reset de inactive timer want accelerometer interrupt
 353:../../applications/murata-dualstack-example-ns/src/murata-dualstack-example-ns.c ****         HAL_TIM_Base_Stop_IT(&inactive_timer);    
 354:../../applications/murata-dualstack-example-ns/src/murata-dualstack-example-ns.c ****  
 355:../../applications/murata-dualstack-example-ns/src/murata-dualstack-example-ns.c **** 
 356:../../applications/murata-dualstack-example-ns/src/murata-dualstack-example-ns.c ****         __HAL_TIM_SET_COUNTER(&inactive_timer, 0);
 357:../../applications/murata-dualstack-example-ns/src/murata-dualstack-example-ns.c ****  
 358:../../applications/murata-dualstack-example-ns/src/murata-dualstack-example-ns.c **** 
 359:../../applications/murata-dualstack-example-ns/src/murata-dualstack-example-ns.c ****         HAL_TIM_Base_Start_IT(&inactive_timer);         
 360:../../applications/murata-dualstack-example-ns/src/murata-dualstack-example-ns.c **** 
 361:../../applications/murata-dualstack-example-ns/src/murata-dualstack-example-ns.c ****           repFlag=0; 
 362:../../applications/murata-dualstack-example-ns/src/murata-dualstack-example-ns.c ****     }  
 363:../../applications/murata-dualstack-example-ns/src/murata-dualstack-example-ns.c **** 
 364:../../applications/murata-dualstack-example-ns/src/murata-dualstack-example-ns.c **** 
 365:../../applications/murata-dualstack-example-ns/src/murata-dualstack-example-ns.c ****     //Als een periode van onze localisationtimer is verlopen genereert dit een interrupt en wordt d
 366:../../applications/murata-dualstack-example-ns/src/murata-dualstack-example-ns.c ****     //Dit wil zeggen dat we wakker moeten worden en een message moeten zenden. 
 367:../../applications/murata-dualstack-example-ns/src/murata-dualstack-example-ns.c ****     if(timer2flag==1) {
 368:../../applications/murata-dualstack-example-ns/src/murata-dualstack-example-ns.c ****       printf("Localisation timer elapsed\r\n");
 369:../../applications/murata-dualstack-example-ns/src/murata-dualstack-example-ns.c ****        //send dash7 localisation message
ARM GAS  C:\Users\yvesk\AppData\Local\Temp\cc7ZgnLm.s 			page 11


 370:../../applications/murata-dualstack-example-ns/src/murata-dualstack-example-ns.c ****       if (!repMode) {
 371:../../applications/murata-dualstack-example-ns/src/murata-dualstack-example-ns.c ****         if (murata_init) {
 372:../../applications/murata-dualstack-example-ns/src/murata-dualstack-example-ns.c ****           printf("Sending dash7 localisation message (once per minute)\r\n\r\n");
 373:../../applications/murata-dualstack-example-ns/src/murata-dualstack-example-ns.c ****             temp_hum_measurement();
 374:../../applications/murata-dualstack-example-ns/src/murata-dualstack-example-ns.c ****           send_message(1);
 375:../../applications/murata-dualstack-example-ns/src/murata-dualstack-example-ns.c ****           
 376:../../applications/murata-dualstack-example-ns/src/murata-dualstack-example-ns.c ****         }
 377:../../applications/murata-dualstack-example-ns/src/murata-dualstack-example-ns.c ****       }
 378:../../applications/murata-dualstack-example-ns/src/murata-dualstack-example-ns.c ****      timer2flag=0;
 379:../../applications/murata-dualstack-example-ns/src/murata-dualstack-example-ns.c ****     }
 380:../../applications/murata-dualstack-example-ns/src/murata-dualstack-example-ns.c **** 
 381:../../applications/murata-dualstack-example-ns/src/murata-dualstack-example-ns.c ****     // Als het device een bepaalde periode inactief is (er wordt geen beweging gedetecteerd), maakt
 382:../../applications/murata-dualstack-example-ns/src/murata-dualstack-example-ns.c ****     // om naar slaapstand te gaan. Hij stuurt nog eerst een laatste localisatie bericht.    
 383:../../applications/murata-dualstack-example-ns/src/murata-dualstack-example-ns.c ****     if(timer3flag==1) {
 384:../../applications/murata-dualstack-example-ns/src/murata-dualstack-example-ns.c ****       if (murata_init) {
 385:../../applications/murata-dualstack-example-ns/src/murata-dualstack-example-ns.c ****         printf("Inactive timer expired, sending last message\r\n\r\n");
 386:../../applications/murata-dualstack-example-ns/src/murata-dualstack-example-ns.c ****         temp_hum_measurement();
 387:../../applications/murata-dualstack-example-ns/src/murata-dualstack-example-ns.c ****         send_message(1); 
 388:../../applications/murata-dualstack-example-ns/src/murata-dualstack-example-ns.c ****         about_to_sleep = 1; 
 389:../../applications/murata-dualstack-example-ns/src/murata-dualstack-example-ns.c ****         //__HAL_TIM_SET_COUNTER(&send_sleepmessage_timer, 0);
 390:../../applications/murata-dualstack-example-ns/src/murata-dualstack-example-ns.c ****         //HAL_TIM_Base_Start_IT(&send_sleepmessage_timer);  
 391:../../applications/murata-dualstack-example-ns/src/murata-dualstack-example-ns.c ****         //timerValue = __HAL_TIM_GET_COUNTER(&localisation_timer);
 392:../../applications/murata-dualstack-example-ns/src/murata-dualstack-example-ns.c ****         //printf("Timer value: %d,\r\n\r\n",timerValue);
 393:../../applications/murata-dualstack-example-ns/src/murata-dualstack-example-ns.c ****       }
 394:../../applications/murata-dualstack-example-ns/src/murata-dualstack-example-ns.c ****      timer3flag=0;
 395:../../applications/murata-dualstack-example-ns/src/murata-dualstack-example-ns.c ****     } 
 396:../../applications/murata-dualstack-example-ns/src/murata-dualstack-example-ns.c **** 
 397:../../applications/murata-dualstack-example-ns/src/murata-dualstack-example-ns.c ****     // Bij het verzenden van het dash7 bericht wordt gecheckt of het versturen een succes was, indi
 398:../../applications/murata-dualstack-example-ns/src/murata-dualstack-example-ns.c ****     // maar het toestel is niet van plan naar slaapstand te gaan, wordt de succes vlag gewoon terug
 399:../../applications/murata-dualstack-example-ns/src/murata-dualstack-example-ns.c ****     if (succes && !about_to_sleep) {
 400:../../applications/murata-dualstack-example-ns/src/murata-dualstack-example-ns.c ****       if (failureCounter > 0) {
 401:../../applications/murata-dualstack-example-ns/src/murata-dualstack-example-ns.c ****         printf("Failure counter = %d\r\n",failureCounter);
 402:../../applications/murata-dualstack-example-ns/src/murata-dualstack-example-ns.c ****       }
 403:../../applications/murata-dualstack-example-ns/src/murata-dualstack-example-ns.c ****       succes = 0; 
 404:../../applications/murata-dualstack-example-ns/src/murata-dualstack-example-ns.c ****     }
 405:../../applications/murata-dualstack-example-ns/src/murata-dualstack-example-ns.c **** 
 406:../../applications/murata-dualstack-example-ns/src/murata-dualstack-example-ns.c **** 
 407:../../applications/murata-dualstack-example-ns/src/murata-dualstack-example-ns.c ****     // Als het verzenden van een bericht een succes was n dit was het laatste bericht dat de aank
 408:../../applications/murata-dualstack-example-ns/src/murata-dualstack-example-ns.c ****     // dan gaan we effectief naar slaapstand. Op vergewissen we ons dat ook het laatste bericht nog
 409:../../applications/murata-dualstack-example-ns/src/murata-dualstack-example-ns.c **** 
 410:../../applications/murata-dualstack-example-ns/src/murata-dualstack-example-ns.c ****     if (  about_to_sleep) { //succes && weggedaan
 411:../../applications/murata-dualstack-example-ns/src/murata-dualstack-example-ns.c ****     //HAL_TIM_Base_Stop_IT(&inactive_timer);    
 412:../../applications/murata-dualstack-example-ns/src/murata-dualstack-example-ns.c ****     //__HAL_TIM_SET_COUNTER(&inactive_timer, 0);
 413:../../applications/murata-dualstack-example-ns/src/murata-dualstack-example-ns.c ****     repMode = 0;
 414:../../applications/murata-dualstack-example-ns/src/murata-dualstack-example-ns.c ****     rep_counter = 0; 
 415:../../applications/murata-dualstack-example-ns/src/murata-dualstack-example-ns.c ****     goToSleep(); 
 416:../../applications/murata-dualstack-example-ns/src/murata-dualstack-example-ns.c ****     send_message(1);
 417:../../applications/murata-dualstack-example-ns/src/murata-dualstack-example-ns.c ****     about_to_sleep = 0;
 418:../../applications/murata-dualstack-example-ns/src/murata-dualstack-example-ns.c ****     }
 419:../../applications/murata-dualstack-example-ns/src/murata-dualstack-example-ns.c **** 
 420:../../applications/murata-dualstack-example-ns/src/murata-dualstack-example-ns.c ****     //als drie keer geen gateways konden bereikt worden, zetten we de messagemode die in sendmessag
 421:../../applications/murata-dualstack-example-ns/src/murata-dualstack-example-ns.c ****     //vanaf dan beginnen we het aantal succesvolle verzendingen via lorawan te zenden
 422:../../applications/murata-dualstack-example-ns/src/murata-dualstack-example-ns.c ****     if (failureCounter==3) {
 423:../../applications/murata-dualstack-example-ns/src/murata-dualstack-example-ns.c ****       printf("Going to LoRaWAN mode\r\n\r\n");
 424:../../applications/murata-dualstack-example-ns/src/murata-dualstack-example-ns.c ****       messageMode=1;      //go to lorawanmode
 425:../../applications/murata-dualstack-example-ns/src/murata-dualstack-example-ns.c ****       successCounter=0;   //we zetten de dash7 succescounter terug op 0
 426:../../applications/murata-dualstack-example-ns/src/murata-dualstack-example-ns.c ****       failureCounter=4;   //we zetten de failure counter op een andere waarde dan 3 zodat dit blok 
ARM GAS  C:\Users\yvesk\AppData\Local\Temp\cc7ZgnLm.s 			page 12


 427:../../applications/murata-dualstack-example-ns/src/murata-dualstack-example-ns.c ****                           
 428:../../applications/murata-dualstack-example-ns/src/murata-dualstack-example-ns.c ****     }
 429:../../applications/murata-dualstack-example-ns/src/murata-dualstack-example-ns.c **** 
 430:../../applications/murata-dualstack-example-ns/src/murata-dualstack-example-ns.c ****       
 431:../../applications/murata-dualstack-example-ns/src/murata-dualstack-example-ns.c ****     // als we drie lorawan messages hebben verzonden checken we nogmaals of de dash7 gateways niet 
 432:../../applications/murata-dualstack-example-ns/src/murata-dualstack-example-ns.c ****     // terug naar dash7 mode te gaan. 
 433:../../applications/murata-dualstack-example-ns/src/murata-dualstack-example-ns.c ****     if (loracounter==3) {
 434:../../applications/murata-dualstack-example-ns/src/murata-dualstack-example-ns.c ****       printf("Check again for dash7 \r\n\r\n");
 435:../../applications/murata-dualstack-example-ns/src/murata-dualstack-example-ns.c ****       messageMode=0;      //ga naar dash7 mode
 436:../../applications/murata-dualstack-example-ns/src/murata-dualstack-example-ns.c ****       loracounter=0;      //zet de lorawan message counter terug op 0
 437:../../applications/murata-dualstack-example-ns/src/murata-dualstack-example-ns.c ****       failureCounter=0;   // NOG TOEGEVOEGD
 438:../../applications/murata-dualstack-example-ns/src/murata-dualstack-example-ns.c ****     }
 439:../../applications/murata-dualstack-example-ns/src/murata-dualstack-example-ns.c **** 
 440:../../applications/murata-dualstack-example-ns/src/murata-dualstack-example-ns.c ****     //vanaf opnieuw 1 succesvolle dash7 verzendingen zijn gebeurd (?)  gaan we terug swichten naar 
 441:../../applications/murata-dualstack-example-ns/src/murata-dualstack-example-ns.c ****      if (successCounter==1) {
 442:../../applications/murata-dualstack-example-ns/src/murata-dualstack-example-ns.c ****       printf("\nGoing to dash7 mode\r\n\r\n");
 443:../../applications/murata-dualstack-example-ns/src/murata-dualstack-example-ns.c ****       messageMode=0;        //go to dash7mode
 444:../../applications/murata-dualstack-example-ns/src/murata-dualstack-example-ns.c ****       successCounter=2;     //step over the 1 value so that between messages this if isn't accessed
 445:../../applications/murata-dualstack-example-ns/src/murata-dualstack-example-ns.c ****                             // deze counter wordt terug op 0 gezet vanaf er terug 3 keer gefailed w
 446:../../applications/murata-dualstack-example-ns/src/murata-dualstack-example-ns.c ****     }
 447:../../applications/murata-dualstack-example-ns/src/murata-dualstack-example-ns.c **** 
 448:../../applications/murata-dualstack-example-ns/src/murata-dualstack-example-ns.c **** 
 449:../../applications/murata-dualstack-example-ns/src/murata-dualstack-example-ns.c ****     // als de bluetooth module iets aankrijgt wordt een interrupt gegenereerd die de BLE_flag zet, 
 450:../../applications/murata-dualstack-example-ns/src/murata-dualstack-example-ns.c ****     // de data ontvangen worden via de receive functie en wordt de data in de tmpbuf_ble geplaatst 
 451:../../applications/murata-dualstack-example-ns/src/murata-dualstack-example-ns.c ****     if (BLE_flag) {
 452:../../applications/murata-dualstack-example-ns/src/murata-dualstack-example-ns.c ****       ble_callback(); 
 453:../../applications/murata-dualstack-example-ns/src/murata-dualstack-example-ns.c ****       HAL_UART_Receive_IT(&BLE_UART, (uint8_t *)tmpbuf_ble, sizeof(tmpbuf_ble)); 
 454:../../applications/murata-dualstack-example-ns/src/murata-dualstack-example-ns.c ****       BLE_flag = 0; 
 455:../../applications/murata-dualstack-example-ns/src/murata-dualstack-example-ns.c ****     }
 456:../../applications/murata-dualstack-example-ns/src/murata-dualstack-example-ns.c **** 
 457:../../applications/murata-dualstack-example-ns/src/murata-dualstack-example-ns.c ****     
 458:../../applications/murata-dualstack-example-ns/src/murata-dualstack-example-ns.c ****     if (lorawanflag) {
 459:../../applications/murata-dualstack-example-ns/src/murata-dualstack-example-ns.c ****       LoRaWAN_send(NULL);
 460:../../applications/murata-dualstack-example-ns/src/murata-dualstack-example-ns.c ****       lorawanflag=0; 
 461:../../applications/murata-dualstack-example-ns/src/murata-dualstack-example-ns.c ****     }
 462:../../applications/murata-dualstack-example-ns/src/murata-dualstack-example-ns.c **** 
 463:../../applications/murata-dualstack-example-ns/src/murata-dualstack-example-ns.c ****     /* USER CODE END WHILE */
 464:../../applications/murata-dualstack-example-ns/src/murata-dualstack-example-ns.c ****     
 465:../../applications/murata-dualstack-example-ns/src/murata-dualstack-example-ns.c ****     /* USER CODE BEGIN 3 */
 466:../../applications/murata-dualstack-example-ns/src/murata-dualstack-example-ns.c ****   }
 467:../../applications/murata-dualstack-example-ns/src/murata-dualstack-example-ns.c ****   /* USER CODE END 3 */
 468:../../applications/murata-dualstack-example-ns/src/murata-dualstack-example-ns.c **** }
 469:../../applications/murata-dualstack-example-ns/src/murata-dualstack-example-ns.c **** 
 470:../../applications/murata-dualstack-example-ns/src/murata-dualstack-example-ns.c **** void goToSleep(void) {
 207              		.loc 1 470 22 is_stmt 1 view -0
 208              		.cfi_startproc
 209              		@ args = 0, pretend = 0, frame = 0
 210              		@ frame_needed = 0, uses_anonymous_args = 0
 211 0000 08B5     		push	{r3, lr}
 212              	.LCFI6:
 213              		.cfi_def_cfa_offset 8
 214              		.cfi_offset 3, -8
 215              		.cfi_offset 14, -4
 471:../../applications/murata-dualstack-example-ns/src/murata-dualstack-example-ns.c ****   
 472:../../applications/murata-dualstack-example-ns/src/murata-dualstack-example-ns.c ****       printf("going into sleepmode\r\n"); 
 216              		.loc 1 472 7 view .LVU43
 217 0002 0A48     		ldr	r0, .L11
ARM GAS  C:\Users\yvesk\AppData\Local\Temp\cc7ZgnLm.s 			page 13


 218 0004 FFF7FEFF 		bl	puts
 219              	.LVL8:
 473:../../applications/murata-dualstack-example-ns/src/murata-dualstack-example-ns.c ****        HAL_SuspendTick(); 
 220              		.loc 1 473 8 view .LVU44
 221 0008 FFF7FEFF 		bl	HAL_SuspendTick
 222              	.LVL9:
 474:../../applications/murata-dualstack-example-ns/src/murata-dualstack-example-ns.c **** 
 475:../../applications/murata-dualstack-example-ns/src/murata-dualstack-example-ns.c ****       HAL_PWR_EnterSTOPMode(PWR_MAINREGULATOR_ON, PWR_SLEEPENTRY_WFI);
 223              		.loc 1 475 7 view .LVU45
 224 000c 0121     		movs	r1, #1
 225 000e 0020     		movs	r0, #0
 226 0010 FFF7FEFF 		bl	HAL_PWR_EnterSTOPMode
 227              	.LVL10:
 476:../../applications/murata-dualstack-example-ns/src/murata-dualstack-example-ns.c **** 
 477:../../applications/murata-dualstack-example-ns/src/murata-dualstack-example-ns.c ****       HAL_ResumeTick(); 
 228              		.loc 1 477 7 view .LVU46
 229 0014 FFF7FEFF 		bl	HAL_ResumeTick
 230              	.LVL11:
 478:../../applications/murata-dualstack-example-ns/src/murata-dualstack-example-ns.c ****       SystemClock_Config(); 
 231              		.loc 1 478 7 view .LVU47
 232 0018 FFF7FEFF 		bl	SystemClock_Config
 233              	.LVL12:
 479:../../applications/murata-dualstack-example-ns/src/murata-dualstack-example-ns.c ****       printf(" came out of sleepmode \r\n");  
 234              		.loc 1 479 7 view .LVU48
 235 001c 0448     		ldr	r0, .L11+4
 236 001e FFF7FEFF 		bl	puts
 237              	.LVL13:
 480:../../applications/murata-dualstack-example-ns/src/murata-dualstack-example-ns.c ****       timer3_first=0;  
 238              		.loc 1 480 7 view .LVU49
 239              		.loc 1 480 19 is_stmt 0 view .LVU50
 240 0022 044B     		ldr	r3, .L11+8
 241 0024 0022     		movs	r2, #0
 242 0026 1A70     		strb	r2, [r3]
 481:../../applications/murata-dualstack-example-ns/src/murata-dualstack-example-ns.c **** }
 243              		.loc 1 481 1 view .LVU51
 244 0028 08BD     		pop	{r3, pc}
 245              	.L12:
 246 002a 00BF     		.align	2
 247              	.L11:
 248 002c 00000000 		.word	.LC0
 249 0030 18000000 		.word	.LC1
 250 0034 00000000 		.word	.LANCHOR2
 251              		.cfi_endproc
 252              	.LFE135:
 254              		.section	.text.LoRaWAN_send,"ax",%progbits
 255              		.align	1
 256              		.global	LoRaWAN_send
 257              		.syntax unified
 258              		.thumb
 259              		.thumb_func
 260              		.fpu fpv4-sp-d16
 262              	LoRaWAN_send:
 263              	.LVL14:
 264              	.LFB137:
 482:../../applications/murata-dualstack-example-ns/src/murata-dualstack-example-ns.c **** 
 483:../../applications/murata-dualstack-example-ns/src/murata-dualstack-example-ns.c **** //----------------------------------------------------------start send message methods-------------
 484:../../applications/murata-dualstack-example-ns/src/murata-dualstack-example-ns.c **** 
ARM GAS  C:\Users\yvesk\AppData\Local\Temp\cc7ZgnLm.s 			page 14


 485:../../applications/murata-dualstack-example-ns/src/murata-dualstack-example-ns.c **** void send_message(uint8_t type) {
 486:../../applications/murata-dualstack-example-ns/src/murata-dualstack-example-ns.c **** 
 487:../../applications/murata-dualstack-example-ns/src/murata-dualstack-example-ns.c ****    quickBlink();
 488:../../applications/murata-dualstack-example-ns/src/murata-dualstack-example-ns.c ****    //messageMode = 1 ; 
 489:../../applications/murata-dualstack-example-ns/src/murata-dualstack-example-ns.c ****    isActiveSending = 1;
 490:../../applications/murata-dualstack-example-ns/src/murata-dualstack-example-ns.c ****    if (messageMode==0) {  //dash7mode    
 491:../../applications/murata-dualstack-example-ns/src/murata-dualstack-example-ns.c ****    printf("dlskfjmdfms")   ;
 492:../../applications/murata-dualstack-example-ns/src/murata-dualstack-example-ns.c ****     switch (type) {
 493:../../applications/murata-dualstack-example-ns/src/murata-dualstack-example-ns.c ****       case 1:
 494:../../applications/murata-dualstack-example-ns/src/murata-dualstack-example-ns.c ****       messageCounter++;
 495:../../applications/murata-dualstack-example-ns/src/murata-dualstack-example-ns.c ****       Dash7_send_temphum();  
 496:../../applications/murata-dualstack-example-ns/src/murata-dualstack-example-ns.c ****       //printf("sending temphum message\r\n");
 497:../../applications/murata-dualstack-example-ns/src/murata-dualstack-example-ns.c ****       break; 
 498:../../applications/murata-dualstack-example-ns/src/murata-dualstack-example-ns.c ****       case 2:
 499:../../applications/murata-dualstack-example-ns/src/murata-dualstack-example-ns.c ****       messageCounter++;
 500:../../applications/murata-dualstack-example-ns/src/murata-dualstack-example-ns.c ****       Dash7_send_allInfo();
 501:../../applications/murata-dualstack-example-ns/src/murata-dualstack-example-ns.c ****      //printf("sending allinfo message\r\n");
 502:../../applications/murata-dualstack-example-ns/src/murata-dualstack-example-ns.c ****       break; 
 503:../../applications/murata-dualstack-example-ns/src/murata-dualstack-example-ns.c ****       default:
 504:../../applications/murata-dualstack-example-ns/src/murata-dualstack-example-ns.c ****       printf("No case was matched\r\n"); 
 505:../../applications/murata-dualstack-example-ns/src/murata-dualstack-example-ns.c ****       break;  
 506:../../applications/murata-dualstack-example-ns/src/murata-dualstack-example-ns.c ****     }
 507:../../applications/murata-dualstack-example-ns/src/murata-dualstack-example-ns.c ****   } else {                               //lorawanmode
 508:../../applications/murata-dualstack-example-ns/src/murata-dualstack-example-ns.c ****       LoRaWAN_send(NULL);  
 509:../../applications/murata-dualstack-example-ns/src/murata-dualstack-example-ns.c ****       loracounter++;
 510:../../applications/murata-dualstack-example-ns/src/murata-dualstack-example-ns.c ****       //Dash7_send_temphum(); 
 511:../../applications/murata-dualstack-example-ns/src/murata-dualstack-example-ns.c ****       printf("sending lorawan message\r\n");
 512:../../applications/murata-dualstack-example-ns/src/murata-dualstack-example-ns.c ****   }  
 513:../../applications/murata-dualstack-example-ns/src/murata-dualstack-example-ns.c **** }
 514:../../applications/murata-dualstack-example-ns/src/murata-dualstack-example-ns.c **** 
 515:../../applications/murata-dualstack-example-ns/src/murata-dualstack-example-ns.c **** 
 516:../../applications/murata-dualstack-example-ns/src/murata-dualstack-example-ns.c **** 
 517:../../applications/murata-dualstack-example-ns/src/murata-dualstack-example-ns.c **** void LoRaWAN_send(void const *argument)
 518:../../applications/murata-dualstack-example-ns/src/murata-dualstack-example-ns.c **** {
 265              		.loc 1 518 1 is_stmt 1 view -0
 266              		.cfi_startproc
 267              		@ args = 0, pretend = 0, frame = 8
 268              		@ frame_needed = 0, uses_anonymous_args = 0
 269              		.loc 1 518 1 is_stmt 0 view .LVU53
 270 0000 00B5     		push	{lr}
 271              	.LCFI7:
 272              		.cfi_def_cfa_offset 4
 273              		.cfi_offset 14, -4
 274 0002 83B0     		sub	sp, sp, #12
 275              	.LCFI8:
 276              		.cfi_def_cfa_offset 16
 519:../../applications/murata-dualstack-example-ns/src/murata-dualstack-example-ns.c ****   if (murata_init)
 277              		.loc 1 519 3 is_stmt 1 view .LVU54
 278              		.loc 1 519 7 is_stmt 0 view .LVU55
 279 0004 174B     		ldr	r3, .L19
 280 0006 1B78     		ldrb	r3, [r3]	@ zero_extendqisi2
 281              		.loc 1 519 6 view .LVU56
 282 0008 3BB3     		cbz	r3, .L14
 283              	.LBB4:
 520:../../applications/murata-dualstack-example-ns/src/murata-dualstack-example-ns.c ****   {
 521:../../applications/murata-dualstack-example-ns/src/murata-dualstack-example-ns.c ****     uint8_t loraMessage[5];
 284              		.loc 1 521 5 is_stmt 1 view .LVU57
ARM GAS  C:\Users\yvesk\AppData\Local\Temp\cc7ZgnLm.s 			page 15


 522:../../applications/murata-dualstack-example-ns/src/murata-dualstack-example-ns.c ****     uint8_t i = 0;
 285              		.loc 1 522 5 view .LVU58
 286              	.LVL15:
 523:../../applications/murata-dualstack-example-ns/src/murata-dualstack-example-ns.c ****     //uint16 counter to uint8 array (little endian)
 524:../../applications/murata-dualstack-example-ns/src/murata-dualstack-example-ns.c ****     //counter (large) type byte
 525:../../applications/murata-dualstack-example-ns/src/murata-dualstack-example-ns.c ****     loraMessage[i++] = SHTData[0];
 287              		.loc 1 525 5 view .LVU59
 288              		.loc 1 525 31 is_stmt 0 view .LVU60
 289 000a 174A     		ldr	r2, .L19+4
 290 000c D2ED007A 		vldr.32	s15, [r2]
 291              	.LVL16:
 292              		.loc 1 525 22 view .LVU61
 293 0010 FCEEE77A 		vcvt.u32.f32	s15, s15
 294 0014 17EE903A 		vmov	r3, s15	@ int
 295 0018 8DF80030 		strb	r3, [sp]
 526:../../applications/murata-dualstack-example-ns/src/murata-dualstack-example-ns.c ****     loraMessage[i++] = SHTData[1];
 296              		.loc 1 526 5 is_stmt 1 view .LVU62
 297              		.loc 1 526 31 is_stmt 0 view .LVU63
 298 001c D2ED017A 		vldr.32	s15, [r2, #4]
 299              	.LVL17:
 300              		.loc 1 526 22 view .LVU64
 301 0020 FCEEE77A 		vcvt.u32.f32	s15, s15
 302 0024 17EE903A 		vmov	r3, s15	@ int
 303 0028 8DF80130 		strb	r3, [sp, #1]
 527:../../applications/murata-dualstack-example-ns/src/murata-dualstack-example-ns.c ****     loraMessage[i++] = 0x00;
 304              		.loc 1 527 5 is_stmt 1 view .LVU65
 305              	.LVL18:
 306              		.loc 1 527 22 is_stmt 0 view .LVU66
 307 002c 0023     		movs	r3, #0
 308 002e 8DF80230 		strb	r3, [sp, #2]
 528:../../applications/murata-dualstack-example-ns/src/murata-dualstack-example-ns.c ****     
 529:../../applications/murata-dualstack-example-ns/src/murata-dualstack-example-ns.c ****     //osMutexWait(txMutexId, osWaitForever);
 530:../../applications/murata-dualstack-example-ns/src/murata-dualstack-example-ns.c ****     if(!Murata_LoRaWAN_Send((uint8_t *)loraMessage, i))
 309              		.loc 1 530 5 is_stmt 1 view .LVU67
 310              		.loc 1 530 9 is_stmt 0 view .LVU68
 311 0032 0321     		movs	r1, #3
 312 0034 6846     		mov	r0, sp
 313              	.LVL19:
 314              		.loc 1 530 9 view .LVU69
 315 0036 FFF7FEFF 		bl	Murata_LoRaWAN_Send
 316              	.LVL20:
 317              		.loc 1 530 7 view .LVU70
 318 003a 50B9     		cbnz	r0, .L15
 531:../../applications/murata-dualstack-example-ns/src/murata-dualstack-example-ns.c ****     {
 532:../../applications/murata-dualstack-example-ns/src/murata-dualstack-example-ns.c ****       murata_init++;
 319              		.loc 1 532 7 is_stmt 1 view .LVU71
 320              		.loc 1 532 18 is_stmt 0 view .LVU72
 321 003c 094A     		ldr	r2, .L19
 322 003e 1378     		ldrb	r3, [r2]	@ zero_extendqisi2
 323 0040 0133     		adds	r3, r3, #1
 324 0042 1370     		strb	r3, [r2]
 533:../../applications/murata-dualstack-example-ns/src/murata-dualstack-example-ns.c ****       if(murata_init == 10)
 325              		.loc 1 533 7 is_stmt 1 view .LVU73
 326              	.L16:
 534:../../applications/murata-dualstack-example-ns/src/murata-dualstack-example-ns.c ****         murata_init == 0;
 535:../../applications/murata-dualstack-example-ns/src/murata-dualstack-example-ns.c ****     }
 536:../../applications/murata-dualstack-example-ns/src/murata-dualstack-example-ns.c ****     else
ARM GAS  C:\Users\yvesk\AppData\Local\Temp\cc7ZgnLm.s 			page 16


 537:../../applications/murata-dualstack-example-ns/src/murata-dualstack-example-ns.c ****     {
 538:../../applications/murata-dualstack-example-ns/src/murata-dualstack-example-ns.c ****       murata_init = 1;
 539:../../applications/murata-dualstack-example-ns/src/murata-dualstack-example-ns.c ****     }
 540:../../applications/murata-dualstack-example-ns/src/murata-dualstack-example-ns.c ****     //BLOCK TX MUTEX FOR 3s
 541:../../applications/murata-dualstack-example-ns/src/murata-dualstack-example-ns.c ****     //osDelay(3000);
 542:../../applications/murata-dualstack-example-ns/src/murata-dualstack-example-ns.c ****     //osMutexRelease(txMutexId);
 543:../../applications/murata-dualstack-example-ns/src/murata-dualstack-example-ns.c ****     LoRaWAN_Counter++;
 327              		.loc 1 543 5 discriminator 1 view .LVU74
 328              		.loc 1 543 20 is_stmt 0 discriminator 1 view .LVU75
 329 0044 094A     		ldr	r2, .L19+8
 330 0046 1388     		ldrh	r3, [r2]
 331 0048 0133     		adds	r3, r3, #1
 332 004a 1380     		strh	r3, [r2]	@ movhi
 333              	.LVL21:
 334              	.L13:
 335              		.loc 1 543 20 discriminator 1 view .LVU76
 336              	.LBE4:
 544:../../applications/murata-dualstack-example-ns/src/murata-dualstack-example-ns.c ****   }
 545:../../applications/murata-dualstack-example-ns/src/murata-dualstack-example-ns.c ****   else{
 546:../../applications/murata-dualstack-example-ns/src/murata-dualstack-example-ns.c ****     printf("murata not initialized, not sending\r\n");
 547:../../applications/murata-dualstack-example-ns/src/murata-dualstack-example-ns.c ****   }
 548:../../applications/murata-dualstack-example-ns/src/murata-dualstack-example-ns.c **** }
 337              		.loc 1 548 1 view .LVU77
 338 004c 03B0     		add	sp, sp, #12
 339              	.LCFI9:
 340              		.cfi_remember_state
 341              		.cfi_def_cfa_offset 4
 342              		@ sp needed
 343 004e 5DF804FB 		ldr	pc, [sp], #4
 344              	.LVL22:
 345              	.L15:
 346              	.LCFI10:
 347              		.cfi_restore_state
 348              	.LBB5:
 538:../../applications/murata-dualstack-example-ns/src/murata-dualstack-example-ns.c ****     }
 349              		.loc 1 538 7 is_stmt 1 view .LVU78
 538:../../applications/murata-dualstack-example-ns/src/murata-dualstack-example-ns.c ****     }
 350              		.loc 1 538 19 is_stmt 0 view .LVU79
 351 0052 044B     		ldr	r3, .L19
 352 0054 0122     		movs	r2, #1
 353 0056 1A70     		strb	r2, [r3]
 354 0058 F4E7     		b	.L16
 355              	.LVL23:
 356              	.L14:
 538:../../applications/murata-dualstack-example-ns/src/murata-dualstack-example-ns.c ****     }
 357              		.loc 1 538 19 view .LVU80
 358              	.LBE5:
 546:../../applications/murata-dualstack-example-ns/src/murata-dualstack-example-ns.c ****   }
 359              		.loc 1 546 5 is_stmt 1 view .LVU81
 360 005a 0548     		ldr	r0, .L19+12
 361              	.LVL24:
 546:../../applications/murata-dualstack-example-ns/src/murata-dualstack-example-ns.c ****   }
 362              		.loc 1 546 5 is_stmt 0 view .LVU82
 363 005c FFF7FEFF 		bl	puts
 364              	.LVL25:
 365              		.loc 1 548 1 view .LVU83
 366 0060 F4E7     		b	.L13
ARM GAS  C:\Users\yvesk\AppData\Local\Temp\cc7ZgnLm.s 			page 17


 367              	.L20:
 368 0062 00BF     		.align	2
 369              	.L19:
 370 0064 00000000 		.word	.LANCHOR3
 371 0068 00000000 		.word	SHTData
 372 006c 00000000 		.word	.LANCHOR4
 373 0070 00000000 		.word	.LC2
 374              		.cfi_endproc
 375              	.LFE137:
 377              		.section	.text.Dash7_send_temphum,"ax",%progbits
 378              		.align	1
 379              		.global	Dash7_send_temphum
 380              		.syntax unified
 381              		.thumb
 382              		.thumb_func
 383              		.fpu fpv4-sp-d16
 385              	Dash7_send_temphum:
 386              	.LVL26:
 387              	.LFB138:
 549:../../applications/murata-dualstack-example-ns/src/murata-dualstack-example-ns.c **** 
 550:../../applications/murata-dualstack-example-ns/src/murata-dualstack-example-ns.c **** void Dash7_send_temphum(void const *argument)
 551:../../applications/murata-dualstack-example-ns/src/murata-dualstack-example-ns.c **** {
 388              		.loc 1 551 1 is_stmt 1 view -0
 389              		.cfi_startproc
 390              		@ args = 0, pretend = 0, frame = 8
 391              		@ frame_needed = 0, uses_anonymous_args = 0
 392              		.loc 1 551 1 is_stmt 0 view .LVU85
 393 0000 00B5     		push	{lr}
 394              	.LCFI11:
 395              		.cfi_def_cfa_offset 4
 396              		.cfi_offset 14, -4
 397 0002 83B0     		sub	sp, sp, #12
 398              	.LCFI12:
 399              		.cfi_def_cfa_offset 16
 552:../../applications/murata-dualstack-example-ns/src/murata-dualstack-example-ns.c **** 
 553:../../applications/murata-dualstack-example-ns/src/murata-dualstack-example-ns.c ****   if (murata_init)
 400              		.loc 1 553 3 is_stmt 1 view .LVU86
 401              		.loc 1 553 7 is_stmt 0 view .LVU87
 402 0004 1C4B     		ldr	r3, .L27
 403 0006 1B78     		ldrb	r3, [r3]	@ zero_extendqisi2
 404              		.loc 1 553 6 view .LVU88
 405 0008 8BB3     		cbz	r3, .L22
 406              	.LBB6:
 554:../../applications/murata-dualstack-example-ns/src/murata-dualstack-example-ns.c ****   {
 555:../../applications/murata-dualstack-example-ns/src/murata-dualstack-example-ns.c ****     uint8_t dash7Message[5];
 407              		.loc 1 555 5 is_stmt 1 view .LVU89
 556:../../applications/murata-dualstack-example-ns/src/murata-dualstack-example-ns.c ****     uint8_t i = 0;
 408              		.loc 1 556 5 view .LVU90
 409              	.LVL27:
 557:../../applications/murata-dualstack-example-ns/src/murata-dualstack-example-ns.c ****     //uint16 counter to uint8 array (little endian)
 558:../../applications/murata-dualstack-example-ns/src/murata-dualstack-example-ns.c ****     //counter (large) type byte
 559:../../applications/murata-dualstack-example-ns/src/murata-dualstack-example-ns.c ****     dash7Message[i++] = SHTData[0];
 410              		.loc 1 559 5 view .LVU91
 411              		.loc 1 559 32 is_stmt 0 view .LVU92
 412 000a 1C4A     		ldr	r2, .L27+4
 413 000c D2ED007A 		vldr.32	s15, [r2]
 414              	.LVL28:
ARM GAS  C:\Users\yvesk\AppData\Local\Temp\cc7ZgnLm.s 			page 18


 415              		.loc 1 559 23 view .LVU93
 416 0010 FCEEE77A 		vcvt.u32.f32	s15, s15
 417 0014 17EE903A 		vmov	r3, s15	@ int
 418 0018 8DF80030 		strb	r3, [sp]
 560:../../applications/murata-dualstack-example-ns/src/murata-dualstack-example-ns.c ****     dash7Message[i++] = SHTData[1];
 419              		.loc 1 560 5 is_stmt 1 view .LVU94
 420              		.loc 1 560 32 is_stmt 0 view .LVU95
 421 001c D2ED017A 		vldr.32	s15, [r2, #4]
 422              	.LVL29:
 423              		.loc 1 560 23 view .LVU96
 424 0020 FCEEE77A 		vcvt.u32.f32	s15, s15
 425 0024 17EE903A 		vmov	r3, s15	@ int
 426 0028 8DF80130 		strb	r3, [sp, #1]
 561:../../applications/murata-dualstack-example-ns/src/murata-dualstack-example-ns.c ****     dash7Message[i++] = 0x00;
 427              		.loc 1 561 5 is_stmt 1 view .LVU97
 428              	.LVL30:
 429              		.loc 1 561 23 is_stmt 0 view .LVU98
 430 002c 0023     		movs	r3, #0
 431 002e 8DF80230 		strb	r3, [sp, #2]
 562:../../applications/murata-dualstack-example-ns/src/murata-dualstack-example-ns.c ****     dash7Message[i++] = messageCounter;
 432              		.loc 1 562 5 is_stmt 1 view .LVU99
 433              	.LVL31:
 434              		.loc 1 562 23 is_stmt 0 view .LVU100
 435 0032 134A     		ldr	r2, .L27+8
 436 0034 1278     		ldrb	r2, [r2]	@ zero_extendqisi2
 437 0036 8DF80320 		strb	r2, [sp, #3]
 563:../../applications/murata-dualstack-example-ns/src/murata-dualstack-example-ns.c ****     dash7Message[i++] = val;
 438              		.loc 1 563 5 is_stmt 1 view .LVU101
 439              	.LVL32:
 440              		.loc 1 563 23 is_stmt 0 view .LVU102
 441 003a 124A     		ldr	r2, .L27+12
 442 003c 1278     		ldrb	r2, [r2]	@ zero_extendqisi2
 443 003e 8DF80420 		strb	r2, [sp, #4]
 564:../../applications/murata-dualstack-example-ns/src/murata-dualstack-example-ns.c ****     dash7Message[i++] = 0x00;
 444              		.loc 1 564 5 is_stmt 1 view .LVU103
 445              	.LVL33:
 446              		.loc 1 564 23 is_stmt 0 view .LVU104
 447 0042 8DF80530 		strb	r3, [sp, #5]
 565:../../applications/murata-dualstack-example-ns/src/murata-dualstack-example-ns.c ****     //osMutexWait(txMutexId, osWaitForever);
 566:../../applications/murata-dualstack-example-ns/src/murata-dualstack-example-ns.c ****     if(!Murata_Dash7_Send((uint8_t *)dash7Message, i))
 448              		.loc 1 566 5 is_stmt 1 view .LVU105
 449              		.loc 1 566 9 is_stmt 0 view .LVU106
 450 0046 0621     		movs	r1, #6
 451 0048 6846     		mov	r0, sp
 452              	.LVL34:
 453              		.loc 1 566 9 view .LVU107
 454 004a FFF7FEFF 		bl	Murata_Dash7_Send
 455              	.LVL35:
 456              		.loc 1 566 7 view .LVU108
 457 004e 50B9     		cbnz	r0, .L23
 567:../../applications/murata-dualstack-example-ns/src/murata-dualstack-example-ns.c ****     {
 568:../../applications/murata-dualstack-example-ns/src/murata-dualstack-example-ns.c ****       murata_init++;
 458              		.loc 1 568 7 is_stmt 1 view .LVU109
 459              		.loc 1 568 18 is_stmt 0 view .LVU110
 460 0050 094A     		ldr	r2, .L27
 461 0052 1378     		ldrb	r3, [r2]	@ zero_extendqisi2
 462 0054 0133     		adds	r3, r3, #1
ARM GAS  C:\Users\yvesk\AppData\Local\Temp\cc7ZgnLm.s 			page 19


 463 0056 1370     		strb	r3, [r2]
 569:../../applications/murata-dualstack-example-ns/src/murata-dualstack-example-ns.c ****       if(murata_init == 10)
 464              		.loc 1 569 7 is_stmt 1 view .LVU111
 465              	.L24:
 570:../../applications/murata-dualstack-example-ns/src/murata-dualstack-example-ns.c ****         murata_init == 0;
 571:../../applications/murata-dualstack-example-ns/src/murata-dualstack-example-ns.c ****     }
 572:../../applications/murata-dualstack-example-ns/src/murata-dualstack-example-ns.c ****     else
 573:../../applications/murata-dualstack-example-ns/src/murata-dualstack-example-ns.c ****     {
 574:../../applications/murata-dualstack-example-ns/src/murata-dualstack-example-ns.c ****       murata_init = 1;
 575:../../applications/murata-dualstack-example-ns/src/murata-dualstack-example-ns.c ****     }
 576:../../applications/murata-dualstack-example-ns/src/murata-dualstack-example-ns.c ****     //BLOCK TX MUTEX FOR 3s
 577:../../applications/murata-dualstack-example-ns/src/murata-dualstack-example-ns.c ****     //osDelay(3000);
 578:../../applications/murata-dualstack-example-ns/src/murata-dualstack-example-ns.c ****     //osMutexRelease(txMutexId);
 579:../../applications/murata-dualstack-example-ns/src/murata-dualstack-example-ns.c ****     DASH7_Counter++;
 466              		.loc 1 579 5 discriminator 1 view .LVU112
 467              		.loc 1 579 18 is_stmt 0 discriminator 1 view .LVU113
 468 0058 0B4A     		ldr	r2, .L27+16
 469 005a 1388     		ldrh	r3, [r2]
 470 005c 0133     		adds	r3, r3, #1
 471 005e 1380     		strh	r3, [r2]	@ movhi
 472              	.LVL36:
 473              	.L21:
 474              		.loc 1 579 18 discriminator 1 view .LVU114
 475              	.LBE6:
 580:../../applications/murata-dualstack-example-ns/src/murata-dualstack-example-ns.c ****   }
 581:../../applications/murata-dualstack-example-ns/src/murata-dualstack-example-ns.c ****   else{
 582:../../applications/murata-dualstack-example-ns/src/murata-dualstack-example-ns.c ****     printf("murata not initialized, not sending\r\n");
 583:../../applications/murata-dualstack-example-ns/src/murata-dualstack-example-ns.c ****   }
 584:../../applications/murata-dualstack-example-ns/src/murata-dualstack-example-ns.c **** }
 476              		.loc 1 584 1 view .LVU115
 477 0060 03B0     		add	sp, sp, #12
 478              	.LCFI13:
 479              		.cfi_remember_state
 480              		.cfi_def_cfa_offset 4
 481              		@ sp needed
 482 0062 5DF804FB 		ldr	pc, [sp], #4
 483              	.LVL37:
 484              	.L23:
 485              	.LCFI14:
 486              		.cfi_restore_state
 487              	.LBB7:
 574:../../applications/murata-dualstack-example-ns/src/murata-dualstack-example-ns.c ****     }
 488              		.loc 1 574 7 is_stmt 1 view .LVU116
 574:../../applications/murata-dualstack-example-ns/src/murata-dualstack-example-ns.c ****     }
 489              		.loc 1 574 19 is_stmt 0 view .LVU117
 490 0066 044B     		ldr	r3, .L27
 491 0068 0122     		movs	r2, #1
 492 006a 1A70     		strb	r2, [r3]
 493 006c F4E7     		b	.L24
 494              	.LVL38:
 495              	.L22:
 574:../../applications/murata-dualstack-example-ns/src/murata-dualstack-example-ns.c ****     }
 496              		.loc 1 574 19 view .LVU118
 497              	.LBE7:
 582:../../applications/murata-dualstack-example-ns/src/murata-dualstack-example-ns.c ****   }
 498              		.loc 1 582 5 is_stmt 1 view .LVU119
 499 006e 0748     		ldr	r0, .L27+20
ARM GAS  C:\Users\yvesk\AppData\Local\Temp\cc7ZgnLm.s 			page 20


 500              	.LVL39:
 582:../../applications/murata-dualstack-example-ns/src/murata-dualstack-example-ns.c ****   }
 501              		.loc 1 582 5 is_stmt 0 view .LVU120
 502 0070 FFF7FEFF 		bl	puts
 503              	.LVL40:
 504              		.loc 1 584 1 view .LVU121
 505 0074 F4E7     		b	.L21
 506              	.L28:
 507 0076 00BF     		.align	2
 508              	.L27:
 509 0078 00000000 		.word	.LANCHOR3
 510 007c 00000000 		.word	SHTData
 511 0080 00000000 		.word	.LANCHOR5
 512 0084 00000000 		.word	.LANCHOR6
 513 0088 00000000 		.word	.LANCHOR7
 514 008c 00000000 		.word	.LC2
 515              		.cfi_endproc
 516              	.LFE138:
 518              		.section	.text.Dash7_send_allInfo,"ax",%progbits
 519              		.align	1
 520              		.global	Dash7_send_allInfo
 521              		.syntax unified
 522              		.thumb
 523              		.thumb_func
 524              		.fpu fpv4-sp-d16
 526              	Dash7_send_allInfo:
 527              	.LVL41:
 528              	.LFB139:
 585:../../applications/murata-dualstack-example-ns/src/murata-dualstack-example-ns.c **** 
 586:../../applications/murata-dualstack-example-ns/src/murata-dualstack-example-ns.c **** 
 587:../../applications/murata-dualstack-example-ns/src/murata-dualstack-example-ns.c **** void Dash7_send_allInfo(void const *argument)
 588:../../applications/murata-dualstack-example-ns/src/murata-dualstack-example-ns.c **** {
 529              		.loc 1 588 1 is_stmt 1 view -0
 530              		.cfi_startproc
 531              		@ args = 0, pretend = 0, frame = 8
 532              		@ frame_needed = 0, uses_anonymous_args = 0
 533              		.loc 1 588 1 is_stmt 0 view .LVU123
 534 0000 00B5     		push	{lr}
 535              	.LCFI15:
 536              		.cfi_def_cfa_offset 4
 537              		.cfi_offset 14, -4
 538 0002 83B0     		sub	sp, sp, #12
 539              	.LCFI16:
 540              		.cfi_def_cfa_offset 16
 589:../../applications/murata-dualstack-example-ns/src/murata-dualstack-example-ns.c ****   if (murata_init)
 541              		.loc 1 589 3 is_stmt 1 view .LVU124
 542              		.loc 1 589 7 is_stmt 0 view .LVU125
 543 0004 1D4B     		ldr	r3, .L35
 544 0006 1B78     		ldrb	r3, [r3]	@ zero_extendqisi2
 545              		.loc 1 589 6 view .LVU126
 546 0008 002B     		cmp	r3, #0
 547 000a 33D0     		beq	.L30
 548              	.LBB8:
 590:../../applications/murata-dualstack-example-ns/src/murata-dualstack-example-ns.c ****   {
 591:../../applications/murata-dualstack-example-ns/src/murata-dualstack-example-ns.c ****     uint8_t dash7Message[5];
 549              		.loc 1 591 5 is_stmt 1 view .LVU127
 592:../../applications/murata-dualstack-example-ns/src/murata-dualstack-example-ns.c ****     uint8_t i = 0;
ARM GAS  C:\Users\yvesk\AppData\Local\Temp\cc7ZgnLm.s 			page 21


 550              		.loc 1 592 5 view .LVU128
 551              	.LVL42:
 593:../../applications/murata-dualstack-example-ns/src/murata-dualstack-example-ns.c ****     //uint16 counter to uint8 array (little endian)
 594:../../applications/murata-dualstack-example-ns/src/murata-dualstack-example-ns.c ****     //counter (large) type byte
 595:../../applications/murata-dualstack-example-ns/src/murata-dualstack-example-ns.c ****     dash7Message[i++] = SHTData[0];
 552              		.loc 1 595 5 view .LVU129
 553              		.loc 1 595 32 is_stmt 0 view .LVU130
 554 000c 1C4A     		ldr	r2, .L35+4
 555 000e D2ED007A 		vldr.32	s15, [r2]
 556              	.LVL43:
 557              		.loc 1 595 23 view .LVU131
 558 0012 FCEEE77A 		vcvt.u32.f32	s15, s15
 559 0016 17EE903A 		vmov	r3, s15	@ int
 560 001a 8DF80030 		strb	r3, [sp]
 596:../../applications/murata-dualstack-example-ns/src/murata-dualstack-example-ns.c ****     dash7Message[i++] = SHTData[1];
 561              		.loc 1 596 5 is_stmt 1 view .LVU132
 562              		.loc 1 596 32 is_stmt 0 view .LVU133
 563 001e D2ED017A 		vldr.32	s15, [r2, #4]
 564              	.LVL44:
 565              		.loc 1 596 23 view .LVU134
 566 0022 FCEEE77A 		vcvt.u32.f32	s15, s15
 567 0026 17EE903A 		vmov	r3, s15	@ int
 568 002a 8DF80130 		strb	r3, [sp, #1]
 597:../../applications/murata-dualstack-example-ns/src/murata-dualstack-example-ns.c ****     dash7Message[i++] = rep_counter;
 569              		.loc 1 597 5 is_stmt 1 view .LVU135
 570              	.LVL45:
 571              		.loc 1 597 23 is_stmt 0 view .LVU136
 572 002e 154B     		ldr	r3, .L35+8
 573 0030 1B78     		ldrb	r3, [r3]	@ zero_extendqisi2
 574 0032 8DF80230 		strb	r3, [sp, #2]
 598:../../applications/murata-dualstack-example-ns/src/murata-dualstack-example-ns.c ****     dash7Message[i++] = messageCounter;
 575              		.loc 1 598 5 is_stmt 1 view .LVU137
 576              	.LVL46:
 577              		.loc 1 598 23 is_stmt 0 view .LVU138
 578 0036 144B     		ldr	r3, .L35+12
 579 0038 1B78     		ldrb	r3, [r3]	@ zero_extendqisi2
 580 003a 8DF80330 		strb	r3, [sp, #3]
 599:../../applications/murata-dualstack-example-ns/src/murata-dualstack-example-ns.c ****     dash7Message[i++] = val;
 581              		.loc 1 599 5 is_stmt 1 view .LVU139
 582              	.LVL47:
 583              		.loc 1 599 23 is_stmt 0 view .LVU140
 584 003e 134B     		ldr	r3, .L35+16
 585 0040 1B78     		ldrb	r3, [r3]	@ zero_extendqisi2
 586 0042 8DF80430 		strb	r3, [sp, #4]
 600:../../applications/murata-dualstack-example-ns/src/murata-dualstack-example-ns.c ****     dash7Message[i++] = 0x00;
 587              		.loc 1 600 5 is_stmt 1 view .LVU141
 588              	.LVL48:
 589              		.loc 1 600 23 is_stmt 0 view .LVU142
 590 0046 0023     		movs	r3, #0
 591 0048 8DF80530 		strb	r3, [sp, #5]
 601:../../applications/murata-dualstack-example-ns/src/murata-dualstack-example-ns.c **** 
 602:../../applications/murata-dualstack-example-ns/src/murata-dualstack-example-ns.c ****     //osMutexWait(txMutexId, osWaitForever);
 603:../../applications/murata-dualstack-example-ns/src/murata-dualstack-example-ns.c ****     if(!Murata_Dash7_Send((uint8_t *)dash7Message, i))
 592              		.loc 1 603 5 is_stmt 1 view .LVU143
 593              		.loc 1 603 9 is_stmt 0 view .LVU144
 594 004c 0621     		movs	r1, #6
 595 004e 6846     		mov	r0, sp
ARM GAS  C:\Users\yvesk\AppData\Local\Temp\cc7ZgnLm.s 			page 22


 596              	.LVL49:
 597              		.loc 1 603 9 view .LVU145
 598 0050 FFF7FEFF 		bl	Murata_Dash7_Send
 599              	.LVL50:
 600              		.loc 1 603 7 view .LVU146
 601 0054 50B9     		cbnz	r0, .L31
 604:../../applications/murata-dualstack-example-ns/src/murata-dualstack-example-ns.c ****     {
 605:../../applications/murata-dualstack-example-ns/src/murata-dualstack-example-ns.c ****       murata_init++;
 602              		.loc 1 605 7 is_stmt 1 view .LVU147
 603              		.loc 1 605 18 is_stmt 0 view .LVU148
 604 0056 094A     		ldr	r2, .L35
 605 0058 1378     		ldrb	r3, [r2]	@ zero_extendqisi2
 606 005a 0133     		adds	r3, r3, #1
 607 005c 1370     		strb	r3, [r2]
 606:../../applications/murata-dualstack-example-ns/src/murata-dualstack-example-ns.c ****       if(murata_init == 10)
 608              		.loc 1 606 7 is_stmt 1 view .LVU149
 609              	.L32:
 607:../../applications/murata-dualstack-example-ns/src/murata-dualstack-example-ns.c ****         murata_init == 0;
 608:../../applications/murata-dualstack-example-ns/src/murata-dualstack-example-ns.c ****     }
 609:../../applications/murata-dualstack-example-ns/src/murata-dualstack-example-ns.c ****     else
 610:../../applications/murata-dualstack-example-ns/src/murata-dualstack-example-ns.c ****     {
 611:../../applications/murata-dualstack-example-ns/src/murata-dualstack-example-ns.c ****       murata_init = 1;
 612:../../applications/murata-dualstack-example-ns/src/murata-dualstack-example-ns.c ****     }
 613:../../applications/murata-dualstack-example-ns/src/murata-dualstack-example-ns.c ****     //BLOCK TX MUTEX FOR 3s
 614:../../applications/murata-dualstack-example-ns/src/murata-dualstack-example-ns.c ****     //osDelay(3000);
 615:../../applications/murata-dualstack-example-ns/src/murata-dualstack-example-ns.c ****     //osMutexRelease(txMutexId);
 616:../../applications/murata-dualstack-example-ns/src/murata-dualstack-example-ns.c ****     DASH7_Counter++;
 610              		.loc 1 616 5 discriminator 1 view .LVU150
 611              		.loc 1 616 18 is_stmt 0 discriminator 1 view .LVU151
 612 005e 0C4A     		ldr	r2, .L35+20
 613 0060 1388     		ldrh	r3, [r2]
 614 0062 0133     		adds	r3, r3, #1
 615 0064 1380     		strh	r3, [r2]	@ movhi
 616              	.LVL51:
 617              	.L29:
 618              		.loc 1 616 18 discriminator 1 view .LVU152
 619              	.LBE8:
 617:../../applications/murata-dualstack-example-ns/src/murata-dualstack-example-ns.c ****   }
 618:../../applications/murata-dualstack-example-ns/src/murata-dualstack-example-ns.c ****   else{
 619:../../applications/murata-dualstack-example-ns/src/murata-dualstack-example-ns.c ****     printf("murata not initialized, not sending\r\n");
 620:../../applications/murata-dualstack-example-ns/src/murata-dualstack-example-ns.c ****   }
 621:../../applications/murata-dualstack-example-ns/src/murata-dualstack-example-ns.c **** }
 620              		.loc 1 621 1 view .LVU153
 621 0066 03B0     		add	sp, sp, #12
 622              	.LCFI17:
 623              		.cfi_remember_state
 624              		.cfi_def_cfa_offset 4
 625              		@ sp needed
 626 0068 5DF804FB 		ldr	pc, [sp], #4
 627              	.LVL52:
 628              	.L31:
 629              	.LCFI18:
 630              		.cfi_restore_state
 631              	.LBB9:
 611:../../applications/murata-dualstack-example-ns/src/murata-dualstack-example-ns.c ****     }
 632              		.loc 1 611 7 is_stmt 1 view .LVU154
 611:../../applications/murata-dualstack-example-ns/src/murata-dualstack-example-ns.c ****     }
ARM GAS  C:\Users\yvesk\AppData\Local\Temp\cc7ZgnLm.s 			page 23


 633              		.loc 1 611 19 is_stmt 0 view .LVU155
 634 006c 034B     		ldr	r3, .L35
 635 006e 0122     		movs	r2, #1
 636 0070 1A70     		strb	r2, [r3]
 637 0072 F4E7     		b	.L32
 638              	.LVL53:
 639              	.L30:
 611:../../applications/murata-dualstack-example-ns/src/murata-dualstack-example-ns.c ****     }
 640              		.loc 1 611 19 view .LVU156
 641              	.LBE9:
 619:../../applications/murata-dualstack-example-ns/src/murata-dualstack-example-ns.c ****   }
 642              		.loc 1 619 5 is_stmt 1 view .LVU157
 643 0074 0748     		ldr	r0, .L35+24
 644              	.LVL54:
 619:../../applications/murata-dualstack-example-ns/src/murata-dualstack-example-ns.c ****   }
 645              		.loc 1 619 5 is_stmt 0 view .LVU158
 646 0076 FFF7FEFF 		bl	puts
 647              	.LVL55:
 648              		.loc 1 621 1 view .LVU159
 649 007a F4E7     		b	.L29
 650              	.L36:
 651              		.align	2
 652              	.L35:
 653 007c 00000000 		.word	.LANCHOR3
 654 0080 00000000 		.word	SHTData
 655 0084 00000000 		.word	.LANCHOR8
 656 0088 00000000 		.word	.LANCHOR5
 657 008c 00000000 		.word	.LANCHOR6
 658 0090 00000000 		.word	.LANCHOR7
 659 0094 00000000 		.word	.LC2
 660              		.cfi_endproc
 661              	.LFE139:
 663              		.global	__aeabi_f2d
 664              		.section	.text.print_temp_hum,"ax",%progbits
 665              		.align	1
 666              		.global	print_temp_hum
 667              		.syntax unified
 668              		.thumb
 669              		.thumb_func
 670              		.fpu fpv4-sp-d16
 672              	print_temp_hum:
 673              	.LFB140:
 622:../../applications/murata-dualstack-example-ns/src/murata-dualstack-example-ns.c **** 
 623:../../applications/murata-dualstack-example-ns/src/murata-dualstack-example-ns.c **** 
 624:../../applications/murata-dualstack-example-ns/src/murata-dualstack-example-ns.c **** //----------------------------------------------------------------------end send message methods---
 625:../../applications/murata-dualstack-example-ns/src/murata-dualstack-example-ns.c **** 
 626:../../applications/murata-dualstack-example-ns/src/murata-dualstack-example-ns.c **** //----------------------------------------------------------------------  start extra methods   ---
 627:../../applications/murata-dualstack-example-ns/src/murata-dualstack-example-ns.c **** 
 628:../../applications/murata-dualstack-example-ns/src/murata-dualstack-example-ns.c **** void print_temp_hum(void){
 674              		.loc 1 628 26 is_stmt 1 view -0
 675              		.cfi_startproc
 676              		@ args = 0, pretend = 0, frame = 0
 677              		@ frame_needed = 0, uses_anonymous_args = 0
 678 0000 38B5     		push	{r3, r4, r5, lr}
 679              	.LCFI19:
 680              		.cfi_def_cfa_offset 16
 681              		.cfi_offset 3, -16
ARM GAS  C:\Users\yvesk\AppData\Local\Temp\cc7ZgnLm.s 			page 24


 682              		.cfi_offset 4, -12
 683              		.cfi_offset 5, -8
 684              		.cfi_offset 14, -4
 629:../../applications/murata-dualstack-example-ns/src/murata-dualstack-example-ns.c ****   printf("\r\n");
 685              		.loc 1 629 3 view .LVU161
 686 0002 0C4C     		ldr	r4, .L39
 687 0004 2046     		mov	r0, r4
 688 0006 FFF7FEFF 		bl	puts
 689              	.LVL56:
 630:../../applications/murata-dualstack-example-ns/src/murata-dualstack-example-ns.c ****   printf("Temperature: %.2f C  \r\n", SHTData[0]);
 690              		.loc 1 630 3 view .LVU162
 691              		.loc 1 630 48 is_stmt 0 view .LVU163
 692 000a 0B4D     		ldr	r5, .L39+4
 693              		.loc 1 630 3 view .LVU164
 694 000c 2868     		ldr	r0, [r5]	@ float
 695 000e FFF7FEFF 		bl	__aeabi_f2d
 696              	.LVL57:
 697 0012 0246     		mov	r2, r0
 698 0014 0B46     		mov	r3, r1
 699 0016 0948     		ldr	r0, .L39+8
 700 0018 FFF7FEFF 		bl	printf
 701              	.LVL58:
 631:../../applications/murata-dualstack-example-ns/src/murata-dualstack-example-ns.c ****   printf("Humidity: %.2f %% \r\n", SHTData[1]);
 702              		.loc 1 631 3 is_stmt 1 view .LVU165
 703 001c 6868     		ldr	r0, [r5, #4]	@ float
 704 001e FFF7FEFF 		bl	__aeabi_f2d
 705              	.LVL59:
 706 0022 0246     		mov	r2, r0
 707 0024 0B46     		mov	r3, r1
 708 0026 0648     		ldr	r0, .L39+12
 709 0028 FFF7FEFF 		bl	printf
 710              	.LVL60:
 632:../../applications/murata-dualstack-example-ns/src/murata-dualstack-example-ns.c ****   printf("\r\n");
 711              		.loc 1 632 3 view .LVU166
 712 002c 2046     		mov	r0, r4
 713 002e FFF7FEFF 		bl	puts
 714              	.LVL61:
 633:../../applications/murata-dualstack-example-ns/src/murata-dualstack-example-ns.c **** }
 715              		.loc 1 633 1 is_stmt 0 view .LVU167
 716 0032 38BD     		pop	{r3, r4, r5, pc}
 717              	.L40:
 718              		.align	2
 719              	.L39:
 720 0034 00000000 		.word	.LC3
 721 0038 00000000 		.word	SHTData
 722 003c 04000000 		.word	.LC4
 723 0040 20000000 		.word	.LC5
 724              		.cfi_endproc
 725              	.LFE140:
 727              		.section	.text.temp_hum_measurement,"ax",%progbits
 728              		.align	1
 729              		.global	temp_hum_measurement
 730              		.syntax unified
 731              		.thumb
 732              		.thumb_func
 733              		.fpu fpv4-sp-d16
 735              	temp_hum_measurement:
ARM GAS  C:\Users\yvesk\AppData\Local\Temp\cc7ZgnLm.s 			page 25


 736              	.LFB141:
 634:../../applications/murata-dualstack-example-ns/src/murata-dualstack-example-ns.c **** 
 635:../../applications/murata-dualstack-example-ns/src/murata-dualstack-example-ns.c **** void temp_hum_measurement(void){
 737              		.loc 1 635 32 is_stmt 1 view -0
 738              		.cfi_startproc
 739              		@ args = 0, pretend = 0, frame = 0
 740              		@ frame_needed = 0, uses_anonymous_args = 0
 741 0000 08B5     		push	{r3, lr}
 742              	.LCFI20:
 743              		.cfi_def_cfa_offset 8
 744              		.cfi_offset 3, -8
 745              		.cfi_offset 14, -4
 636:../../applications/murata-dualstack-example-ns/src/murata-dualstack-example-ns.c **** 
 637:../../applications/murata-dualstack-example-ns/src/murata-dualstack-example-ns.c ****   SHT31_get_temp_hum(SHTData);
 746              		.loc 1 637 3 view .LVU169
 747 0002 0348     		ldr	r0, .L43
 748 0004 FFF7FEFF 		bl	SHT31_get_temp_hum
 749              	.LVL62:
 638:../../applications/murata-dualstack-example-ns/src/murata-dualstack-example-ns.c ****   print_temp_hum();
 750              		.loc 1 638 3 view .LVU170
 751 0008 FFF7FEFF 		bl	print_temp_hum
 752              	.LVL63:
 639:../../applications/murata-dualstack-example-ns/src/murata-dualstack-example-ns.c **** }
 753              		.loc 1 639 1 is_stmt 0 view .LVU171
 754 000c 08BD     		pop	{r3, pc}
 755              	.L44:
 756 000e 00BF     		.align	2
 757              	.L43:
 758 0010 00000000 		.word	SHTData
 759              		.cfi_endproc
 760              	.LFE141:
 762              		.section	.text.ble_callback,"ax",%progbits
 763              		.align	1
 764              		.global	ble_callback
 765              		.syntax unified
 766              		.thumb
 767              		.thumb_func
 768              		.fpu fpv4-sp-d16
 770              	ble_callback:
 771              	.LFB142:
 640:../../applications/murata-dualstack-example-ns/src/murata-dualstack-example-ns.c **** 
 641:../../applications/murata-dualstack-example-ns/src/murata-dualstack-example-ns.c **** void ble_callback() {
 772              		.loc 1 641 21 is_stmt 1 view -0
 773              		.cfi_startproc
 774              		@ args = 0, pretend = 0, frame = 0
 775              		@ frame_needed = 0, uses_anonymous_args = 0
 776 0000 10B5     		push	{r4, lr}
 777              	.LCFI21:
 778              		.cfi_def_cfa_offset 8
 779              		.cfi_offset 4, -8
 780              		.cfi_offset 14, -4
 642:../../applications/murata-dualstack-example-ns/src/murata-dualstack-example-ns.c **** //tmpbuf_ble[0] = tmpbuf_ble[0] - 48;
 643:../../applications/murata-dualstack-example-ns/src/murata-dualstack-example-ns.c **** //tmpbuf_ble[1] = tmpbuf_ble[1] - 48;
 644:../../applications/murata-dualstack-example-ns/src/murata-dualstack-example-ns.c **** val = ( 10 * (tmpbuf_ble[0] - '0')) + tmpbuf_ble[1] - '0'; 
 781              		.loc 1 644 1 view .LVU173
 782              		.loc 1 644 25 is_stmt 0 view .LVU174
 783 0002 0B4A     		ldr	r2, .L49
ARM GAS  C:\Users\yvesk\AppData\Local\Temp\cc7ZgnLm.s 			page 26


 784 0004 1378     		ldrb	r3, [r2]	@ zero_extendqisi2
 785              		.loc 1 644 49 view .LVU175
 786 0006 5178     		ldrb	r1, [r2, #1]	@ zero_extendqisi2
 787              		.loc 1 644 37 view .LVU176
 788 0008 03EB8303 		add	r3, r3, r3, lsl #2
 789 000c 5A00     		lsls	r2, r3, #1
 790 000e 1144     		add	r1, r1, r2
 791 0010 C9B2     		uxtb	r1, r1
 792              		.loc 1 644 53 view .LVU177
 793 0012 1039     		subs	r1, r1, #16
 794 0014 C9B2     		uxtb	r1, r1
 795              		.loc 1 644 5 view .LVU178
 796 0016 074C     		ldr	r4, .L49+4
 797 0018 2170     		strb	r1, [r4]
 645:../../applications/murata-dualstack-example-ns/src/murata-dualstack-example-ns.c **** printf("%d\r\n",val); 
 798              		.loc 1 645 1 is_stmt 1 view .LVU179
 799 001a 0748     		ldr	r0, .L49+8
 800 001c FFF7FEFF 		bl	printf
 801              	.LVL64:
 646:../../applications/murata-dualstack-example-ns/src/murata-dualstack-example-ns.c **** if (val == 0) {
 802              		.loc 1 646 1 view .LVU180
 803              		.loc 1 646 9 is_stmt 0 view .LVU181
 804 0020 2378     		ldrb	r3, [r4]	@ zero_extendqisi2
 805              		.loc 1 646 4 view .LVU182
 806 0022 03B1     		cbz	r3, .L48
 807              	.L45:
 647:../../applications/murata-dualstack-example-ns/src/murata-dualstack-example-ns.c ****   LoRaWAN_send(NULL); 
 648:../../applications/murata-dualstack-example-ns/src/murata-dualstack-example-ns.c **** }
 649:../../applications/murata-dualstack-example-ns/src/murata-dualstack-example-ns.c **** //printf("callback 2 \r\n");
 650:../../applications/murata-dualstack-example-ns/src/murata-dualstack-example-ns.c **** }
 808              		.loc 1 650 1 view .LVU183
 809 0024 10BD     		pop	{r4, pc}
 810              	.L48:
 647:../../applications/murata-dualstack-example-ns/src/murata-dualstack-example-ns.c ****   LoRaWAN_send(NULL); 
 811              		.loc 1 647 3 is_stmt 1 view .LVU184
 812 0026 0020     		movs	r0, #0
 813 0028 FFF7FEFF 		bl	LoRaWAN_send
 814              	.LVL65:
 815              		.loc 1 650 1 is_stmt 0 view .LVU185
 816 002c FAE7     		b	.L45
 817              	.L50:
 818 002e 00BF     		.align	2
 819              	.L49:
 820 0030 00000000 		.word	tmpbuf_ble
 821 0034 00000000 		.word	.LANCHOR6
 822 0038 00000000 		.word	.LC6
 823              		.cfi_endproc
 824              	.LFE142:
 826              		.section	.text.vApplicationIdleHook,"ax",%progbits
 827              		.align	1
 828              		.global	vApplicationIdleHook
 829              		.syntax unified
 830              		.thumb
 831              		.thumb_func
 832              		.fpu fpv4-sp-d16
 834              	vApplicationIdleHook:
 835              	.LFB143:
ARM GAS  C:\Users\yvesk\AppData\Local\Temp\cc7ZgnLm.s 			page 27


 651:../../applications/murata-dualstack-example-ns/src/murata-dualstack-example-ns.c **** 
 652:../../applications/murata-dualstack-example-ns/src/murata-dualstack-example-ns.c **** 
 653:../../applications/murata-dualstack-example-ns/src/murata-dualstack-example-ns.c **** void vApplicationIdleHook(){
 836              		.loc 1 653 28 is_stmt 1 view -0
 837              		.cfi_startproc
 838              		@ args = 0, pretend = 0, frame = 0
 839              		@ frame_needed = 0, uses_anonymous_args = 0
 840              		@ link register save eliminated.
 654:../../applications/murata-dualstack-example-ns/src/murata-dualstack-example-ns.c ****   #if LOW_POWER
 655:../../applications/murata-dualstack-example-ns/src/murata-dualstack-example-ns.c ****     HAL_PWR_EnterSLEEPMode(PWR_MAINREGULATOR_ON, PWR_SLEEPENTRY_WFE);
 656:../../applications/murata-dualstack-example-ns/src/murata-dualstack-example-ns.c ****   #endif
 657:../../applications/murata-dualstack-example-ns/src/murata-dualstack-example-ns.c **** }
 841              		.loc 1 657 1 view .LVU187
 842 0000 7047     		bx	lr
 843              		.cfi_endproc
 844              	.LFE143:
 846              		.section	.text.printWelcome,"ax",%progbits
 847              		.align	1
 848              		.global	printWelcome
 849              		.syntax unified
 850              		.thumb
 851              		.thumb_func
 852              		.fpu fpv4-sp-d16
 854              	printWelcome:
 855              	.LFB144:
 658:../../applications/murata-dualstack-example-ns/src/murata-dualstack-example-ns.c **** 
 659:../../applications/murata-dualstack-example-ns/src/murata-dualstack-example-ns.c **** void printWelcome(void)
 660:../../applications/murata-dualstack-example-ns/src/murata-dualstack-example-ns.c **** {
 856              		.loc 1 660 1 view -0
 857              		.cfi_startproc
 858              		@ args = 0, pretend = 0, frame = 8
 859              		@ frame_needed = 0, uses_anonymous_args = 0
 860 0000 30B5     		push	{r4, r5, lr}
 861              	.LCFI22:
 862              		.cfi_def_cfa_offset 12
 863              		.cfi_offset 4, -12
 864              		.cfi_offset 5, -8
 865              		.cfi_offset 14, -4
 866 0002 83B0     		sub	sp, sp, #12
 867              	.LCFI23:
 868              		.cfi_def_cfa_offset 24
 661:../../applications/murata-dualstack-example-ns/src/murata-dualstack-example-ns.c ****   printf("\r\n");
 869              		.loc 1 661 3 view .LVU189
 870 0004 1A4C     		ldr	r4, .L57
 871 0006 2046     		mov	r0, r4
 872 0008 FFF7FEFF 		bl	puts
 873              	.LVL66:
 662:../../applications/murata-dualstack-example-ns/src/murata-dualstack-example-ns.c ****   printf("*****************************************\r\n");
 874              		.loc 1 662 3 view .LVU190
 875 000c 194D     		ldr	r5, .L57+4
 876 000e 2846     		mov	r0, r5
 877 0010 FFF7FEFF 		bl	puts
 878              	.LVL67:
 663:../../applications/murata-dualstack-example-ns/src/murata-dualstack-example-ns.c ****   printf("DE SMARTHALTER DELUXE\r\n");
 879              		.loc 1 663 3 view .LVU191
 880 0014 1848     		ldr	r0, .L57+8
 881 0016 FFF7FEFF 		bl	puts
ARM GAS  C:\Users\yvesk\AppData\Local\Temp\cc7ZgnLm.s 			page 28


 882              	.LVL68:
 664:../../applications/murata-dualstack-example-ns/src/murata-dualstack-example-ns.c ****   printf("*****************************************\r\n");
 883              		.loc 1 664 3 view .LVU192
 884 001a 2846     		mov	r0, r5
 885 001c FFF7FEFF 		bl	puts
 886              	.LVL69:
 665:../../applications/murata-dualstack-example-ns/src/murata-dualstack-example-ns.c ****   printf("\r\n");
 887              		.loc 1 665 3 view .LVU193
 888 0020 2046     		mov	r0, r4
 889 0022 FFF7FEFF 		bl	puts
 890              	.LVL70:
 666:../../applications/murata-dualstack-example-ns/src/murata-dualstack-example-ns.c ****   char UIDString[sizeof(short_UID)];
 891              		.loc 1 666 3 view .LVU194
 667:../../applications/murata-dualstack-example-ns/src/murata-dualstack-example-ns.c ****   memcpy(UIDString, &short_UID, sizeof(short_UID));
 892              		.loc 1 667 3 view .LVU195
 893 0026 154B     		ldr	r3, .L57+12
 894 0028 6C46     		mov	r4, sp
 895 002a 93E80300 		ldm	r3, {r0, r1}
 896 002e 84E80300 		stm	r4, {r0, r1}
 668:../../applications/murata-dualstack-example-ns/src/murata-dualstack-example-ns.c ****   printf("octa ID: ");
 897              		.loc 1 668 3 view .LVU196
 898 0032 1348     		ldr	r0, .L57+16
 899 0034 FFF7FEFF 		bl	printf
 900              	.LVL71:
 669:../../applications/murata-dualstack-example-ns/src/murata-dualstack-example-ns.c ****   for (const char* p = UIDString; *p; ++p)
 901              		.loc 1 669 3 view .LVU197
 902              	.LBB10:
 903              		.loc 1 669 8 view .LVU198
 904              	.L53:
 905              		.loc 1 669 35 is_stmt 0 discriminator 1 view .LVU199
 906 0038 2178     		ldrb	r1, [r4]	@ zero_extendqisi2
 907              		.loc 1 669 3 discriminator 1 view .LVU200
 908 003a 21B1     		cbz	r1, .L56
 670:../../applications/murata-dualstack-example-ns/src/murata-dualstack-example-ns.c ****     {
 671:../../applications/murata-dualstack-example-ns/src/murata-dualstack-example-ns.c ****         printf("%02x", *p);
 909              		.loc 1 671 9 is_stmt 1 discriminator 3 view .LVU201
 910 003c 1148     		ldr	r0, .L57+20
 911 003e FFF7FEFF 		bl	printf
 912              	.LVL72:
 669:../../applications/murata-dualstack-example-ns/src/murata-dualstack-example-ns.c ****   for (const char* p = UIDString; *p; ++p)
 913              		.loc 1 669 39 is_stmt 0 discriminator 3 view .LVU202
 914 0042 0134     		adds	r4, r4, #1
 915              	.LVL73:
 669:../../applications/murata-dualstack-example-ns/src/murata-dualstack-example-ns.c ****   for (const char* p = UIDString; *p; ++p)
 916              		.loc 1 669 39 discriminator 3 view .LVU203
 917 0044 F8E7     		b	.L53
 918              	.L56:
 669:../../applications/murata-dualstack-example-ns/src/murata-dualstack-example-ns.c ****   for (const char* p = UIDString; *p; ++p)
 919              		.loc 1 669 39 discriminator 3 view .LVU204
 920              	.LBE10:
 672:../../applications/murata-dualstack-example-ns/src/murata-dualstack-example-ns.c ****     }
 673:../../applications/murata-dualstack-example-ns/src/murata-dualstack-example-ns.c ****   printf("\r\n\r\n");
 921              		.loc 1 673 3 is_stmt 1 view .LVU205
 922 0046 1048     		ldr	r0, .L57+24
 923 0048 FFF7FEFF 		bl	puts
 924              	.LVL74:
 674:../../applications/murata-dualstack-example-ns/src/murata-dualstack-example-ns.c ****   HAL_GPIO_TogglePin(OCTA_BLED_GPIO_Port, OCTA_BLED_Pin);
ARM GAS  C:\Users\yvesk\AppData\Local\Temp\cc7ZgnLm.s 			page 29


 925              		.loc 1 674 3 view .LVU206
 926 004c 0F4C     		ldr	r4, .L57+28
 927              	.LVL75:
 928              		.loc 1 674 3 is_stmt 0 view .LVU207
 929 004e 4FF40041 		mov	r1, #32768
 930 0052 2046     		mov	r0, r4
 931 0054 FFF7FEFF 		bl	HAL_GPIO_TogglePin
 932              	.LVL76:
 675:../../applications/murata-dualstack-example-ns/src/murata-dualstack-example-ns.c ****   HAL_Delay(2000);
 933              		.loc 1 675 3 is_stmt 1 view .LVU208
 934 0058 4FF4FA60 		mov	r0, #2000
 935 005c FFF7FEFF 		bl	HAL_Delay
 936              	.LVL77:
 676:../../applications/murata-dualstack-example-ns/src/murata-dualstack-example-ns.c ****   HAL_GPIO_TogglePin(OCTA_BLED_GPIO_Port, OCTA_BLED_Pin);
 937              		.loc 1 676 3 view .LVU209
 938 0060 4FF40041 		mov	r1, #32768
 939 0064 2046     		mov	r0, r4
 940 0066 FFF7FEFF 		bl	HAL_GPIO_TogglePin
 941              	.LVL78:
 677:../../applications/murata-dualstack-example-ns/src/murata-dualstack-example-ns.c **** }
 942              		.loc 1 677 1 is_stmt 0 view .LVU210
 943 006a 03B0     		add	sp, sp, #12
 944              	.LCFI24:
 945              		.cfi_def_cfa_offset 12
 946              		@ sp needed
 947 006c 30BD     		pop	{r4, r5, pc}
 948              	.L58:
 949 006e 00BF     		.align	2
 950              	.L57:
 951 0070 00000000 		.word	.LC3
 952 0074 00000000 		.word	.LC7
 953 0078 2C000000 		.word	.LC8
 954 007c 00000000 		.word	short_UID
 955 0080 44000000 		.word	.LC9
 956 0084 50000000 		.word	.LC10
 957 0088 58000000 		.word	.LC11
 958 008c 000C0048 		.word	1207962624
 959              		.cfi_endproc
 960              	.LFE144:
 962              		.section	.text.quickBlink,"ax",%progbits
 963              		.align	1
 964              		.global	quickBlink
 965              		.syntax unified
 966              		.thumb
 967              		.thumb_func
 968              		.fpu fpv4-sp-d16
 970              	quickBlink:
 971              	.LFB145:
 678:../../applications/murata-dualstack-example-ns/src/murata-dualstack-example-ns.c **** 
 679:../../applications/murata-dualstack-example-ns/src/murata-dualstack-example-ns.c **** void quickBlink(void){
 972              		.loc 1 679 22 is_stmt 1 view -0
 973              		.cfi_startproc
 974              		@ args = 0, pretend = 0, frame = 0
 975              		@ frame_needed = 0, uses_anonymous_args = 0
 976 0000 10B5     		push	{r4, lr}
 977              	.LCFI25:
 978              		.cfi_def_cfa_offset 8
ARM GAS  C:\Users\yvesk\AppData\Local\Temp\cc7ZgnLm.s 			page 30


 979              		.cfi_offset 4, -8
 980              		.cfi_offset 14, -4
 680:../../applications/murata-dualstack-example-ns/src/murata-dualstack-example-ns.c ****   HAL_GPIO_TogglePin(OCTA_RLED_GPIO_Port, OCTA_RLED_Pin);
 981              		.loc 1 680 3 view .LVU212
 982 0002 084C     		ldr	r4, .L61
 983 0004 4FF48041 		mov	r1, #16384
 984 0008 2046     		mov	r0, r4
 985 000a FFF7FEFF 		bl	HAL_GPIO_TogglePin
 986              	.LVL79:
 681:../../applications/murata-dualstack-example-ns/src/murata-dualstack-example-ns.c ****     HAL_Delay(500);
 987              		.loc 1 681 5 view .LVU213
 988 000e 4FF4FA70 		mov	r0, #500
 989 0012 FFF7FEFF 		bl	HAL_Delay
 990              	.LVL80:
 682:../../applications/murata-dualstack-example-ns/src/murata-dualstack-example-ns.c ****     HAL_GPIO_TogglePin(OCTA_RLED_GPIO_Port, OCTA_RLED_Pin);
 991              		.loc 1 682 5 view .LVU214
 992 0016 4FF48041 		mov	r1, #16384
 993 001a 2046     		mov	r0, r4
 994 001c FFF7FEFF 		bl	HAL_GPIO_TogglePin
 995              	.LVL81:
 683:../../applications/murata-dualstack-example-ns/src/murata-dualstack-example-ns.c **** }
 996              		.loc 1 683 1 is_stmt 0 view .LVU215
 997 0020 10BD     		pop	{r4, pc}
 998              	.L62:
 999 0022 00BF     		.align	2
 1000              	.L61:
 1001 0024 000C0048 		.word	1207962624
 1002              		.cfi_endproc
 1003              	.LFE145:
 1005              		.section	.text.send_message,"ax",%progbits
 1006              		.align	1
 1007              		.global	send_message
 1008              		.syntax unified
 1009              		.thumb
 1010              		.thumb_func
 1011              		.fpu fpv4-sp-d16
 1013              	send_message:
 1014              	.LVL82:
 1015              	.LFB136:
 485:../../applications/murata-dualstack-example-ns/src/murata-dualstack-example-ns.c **** 
 1016              		.loc 1 485 33 is_stmt 1 view -0
 1017              		.cfi_startproc
 1018              		@ args = 0, pretend = 0, frame = 0
 1019              		@ frame_needed = 0, uses_anonymous_args = 0
 485:../../applications/murata-dualstack-example-ns/src/murata-dualstack-example-ns.c **** 
 1020              		.loc 1 485 33 is_stmt 0 view .LVU217
 1021 0000 10B5     		push	{r4, lr}
 1022              	.LCFI26:
 1023              		.cfi_def_cfa_offset 8
 1024              		.cfi_offset 4, -8
 1025              		.cfi_offset 14, -4
 1026 0002 0446     		mov	r4, r0
 487:../../applications/murata-dualstack-example-ns/src/murata-dualstack-example-ns.c ****    //messageMode = 1 ; 
 1027              		.loc 1 487 4 is_stmt 1 view .LVU218
 1028 0004 FFF7FEFF 		bl	quickBlink
 1029              	.LVL83:
 489:../../applications/murata-dualstack-example-ns/src/murata-dualstack-example-ns.c ****    if (messageMode==0) {  //dash7mode    
ARM GAS  C:\Users\yvesk\AppData\Local\Temp\cc7ZgnLm.s 			page 31


 1030              		.loc 1 489 4 view .LVU219
 489:../../applications/murata-dualstack-example-ns/src/murata-dualstack-example-ns.c ****    if (messageMode==0) {  //dash7mode    
 1031              		.loc 1 489 20 is_stmt 0 view .LVU220
 1032 0008 154B     		ldr	r3, .L71
 1033 000a 0122     		movs	r2, #1
 1034 000c 1A70     		strb	r2, [r3]
 490:../../applications/murata-dualstack-example-ns/src/murata-dualstack-example-ns.c ****    printf("dlskfjmdfms")   ;
 1035              		.loc 1 490 4 is_stmt 1 view .LVU221
 490:../../applications/murata-dualstack-example-ns/src/murata-dualstack-example-ns.c ****    printf("dlskfjmdfms")   ;
 1036              		.loc 1 490 19 is_stmt 0 view .LVU222
 1037 000e 154B     		ldr	r3, .L71+4
 1038 0010 1B78     		ldrb	r3, [r3]	@ zero_extendqisi2
 490:../../applications/murata-dualstack-example-ns/src/murata-dualstack-example-ns.c ****    printf("dlskfjmdfms")   ;
 1039              		.loc 1 490 7 view .LVU223
 1040 0012 D3B9     		cbnz	r3, .L64
 491:../../applications/murata-dualstack-example-ns/src/murata-dualstack-example-ns.c ****     switch (type) {
 1041              		.loc 1 491 4 is_stmt 1 view .LVU224
 1042 0014 1448     		ldr	r0, .L71+8
 1043 0016 FFF7FEFF 		bl	printf
 1044              	.LVL84:
 492:../../applications/murata-dualstack-example-ns/src/murata-dualstack-example-ns.c ****       case 1:
 1045              		.loc 1 492 5 view .LVU225
 1046 001a 012C     		cmp	r4, #1
 1047 001c 05D0     		beq	.L65
 1048 001e 022C     		cmp	r4, #2
 1049 0020 0BD0     		beq	.L66
 1050              	.LBB11:
 504:../../applications/murata-dualstack-example-ns/src/murata-dualstack-example-ns.c ****       break;  
 1051              		.loc 1 504 7 view .LVU226
 1052 0022 1248     		ldr	r0, .L71+12
 1053 0024 FFF7FEFF 		bl	puts
 1054              	.LVL85:
 505:../../applications/murata-dualstack-example-ns/src/murata-dualstack-example-ns.c ****     }
 1055              		.loc 1 505 7 view .LVU227
 1056 0028 19E0     		b	.L63
 1057              	.L65:
 494:../../applications/murata-dualstack-example-ns/src/murata-dualstack-example-ns.c ****       Dash7_send_temphum();  
 1058              		.loc 1 494 7 view .LVU228
 494:../../applications/murata-dualstack-example-ns/src/murata-dualstack-example-ns.c ****       Dash7_send_temphum();  
 1059              		.loc 1 494 21 is_stmt 0 view .LVU229
 1060 002a 114A     		ldr	r2, .L71+16
 1061 002c 1378     		ldrb	r3, [r2]	@ zero_extendqisi2
 1062 002e 0133     		adds	r3, r3, #1
 1063 0030 DBB2     		uxtb	r3, r3
 1064 0032 1370     		strb	r3, [r2]
 495:../../applications/murata-dualstack-example-ns/src/murata-dualstack-example-ns.c ****       //printf("sending temphum message\r\n");
 1065              		.loc 1 495 7 is_stmt 1 view .LVU230
 1066 0034 FFF7FEFF 		bl	Dash7_send_temphum
 1067              	.LVL86:
 497:../../applications/murata-dualstack-example-ns/src/murata-dualstack-example-ns.c ****       case 2:
 1068              		.loc 1 497 7 view .LVU231
 1069 0038 11E0     		b	.L63
 1070              	.L66:
 499:../../applications/murata-dualstack-example-ns/src/murata-dualstack-example-ns.c ****       Dash7_send_allInfo();
 1071              		.loc 1 499 7 view .LVU232
 499:../../applications/murata-dualstack-example-ns/src/murata-dualstack-example-ns.c ****       Dash7_send_allInfo();
 1072              		.loc 1 499 21 is_stmt 0 view .LVU233
ARM GAS  C:\Users\yvesk\AppData\Local\Temp\cc7ZgnLm.s 			page 32


 1073 003a 0D4A     		ldr	r2, .L71+16
 1074 003c 1378     		ldrb	r3, [r2]	@ zero_extendqisi2
 1075 003e 0133     		adds	r3, r3, #1
 1076 0040 DBB2     		uxtb	r3, r3
 1077 0042 1370     		strb	r3, [r2]
 500:../../applications/murata-dualstack-example-ns/src/murata-dualstack-example-ns.c ****      //printf("sending allinfo message\r\n");
 1078              		.loc 1 500 7 is_stmt 1 view .LVU234
 1079 0044 FFF7FEFF 		bl	Dash7_send_allInfo
 1080              	.LVL87:
 502:../../applications/murata-dualstack-example-ns/src/murata-dualstack-example-ns.c ****       default:
 1081              		.loc 1 502 7 view .LVU235
 1082 0048 09E0     		b	.L63
 1083              	.L64:
 1084              	.LBE11:
 508:../../applications/murata-dualstack-example-ns/src/murata-dualstack-example-ns.c ****       loracounter++;
 1085              		.loc 1 508 7 view .LVU236
 1086 004a 0020     		movs	r0, #0
 1087 004c FFF7FEFF 		bl	LoRaWAN_send
 1088              	.LVL88:
 509:../../applications/murata-dualstack-example-ns/src/murata-dualstack-example-ns.c ****       //Dash7_send_temphum(); 
 1089              		.loc 1 509 7 view .LVU237
 509:../../applications/murata-dualstack-example-ns/src/murata-dualstack-example-ns.c ****       //Dash7_send_temphum(); 
 1090              		.loc 1 509 18 is_stmt 0 view .LVU238
 1091 0050 084A     		ldr	r2, .L71+20
 1092 0052 1378     		ldrb	r3, [r2]	@ zero_extendqisi2
 1093 0054 0133     		adds	r3, r3, #1
 1094 0056 1370     		strb	r3, [r2]
 511:../../applications/murata-dualstack-example-ns/src/murata-dualstack-example-ns.c ****   }  
 1095              		.loc 1 511 7 is_stmt 1 view .LVU239
 1096 0058 0748     		ldr	r0, .L71+24
 1097 005a FFF7FEFF 		bl	puts
 1098              	.LVL89:
 1099              	.L63:
 513:../../applications/murata-dualstack-example-ns/src/murata-dualstack-example-ns.c **** 
 1100              		.loc 1 513 1 is_stmt 0 view .LVU240
 1101 005e 10BD     		pop	{r4, pc}
 1102              	.L72:
 1103              		.align	2
 1104              	.L71:
 1105 0060 00000000 		.word	.LANCHOR9
 1106 0064 00000000 		.word	.LANCHOR10
 1107 0068 00000000 		.word	.LC12
 1108 006c 0C000000 		.word	.LC13
 1109 0070 00000000 		.word	.LANCHOR5
 1110 0074 00000000 		.word	.LANCHOR11
 1111 0078 24000000 		.word	.LC14
 1112              		.cfi_endproc
 1113              	.LFE136:
 1115              		.section	.text.main,"ax",%progbits
 1116              		.align	1
 1117              		.global	main
 1118              		.syntax unified
 1119              		.thumb
 1120              		.thumb_func
 1121              		.fpu fpv4-sp-d16
 1123              	main:
 1124              	.LFB134:
ARM GAS  C:\Users\yvesk\AppData\Local\Temp\cc7ZgnLm.s 			page 33


 199:../../applications/murata-dualstack-example-ns/src/murata-dualstack-example-ns.c ****   /* USER CODE BEGIN 1 */
 1125              		.loc 1 199 1 is_stmt 1 view -0
 1126              		.cfi_startproc
 1127              		@ args = 0, pretend = 0, frame = 0
 1128              		@ frame_needed = 0, uses_anonymous_args = 0
 1129 0000 38B5     		push	{r3, r4, r5, lr}
 1130              	.LCFI27:
 1131              		.cfi_def_cfa_offset 16
 1132              		.cfi_offset 3, -16
 1133              		.cfi_offset 4, -12
 1134              		.cfi_offset 5, -8
 1135              		.cfi_offset 14, -4
 207:../../applications/murata-dualstack-example-ns/src/murata-dualstack-example-ns.c **** 
 1136              		.loc 1 207 3 view .LVU242
 1137 0002 FFF7FEFF 		bl	HAL_Init
 1138              	.LVL90:
 214:../../applications/murata-dualstack-example-ns/src/murata-dualstack-example-ns.c **** 
 1139              		.loc 1 214 3 view .LVU243
 1140 0006 FFF7FEFF 		bl	SystemClock_Config
 1141              	.LVL91:
 221:../../applications/murata-dualstack-example-ns/src/murata-dualstack-example-ns.c **** 
 1142              		.loc 1 221 3 view .LVU244
 1143 000a FFF7FEFF 		bl	Initialize_Platform
 1144              	.LVL92:
 224:../../applications/murata-dualstack-example-ns/src/murata-dualstack-example-ns.c ****   InitializeTimer3(); 
 1145              		.loc 1 224 3 view .LVU245
 1146 000e FFF7FEFF 		bl	InitializeTimer2
 1147              	.LVL93:
 225:../../applications/murata-dualstack-example-ns/src/murata-dualstack-example-ns.c **** 
 1148              		.loc 1 225 3 view .LVU246
 1149 0012 FFF7FEFF 		bl	InitializeTimer3
 1150              	.LVL94:
 230:../../applications/murata-dualstack-example-ns/src/murata-dualstack-example-ns.c **** 
 1151              		.loc 1 230 3 view .LVU247
 230:../../applications/murata-dualstack-example-ns/src/murata-dualstack-example-ns.c **** 
 1152              		.loc 1 230 15 is_stmt 0 view .LVU248
 1153 0016 FFF7FEFF 		bl	get_UID
 1154              	.LVL95:
 230:../../applications/murata-dualstack-example-ns/src/murata-dualstack-example-ns.c **** 
 1155              		.loc 1 230 13 view .LVU249
 1156 001a A04C     		ldr	r4, .L110
 1157 001c C4E90001 		strd	r0, [r4]
 233:../../applications/murata-dualstack-example-ns/src/murata-dualstack-example-ns.c ****   setI2CInterface_SHT31(&common_I2C);
 1158              		.loc 1 233 3 is_stmt 1 view .LVU250
 1159 0020 9F4D     		ldr	r5, .L110+4
 1160 0022 2846     		mov	r0, r5
 1161 0024 FFF7FEFF 		bl	LSM303AGR_setI2CInterface
 1162              	.LVL96:
 234:../../applications/murata-dualstack-example-ns/src/murata-dualstack-example-ns.c ****   SHT31_begin(); 
 1163              		.loc 1 234 3 view .LVU251
 1164 0028 2846     		mov	r0, r5
 1165 002a FFF7FEFF 		bl	setI2CInterface_SHT31
 1166              	.LVL97:
 235:../../applications/murata-dualstack-example-ns/src/murata-dualstack-example-ns.c ****   LSM303AGR_initDefault();
 1167              		.loc 1 235 3 view .LVU252
 1168 002e FFF7FEFF 		bl	SHT31_begin
 1169              	.LVL98:
ARM GAS  C:\Users\yvesk\AppData\Local\Temp\cc7ZgnLm.s 			page 34


 236:../../applications/murata-dualstack-example-ns/src/murata-dualstack-example-ns.c **** 
 1170              		.loc 1 236 3 view .LVU253
 1171 0032 FFF7FEFF 		bl	LSM303AGR_initDefault
 1172              	.LVL99:
 239:../../applications/murata-dualstack-example-ns/src/murata-dualstack-example-ns.c **** 
 1173              		.loc 1 239 3 view .LVU254
 1174 0036 0222     		movs	r2, #2
 1175 0038 9A49     		ldr	r1, .L110+8
 1176 003a 9B48     		ldr	r0, .L110+12
 1177 003c FFF7FEFF 		bl	HAL_UART_Receive_IT
 1178              	.LVL100:
 242:../../applications/murata-dualstack-example-ns/src/murata-dualstack-example-ns.c ****   HAL_NVIC_EnableIRQ(EXTI1_IRQn);
 1179              		.loc 1 242 3 view .LVU255
 1180 0040 0022     		movs	r2, #0
 1181 0042 1146     		mov	r1, r2
 1182 0044 0720     		movs	r0, #7
 1183 0046 FFF7FEFF 		bl	HAL_NVIC_SetPriority
 1184              	.LVL101:
 243:../../applications/murata-dualstack-example-ns/src/murata-dualstack-example-ns.c **** 
 1185              		.loc 1 243 3 view .LVU256
 1186 004a 0720     		movs	r0, #7
 1187 004c FFF7FEFF 		bl	HAL_NVIC_EnableIRQ
 1188              	.LVL102:
 245:../../applications/murata-dualstack-example-ns/src/murata-dualstack-example-ns.c ****   HAL_NVIC_EnableIRQ(EXTI0_IRQn);
 1189              		.loc 1 245 3 view .LVU257
 1190 0050 0022     		movs	r2, #0
 1191 0052 1146     		mov	r1, r2
 1192 0054 0620     		movs	r0, #6
 1193 0056 FFF7FEFF 		bl	HAL_NVIC_SetPriority
 1194              	.LVL103:
 246:../../applications/murata-dualstack-example-ns/src/murata-dualstack-example-ns.c **** 
 1195              		.loc 1 246 3 view .LVU258
 1196 005a 0620     		movs	r0, #6
 1197 005c FFF7FEFF 		bl	HAL_NVIC_EnableIRQ
 1198              	.LVL104:
 251:../../applications/murata-dualstack-example-ns/src/murata-dualstack-example-ns.c ****   
 1199              		.loc 1 251 3 view .LVU259
 1200 0060 FFF7FEFF 		bl	printWelcome
 1201              	.LVL105:
 254:../../applications/murata-dualstack-example-ns/src/murata-dualstack-example-ns.c **** 
 1202              		.loc 1 254 3 view .LVU260
 254:../../applications/murata-dualstack-example-ns/src/murata-dualstack-example-ns.c **** 
 1203              		.loc 1 254 17 is_stmt 0 view .LVU261
 1204 0064 0022     		movs	r2, #0
 1205 0066 D4E90001 		ldrd	r0, [r4]
 1206 006a FFF7FEFF 		bl	Murata_Initialize
 1207              	.LVL106:
 254:../../applications/murata-dualstack-example-ns/src/murata-dualstack-example-ns.c **** 
 1208              		.loc 1 254 15 view .LVU262
 1209 006e 8F4B     		ldr	r3, .L110+16
 1210 0070 1870     		strb	r0, [r3]
 256:../../applications/murata-dualstack-example-ns/src/murata-dualstack-example-ns.c ****   {
 1211              		.loc 1 256 3 is_stmt 1 view .LVU263
 256:../../applications/murata-dualstack-example-ns/src/murata-dualstack-example-ns.c ****   {
 1212              		.loc 1 256 6 is_stmt 0 view .LVU264
 1213 0072 30B9     		cbnz	r0, .L96
 1214              	.L74:
ARM GAS  C:\Users\yvesk\AppData\Local\Temp\cc7ZgnLm.s 			page 35


 263:../../applications/murata-dualstack-example-ns/src/murata-dualstack-example-ns.c **** quickBlink(); 
 1215              		.loc 1 263 1 is_stmt 1 view .LVU265
 1216 0074 4FF4FA60 		mov	r0, #2000
 1217 0078 FFF7FEFF 		bl	HAL_Delay
 1218              	.LVL107:
 264:../../applications/murata-dualstack-example-ns/src/murata-dualstack-example-ns.c **** 
 1219              		.loc 1 264 1 view .LVU266
 1220 007c FFF7FEFF 		bl	quickBlink
 1221              	.LVL108:
 267:../../applications/murata-dualstack-example-ns/src/murata-dualstack-example-ns.c ****   uint8_t use_lora = 1;
 1222              		.loc 1 267 3 view .LVU267
 268:../../applications/murata-dualstack-example-ns/src/murata-dualstack-example-ns.c ****   uint8_t timerValue = 0; 
 1223              		.loc 1 268 3 view .LVU268
 269:../../applications/murata-dualstack-example-ns/src/murata-dualstack-example-ns.c ****   /* USER CODE BEGIN WHILE */
 1224              		.loc 1 269 3 view .LVU269
 269:../../applications/murata-dualstack-example-ns/src/murata-dualstack-example-ns.c ****   /* USER CODE BEGIN WHILE */
 1225              		.loc 1 269 3 is_stmt 0 view .LVU270
 1226 0080 79E0     		b	.L75
 1227              	.LVL109:
 1228              	.L96:
 258:../../applications/murata-dualstack-example-ns/src/murata-dualstack-example-ns.c ****   }
 1229              		.loc 1 258 5 is_stmt 1 view .LVU271
 1230 0082 8B48     		ldr	r0, .L110+20
 1231 0084 FFF7FEFF 		bl	puts
 1232              	.LVL110:
 1233 0088 F4E7     		b	.L74
 1234              	.LVL111:
 1235              	.L108:
 292:../../applications/murata-dualstack-example-ns/src/murata-dualstack-example-ns.c ****     
 1236              		.loc 1 292 6 view .LVU272
 1237 008a 0020     		movs	r0, #0
 1238 008c FFF7FEFF 		bl	IWDG_feed
 1239              	.LVL112:
 301:../../applications/murata-dualstack-example-ns/src/murata-dualstack-example-ns.c ****     
 1240              		.loc 1 301 5 view .LVU273
 301:../../applications/murata-dualstack-example-ns/src/murata-dualstack-example-ns.c ****     
 1241              		.loc 1 301 26 is_stmt 0 view .LVU274
 1242 0090 884B     		ldr	r3, .L110+24
 1243 0092 1B78     		ldrb	r3, [r3]	@ zero_extendqisi2
 301:../../applications/murata-dualstack-example-ns/src/murata-dualstack-example-ns.c ****     
 1244              		.loc 1 301 7 view .LVU275
 1245 0094 2BB3     		cbz	r3, .L78
 303:../../applications/murata-dualstack-example-ns/src/murata-dualstack-example-ns.c ****         // send dash7 message with all info when user starts repping
 1246              		.loc 1 303 7 is_stmt 1 view .LVU276
 303:../../applications/murata-dualstack-example-ns/src/murata-dualstack-example-ns.c ****         // send dash7 message with all info when user starts repping
 1247              		.loc 1 303 17 is_stmt 0 view .LVU277
 1248 0096 884B     		ldr	r3, .L110+28
 1249 0098 1B78     		ldrb	r3, [r3]	@ zero_extendqisi2
 303:../../applications/murata-dualstack-example-ns/src/murata-dualstack-example-ns.c ****         // send dash7 message with all info when user starts repping
 1250              		.loc 1 303 9 view .LVU278
 1251 009a 9BB1     		cbz	r3, .L79
 305:../../applications/murata-dualstack-example-ns/src/murata-dualstack-example-ns.c ****         printf("Started Repping\r\n");
 1252              		.loc 1 305 9 is_stmt 1 view .LVU279
 1253 009c FFF7FEFF 		bl	LSM303AGR_initDouble
 1254              	.LVL113:
 306:../../applications/murata-dualstack-example-ns/src/murata-dualstack-example-ns.c ****         printf("LSM in double click mode \r\n");
 1255              		.loc 1 306 9 view .LVU280
ARM GAS  C:\Users\yvesk\AppData\Local\Temp\cc7ZgnLm.s 			page 36


 1256 00a0 8648     		ldr	r0, .L110+32
 1257 00a2 FFF7FEFF 		bl	puts
 1258              	.LVL114:
 307:../../applications/murata-dualstack-example-ns/src/murata-dualstack-example-ns.c ****         if (murata_init) {
 1259              		.loc 1 307 9 view .LVU281
 1260 00a6 8648     		ldr	r0, .L110+36
 1261 00a8 FFF7FEFF 		bl	puts
 1262              	.LVL115:
 308:../../applications/murata-dualstack-example-ns/src/murata-dualstack-example-ns.c ****           printf("Sending D7 Message with BLE info + temp + hum\r\n");
 1263              		.loc 1 308 9 view .LVU282
 308:../../applications/murata-dualstack-example-ns/src/murata-dualstack-example-ns.c ****           printf("Sending D7 Message with BLE info + temp + hum\r\n");
 1264              		.loc 1 308 13 is_stmt 0 view .LVU283
 1265 00ac 7F4B     		ldr	r3, .L110+16
 1266 00ae 1B78     		ldrb	r3, [r3]	@ zero_extendqisi2
 308:../../applications/murata-dualstack-example-ns/src/murata-dualstack-example-ns.c ****           printf("Sending D7 Message with BLE info + temp + hum\r\n");
 1267              		.loc 1 308 12 view .LVU284
 1268 00b0 A3B1     		cbz	r3, .L80
 1269              	.LBB12:
 309:../../applications/murata-dualstack-example-ns/src/murata-dualstack-example-ns.c ****           temp_hum_measurement();
 1270              		.loc 1 309 11 is_stmt 1 view .LVU285
 1271 00b2 8448     		ldr	r0, .L110+40
 1272 00b4 FFF7FEFF 		bl	puts
 1273              	.LVL116:
 310:../../applications/murata-dualstack-example-ns/src/murata-dualstack-example-ns.c ****           send_message(1);
 1274              		.loc 1 310 11 view .LVU286
 1275 00b8 FFF7FEFF 		bl	temp_hum_measurement
 1276              	.LVL117:
 311:../../applications/murata-dualstack-example-ns/src/murata-dualstack-example-ns.c ****           //LoRaWAN_send(NULL);
 1277              		.loc 1 311 11 view .LVU287
 1278 00bc 0120     		movs	r0, #1
 1279 00be FFF7FEFF 		bl	send_message
 1280              	.LVL118:
 1281 00c2 0BE0     		b	.L80
 1282              	.L79:
 1283              	.LBE12:
 319:../../applications/murata-dualstack-example-ns/src/murata-dualstack-example-ns.c ****         printf("Stopped Repping\nLSM in default mode \r\n\n");
 1284              		.loc 1 319 9 view .LVU288
 1285 00c4 FFF7FEFF 		bl	LSM303AGR_initDefault
 1286              	.LVL119:
 320:../../applications/murata-dualstack-example-ns/src/murata-dualstack-example-ns.c ****         if (murata_init) {
 1287              		.loc 1 320 9 view .LVU289
 1288 00c8 7F48     		ldr	r0, .L110+44
 1289 00ca FFF7FEFF 		bl	puts
 1290              	.LVL120:
 321:../../applications/murata-dualstack-example-ns/src/murata-dualstack-example-ns.c ****           printf("Sending D7 Message with BLE info + temp + hum + amount of reps\r\n");
 1291              		.loc 1 321 9 view .LVU290
 321:../../applications/murata-dualstack-example-ns/src/murata-dualstack-example-ns.c ****           printf("Sending D7 Message with BLE info + temp + hum + amount of reps\r\n");
 1292              		.loc 1 321 13 is_stmt 0 view .LVU291
 1293 00ce 774B     		ldr	r3, .L110+16
 1294 00d0 1B78     		ldrb	r3, [r3]	@ zero_extendqisi2
 321:../../applications/murata-dualstack-example-ns/src/murata-dualstack-example-ns.c ****           printf("Sending D7 Message with BLE info + temp + hum + amount of reps\r\n");
 1295              		.loc 1 321 12 view .LVU292
 1296 00d2 002B     		cmp	r3, #0
 1297 00d4 66D1     		bne	.L97
 1298              	.L81:
 332:../../applications/murata-dualstack-example-ns/src/murata-dualstack-example-ns.c ****       }
 1299              		.loc 1 332 9 is_stmt 1 view .LVU293
ARM GAS  C:\Users\yvesk\AppData\Local\Temp\cc7ZgnLm.s 			page 37


 332:../../applications/murata-dualstack-example-ns/src/murata-dualstack-example-ns.c ****       }
 1300              		.loc 1 332 20 is_stmt 0 view .LVU294
 1301 00d6 7D4B     		ldr	r3, .L110+48
 1302 00d8 0022     		movs	r2, #0
 1303 00da 1A70     		strb	r2, [r3]
 1304              	.L80:
 334:../../applications/murata-dualstack-example-ns/src/murata-dualstack-example-ns.c **** 
 1305              		.loc 1 334 7 is_stmt 1 view .LVU295
 334:../../applications/murata-dualstack-example-ns/src/murata-dualstack-example-ns.c **** 
 1306              		.loc 1 334 25 is_stmt 0 view .LVU296
 1307 00dc 754B     		ldr	r3, .L110+24
 1308 00de 0022     		movs	r2, #0
 1309 00e0 1A70     		strb	r2, [r3]
 1310              	.L78:
 343:../../applications/murata-dualstack-example-ns/src/murata-dualstack-example-ns.c ****       if (repMode==1) {
 1311              		.loc 1 343 5 is_stmt 1 view .LVU297
 343:../../applications/murata-dualstack-example-ns/src/murata-dualstack-example-ns.c ****       if (repMode==1) {
 1312              		.loc 1 343 16 is_stmt 0 view .LVU298
 1313 00e2 7B4B     		ldr	r3, .L110+52
 1314 00e4 1B78     		ldrb	r3, [r3]	@ zero_extendqisi2
 343:../../applications/murata-dualstack-example-ns/src/murata-dualstack-example-ns.c ****       if (repMode==1) {
 1315              		.loc 1 343 8 view .LVU299
 1316 00e6 7BB1     		cbz	r3, .L82
 344:../../applications/murata-dualstack-example-ns/src/murata-dualstack-example-ns.c ****       // Request to enter SLEEP mode
 1317              		.loc 1 344 7 is_stmt 1 view .LVU300
 344:../../applications/murata-dualstack-example-ns/src/murata-dualstack-example-ns.c ****       // Request to enter SLEEP mode
 1318              		.loc 1 344 18 is_stmt 0 view .LVU301
 1319 00e8 734B     		ldr	r3, .L110+28
 1320 00ea 1B78     		ldrb	r3, [r3]	@ zero_extendqisi2
 344:../../applications/murata-dualstack-example-ns/src/murata-dualstack-example-ns.c ****       // Request to enter SLEEP mode
 1321              		.loc 1 344 10 view .LVU302
 1322 00ec 002B     		cmp	r3, #0
 1323 00ee 62D1     		bne	.L98
 1324              	.L83:
 353:../../applications/murata-dualstack-example-ns/src/murata-dualstack-example-ns.c ****  
 1325              		.loc 1 353 9 is_stmt 1 view .LVU303
 1326 00f0 784C     		ldr	r4, .L110+56
 1327 00f2 2046     		mov	r0, r4
 1328 00f4 FFF7FEFF 		bl	HAL_TIM_Base_Stop_IT
 1329              	.LVL121:
 356:../../applications/murata-dualstack-example-ns/src/murata-dualstack-example-ns.c ****  
 1330              		.loc 1 356 9 view .LVU304
 1331 00f8 2368     		ldr	r3, [r4]
 1332 00fa 0025     		movs	r5, #0
 1333 00fc 5D62     		str	r5, [r3, #36]
 359:../../applications/murata-dualstack-example-ns/src/murata-dualstack-example-ns.c **** 
 1334              		.loc 1 359 9 view .LVU305
 1335 00fe 2046     		mov	r0, r4
 1336 0100 FFF7FEFF 		bl	HAL_TIM_Base_Start_IT
 1337              	.LVL122:
 361:../../applications/murata-dualstack-example-ns/src/murata-dualstack-example-ns.c ****     }  
 1338              		.loc 1 361 11 view .LVU306
 361:../../applications/murata-dualstack-example-ns/src/murata-dualstack-example-ns.c ****     }  
 1339              		.loc 1 361 18 is_stmt 0 view .LVU307
 1340 0104 724B     		ldr	r3, .L110+52
 1341 0106 1D70     		strb	r5, [r3]
 1342              	.L82:
ARM GAS  C:\Users\yvesk\AppData\Local\Temp\cc7ZgnLm.s 			page 38


 367:../../applications/murata-dualstack-example-ns/src/murata-dualstack-example-ns.c ****       printf("Localisation timer elapsed\r\n");
 1343              		.loc 1 367 5 is_stmt 1 view .LVU308
 367:../../applications/murata-dualstack-example-ns/src/murata-dualstack-example-ns.c ****       printf("Localisation timer elapsed\r\n");
 1344              		.loc 1 367 18 is_stmt 0 view .LVU309
 1345 0108 734B     		ldr	r3, .L110+60
 1346 010a 1B78     		ldrb	r3, [r3]	@ zero_extendqisi2
 367:../../applications/murata-dualstack-example-ns/src/murata-dualstack-example-ns.c ****       printf("Localisation timer elapsed\r\n");
 1347              		.loc 1 367 7 view .LVU310
 1348 010c 002B     		cmp	r3, #0
 1349 010e 5BD1     		bne	.L99
 1350              	.L84:
 383:../../applications/murata-dualstack-example-ns/src/murata-dualstack-example-ns.c ****       if (murata_init) {
 1351              		.loc 1 383 5 is_stmt 1 view .LVU311
 383:../../applications/murata-dualstack-example-ns/src/murata-dualstack-example-ns.c ****       if (murata_init) {
 1352              		.loc 1 383 18 is_stmt 0 view .LVU312
 1353 0110 724B     		ldr	r3, .L110+64
 1354 0112 1B78     		ldrb	r3, [r3]	@ zero_extendqisi2
 383:../../applications/murata-dualstack-example-ns/src/murata-dualstack-example-ns.c ****       if (murata_init) {
 1355              		.loc 1 383 7 view .LVU313
 1356 0114 33B1     		cbz	r3, .L86
 384:../../applications/murata-dualstack-example-ns/src/murata-dualstack-example-ns.c ****         printf("Inactive timer expired, sending last message\r\n\r\n");
 1357              		.loc 1 384 7 is_stmt 1 view .LVU314
 384:../../applications/murata-dualstack-example-ns/src/murata-dualstack-example-ns.c ****         printf("Inactive timer expired, sending last message\r\n\r\n");
 1358              		.loc 1 384 11 is_stmt 0 view .LVU315
 1359 0116 654B     		ldr	r3, .L110+16
 1360 0118 1B78     		ldrb	r3, [r3]	@ zero_extendqisi2
 384:../../applications/murata-dualstack-example-ns/src/murata-dualstack-example-ns.c ****         printf("Inactive timer expired, sending last message\r\n\r\n");
 1361              		.loc 1 384 10 view .LVU316
 1362 011a 002B     		cmp	r3, #0
 1363 011c 6AD1     		bne	.L100
 1364              	.L87:
 394:../../applications/murata-dualstack-example-ns/src/murata-dualstack-example-ns.c ****     } 
 1365              		.loc 1 394 6 is_stmt 1 view .LVU317
 394:../../applications/murata-dualstack-example-ns/src/murata-dualstack-example-ns.c ****     } 
 1366              		.loc 1 394 16 is_stmt 0 view .LVU318
 1367 011e 6F4B     		ldr	r3, .L110+64
 1368 0120 0022     		movs	r2, #0
 1369 0122 1A70     		strb	r2, [r3]
 1370              	.L86:
 399:../../applications/murata-dualstack-example-ns/src/murata-dualstack-example-ns.c ****       if (failureCounter > 0) {
 1371              		.loc 1 399 5 is_stmt 1 view .LVU319
 399:../../applications/murata-dualstack-example-ns/src/murata-dualstack-example-ns.c ****       if (failureCounter > 0) {
 1372              		.loc 1 399 9 is_stmt 0 view .LVU320
 1373 0124 6E4B     		ldr	r3, .L110+68
 1374 0126 1B78     		ldrb	r3, [r3]	@ zero_extendqisi2
 399:../../applications/murata-dualstack-example-ns/src/murata-dualstack-example-ns.c ****       if (failureCounter > 0) {
 1375              		.loc 1 399 8 view .LVU321
 1376 0128 4BB1     		cbz	r3, .L88
 399:../../applications/murata-dualstack-example-ns/src/murata-dualstack-example-ns.c ****       if (failureCounter > 0) {
 1377              		.loc 1 399 19 discriminator 1 view .LVU322
 1378 012a 6E4B     		ldr	r3, .L110+72
 1379 012c 1B78     		ldrb	r3, [r3]	@ zero_extendqisi2
 399:../../applications/murata-dualstack-example-ns/src/murata-dualstack-example-ns.c ****       if (failureCounter > 0) {
 1380              		.loc 1 399 16 discriminator 1 view .LVU323
 1381 012e 33B9     		cbnz	r3, .L88
 400:../../applications/murata-dualstack-example-ns/src/murata-dualstack-example-ns.c ****         printf("Failure counter = %d\r\n",failureCounter);
 1382              		.loc 1 400 7 is_stmt 1 view .LVU324
ARM GAS  C:\Users\yvesk\AppData\Local\Temp\cc7ZgnLm.s 			page 39


 400:../../applications/murata-dualstack-example-ns/src/murata-dualstack-example-ns.c ****         printf("Failure counter = %d\r\n",failureCounter);
 1383              		.loc 1 400 26 is_stmt 0 view .LVU325
 1384 0130 6D4B     		ldr	r3, .L110+76
 1385 0132 1B78     		ldrb	r3, [r3]	@ zero_extendqisi2
 400:../../applications/murata-dualstack-example-ns/src/murata-dualstack-example-ns.c ****         printf("Failure counter = %d\r\n",failureCounter);
 1386              		.loc 1 400 10 view .LVU326
 1387 0134 002B     		cmp	r3, #0
 1388 0136 69D1     		bne	.L101
 1389              	.L89:
 403:../../applications/murata-dualstack-example-ns/src/murata-dualstack-example-ns.c ****     }
 1390              		.loc 1 403 7 is_stmt 1 view .LVU327
 403:../../applications/murata-dualstack-example-ns/src/murata-dualstack-example-ns.c ****     }
 1391              		.loc 1 403 14 is_stmt 0 view .LVU328
 1392 0138 694B     		ldr	r3, .L110+68
 1393 013a 0022     		movs	r2, #0
 1394 013c 1A70     		strb	r2, [r3]
 1395              	.L88:
 410:../../applications/murata-dualstack-example-ns/src/murata-dualstack-example-ns.c ****     //HAL_TIM_Base_Stop_IT(&inactive_timer);    
 1396              		.loc 1 410 5 is_stmt 1 view .LVU329
 410:../../applications/murata-dualstack-example-ns/src/murata-dualstack-example-ns.c ****     //HAL_TIM_Base_Stop_IT(&inactive_timer);    
 1397              		.loc 1 410 11 is_stmt 0 view .LVU330
 1398 013e 694B     		ldr	r3, .L110+72
 1399 0140 1B78     		ldrb	r3, [r3]	@ zero_extendqisi2
 410:../../applications/murata-dualstack-example-ns/src/murata-dualstack-example-ns.c ****     //HAL_TIM_Base_Stop_IT(&inactive_timer);    
 1400              		.loc 1 410 8 view .LVU331
 1401 0142 002B     		cmp	r3, #0
 1402 0144 68D1     		bne	.L102
 1403              	.L90:
 422:../../applications/murata-dualstack-example-ns/src/murata-dualstack-example-ns.c ****       printf("Going to LoRaWAN mode\r\n\r\n");
 1404              		.loc 1 422 5 is_stmt 1 view .LVU332
 422:../../applications/murata-dualstack-example-ns/src/murata-dualstack-example-ns.c ****       printf("Going to LoRaWAN mode\r\n\r\n");
 1405              		.loc 1 422 23 is_stmt 0 view .LVU333
 1406 0146 684B     		ldr	r3, .L110+76
 1407 0148 1B78     		ldrb	r3, [r3]	@ zero_extendqisi2
 1408 014a DBB2     		uxtb	r3, r3
 422:../../applications/murata-dualstack-example-ns/src/murata-dualstack-example-ns.c ****       printf("Going to LoRaWAN mode\r\n\r\n");
 1409              		.loc 1 422 8 view .LVU334
 1410 014c 032B     		cmp	r3, #3
 1411 014e 70D0     		beq	.L103
 1412              	.L91:
 433:../../applications/murata-dualstack-example-ns/src/murata-dualstack-example-ns.c ****       printf("Check again for dash7 \r\n\r\n");
 1413              		.loc 1 433 5 is_stmt 1 view .LVU335
 433:../../applications/murata-dualstack-example-ns/src/murata-dualstack-example-ns.c ****       printf("Check again for dash7 \r\n\r\n");
 1414              		.loc 1 433 20 is_stmt 0 view .LVU336
 1415 0150 664B     		ldr	r3, .L110+80
 1416 0152 1B78     		ldrb	r3, [r3]	@ zero_extendqisi2
 433:../../applications/murata-dualstack-example-ns/src/murata-dualstack-example-ns.c ****       printf("Check again for dash7 \r\n\r\n");
 1417              		.loc 1 433 8 view .LVU337
 1418 0154 032B     		cmp	r3, #3
 1419 0156 79D0     		beq	.L104
 1420              	.L92:
 441:../../applications/murata-dualstack-example-ns/src/murata-dualstack-example-ns.c ****       printf("\nGoing to dash7 mode\r\n\r\n");
 1421              		.loc 1 441 6 is_stmt 1 view .LVU338
 441:../../applications/murata-dualstack-example-ns/src/murata-dualstack-example-ns.c ****       printf("\nGoing to dash7 mode\r\n\r\n");
 1422              		.loc 1 441 24 is_stmt 0 view .LVU339
 1423 0158 654B     		ldr	r3, .L110+84
 1424 015a 1B78     		ldrb	r3, [r3]	@ zero_extendqisi2
ARM GAS  C:\Users\yvesk\AppData\Local\Temp\cc7ZgnLm.s 			page 40


 1425 015c DBB2     		uxtb	r3, r3
 441:../../applications/murata-dualstack-example-ns/src/murata-dualstack-example-ns.c ****       printf("\nGoing to dash7 mode\r\n\r\n");
 1426              		.loc 1 441 9 view .LVU340
 1427 015e 012B     		cmp	r3, #1
 1428 0160 7FD0     		beq	.L105
 1429              	.L93:
 451:../../applications/murata-dualstack-example-ns/src/murata-dualstack-example-ns.c ****       ble_callback(); 
 1430              		.loc 1 451 5 is_stmt 1 view .LVU341
 451:../../applications/murata-dualstack-example-ns/src/murata-dualstack-example-ns.c ****       ble_callback(); 
 1431              		.loc 1 451 9 is_stmt 0 view .LVU342
 1432 0162 644B     		ldr	r3, .L110+88
 1433 0164 1B78     		ldrb	r3, [r3]	@ zero_extendqisi2
 451:../../applications/murata-dualstack-example-ns/src/murata-dualstack-example-ns.c ****       ble_callback(); 
 1434              		.loc 1 451 8 view .LVU343
 1435 0166 002B     		cmp	r3, #0
 1436 0168 40F08580 		bne	.L106
 1437              	.L94:
 458:../../applications/murata-dualstack-example-ns/src/murata-dualstack-example-ns.c ****       LoRaWAN_send(NULL);
 1438              		.loc 1 458 5 is_stmt 1 view .LVU344
 458:../../applications/murata-dualstack-example-ns/src/murata-dualstack-example-ns.c ****       LoRaWAN_send(NULL);
 1439              		.loc 1 458 9 is_stmt 0 view .LVU345
 1440 016c 624B     		ldr	r3, .L110+92
 1441 016e 1B78     		ldrb	r3, [r3]	@ zero_extendqisi2
 458:../../applications/murata-dualstack-example-ns/src/murata-dualstack-example-ns.c ****       LoRaWAN_send(NULL);
 1442              		.loc 1 458 8 view .LVU346
 1443 0170 002B     		cmp	r3, #0
 1444 0172 40F08B80 		bne	.L107
 1445              	.L75:
 280:../../applications/murata-dualstack-example-ns/src/murata-dualstack-example-ns.c ****     IWDG_feed(NULL);
 1446              		.loc 1 280 11 view .LVU347
 1447 0176 614B     		ldr	r3, .L110+96
 1448 0178 1B78     		ldrb	r3, [r3]	@ zero_extendqisi2
 280:../../applications/murata-dualstack-example-ns/src/murata-dualstack-example-ns.c ****     IWDG_feed(NULL);
 1449              		.loc 1 280 10 view .LVU348
 1450 017a 002B     		cmp	r3, #0
 1451 017c 85D0     		beq	.L108
 281:../../applications/murata-dualstack-example-ns/src/murata-dualstack-example-ns.c ****     HAL_Delay(5000);
 1452              		.loc 1 281 5 is_stmt 1 view .LVU349
 1453 017e 0020     		movs	r0, #0
 1454 0180 FFF7FEFF 		bl	IWDG_feed
 1455              	.LVL123:
 282:../../applications/murata-dualstack-example-ns/src/murata-dualstack-example-ns.c ****       if(murata_data_ready)
 1456              		.loc 1 282 5 view .LVU350
 1457 0184 41F28830 		movw	r0, #5000
 1458 0188 FFF7FEFF 		bl	HAL_Delay
 1459              	.LVL124:
 283:../../applications/murata-dualstack-example-ns/src/murata-dualstack-example-ns.c ****         {
 1460              		.loc 1 283 7 view .LVU351
 283:../../applications/murata-dualstack-example-ns/src/murata-dualstack-example-ns.c ****         {
 1461              		.loc 1 283 10 is_stmt 0 view .LVU352
 1462 018c 5C4B     		ldr	r3, .L110+100
 1463 018e 1B78     		ldrb	r3, [r3]	@ zero_extendqisi2
 283:../../applications/murata-dualstack-example-ns/src/murata-dualstack-example-ns.c ****         {
 1464              		.loc 1 283 9 view .LVU353
 1465 0190 002B     		cmp	r3, #0
 1466 0192 F0D0     		beq	.L75
 286:../../applications/murata-dualstack-example-ns/src/murata-dualstack-example-ns.c ****         }
ARM GAS  C:\Users\yvesk\AppData\Local\Temp\cc7ZgnLm.s 			page 41


 1467              		.loc 1 286 11 is_stmt 1 view .LVU354
 286:../../applications/murata-dualstack-example-ns/src/murata-dualstack-example-ns.c ****         }
 1468              		.loc 1 286 32 is_stmt 0 view .LVU355
 1469 0194 FFF7FEFF 		bl	Murata_process_fifo
 1470              	.LVL125:
 286:../../applications/murata-dualstack-example-ns/src/murata-dualstack-example-ns.c ****         }
 1471              		.loc 1 286 31 view .LVU356
 1472 0198 B0FA80F0 		clz	r0, r0
 1473 019c 4009     		lsrs	r0, r0, #5
 286:../../applications/murata-dualstack-example-ns/src/murata-dualstack-example-ns.c ****         }
 1474              		.loc 1 286 29 view .LVU357
 1475 019e 584B     		ldr	r3, .L110+100
 1476 01a0 1870     		strb	r0, [r3]
 1477 01a2 E8E7     		b	.L75
 1478              	.L97:
 1479              	.LBB13:
 322:../../applications/murata-dualstack-example-ns/src/murata-dualstack-example-ns.c ****           temp_hum_measurement();
 1480              		.loc 1 322 11 is_stmt 1 view .LVU358
 1481 01a4 5748     		ldr	r0, .L110+104
 1482 01a6 FFF7FEFF 		bl	puts
 1483              	.LVL126:
 323:../../applications/murata-dualstack-example-ns/src/murata-dualstack-example-ns.c ****         //Dash7_send_temphum();
 1484              		.loc 1 323 11 view .LVU359
 1485 01aa FFF7FEFF 		bl	temp_hum_measurement
 1486              	.LVL127:
 325:../../applications/murata-dualstack-example-ns/src/murata-dualstack-example-ns.c ****           //LoRaWAN_send(NULL);
 1487              		.loc 1 325 11 view .LVU360
 1488 01ae 0220     		movs	r0, #2
 1489 01b0 FFF7FEFF 		bl	send_message
 1490              	.LVL128:
 1491 01b4 8FE7     		b	.L81
 1492              	.L98:
 1493              	.LBE13:
 348:../../applications/murata-dualstack-example-ns/src/murata-dualstack-example-ns.c ****       printf("Rep counter: %d,\r\n\r\n",rep_counter);
 1494              		.loc 1 348 7 view .LVU361
 348:../../applications/murata-dualstack-example-ns/src/murata-dualstack-example-ns.c ****       printf("Rep counter: %d,\r\n\r\n",rep_counter);
 1495              		.loc 1 348 18 is_stmt 0 view .LVU362
 1496 01b6 454B     		ldr	r3, .L110+48
 1497 01b8 1978     		ldrb	r1, [r3]	@ zero_extendqisi2
 1498 01ba 0131     		adds	r1, r1, #1
 1499 01bc C9B2     		uxtb	r1, r1
 1500 01be 1970     		strb	r1, [r3]
 349:../../applications/murata-dualstack-example-ns/src/murata-dualstack-example-ns.c ****       } 
 1501              		.loc 1 349 7 is_stmt 1 view .LVU363
 1502 01c0 5148     		ldr	r0, .L110+108
 1503 01c2 FFF7FEFF 		bl	printf
 1504              	.LVL129:
 1505 01c6 93E7     		b	.L83
 1506              	.L99:
 368:../../applications/murata-dualstack-example-ns/src/murata-dualstack-example-ns.c ****        //send dash7 localisation message
 1507              		.loc 1 368 7 view .LVU364
 1508 01c8 5048     		ldr	r0, .L110+112
 1509 01ca FFF7FEFF 		bl	puts
 1510              	.LVL130:
 370:../../applications/murata-dualstack-example-ns/src/murata-dualstack-example-ns.c ****         if (murata_init) {
 1511              		.loc 1 370 7 view .LVU365
 370:../../applications/murata-dualstack-example-ns/src/murata-dualstack-example-ns.c ****         if (murata_init) {
ARM GAS  C:\Users\yvesk\AppData\Local\Temp\cc7ZgnLm.s 			page 42


 1512              		.loc 1 370 11 is_stmt 0 view .LVU366
 1513 01ce 3A4B     		ldr	r3, .L110+28
 1514 01d0 1B78     		ldrb	r3, [r3]	@ zero_extendqisi2
 370:../../applications/murata-dualstack-example-ns/src/murata-dualstack-example-ns.c ****         if (murata_init) {
 1515              		.loc 1 370 10 view .LVU367
 1516 01d2 13B9     		cbnz	r3, .L85
 371:../../applications/murata-dualstack-example-ns/src/murata-dualstack-example-ns.c ****           printf("Sending dash7 localisation message (once per minute)\r\n\r\n");
 1517              		.loc 1 371 9 is_stmt 1 view .LVU368
 371:../../applications/murata-dualstack-example-ns/src/murata-dualstack-example-ns.c ****           printf("Sending dash7 localisation message (once per minute)\r\n\r\n");
 1518              		.loc 1 371 13 is_stmt 0 view .LVU369
 1519 01d4 354B     		ldr	r3, .L110+16
 1520 01d6 1B78     		ldrb	r3, [r3]	@ zero_extendqisi2
 371:../../applications/murata-dualstack-example-ns/src/murata-dualstack-example-ns.c ****           printf("Sending dash7 localisation message (once per minute)\r\n\r\n");
 1521              		.loc 1 371 12 view .LVU370
 1522 01d8 1BB9     		cbnz	r3, .L109
 1523              	.L85:
 378:../../applications/murata-dualstack-example-ns/src/murata-dualstack-example-ns.c ****     }
 1524              		.loc 1 378 6 is_stmt 1 view .LVU371
 378:../../applications/murata-dualstack-example-ns/src/murata-dualstack-example-ns.c ****     }
 1525              		.loc 1 378 16 is_stmt 0 view .LVU372
 1526 01da 3F4B     		ldr	r3, .L110+60
 1527 01dc 0022     		movs	r2, #0
 1528 01de 1A70     		strb	r2, [r3]
 1529 01e0 96E7     		b	.L84
 1530              	.L109:
 1531              	.LBB14:
 372:../../applications/murata-dualstack-example-ns/src/murata-dualstack-example-ns.c ****             temp_hum_measurement();
 1532              		.loc 1 372 11 is_stmt 1 view .LVU373
 1533 01e2 4B48     		ldr	r0, .L110+116
 1534 01e4 FFF7FEFF 		bl	puts
 1535              	.LVL131:
 373:../../applications/murata-dualstack-example-ns/src/murata-dualstack-example-ns.c ****           send_message(1);
 1536              		.loc 1 373 13 view .LVU374
 1537 01e8 FFF7FEFF 		bl	temp_hum_measurement
 1538              	.LVL132:
 374:../../applications/murata-dualstack-example-ns/src/murata-dualstack-example-ns.c ****           
 1539              		.loc 1 374 11 view .LVU375
 1540 01ec 0120     		movs	r0, #1
 1541 01ee FFF7FEFF 		bl	send_message
 1542              	.LVL133:
 1543 01f2 F2E7     		b	.L85
 1544              	.L100:
 1545              	.LBE14:
 1546              	.LBB15:
 385:../../applications/murata-dualstack-example-ns/src/murata-dualstack-example-ns.c ****         temp_hum_measurement();
 1547              		.loc 1 385 9 view .LVU376
 1548 01f4 4748     		ldr	r0, .L110+120
 1549 01f6 FFF7FEFF 		bl	puts
 1550              	.LVL134:
 386:../../applications/murata-dualstack-example-ns/src/murata-dualstack-example-ns.c ****         send_message(1); 
 1551              		.loc 1 386 9 view .LVU377
 1552 01fa FFF7FEFF 		bl	temp_hum_measurement
 1553              	.LVL135:
 387:../../applications/murata-dualstack-example-ns/src/murata-dualstack-example-ns.c ****         about_to_sleep = 1; 
 1554              		.loc 1 387 9 view .LVU378
 1555 01fe 0120     		movs	r0, #1
 1556 0200 FFF7FEFF 		bl	send_message
ARM GAS  C:\Users\yvesk\AppData\Local\Temp\cc7ZgnLm.s 			page 43


 1557              	.LVL136:
 388:../../applications/murata-dualstack-example-ns/src/murata-dualstack-example-ns.c ****         //__HAL_TIM_SET_COUNTER(&send_sleepmessage_timer, 0);
 1558              		.loc 1 388 9 view .LVU379
 388:../../applications/murata-dualstack-example-ns/src/murata-dualstack-example-ns.c ****         //__HAL_TIM_SET_COUNTER(&send_sleepmessage_timer, 0);
 1559              		.loc 1 388 24 is_stmt 0 view .LVU380
 1560 0204 374B     		ldr	r3, .L110+72
 1561 0206 0122     		movs	r2, #1
 1562 0208 1A70     		strb	r2, [r3]
 1563 020a 88E7     		b	.L87
 1564              	.L101:
 1565              	.LBE15:
 401:../../applications/murata-dualstack-example-ns/src/murata-dualstack-example-ns.c ****       }
 1566              		.loc 1 401 9 is_stmt 1 view .LVU381
 1567 020c 364B     		ldr	r3, .L110+76
 1568 020e 1978     		ldrb	r1, [r3]	@ zero_extendqisi2
 1569 0210 4148     		ldr	r0, .L110+124
 1570 0212 FFF7FEFF 		bl	printf
 1571              	.LVL137:
 1572 0216 8FE7     		b	.L89
 1573              	.L102:
 1574              	.LBB16:
 413:../../applications/murata-dualstack-example-ns/src/murata-dualstack-example-ns.c ****     rep_counter = 0; 
 1575              		.loc 1 413 5 view .LVU382
 413:../../applications/murata-dualstack-example-ns/src/murata-dualstack-example-ns.c ****     rep_counter = 0; 
 1576              		.loc 1 413 13 is_stmt 0 view .LVU383
 1577 0218 0024     		movs	r4, #0
 1578 021a 274B     		ldr	r3, .L110+28
 1579 021c 1C70     		strb	r4, [r3]
 414:../../applications/murata-dualstack-example-ns/src/murata-dualstack-example-ns.c ****     goToSleep(); 
 1580              		.loc 1 414 5 is_stmt 1 view .LVU384
 414:../../applications/murata-dualstack-example-ns/src/murata-dualstack-example-ns.c ****     goToSleep(); 
 1581              		.loc 1 414 17 is_stmt 0 view .LVU385
 1582 021e 2B4B     		ldr	r3, .L110+48
 1583 0220 1C70     		strb	r4, [r3]
 415:../../applications/murata-dualstack-example-ns/src/murata-dualstack-example-ns.c ****     send_message(1);
 1584              		.loc 1 415 5 is_stmt 1 view .LVU386
 1585 0222 FFF7FEFF 		bl	goToSleep
 1586              	.LVL138:
 416:../../applications/murata-dualstack-example-ns/src/murata-dualstack-example-ns.c ****     about_to_sleep = 0;
 1587              		.loc 1 416 5 view .LVU387
 1588 0226 0120     		movs	r0, #1
 1589 0228 FFF7FEFF 		bl	send_message
 1590              	.LVL139:
 417:../../applications/murata-dualstack-example-ns/src/murata-dualstack-example-ns.c ****     }
 1591              		.loc 1 417 5 view .LVU388
 417:../../applications/murata-dualstack-example-ns/src/murata-dualstack-example-ns.c ****     }
 1592              		.loc 1 417 20 is_stmt 0 view .LVU389
 1593 022c 2D4B     		ldr	r3, .L110+72
 1594 022e 1C70     		strb	r4, [r3]
 1595 0230 89E7     		b	.L90
 1596              	.L103:
 1597              	.LBE16:
 423:../../applications/murata-dualstack-example-ns/src/murata-dualstack-example-ns.c ****       messageMode=1;      //go to lorawanmode
 1598              		.loc 1 423 7 is_stmt 1 view .LVU390
 1599 0232 3A48     		ldr	r0, .L110+128
 1600 0234 FFF7FEFF 		bl	puts
 1601              	.LVL140:
ARM GAS  C:\Users\yvesk\AppData\Local\Temp\cc7ZgnLm.s 			page 44


 424:../../applications/murata-dualstack-example-ns/src/murata-dualstack-example-ns.c ****       successCounter=0;   //we zetten de dash7 succescounter terug op 0
 1602              		.loc 1 424 7 view .LVU391
 424:../../applications/murata-dualstack-example-ns/src/murata-dualstack-example-ns.c ****       successCounter=0;   //we zetten de dash7 succescounter terug op 0
 1603              		.loc 1 424 18 is_stmt 0 view .LVU392
 1604 0238 394B     		ldr	r3, .L110+132
 1605 023a 0122     		movs	r2, #1
 1606 023c 1A70     		strb	r2, [r3]
 425:../../applications/murata-dualstack-example-ns/src/murata-dualstack-example-ns.c ****       failureCounter=4;   //we zetten de failure counter op een andere waarde dan 3 zodat dit blok 
 1607              		.loc 1 425 7 is_stmt 1 view .LVU393
 425:../../applications/murata-dualstack-example-ns/src/murata-dualstack-example-ns.c ****       failureCounter=4;   //we zetten de failure counter op een andere waarde dan 3 zodat dit blok 
 1608              		.loc 1 425 21 is_stmt 0 view .LVU394
 1609 023e 2C4B     		ldr	r3, .L110+84
 1610 0240 0022     		movs	r2, #0
 1611 0242 1A70     		strb	r2, [r3]
 426:../../applications/murata-dualstack-example-ns/src/murata-dualstack-example-ns.c ****                           
 1612              		.loc 1 426 7 is_stmt 1 view .LVU395
 426:../../applications/murata-dualstack-example-ns/src/murata-dualstack-example-ns.c ****                           
 1613              		.loc 1 426 21 is_stmt 0 view .LVU396
 1614 0244 284B     		ldr	r3, .L110+76
 1615 0246 0422     		movs	r2, #4
 1616 0248 1A70     		strb	r2, [r3]
 1617 024a 81E7     		b	.L91
 1618              	.L104:
 434:../../applications/murata-dualstack-example-ns/src/murata-dualstack-example-ns.c ****       messageMode=0;      //ga naar dash7 mode
 1619              		.loc 1 434 7 is_stmt 1 view .LVU397
 1620 024c 3548     		ldr	r0, .L110+136
 1621 024e FFF7FEFF 		bl	puts
 1622              	.LVL141:
 435:../../applications/murata-dualstack-example-ns/src/murata-dualstack-example-ns.c ****       loracounter=0;      //zet de lorawan message counter terug op 0
 1623              		.loc 1 435 7 view .LVU398
 435:../../applications/murata-dualstack-example-ns/src/murata-dualstack-example-ns.c ****       loracounter=0;      //zet de lorawan message counter terug op 0
 1624              		.loc 1 435 18 is_stmt 0 view .LVU399
 1625 0252 0023     		movs	r3, #0
 1626 0254 324A     		ldr	r2, .L110+132
 1627 0256 1370     		strb	r3, [r2]
 436:../../applications/murata-dualstack-example-ns/src/murata-dualstack-example-ns.c ****       failureCounter=0;   // NOG TOEGEVOEGD
 1628              		.loc 1 436 7 is_stmt 1 view .LVU400
 436:../../applications/murata-dualstack-example-ns/src/murata-dualstack-example-ns.c ****       failureCounter=0;   // NOG TOEGEVOEGD
 1629              		.loc 1 436 18 is_stmt 0 view .LVU401
 1630 0258 244A     		ldr	r2, .L110+80
 1631 025a 1370     		strb	r3, [r2]
 437:../../applications/murata-dualstack-example-ns/src/murata-dualstack-example-ns.c ****     }
 1632              		.loc 1 437 7 is_stmt 1 view .LVU402
 437:../../applications/murata-dualstack-example-ns/src/murata-dualstack-example-ns.c ****     }
 1633              		.loc 1 437 21 is_stmt 0 view .LVU403
 1634 025c 224A     		ldr	r2, .L110+76
 1635 025e 1370     		strb	r3, [r2]
 1636 0260 7AE7     		b	.L92
 1637              	.L105:
 442:../../applications/murata-dualstack-example-ns/src/murata-dualstack-example-ns.c ****       messageMode=0;        //go to dash7mode
 1638              		.loc 1 442 7 is_stmt 1 view .LVU404
 1639 0262 3148     		ldr	r0, .L110+140
 1640 0264 FFF7FEFF 		bl	puts
 1641              	.LVL142:
 443:../../applications/murata-dualstack-example-ns/src/murata-dualstack-example-ns.c ****       successCounter=2;     //step over the 1 value so that between messages this if isn't accessed
 1642              		.loc 1 443 7 view .LVU405
 443:../../applications/murata-dualstack-example-ns/src/murata-dualstack-example-ns.c ****       successCounter=2;     //step over the 1 value so that between messages this if isn't accessed
ARM GAS  C:\Users\yvesk\AppData\Local\Temp\cc7ZgnLm.s 			page 45


 1643              		.loc 1 443 18 is_stmt 0 view .LVU406
 1644 0268 2D4B     		ldr	r3, .L110+132
 1645 026a 0022     		movs	r2, #0
 1646 026c 1A70     		strb	r2, [r3]
 444:../../applications/murata-dualstack-example-ns/src/murata-dualstack-example-ns.c ****                             // deze counter wordt terug op 0 gezet vanaf er terug 3 keer gefailed w
 1647              		.loc 1 444 7 is_stmt 1 view .LVU407
 444:../../applications/murata-dualstack-example-ns/src/murata-dualstack-example-ns.c ****                             // deze counter wordt terug op 0 gezet vanaf er terug 3 keer gefailed w
 1648              		.loc 1 444 21 is_stmt 0 view .LVU408
 1649 026e 204B     		ldr	r3, .L110+84
 1650 0270 0222     		movs	r2, #2
 1651 0272 1A70     		strb	r2, [r3]
 1652 0274 75E7     		b	.L93
 1653              	.L106:
 1654              	.LBB17:
 452:../../applications/murata-dualstack-example-ns/src/murata-dualstack-example-ns.c ****       HAL_UART_Receive_IT(&BLE_UART, (uint8_t *)tmpbuf_ble, sizeof(tmpbuf_ble)); 
 1655              		.loc 1 452 7 is_stmt 1 view .LVU409
 1656 0276 FFF7FEFF 		bl	ble_callback
 1657              	.LVL143:
 453:../../applications/murata-dualstack-example-ns/src/murata-dualstack-example-ns.c ****       BLE_flag = 0; 
 1658              		.loc 1 453 7 view .LVU410
 1659 027a 0222     		movs	r2, #2
 1660 027c 0949     		ldr	r1, .L110+8
 1661 027e 0A48     		ldr	r0, .L110+12
 1662 0280 FFF7FEFF 		bl	HAL_UART_Receive_IT
 1663              	.LVL144:
 454:../../applications/murata-dualstack-example-ns/src/murata-dualstack-example-ns.c ****     }
 1664              		.loc 1 454 7 view .LVU411
 454:../../applications/murata-dualstack-example-ns/src/murata-dualstack-example-ns.c ****     }
 1665              		.loc 1 454 16 is_stmt 0 view .LVU412
 1666 0284 1B4B     		ldr	r3, .L110+88
 1667 0286 0022     		movs	r2, #0
 1668 0288 1A70     		strb	r2, [r3]
 1669 028a 6FE7     		b	.L94
 1670              	.L107:
 1671              	.LBE17:
 459:../../applications/murata-dualstack-example-ns/src/murata-dualstack-example-ns.c ****       lorawanflag=0; 
 1672              		.loc 1 459 7 is_stmt 1 view .LVU413
 1673 028c 0020     		movs	r0, #0
 1674 028e FFF7FEFF 		bl	LoRaWAN_send
 1675              	.LVL145:
 460:../../applications/murata-dualstack-example-ns/src/murata-dualstack-example-ns.c ****     }
 1676              		.loc 1 460 7 view .LVU414
 460:../../applications/murata-dualstack-example-ns/src/murata-dualstack-example-ns.c ****     }
 1677              		.loc 1 460 18 is_stmt 0 view .LVU415
 1678 0292 194B     		ldr	r3, .L110+92
 1679 0294 0022     		movs	r2, #0
 1680 0296 1A70     		strb	r2, [r3]
 1681 0298 6DE7     		b	.L75
 1682              	.L111:
 1683 029a 00BF     		.align	2
 1684              	.L110:
 1685 029c 00000000 		.word	short_UID
 1686 02a0 00000000 		.word	common_I2C
 1687 02a4 00000000 		.word	tmpbuf_ble
 1688 02a8 00000000 		.word	BLE_UART
 1689 02ac 00000000 		.word	.LANCHOR3
 1690 02b0 00000000 		.word	.LC15
ARM GAS  C:\Users\yvesk\AppData\Local\Temp\cc7ZgnLm.s 			page 46


 1691 02b4 00000000 		.word	.LANCHOR13
 1692 02b8 00000000 		.word	.LANCHOR14
 1693 02bc 24000000 		.word	.LC16
 1694 02c0 38000000 		.word	.LC17
 1695 02c4 54000000 		.word	.LC18
 1696 02c8 84000000 		.word	.LC19
 1697 02cc 00000000 		.word	.LANCHOR8
 1698 02d0 00000000 		.word	.LANCHOR15
 1699 02d4 00000000 		.word	.LANCHOR1
 1700 02d8 00000000 		.word	.LANCHOR16
 1701 02dc 00000000 		.word	.LANCHOR17
 1702 02e0 00000000 		.word	.LANCHOR19
 1703 02e4 00000000 		.word	.LANCHOR18
 1704 02e8 00000000 		.word	.LANCHOR20
 1705 02ec 00000000 		.word	.LANCHOR11
 1706 02f0 00000000 		.word	.LANCHOR21
 1707 02f4 00000000 		.word	.LANCHOR22
 1708 02f8 00000000 		.word	.LANCHOR23
 1709 02fc 00000000 		.word	.LANCHOR9
 1710 0300 00000000 		.word	.LANCHOR12
 1711 0304 AC000000 		.word	.LC20
 1712 0308 EC000000 		.word	.LC21
 1713 030c 04010000 		.word	.LC22
 1714 0310 20010000 		.word	.LC23
 1715 0314 58010000 		.word	.LC24
 1716 0318 88010000 		.word	.LC25
 1717 031c A0010000 		.word	.LC26
 1718 0320 00000000 		.word	.LANCHOR10
 1719 0324 BC010000 		.word	.LC27
 1720 0328 D8010000 		.word	.LC28
 1721              		.cfi_endproc
 1722              	.LFE134:
 1724              		.section	.text.HAL_GPIO_EXTI_Callback,"ax",%progbits
 1725              		.align	1
 1726              		.global	HAL_GPIO_EXTI_Callback
 1727              		.syntax unified
 1728              		.thumb
 1729              		.thumb_func
 1730              		.fpu fpv4-sp-d16
 1732              	HAL_GPIO_EXTI_Callback:
 1733              	.LVL146:
 1734              	.LFB146:
 684:../../applications/murata-dualstack-example-ns/src/murata-dualstack-example-ns.c **** 
 685:../../applications/murata-dualstack-example-ns/src/murata-dualstack-example-ns.c **** //----------------------------------------------------------------------  end extra methods   -----
 686:../../applications/murata-dualstack-example-ns/src/murata-dualstack-example-ns.c **** 
 687:../../applications/murata-dualstack-example-ns/src/murata-dualstack-example-ns.c **** /* USER CODE END 4 */
 688:../../applications/murata-dualstack-example-ns/src/murata-dualstack-example-ns.c **** 
 689:../../applications/murata-dualstack-example-ns/src/murata-dualstack-example-ns.c **** //-------------------------------------------------------start interrupt handlers -----------------
 690:../../applications/murata-dualstack-example-ns/src/murata-dualstack-example-ns.c **** 
 691:../../applications/murata-dualstack-example-ns/src/murata-dualstack-example-ns.c **** //See platform>octa>stm32l4xx_it.c there we placed exti15_10 function to capture interrupts on one 
 692:../../applications/murata-dualstack-example-ns/src/murata-dualstack-example-ns.c **** // (see slides of Mr weyn for the exact function name). In this function we call the "HAL_GPIO_EXTI
 693:../../applications/murata-dualstack-example-ns/src/murata-dualstack-example-ns.c **** // file. In this function the "HAL_GPIO_EXTI_Callback" is called, which we define below 
 694:../../applications/murata-dualstack-example-ns/src/murata-dualstack-example-ns.c **** void HAL_GPIO_EXTI_Callback(uint16_t GPIO_Pin) {
 1735              		.loc 1 694 48 is_stmt 1 view -0
 1736              		.cfi_startproc
 1737              		@ args = 0, pretend = 0, frame = 0
 1738              		@ frame_needed = 0, uses_anonymous_args = 0
ARM GAS  C:\Users\yvesk\AppData\Local\Temp\cc7ZgnLm.s 			page 47


 695:../../applications/murata-dualstack-example-ns/src/murata-dualstack-example-ns.c ****   if (GPIO_Pin==GPIO_Pin_13) {
 1739              		.loc 1 695 3 view .LVU417
 1740              		.loc 1 695 6 is_stmt 0 view .LVU418
 1741 0000 B0F5005F 		cmp	r0, #8192
 1742 0004 00D0     		beq	.L118
 1743 0006 7047     		bx	lr
 1744              	.L118:
 694:../../applications/murata-dualstack-example-ns/src/murata-dualstack-example-ns.c ****   if (GPIO_Pin==GPIO_Pin_13) {
 1745              		.loc 1 694 48 view .LVU419
 1746 0008 08B5     		push	{r3, lr}
 1747              	.LCFI28:
 1748              		.cfi_def_cfa_offset 8
 1749              		.cfi_offset 3, -8
 1750              		.cfi_offset 14, -4
 696:../../applications/murata-dualstack-example-ns/src/murata-dualstack-example-ns.c ****   repFlag = 1; 
 1751              		.loc 1 696 3 is_stmt 1 view .LVU420
 1752              		.loc 1 696 11 is_stmt 0 view .LVU421
 1753 000a 034B     		ldr	r3, .L119
 1754 000c 0122     		movs	r2, #1
 1755 000e 1A70     		strb	r2, [r3]
 697:../../applications/murata-dualstack-example-ns/src/murata-dualstack-example-ns.c ****   printf("movement detected! \r\n");
 1756              		.loc 1 697 3 is_stmt 1 view .LVU422
 1757 0010 0248     		ldr	r0, .L119+4
 1758              	.LVL147:
 1759              		.loc 1 697 3 is_stmt 0 view .LVU423
 1760 0012 FFF7FEFF 		bl	puts
 1761              	.LVL148:
 698:../../applications/murata-dualstack-example-ns/src/murata-dualstack-example-ns.c ****   // we work with a flag so as to make sure that we don't stay in the callback for too long. This w
 699:../../applications/murata-dualstack-example-ns/src/murata-dualstack-example-ns.c ****   // the flag will call the measurement function in de while loop
 700:../../applications/murata-dualstack-example-ns/src/murata-dualstack-example-ns.c ****   } 
 701:../../applications/murata-dualstack-example-ns/src/murata-dualstack-example-ns.c **** }
 1762              		.loc 1 701 1 view .LVU424
 1763 0016 08BD     		pop	{r3, pc}
 1764              	.L120:
 1765              		.align	2
 1766              	.L119:
 1767 0018 00000000 		.word	.LANCHOR15
 1768 001c 00000000 		.word	.LC29
 1769              		.cfi_endproc
 1770              	.LFE146:
 1772              		.section	.text.EXTI1_IRQHandler,"ax",%progbits
 1773              		.align	1
 1774              		.global	EXTI1_IRQHandler
 1775              		.syntax unified
 1776              		.thumb
 1777              		.thumb_func
 1778              		.fpu fpv4-sp-d16
 1780              	EXTI1_IRQHandler:
 1781              	.LFB147:
 702:../../applications/murata-dualstack-example-ns/src/murata-dualstack-example-ns.c **** 
 703:../../applications/murata-dualstack-example-ns/src/murata-dualstack-example-ns.c **** void EXTI1_IRQHandler(void){
 1782              		.loc 1 703 28 is_stmt 1 view -0
 1783              		.cfi_startproc
 1784              		@ args = 0, pretend = 0, frame = 0
 1785              		@ frame_needed = 0, uses_anonymous_args = 0
 1786 0000 08B5     		push	{r3, lr}
 1787              	.LCFI29:
ARM GAS  C:\Users\yvesk\AppData\Local\Temp\cc7ZgnLm.s 			page 48


 1788              		.cfi_def_cfa_offset 8
 1789              		.cfi_offset 3, -8
 1790              		.cfi_offset 14, -4
 704:../../applications/murata-dualstack-example-ns/src/murata-dualstack-example-ns.c ****   printf("INTERRUPT BUTTON! \r\n");
 1791              		.loc 1 704 3 view .LVU426
 1792 0002 0748     		ldr	r0, .L123
 1793 0004 FFF7FEFF 		bl	puts
 1794              	.LVL149:
 705:../../applications/murata-dualstack-example-ns/src/murata-dualstack-example-ns.c **** 
 706:../../applications/murata-dualstack-example-ns/src/murata-dualstack-example-ns.c ****  
 707:../../applications/murata-dualstack-example-ns/src/murata-dualstack-example-ns.c ****     //Start reps
 708:../../applications/murata-dualstack-example-ns/src/murata-dualstack-example-ns.c ****     __HAL_GPIO_EXTI_CLEAR_IT(GPIO_PIN_1);
 1795              		.loc 1 708 5 view .LVU427
 1796 0008 064B     		ldr	r3, .L123+4
 1797 000a 0222     		movs	r2, #2
 1798 000c 5A61     		str	r2, [r3, #20]
 709:../../applications/murata-dualstack-example-ns/src/murata-dualstack-example-ns.c ****     //printf("INTERRUPT BUTTON! \r\n");
 710:../../applications/murata-dualstack-example-ns/src/murata-dualstack-example-ns.c ****     repMode= !repMode;
 1799              		.loc 1 710 5 view .LVU428
 1800 000e 064A     		ldr	r2, .L123+8
 1801 0010 1378     		ldrb	r3, [r2]	@ zero_extendqisi2
 1802 0012 83F00103 		eor	r3, r3, #1
 1803              		.loc 1 710 12 is_stmt 0 view .LVU429
 1804 0016 1370     		strb	r3, [r2]
 711:../../applications/murata-dualstack-example-ns/src/murata-dualstack-example-ns.c ****     changeAcceleroMode=1;
 1805              		.loc 1 711 5 is_stmt 1 view .LVU430
 1806              		.loc 1 711 23 is_stmt 0 view .LVU431
 1807 0018 044B     		ldr	r3, .L123+12
 1808 001a 0122     		movs	r2, #1
 1809 001c 1A70     		strb	r2, [r3]
 712:../../applications/murata-dualstack-example-ns/src/murata-dualstack-example-ns.c ****     //Change registers of accelero
 713:../../applications/murata-dualstack-example-ns/src/murata-dualstack-example-ns.c **** }
 1810              		.loc 1 713 1 view .LVU432
 1811 001e 08BD     		pop	{r3, pc}
 1812              	.L124:
 1813              		.align	2
 1814              	.L123:
 1815 0020 00000000 		.word	.LC30
 1816 0024 00040140 		.word	1073808384
 1817 0028 00000000 		.word	.LANCHOR14
 1818 002c 00000000 		.word	.LANCHOR13
 1819              		.cfi_endproc
 1820              	.LFE147:
 1822              		.section	.text.EXTI0_IRQHandler,"ax",%progbits
 1823              		.align	1
 1824              		.global	EXTI0_IRQHandler
 1825              		.syntax unified
 1826              		.thumb
 1827              		.thumb_func
 1828              		.fpu fpv4-sp-d16
 1830              	EXTI0_IRQHandler:
 1831              	.LFB148:
 714:../../applications/murata-dualstack-example-ns/src/murata-dualstack-example-ns.c **** 
 715:../../applications/murata-dualstack-example-ns/src/murata-dualstack-example-ns.c **** void EXTI0_IRQHandler(void){
 1832              		.loc 1 715 28 is_stmt 1 view -0
 1833              		.cfi_startproc
 1834              		@ args = 0, pretend = 0, frame = 0
ARM GAS  C:\Users\yvesk\AppData\Local\Temp\cc7ZgnLm.s 			page 49


 1835              		@ frame_needed = 0, uses_anonymous_args = 0
 1836 0000 08B5     		push	{r3, lr}
 1837              	.LCFI30:
 1838              		.cfi_def_cfa_offset 8
 1839              		.cfi_offset 3, -8
 1840              		.cfi_offset 14, -4
 716:../../applications/murata-dualstack-example-ns/src/murata-dualstack-example-ns.c ****     
 717:../../applications/murata-dualstack-example-ns/src/murata-dualstack-example-ns.c ****     __HAL_GPIO_EXTI_CLEAR_IT(GPIO_PIN_0);
 1841              		.loc 1 717 5 view .LVU434
 1842 0002 0123     		movs	r3, #1
 1843 0004 034A     		ldr	r2, .L127
 1844 0006 5361     		str	r3, [r2, #20]
 718:../../applications/murata-dualstack-example-ns/src/murata-dualstack-example-ns.c ****     lorawanflag = 1; 
 1845              		.loc 1 718 5 view .LVU435
 1846              		.loc 1 718 17 is_stmt 0 view .LVU436
 1847 0008 034A     		ldr	r2, .L127+4
 1848 000a 1370     		strb	r3, [r2]
 719:../../applications/murata-dualstack-example-ns/src/murata-dualstack-example-ns.c ****     printf("INTERRUPT BUTTON! \r\n");
 1849              		.loc 1 719 5 is_stmt 1 view .LVU437
 1850 000c 0348     		ldr	r0, .L127+8
 1851 000e FFF7FEFF 		bl	puts
 1852              	.LVL150:
 720:../../applications/murata-dualstack-example-ns/src/murata-dualstack-example-ns.c **** }
 1853              		.loc 1 720 1 is_stmt 0 view .LVU438
 1854 0012 08BD     		pop	{r3, pc}
 1855              	.L128:
 1856              		.align	2
 1857              	.L127:
 1858 0014 00040140 		.word	1073808384
 1859 0018 00000000 		.word	.LANCHOR23
 1860 001c 00000000 		.word	.LC30
 1861              		.cfi_endproc
 1862              	.LFE148:
 1864              		.section	.text.TIM2_IRQHandler,"ax",%progbits
 1865              		.align	1
 1866              		.global	TIM2_IRQHandler
 1867              		.syntax unified
 1868              		.thumb
 1869              		.thumb_func
 1870              		.fpu fpv4-sp-d16
 1872              	TIM2_IRQHandler:
 1873              	.LFB149:
 721:../../applications/murata-dualstack-example-ns/src/murata-dualstack-example-ns.c **** 
 722:../../applications/murata-dualstack-example-ns/src/murata-dualstack-example-ns.c **** 
 723:../../applications/murata-dualstack-example-ns/src/murata-dualstack-example-ns.c **** void TIM2_IRQHandler( void ) {
 1874              		.loc 1 723 30 is_stmt 1 view -0
 1875              		.cfi_startproc
 1876              		@ args = 0, pretend = 0, frame = 0
 1877              		@ frame_needed = 0, uses_anonymous_args = 0
 1878              		@ link register save eliminated.
 724:../../applications/murata-dualstack-example-ns/src/murata-dualstack-example-ns.c **** 
 725:../../applications/murata-dualstack-example-ns/src/murata-dualstack-example-ns.c ****   //printf("elapsed period \r\n");
 726:../../applications/murata-dualstack-example-ns/src/murata-dualstack-example-ns.c ****  
 727:../../applications/murata-dualstack-example-ns/src/murata-dualstack-example-ns.c ****   if (__HAL_TIM_GET_FLAG(&localisation_timer, TIM_IT_UPDATE) != RESET) 
 1879              		.loc 1 727 3 view .LVU440
 1880              		.loc 1 727 7 is_stmt 0 view .LVU441
 1881 0000 084B     		ldr	r3, .L131
ARM GAS  C:\Users\yvesk\AppData\Local\Temp\cc7ZgnLm.s 			page 50


 1882 0002 1B68     		ldr	r3, [r3]
 1883 0004 1A69     		ldr	r2, [r3, #16]
 1884              		.loc 1 727 6 view .LVU442
 1885 0006 12F0010F 		tst	r2, #1
 1886 000a 09D0     		beq	.L129
 728:../../applications/murata-dualstack-example-ns/src/murata-dualstack-example-ns.c ****   //In case other interrupts are also running
 729:../../applications/murata-dualstack-example-ns/src/murata-dualstack-example-ns.c ****   {
 730:../../applications/murata-dualstack-example-ns/src/murata-dualstack-example-ns.c ****   
 731:../../applications/murata-dualstack-example-ns/src/murata-dualstack-example-ns.c ****     if (__HAL_TIM_GET_IT_SOURCE(&localisation_timer, TIM_IT_UPDATE) != RESET) {
 1887              		.loc 1 731 5 is_stmt 1 view .LVU443
 1888              		.loc 1 731 9 is_stmt 0 view .LVU444
 1889 000c DA68     		ldr	r2, [r3, #12]
 1890              		.loc 1 731 8 view .LVU445
 1891 000e 12F0010F 		tst	r2, #1
 1892 0012 05D0     		beq	.L129
 732:../../applications/murata-dualstack-example-ns/src/murata-dualstack-example-ns.c ****     
 733:../../applications/murata-dualstack-example-ns/src/murata-dualstack-example-ns.c ****     __HAL_TIM_CLEAR_IT(&localisation_timer, TIM_IT_UPDATE);
 1893              		.loc 1 733 5 is_stmt 1 view .LVU446
 1894 0014 6FF00102 		mvn	r2, #1
 1895 0018 1A61     		str	r2, [r3, #16]
 734:../../applications/murata-dualstack-example-ns/src/murata-dualstack-example-ns.c ****     
 735:../../applications/murata-dualstack-example-ns/src/murata-dualstack-example-ns.c ****     
 736:../../applications/murata-dualstack-example-ns/src/murata-dualstack-example-ns.c ****     //printf("elapsed period \r\n");
 737:../../applications/murata-dualstack-example-ns/src/murata-dualstack-example-ns.c ****     timer2flag = 1; 
 1896              		.loc 1 737 5 view .LVU447
 1897              		.loc 1 737 16 is_stmt 0 view .LVU448
 1898 001a 034B     		ldr	r3, .L131+4
 1899 001c 0122     		movs	r2, #1
 1900 001e 1A70     		strb	r2, [r3]
 1901              	.L129:
 738:../../applications/murata-dualstack-example-ns/src/murata-dualstack-example-ns.c ****     
 739:../../applications/murata-dualstack-example-ns/src/murata-dualstack-example-ns.c ****     
 740:../../applications/murata-dualstack-example-ns/src/murata-dualstack-example-ns.c ****     }
 741:../../applications/murata-dualstack-example-ns/src/murata-dualstack-example-ns.c ****   
 742:../../applications/murata-dualstack-example-ns/src/murata-dualstack-example-ns.c ****   }
 743:../../applications/murata-dualstack-example-ns/src/murata-dualstack-example-ns.c ****  
 744:../../applications/murata-dualstack-example-ns/src/murata-dualstack-example-ns.c **** }
 1902              		.loc 1 744 1 view .LVU449
 1903 0020 7047     		bx	lr
 1904              	.L132:
 1905 0022 00BF     		.align	2
 1906              	.L131:
 1907 0024 00000000 		.word	.LANCHOR0
 1908 0028 00000000 		.word	.LANCHOR16
 1909              		.cfi_endproc
 1910              	.LFE149:
 1912              		.section	.text.TIM3_IRQHandler,"ax",%progbits
 1913              		.align	1
 1914              		.global	TIM3_IRQHandler
 1915              		.syntax unified
 1916              		.thumb
 1917              		.thumb_func
 1918              		.fpu fpv4-sp-d16
 1920              	TIM3_IRQHandler:
 1921              	.LFB150:
 745:../../applications/murata-dualstack-example-ns/src/murata-dualstack-example-ns.c **** 
 746:../../applications/murata-dualstack-example-ns/src/murata-dualstack-example-ns.c **** void TIM3_IRQHandler( void ) {
ARM GAS  C:\Users\yvesk\AppData\Local\Temp\cc7ZgnLm.s 			page 51


 1922              		.loc 1 746 30 is_stmt 1 view -0
 1923              		.cfi_startproc
 1924              		@ args = 0, pretend = 0, frame = 0
 1925              		@ frame_needed = 0, uses_anonymous_args = 0
 1926 0000 08B5     		push	{r3, lr}
 1927              	.LCFI31:
 1928              		.cfi_def_cfa_offset 8
 1929              		.cfi_offset 3, -8
 1930              		.cfi_offset 14, -4
 747:../../applications/murata-dualstack-example-ns/src/murata-dualstack-example-ns.c **** 
 748:../../applications/murata-dualstack-example-ns/src/murata-dualstack-example-ns.c ****   //printf("elapsed period \r\n");
 749:../../applications/murata-dualstack-example-ns/src/murata-dualstack-example-ns.c ****  
 750:../../applications/murata-dualstack-example-ns/src/murata-dualstack-example-ns.c ****   if (__HAL_TIM_GET_FLAG(&inactive_timer, TIM_IT_UPDATE) != RESET) 
 1931              		.loc 1 750 3 view .LVU451
 1932              		.loc 1 750 7 is_stmt 0 view .LVU452
 1933 0002 0D4B     		ldr	r3, .L138
 1934 0004 1B68     		ldr	r3, [r3]
 1935 0006 1A69     		ldr	r2, [r3, #16]
 1936              		.loc 1 750 6 view .LVU453
 1937 0008 12F0010F 		tst	r2, #1
 1938 000c 0CD0     		beq	.L133
 751:../../applications/murata-dualstack-example-ns/src/murata-dualstack-example-ns.c ****   //In case other interrupts are also running
 752:../../applications/murata-dualstack-example-ns/src/murata-dualstack-example-ns.c ****   {
 753:../../applications/murata-dualstack-example-ns/src/murata-dualstack-example-ns.c ****   
 754:../../applications/murata-dualstack-example-ns/src/murata-dualstack-example-ns.c ****     if (__HAL_TIM_GET_IT_SOURCE(&inactive_timer, TIM_IT_UPDATE) != RESET) {
 1939              		.loc 1 754 5 is_stmt 1 view .LVU454
 1940              		.loc 1 754 9 is_stmt 0 view .LVU455
 1941 000e DA68     		ldr	r2, [r3, #12]
 1942              		.loc 1 754 8 view .LVU456
 1943 0010 12F0010F 		tst	r2, #1
 1944 0014 08D0     		beq	.L133
 755:../../applications/murata-dualstack-example-ns/src/murata-dualstack-example-ns.c ****     
 756:../../applications/murata-dualstack-example-ns/src/murata-dualstack-example-ns.c ****     __HAL_TIM_CLEAR_IT(&inactive_timer, TIM_IT_UPDATE);
 1945              		.loc 1 756 5 is_stmt 1 view .LVU457
 1946 0016 6FF00102 		mvn	r2, #1
 1947 001a 1A61     		str	r2, [r3, #16]
 757:../../applications/murata-dualstack-example-ns/src/murata-dualstack-example-ns.c ****     
 758:../../applications/murata-dualstack-example-ns/src/murata-dualstack-example-ns.c ****     if (timer3_first>0) {
 1948              		.loc 1 758 5 view .LVU458
 1949              		.loc 1 758 21 is_stmt 0 view .LVU459
 1950 001c 074B     		ldr	r3, .L138+4
 1951 001e 1B78     		ldrb	r3, [r3]	@ zero_extendqisi2
 1952              		.loc 1 758 8 view .LVU460
 1953 0020 1BB9     		cbnz	r3, .L137
 1954              	.L135:
 759:../../applications/murata-dualstack-example-ns/src/murata-dualstack-example-ns.c ****     printf("elapsed period \r\n");
 760:../../applications/murata-dualstack-example-ns/src/murata-dualstack-example-ns.c ****     timer3flag = 1; 
 761:../../applications/murata-dualstack-example-ns/src/murata-dualstack-example-ns.c ****     
 762:../../applications/murata-dualstack-example-ns/src/murata-dualstack-example-ns.c ****     }
 763:../../applications/murata-dualstack-example-ns/src/murata-dualstack-example-ns.c ****     timer3_first=1; 
 1955              		.loc 1 763 5 is_stmt 1 view .LVU461
 1956              		.loc 1 763 17 is_stmt 0 view .LVU462
 1957 0022 064B     		ldr	r3, .L138+4
 1958 0024 0122     		movs	r2, #1
 1959 0026 1A70     		strb	r2, [r3]
 1960              	.L133:
 764:../../applications/murata-dualstack-example-ns/src/murata-dualstack-example-ns.c ****     }
ARM GAS  C:\Users\yvesk\AppData\Local\Temp\cc7ZgnLm.s 			page 52


 765:../../applications/murata-dualstack-example-ns/src/murata-dualstack-example-ns.c ****   
 766:../../applications/murata-dualstack-example-ns/src/murata-dualstack-example-ns.c ****   }
 767:../../applications/murata-dualstack-example-ns/src/murata-dualstack-example-ns.c ****  
 768:../../applications/murata-dualstack-example-ns/src/murata-dualstack-example-ns.c **** }
 1961              		.loc 1 768 1 view .LVU463
 1962 0028 08BD     		pop	{r3, pc}
 1963              	.L137:
 759:../../applications/murata-dualstack-example-ns/src/murata-dualstack-example-ns.c ****     printf("elapsed period \r\n");
 1964              		.loc 1 759 5 is_stmt 1 view .LVU464
 1965 002a 0548     		ldr	r0, .L138+8
 1966 002c FFF7FEFF 		bl	puts
 1967              	.LVL151:
 760:../../applications/murata-dualstack-example-ns/src/murata-dualstack-example-ns.c ****     
 1968              		.loc 1 760 5 view .LVU465
 760:../../applications/murata-dualstack-example-ns/src/murata-dualstack-example-ns.c ****     
 1969              		.loc 1 760 16 is_stmt 0 view .LVU466
 1970 0030 044B     		ldr	r3, .L138+12
 1971 0032 0122     		movs	r2, #1
 1972 0034 1A70     		strb	r2, [r3]
 1973 0036 F4E7     		b	.L135
 1974              	.L139:
 1975              		.align	2
 1976              	.L138:
 1977 0038 00000000 		.word	.LANCHOR1
 1978 003c 00000000 		.word	.LANCHOR2
 1979 0040 00000000 		.word	.LC31
 1980 0044 00000000 		.word	.LANCHOR17
 1981              		.cfi_endproc
 1982              	.LFE150:
 1984              		.section	.text.HAL_UART_RxCpltCallback,"ax",%progbits
 1985              		.align	1
 1986              		.global	HAL_UART_RxCpltCallback
 1987              		.syntax unified
 1988              		.thumb
 1989              		.thumb_func
 1990              		.fpu fpv4-sp-d16
 1992              	HAL_UART_RxCpltCallback:
 1993              	.LVL152:
 1994              	.LFB151:
 769:../../applications/murata-dualstack-example-ns/src/murata-dualstack-example-ns.c **** 
 770:../../applications/murata-dualstack-example-ns/src/murata-dualstack-example-ns.c **** 
 771:../../applications/murata-dualstack-example-ns/src/murata-dualstack-example-ns.c **** /* void TIM4_IRQHandler( void ) {
 772:../../applications/murata-dualstack-example-ns/src/murata-dualstack-example-ns.c **** 
 773:../../applications/murata-dualstack-example-ns/src/murata-dualstack-example-ns.c ****   //printf("elapsed period \r\n");
 774:../../applications/murata-dualstack-example-ns/src/murata-dualstack-example-ns.c ****  
 775:../../applications/murata-dualstack-example-ns/src/murata-dualstack-example-ns.c ****   if (__HAL_TIM_GET_FLAG(&send_sleepmessage_timer, TIM_IT_UPDATE) != RESET) 
 776:../../applications/murata-dualstack-example-ns/src/murata-dualstack-example-ns.c ****   //In case other interrupts are also running
 777:../../applications/murata-dualstack-example-ns/src/murata-dualstack-example-ns.c ****   {
 778:../../applications/murata-dualstack-example-ns/src/murata-dualstack-example-ns.c ****   
 779:../../applications/murata-dualstack-example-ns/src/murata-dualstack-example-ns.c ****     if (__HAL_TIM_GET_IT_SOURCE(&send_sleepmessage_timer, TIM_IT_UPDATE) != RESET) {
 780:../../applications/murata-dualstack-example-ns/src/murata-dualstack-example-ns.c ****     
 781:../../applications/murata-dualstack-example-ns/src/murata-dualstack-example-ns.c ****     __HAL_TIM_CLEAR_IT(&send_sleepmessage_timer, TIM_IT_UPDATE);
 782:../../applications/murata-dualstack-example-ns/src/murata-dualstack-example-ns.c ****     
 783:../../applications/murata-dualstack-example-ns/src/murata-dualstack-example-ns.c ****     //if (timer4_first>0) {
 784:../../applications/murata-dualstack-example-ns/src/murata-dualstack-example-ns.c ****     printf("elapsed sleepmessage period s \r\n");
 785:../../applications/murata-dualstack-example-ns/src/murata-dualstack-example-ns.c ****     timer4flag = 1; 
 786:../../applications/murata-dualstack-example-ns/src/murata-dualstack-example-ns.c ****     
ARM GAS  C:\Users\yvesk\AppData\Local\Temp\cc7ZgnLm.s 			page 53


 787:../../applications/murata-dualstack-example-ns/src/murata-dualstack-example-ns.c ****     //}
 788:../../applications/murata-dualstack-example-ns/src/murata-dualstack-example-ns.c ****     //timer4_first=1; 
 789:../../applications/murata-dualstack-example-ns/src/murata-dualstack-example-ns.c ****     }
 790:../../applications/murata-dualstack-example-ns/src/murata-dualstack-example-ns.c ****   
 791:../../applications/murata-dualstack-example-ns/src/murata-dualstack-example-ns.c ****   }
 792:../../applications/murata-dualstack-example-ns/src/murata-dualstack-example-ns.c ****  
 793:../../applications/murata-dualstack-example-ns/src/murata-dualstack-example-ns.c **** } */
 794:../../applications/murata-dualstack-example-ns/src/murata-dualstack-example-ns.c **** 
 795:../../applications/murata-dualstack-example-ns/src/murata-dualstack-example-ns.c **** 
 796:../../applications/murata-dualstack-example-ns/src/murata-dualstack-example-ns.c **** // UART RX CALLBACK
 797:../../applications/murata-dualstack-example-ns/src/murata-dualstack-example-ns.c **** void HAL_UART_RxCpltCallback(UART_HandleTypeDef *huart)
 798:../../applications/murata-dualstack-example-ns/src/murata-dualstack-example-ns.c **** {
 1995              		.loc 1 798 1 is_stmt 1 view -0
 1996              		.cfi_startproc
 1997              		@ args = 0, pretend = 0, frame = 0
 1998              		@ frame_needed = 0, uses_anonymous_args = 0
 1999              		.loc 1 798 1 is_stmt 0 view .LVU468
 2000 0000 10B5     		push	{r4, lr}
 2001              	.LCFI32:
 2002              		.cfi_def_cfa_offset 8
 2003              		.cfi_offset 4, -8
 2004              		.cfi_offset 14, -4
 2005 0002 0446     		mov	r4, r0
 799:../../applications/murata-dualstack-example-ns/src/murata-dualstack-example-ns.c ****    
 800:../../applications/murata-dualstack-example-ns/src/murata-dualstack-example-ns.c ****   //printf(" in callback maar niet in juiste \r\n ");
 801:../../applications/murata-dualstack-example-ns/src/murata-dualstack-example-ns.c ****   if (huart == &P1_UART)
 2006              		.loc 1 801 3 is_stmt 1 view .LVU469
 2007              		.loc 1 801 6 is_stmt 0 view .LVU470
 2008 0004 084B     		ldr	r3, .L146
 2009 0006 9842     		cmp	r0, r3
 2010 0008 03D0     		beq	.L144
 2011              	.LVL153:
 2012              	.L141:
 802:../../applications/murata-dualstack-example-ns/src/murata-dualstack-example-ns.c ****   {
 803:../../applications/murata-dualstack-example-ns/src/murata-dualstack-example-ns.c ****     Murata_rxCallback();
 804:../../applications/murata-dualstack-example-ns/src/murata-dualstack-example-ns.c ****     murata_data_ready = 1;
 805:../../applications/murata-dualstack-example-ns/src/murata-dualstack-example-ns.c ****   }
 806:../../applications/murata-dualstack-example-ns/src/murata-dualstack-example-ns.c **** 
 807:../../applications/murata-dualstack-example-ns/src/murata-dualstack-example-ns.c ****   if (huart == &BLE_UART) {
 2013              		.loc 1 807 3 is_stmt 1 view .LVU471
 2014              		.loc 1 807 6 is_stmt 0 view .LVU472
 2015 000a 084B     		ldr	r3, .L146+4
 2016 000c 9C42     		cmp	r4, r3
 2017 000e 06D0     		beq	.L145
 2018              	.L140:
 808:../../applications/murata-dualstack-example-ns/src/murata-dualstack-example-ns.c ****         BLE_flag = 1; 
 809:../../applications/murata-dualstack-example-ns/src/murata-dualstack-example-ns.c ****   }
 810:../../applications/murata-dualstack-example-ns/src/murata-dualstack-example-ns.c **** }
 2019              		.loc 1 810 1 view .LVU473
 2020 0010 10BD     		pop	{r4, pc}
 2021              	.LVL154:
 2022              	.L144:
 803:../../applications/murata-dualstack-example-ns/src/murata-dualstack-example-ns.c ****     murata_data_ready = 1;
 2023              		.loc 1 803 5 is_stmt 1 view .LVU474
 2024 0012 FFF7FEFF 		bl	Murata_rxCallback
 2025              	.LVL155:
 804:../../applications/murata-dualstack-example-ns/src/murata-dualstack-example-ns.c ****   }
ARM GAS  C:\Users\yvesk\AppData\Local\Temp\cc7ZgnLm.s 			page 54


 2026              		.loc 1 804 5 view .LVU475
 804:../../applications/murata-dualstack-example-ns/src/murata-dualstack-example-ns.c ****   }
 2027              		.loc 1 804 23 is_stmt 0 view .LVU476
 2028 0016 064B     		ldr	r3, .L146+8
 2029 0018 0122     		movs	r2, #1
 2030 001a 1A70     		strb	r2, [r3]
 2031 001c F5E7     		b	.L141
 2032              	.L145:
 808:../../applications/murata-dualstack-example-ns/src/murata-dualstack-example-ns.c ****         BLE_flag = 1; 
 2033              		.loc 1 808 9 is_stmt 1 view .LVU477
 808:../../applications/murata-dualstack-example-ns/src/murata-dualstack-example-ns.c ****         BLE_flag = 1; 
 2034              		.loc 1 808 18 is_stmt 0 view .LVU478
 2035 001e 054B     		ldr	r3, .L146+12
 2036 0020 0122     		movs	r2, #1
 2037 0022 1A70     		strb	r2, [r3]
 2038              		.loc 1 810 1 view .LVU479
 2039 0024 F4E7     		b	.L140
 2040              	.L147:
 2041 0026 00BF     		.align	2
 2042              	.L146:
 2043 0028 00000000 		.word	P1_UART
 2044 002c 00000000 		.word	BLE_UART
 2045 0030 00000000 		.word	.LANCHOR12
 2046 0034 00000000 		.word	.LANCHOR22
 2047              		.cfi_endproc
 2048              	.LFE151:
 2050              		.section	.text.HAL_TIM_PeriodElapsedCallback,"ax",%progbits
 2051              		.align	1
 2052              		.global	HAL_TIM_PeriodElapsedCallback
 2053              		.syntax unified
 2054              		.thumb
 2055              		.thumb_func
 2056              		.fpu fpv4-sp-d16
 2058              	HAL_TIM_PeriodElapsedCallback:
 2059              	.LVL156:
 2060              	.LFB152:
 811:../../applications/murata-dualstack-example-ns/src/murata-dualstack-example-ns.c **** 
 812:../../applications/murata-dualstack-example-ns/src/murata-dualstack-example-ns.c **** 
 813:../../applications/murata-dualstack-example-ns/src/murata-dualstack-example-ns.c **** //--------------------------------------------------------------------end interrupt handlers-------
 814:../../applications/murata-dualstack-example-ns/src/murata-dualstack-example-ns.c **** 
 815:../../applications/murata-dualstack-example-ns/src/murata-dualstack-example-ns.c **** 
 816:../../applications/murata-dualstack-example-ns/src/murata-dualstack-example-ns.c **** /**
 817:../../applications/murata-dualstack-example-ns/src/murata-dualstack-example-ns.c ****   * @brief  Period elapsed callback in non blocking mode
 818:../../applications/murata-dualstack-example-ns/src/murata-dualstack-example-ns.c ****   * @note   This function is called  when TIM1 interrupt took place, inside
 819:../../applications/murata-dualstack-example-ns/src/murata-dualstack-example-ns.c ****   * HAL_TIM_IRQHandler(). It makes a direct call to HAL_IncTick() to increment
 820:../../applications/murata-dualstack-example-ns/src/murata-dualstack-example-ns.c ****   * a global variable "uwTick" used as application time base.
 821:../../applications/murata-dualstack-example-ns/src/murata-dualstack-example-ns.c ****   * @param  htim : TIM handle
 822:../../applications/murata-dualstack-example-ns/src/murata-dualstack-example-ns.c ****   * @retval None
 823:../../applications/murata-dualstack-example-ns/src/murata-dualstack-example-ns.c ****   */
 824:../../applications/murata-dualstack-example-ns/src/murata-dualstack-example-ns.c **** void HAL_TIM_PeriodElapsedCallback(TIM_HandleTypeDef *htim)
 825:../../applications/murata-dualstack-example-ns/src/murata-dualstack-example-ns.c **** {
 2061              		.loc 1 825 1 is_stmt 1 view -0
 2062              		.cfi_startproc
 2063              		@ args = 0, pretend = 0, frame = 0
 2064              		@ frame_needed = 0, uses_anonymous_args = 0
 2065              		.loc 1 825 1 is_stmt 0 view .LVU481
 2066 0000 08B5     		push	{r3, lr}
ARM GAS  C:\Users\yvesk\AppData\Local\Temp\cc7ZgnLm.s 			page 55


 2067              	.LCFI33:
 2068              		.cfi_def_cfa_offset 8
 2069              		.cfi_offset 3, -8
 2070              		.cfi_offset 14, -4
 826:../../applications/murata-dualstack-example-ns/src/murata-dualstack-example-ns.c ****   /* USER CODE BEGIN Callback 0 */
 827:../../applications/murata-dualstack-example-ns/src/murata-dualstack-example-ns.c **** 
 828:../../applications/murata-dualstack-example-ns/src/murata-dualstack-example-ns.c ****   /* USER CODE END Callback 0 */
 829:../../applications/murata-dualstack-example-ns/src/murata-dualstack-example-ns.c ****   if (htim->Instance == TIM1)
 2071              		.loc 1 829 3 is_stmt 1 view .LVU482
 2072              		.loc 1 829 11 is_stmt 0 view .LVU483
 2073 0002 0268     		ldr	r2, [r0]
 2074              		.loc 1 829 6 view .LVU484
 2075 0004 034B     		ldr	r3, .L152
 2076 0006 9A42     		cmp	r2, r3
 2077 0008 00D0     		beq	.L151
 2078              	.LVL157:
 2079              	.L148:
 830:../../applications/murata-dualstack-example-ns/src/murata-dualstack-example-ns.c ****   {
 831:../../applications/murata-dualstack-example-ns/src/murata-dualstack-example-ns.c ****     HAL_IncTick();
 832:../../applications/murata-dualstack-example-ns/src/murata-dualstack-example-ns.c ****   }
 833:../../applications/murata-dualstack-example-ns/src/murata-dualstack-example-ns.c ****   /* USER CODE BEGIN Callback 1 */
 834:../../applications/murata-dualstack-example-ns/src/murata-dualstack-example-ns.c **** 
 835:../../applications/murata-dualstack-example-ns/src/murata-dualstack-example-ns.c ****   /* USER CODE END Callback 1 */
 836:../../applications/murata-dualstack-example-ns/src/murata-dualstack-example-ns.c **** }
 2080              		.loc 1 836 1 view .LVU485
 2081 000a 08BD     		pop	{r3, pc}
 2082              	.LVL158:
 2083              	.L151:
 831:../../applications/murata-dualstack-example-ns/src/murata-dualstack-example-ns.c ****   }
 2084              		.loc 1 831 5 is_stmt 1 view .LVU486
 2085 000c FFF7FEFF 		bl	HAL_IncTick
 2086              	.LVL159:
 2087              		.loc 1 836 1 is_stmt 0 view .LVU487
 2088 0010 FBE7     		b	.L148
 2089              	.L153:
 2090 0012 00BF     		.align	2
 2091              	.L152:
 2092 0014 002C0140 		.word	1073818624
 2093              		.cfi_endproc
 2094              	.LFE152:
 2096              		.section	.text.Error_Handler,"ax",%progbits
 2097              		.align	1
 2098              		.global	Error_Handler
 2099              		.syntax unified
 2100              		.thumb
 2101              		.thumb_func
 2102              		.fpu fpv4-sp-d16
 2104              	Error_Handler:
 2105              	.LFB153:
 837:../../applications/murata-dualstack-example-ns/src/murata-dualstack-example-ns.c **** 
 838:../../applications/murata-dualstack-example-ns/src/murata-dualstack-example-ns.c **** /**
 839:../../applications/murata-dualstack-example-ns/src/murata-dualstack-example-ns.c ****   * @brief  This function is executed in case of error occurrence.
 840:../../applications/murata-dualstack-example-ns/src/murata-dualstack-example-ns.c ****   * @retval None
 841:../../applications/murata-dualstack-example-ns/src/murata-dualstack-example-ns.c ****   */
 842:../../applications/murata-dualstack-example-ns/src/murata-dualstack-example-ns.c **** void Error_Handler(void)
 843:../../applications/murata-dualstack-example-ns/src/murata-dualstack-example-ns.c **** {
 2106              		.loc 1 843 1 is_stmt 1 view -0
ARM GAS  C:\Users\yvesk\AppData\Local\Temp\cc7ZgnLm.s 			page 56


 2107              		.cfi_startproc
 2108              		@ args = 0, pretend = 0, frame = 0
 2109              		@ frame_needed = 0, uses_anonymous_args = 0
 2110              		@ link register save eliminated.
 844:../../applications/murata-dualstack-example-ns/src/murata-dualstack-example-ns.c ****   /* USER CODE BEGIN Error_Handler_Debug */
 845:../../applications/murata-dualstack-example-ns/src/murata-dualstack-example-ns.c ****   /* User can add his own implementation to report the HAL error return state */
 846:../../applications/murata-dualstack-example-ns/src/murata-dualstack-example-ns.c **** 
 847:../../applications/murata-dualstack-example-ns/src/murata-dualstack-example-ns.c ****   /* USER CODE END Error_Handler_Debug */
 848:../../applications/murata-dualstack-example-ns/src/murata-dualstack-example-ns.c **** }
 2111              		.loc 1 848 1 view .LVU489
 2112 0000 7047     		bx	lr
 2113              		.cfi_endproc
 2114              	.LFE153:
 2116              		.global	lorawanflag
 2117              		.global	BLE_flag
 2118              		.global	timer4_first
 2119              		.global	timer3_first
 2120              		.global	messageMode
 2121              		.global	changeAcceleroMode
 2122              		.global	repMode
 2123              		.global	repFlag
 2124              		.global	timer4flag
 2125              		.global	timer3flag
 2126              		.global	timer2flag
 2127              		.global	temperatureflag
 2128              		.global	loracounter
 2129              		.global	val
 2130              		.comm	data,1,1
 2131              		.global	gewicht
 2132              		.comm	tmpbuf_ble,2,4
 2133              		.comm	SHTData,8,4
 2134              		.global	about_to_sleep
 2135              		.global	succes
 2136              		.global	isActiveSending
 2137              		.global	messageCounter
 2138              		.global	successCounter
 2139              		.global	failureCounter
 2140              		.global	rep_counter
 2141              		.global	murata_data_ready
 2142              		.comm	short_UID,8,8
 2143              		.global	murata_init
 2144              		.global	DASH7_Counter
 2145              		.global	LoRaWAN_Counter
 2146              		.comm	threadToNotify,4,4
 2147              		.comm	murata_reset_pin,4,4
 2148              		.comm	murata_wakeup_pin,4,4
 2149              		.comm	magRawData,6,4
 2150              		.comm	magRegisterData,6,4
 2151              		.comm	accRawData,6,4
 2152              		.comm	accRegisterData,6,4
 2153              		.comm	LSM303AGR_hi2c,4,4
 2154              		.comm	LSM303AGR_setting,1,1
 2155              		.comm	murata_rx_process_mutex_id,4,4
 2156              		.comm	txMutexId,4,4
 2157              		.comm	moduleCheckTimId,4,4
 2158              		.comm	dash7TimId,4,4
 2159              		.comm	loraWANTimId,4,4
ARM GAS  C:\Users\yvesk\AppData\Local\Temp\cc7ZgnLm.s 			page 57


 2160              		.comm	iwdgTimId,4,4
 2161              		.comm	murata_rx_processing_handle,4,4
 2162              		.comm	defaultTaskHandle,4,4
 2163              		.comm	P3_header,44,4
 2164              		.comm	P2_header,44,4
 2165              		.comm	P1_header,44,4
 2166              		.comm	FLASH_SPI,100,4
 2167              		.comm	P3_SPI,100,4
 2168              		.comm	P2_SPI,100,4
 2169              		.comm	P1_SPI,100,4
 2170              		.comm	P3_I2C,76,4
 2171              		.comm	P2_I2C,76,4
 2172              		.comm	P1_I2C,76,4
 2173              		.comm	common_I2C,76,4
 2174              		.comm	P3_UART,120,4
 2175              		.comm	P2_UART,120,4
 2176              		.comm	P1_UART,120,4
 2177              		.comm	BLE_UART,120,4
 2178              		.comm	USB_UART,120,4
 2179              		.comm	hiwdg,16,4
 2180              		.comm	P3_DIO6,8,4
 2181              		.comm	P3_DIO5,8,4
 2182              		.comm	P3_DIO4,8,4
 2183              		.comm	P3_DIO3,8,4
 2184              		.comm	P3_DIO2,8,4
 2185              		.comm	P3_DIO1,8,4
 2186              		.comm	P2_DIO6,8,4
 2187              		.comm	P2_DIO5,8,4
 2188              		.comm	P2_DIO4,8,4
 2189              		.comm	P2_DIO3,8,4
 2190              		.comm	P2_DIO2,8,4
 2191              		.comm	P2_DIO1,8,4
 2192              		.comm	P1_DIO6,8,4
 2193              		.comm	P1_DIO5,8,4
 2194              		.comm	P1_DIO4,8,4
 2195              		.comm	P1_DIO3,8,4
 2196              		.comm	P1_DIO2,8,4
 2197              		.comm	P1_DIO1,8,4
 2198              		.section	.bss.BLE_flag,"aw",%nobits
 2199              		.set	.LANCHOR22,. + 0
 2202              	BLE_flag:
 2203 0000 00       		.space	1
 2204              		.section	.bss.DASH7_Counter,"aw",%nobits
 2205              		.align	1
 2206              		.set	.LANCHOR7,. + 0
 2209              	DASH7_Counter:
 2210 0000 0000     		.space	2
 2211              		.section	.bss.LoRaWAN_Counter,"aw",%nobits
 2212              		.align	1
 2213              		.set	.LANCHOR4,. + 0
 2216              	LoRaWAN_Counter:
 2217 0000 0000     		.space	2
 2218              		.section	.bss.about_to_sleep,"aw",%nobits
 2219              		.set	.LANCHOR18,. + 0
 2222              	about_to_sleep:
 2223 0000 00       		.space	1
 2224              		.section	.bss.changeAcceleroMode,"aw",%nobits
ARM GAS  C:\Users\yvesk\AppData\Local\Temp\cc7ZgnLm.s 			page 58


 2225              		.set	.LANCHOR13,. + 0
 2228              	changeAcceleroMode:
 2229 0000 00       		.space	1
 2230              		.section	.bss.failureCounter,"aw",%nobits
 2231              		.set	.LANCHOR20,. + 0
 2234              	failureCounter:
 2235 0000 00       		.space	1
 2236              		.section	.bss.gewicht,"aw",%nobits
 2239              	gewicht:
 2240 0000 00       		.space	1
 2241              		.section	.bss.isActiveSending,"aw",%nobits
 2242              		.set	.LANCHOR9,. + 0
 2245              	isActiveSending:
 2246 0000 00       		.space	1
 2247              		.section	.bss.loracounter,"aw",%nobits
 2248              		.set	.LANCHOR11,. + 0
 2251              	loracounter:
 2252 0000 00       		.space	1
 2253              		.section	.bss.lorawanflag,"aw",%nobits
 2254              		.set	.LANCHOR23,. + 0
 2257              	lorawanflag:
 2258 0000 00       		.space	1
 2259              		.section	.bss.messageCounter,"aw",%nobits
 2260              		.set	.LANCHOR5,. + 0
 2263              	messageCounter:
 2264 0000 00       		.space	1
 2265              		.section	.bss.messageMode,"aw",%nobits
 2266              		.set	.LANCHOR10,. + 0
 2269              	messageMode:
 2270 0000 00       		.space	1
 2271              		.section	.bss.murata_data_ready,"aw",%nobits
 2272              		.set	.LANCHOR12,. + 0
 2275              	murata_data_ready:
 2276 0000 00       		.space	1
 2277              		.section	.bss.murata_init,"aw",%nobits
 2278              		.set	.LANCHOR3,. + 0
 2281              	murata_init:
 2282 0000 00       		.space	1
 2283              		.section	.bss.repFlag,"aw",%nobits
 2284              		.set	.LANCHOR15,. + 0
 2287              	repFlag:
 2288 0000 00       		.space	1
 2289              		.section	.bss.repMode,"aw",%nobits
 2290              		.set	.LANCHOR14,. + 0
 2293              	repMode:
 2294 0000 00       		.space	1
 2295              		.section	.bss.rep_counter,"aw",%nobits
 2296              		.set	.LANCHOR8,. + 0
 2299              	rep_counter:
 2300 0000 00       		.space	1
 2301              		.section	.bss.succes,"aw",%nobits
 2302              		.set	.LANCHOR19,. + 0
 2305              	succes:
 2306 0000 00       		.space	1
 2307              		.section	.bss.successCounter,"aw",%nobits
 2308              		.set	.LANCHOR21,. + 0
 2311              	successCounter:
ARM GAS  C:\Users\yvesk\AppData\Local\Temp\cc7ZgnLm.s 			page 59


 2312 0000 00       		.space	1
 2313              		.section	.bss.temperatureflag,"aw",%nobits
 2316              	temperatureflag:
 2317 0000 00       		.space	1
 2318              		.section	.bss.timer2flag,"aw",%nobits
 2319              		.set	.LANCHOR16,. + 0
 2322              	timer2flag:
 2323 0000 00       		.space	1
 2324              		.section	.bss.timer3_first,"aw",%nobits
 2325              		.set	.LANCHOR2,. + 0
 2328              	timer3_first:
 2329 0000 00       		.space	1
 2330              		.section	.bss.timer3flag,"aw",%nobits
 2331              		.set	.LANCHOR17,. + 0
 2334              	timer3flag:
 2335 0000 00       		.space	1
 2336              		.section	.bss.timer4_first,"aw",%nobits
 2339              	timer4_first:
 2340 0000 00       		.space	1
 2341              		.section	.bss.timer4flag,"aw",%nobits
 2344              	timer4flag:
 2345 0000 00       		.space	1
 2346              		.section	.bss.val,"aw",%nobits
 2347              		.set	.LANCHOR6,. + 0
 2350              	val:
 2351 0000 00       		.space	1
 2352              		.section	.data.inactive_timer,"aw"
 2353              		.align	2
 2354              		.set	.LANCHOR1,. + 0
 2357              	inactive_timer:
 2358 0000 00040040 		.word	1073742848
 2359 0004 00000000 		.space	60
 2359      00000000 
 2359      00000000 
 2359      00000000 
 2359      00000000 
 2360              		.section	.data.localisation_timer,"aw"
 2361              		.align	2
 2362              		.set	.LANCHOR0,. + 0
 2365              	localisation_timer:
 2366 0000 00000040 		.word	1073741824
 2367 0004 00000000 		.space	60
 2367      00000000 
 2367      00000000 
 2367      00000000 
 2367      00000000 
 2368              		.section	.rodata.EXTI1_IRQHandler.str1.4,"aMS",%progbits,1
 2369              		.align	2
 2370              	.LC30:
 2371 0000 494E5445 		.ascii	"INTERRUPT BUTTON! \015\000"
 2371      52525550 
 2371      54204255 
 2371      54544F4E 
 2371      21200D00 
 2372              		.section	.rodata.HAL_GPIO_EXTI_Callback.str1.4,"aMS",%progbits,1
 2373              		.align	2
 2374              	.LC29:
ARM GAS  C:\Users\yvesk\AppData\Local\Temp\cc7ZgnLm.s 			page 60


 2375 0000 6D6F7665 		.ascii	"movement detected! \015\000"
 2375      6D656E74 
 2375      20646574 
 2375      65637465 
 2375      6421200D 
 2376              		.section	.rodata.LoRaWAN_send.str1.4,"aMS",%progbits,1
 2377              		.align	2
 2378              	.LC2:
 2379 0000 6D757261 		.ascii	"murata not initialized, not sending\015\000"
 2379      7461206E 
 2379      6F742069 
 2379      6E697469 
 2379      616C697A 
 2380              		.section	.rodata.TIM3_IRQHandler.str1.4,"aMS",%progbits,1
 2381              		.align	2
 2382              	.LC31:
 2383 0000 656C6170 		.ascii	"elapsed period \015\000"
 2383      73656420 
 2383      70657269 
 2383      6F64200D 
 2383      00
 2384              		.section	.rodata.ble_callback.str1.4,"aMS",%progbits,1
 2385              		.align	2
 2386              	.LC6:
 2387 0000 25640D0A 		.ascii	"%d\015\012\000"
 2387      00
 2388              		.section	.rodata.goToSleep.str1.4,"aMS",%progbits,1
 2389              		.align	2
 2390              	.LC0:
 2391 0000 676F696E 		.ascii	"going into sleepmode\015\000"
 2391      6720696E 
 2391      746F2073 
 2391      6C656570 
 2391      6D6F6465 
 2392 0016 0000     		.space	2
 2393              	.LC1:
 2394 0018 2063616D 		.ascii	" came out of sleepmode \015\000"
 2394      65206F75 
 2394      74206F66 
 2394      20736C65 
 2394      65706D6F 
 2395              		.section	.rodata.main.str1.4,"aMS",%progbits,1
 2396              		.align	2
 2397              	.LC15:
 2398 0000 4D757261 		.ascii	"Murata dualstack module init OK\015\012\015\000"
 2398      74612064 
 2398      75616C73 
 2398      7461636B 
 2398      206D6F64 
 2399 0023 00       		.space	1
 2400              	.LC16:
 2401 0024 53746172 		.ascii	"Started Repping\015\000"
 2401      74656420 
 2401      52657070 
 2401      696E670D 
 2401      00
 2402 0035 000000   		.space	3
ARM GAS  C:\Users\yvesk\AppData\Local\Temp\cc7ZgnLm.s 			page 61


 2403              	.LC17:
 2404 0038 4C534D20 		.ascii	"LSM in double click mode \015\000"
 2404      696E2064 
 2404      6F75626C 
 2404      6520636C 
 2404      69636B20 
 2405 0053 00       		.space	1
 2406              	.LC18:
 2407 0054 53656E64 		.ascii	"Sending D7 Message with BLE info + temp + hum\015\000"
 2407      696E6720 
 2407      4437204D 
 2407      65737361 
 2407      67652077 
 2408 0083 00       		.space	1
 2409              	.LC19:
 2410 0084 53746F70 		.ascii	"Stopped Repping\012LSM in default mode \015\012\000"
 2410      70656420 
 2410      52657070 
 2410      696E670A 
 2410      4C534D20 
 2411 00ab 00       		.space	1
 2412              	.LC20:
 2413 00ac 53656E64 		.ascii	"Sending D7 Message with BLE info + temp + hum + amo"
 2413      696E6720 
 2413      4437204D 
 2413      65737361 
 2413      67652077 
 2414 00df 756E7420 		.ascii	"unt of reps\015\000"
 2414      6F662072 
 2414      6570730D 
 2414      00
 2415              	.LC21:
 2416 00ec 52657020 		.ascii	"Rep counter: %d,\015\012\015\012\000"
 2416      636F756E 
 2416      7465723A 
 2416      2025642C 
 2416      0D0A0D0A 
 2417 0101 000000   		.space	3
 2418              	.LC22:
 2419 0104 4C6F6361 		.ascii	"Localisation timer elapsed\015\000"
 2419      6C697361 
 2419      74696F6E 
 2419      2074696D 
 2419      65722065 
 2420              	.LC23:
 2421 0120 53656E64 		.ascii	"Sending dash7 localisation message (once per minute"
 2421      696E6720 
 2421      64617368 
 2421      37206C6F 
 2421      63616C69 
 2422 0153 290D0A0D 		.ascii	")\015\012\015\000"
 2422      00
 2423              	.LC24:
 2424 0158 496E6163 		.ascii	"Inactive timer expired, sending last message\015\012"
 2424      74697665 
 2424      2074696D 
 2424      65722065 
ARM GAS  C:\Users\yvesk\AppData\Local\Temp\cc7ZgnLm.s 			page 62


 2424      78706972 
 2425 0186 0D00     		.ascii	"\015\000"
 2426              	.LC25:
 2427 0188 4661696C 		.ascii	"Failure counter = %d\015\012\000"
 2427      75726520 
 2427      636F756E 
 2427      74657220 
 2427      3D202564 
 2428 019f 00       		.space	1
 2429              	.LC26:
 2430 01a0 476F696E 		.ascii	"Going to LoRaWAN mode\015\012\015\000"
 2430      6720746F 
 2430      204C6F52 
 2430      6157414E 
 2430      206D6F64 
 2431 01b9 000000   		.space	3
 2432              	.LC27:
 2433 01bc 43686563 		.ascii	"Check again for dash7 \015\012\015\000"
 2433      6B206167 
 2433      61696E20 
 2433      666F7220 
 2433      64617368 
 2434 01d6 0000     		.space	2
 2435              	.LC28:
 2436 01d8 0A476F69 		.ascii	"\012Going to dash7 mode\015\012\015\000"
 2436      6E672074 
 2436      6F206461 
 2436      73683720 
 2436      6D6F6465 
 2437              		.section	.rodata.printWelcome.str1.4,"aMS",%progbits,1
 2438              		.align	2
 2439              	.LC7:
 2440 0000 2A2A2A2A 		.ascii	"*****************************************\015\000"
 2440      2A2A2A2A 
 2440      2A2A2A2A 
 2440      2A2A2A2A 
 2440      2A2A2A2A 
 2441 002b 00       		.space	1
 2442              	.LC8:
 2443 002c 44452053 		.ascii	"DE SMARTHALTER DELUXE\015\000"
 2443      4D415254 
 2443      48414C54 
 2443      45522044 
 2443      454C5558 
 2444 0043 00       		.space	1
 2445              	.LC9:
 2446 0044 6F637461 		.ascii	"octa ID: \000"
 2446      2049443A 
 2446      2000
 2447 004e 0000     		.space	2
 2448              	.LC10:
 2449 0050 25303278 		.ascii	"%02x\000"
 2449      00
 2450 0055 000000   		.space	3
 2451              	.LC11:
 2452 0058 0D0A0D00 		.ascii	"\015\012\015\000"
 2453              		.section	.rodata.print_temp_hum.str1.4,"aMS",%progbits,1
ARM GAS  C:\Users\yvesk\AppData\Local\Temp\cc7ZgnLm.s 			page 63


 2454              		.align	2
 2455              	.LC3:
 2456 0000 0D00     		.ascii	"\015\000"
 2457 0002 0000     		.space	2
 2458              	.LC4:
 2459 0004 54656D70 		.ascii	"Temperature: %.2f \302\260C  \015\012\000"
 2459      65726174 
 2459      7572653A 
 2459      20252E32 
 2459      6620C2B0 
 2460 001e 0000     		.space	2
 2461              	.LC5:
 2462 0020 48756D69 		.ascii	"Humidity: %.2f %% \015\012\000"
 2462      64697479 
 2462      3A20252E 
 2462      32662025 
 2462      25200D0A 
 2463              		.section	.rodata.send_message.str1.4,"aMS",%progbits,1
 2464              		.align	2
 2465              	.LC12:
 2466 0000 646C736B 		.ascii	"dlskfjmdfms\000"
 2466      666A6D64 
 2466      666D7300 
 2467              	.LC13:
 2468 000c 4E6F2063 		.ascii	"No case was matched\015\000"
 2468      61736520 
 2468      77617320 
 2468      6D617463 
 2468      6865640D 
 2469 0021 000000   		.space	3
 2470              	.LC14:
 2471 0024 73656E64 		.ascii	"sending lorawan message\015\000"
 2471      696E6720 
 2471      6C6F7261 
 2471      77616E20 
 2471      6D657373 
 2472              		.weak	SystemClock_Config
 2473              		.text
 2474              	.Letext0:
 2475              		.file 2 "c:\\program files (x86)\\gnu tools arm embedded\\8 2019-q3-update\\arm-none-eabi\\include
 2476              		.file 3 "c:\\program files (x86)\\gnu tools arm embedded\\8 2019-q3-update\\arm-none-eabi\\include
 2477              		.file 4 "../../core/ST/CMSIS/Include/core_cm4.h"
 2478              		.file 5 "../../core/ST/CMSIS/Device/ST/STM32L4xx/Include/system_stm32l4xx.h"
 2479              		.file 6 "../../core/ST/CMSIS/Device/ST/STM32L4xx/Include/stm32l496xx.h"
 2480              		.file 7 "../../core/ST/CMSIS/Device/ST/STM32L4xx/Include/stm32l4xx.h"
 2481              		.file 8 "../../core/ST/STM32L4xx_HAL_Driver/Inc/stm32l4xx_hal_def.h"
 2482              		.file 9 "../../core/ST/STM32L4xx_HAL_Driver/Inc/stm32l4xx_hal_dma.h"
 2483              		.file 10 "../../core/ST/STM32L4xx_HAL_Driver/Inc/stm32l4xx_hal_i2c.h"
 2484              		.file 11 "../../core/ST/STM32L4xx_HAL_Driver/Inc/stm32l4xx_hal_iwdg.h"
 2485              		.file 12 "../../core/ST/STM32L4xx_HAL_Driver/Inc/stm32l4xx_hal_spi.h"
 2486              		.file 13 "../../core/ST/STM32L4xx_HAL_Driver/Inc/stm32l4xx_hal_tim.h"
 2487              		.file 14 "../../core/ST/STM32L4xx_HAL_Driver/Inc/stm32l4xx_hal_uart.h"
 2488              		.file 15 "../../core/ST/STM32L4xx_HAL_Driver/Inc/stm32l4xx_hal.h"
 2489              		.file 16 "../../core/ST/Middlewares/Third_Party/FreeRTOS/Source/include/task.h"
 2490              		.file 17 "../../core/ST/Middlewares/Third_Party/FreeRTOS/Source/include/timers.h"
 2491              		.file 18 "../../core/ST/Middlewares/Third_Party/FreeRTOS/Source/include/queue.h"
 2492              		.file 19 "../../core/ST/Middlewares/Third_Party/FreeRTOS/Source/include/semphr.h"
ARM GAS  C:\Users\yvesk\AppData\Local\Temp\cc7ZgnLm.s 			page 64


 2493              		.file 20 "../../core/ST/Middlewares/Third_Party/FreeRTOS/Source/CMSIS_RTOS/cmsis_os.h"
 2494              		.file 21 "../../core/platform/octa/inc/gpio.h"
 2495              		.file 22 "../../core/platform/octa/inc/iwdg.h"
 2496              		.file 23 "../../core/platform/octa/inc/uart.h"
 2497              		.file 24 "../../core/platform/octa/inc/i2c.h"
 2498              		.file 25 "../../core/platform/octa/inc/spi.h"
 2499              		.file 26 "../../core/platform/octa/inc/octa.h"
 2500              		.file 27 "../../applications/murata-dualstack-example-ns/inc/murata-dualstack-example-ns.h"
 2501              		.file 28 "../../core/drivers/LSM303AGR/inc/LSM303AGRSensor.h"
 2502              		.file 29 "c:\\program files (x86)\\gnu tools arm embedded\\8 2019-q3-update\\lib\\gcc\\arm-none-ea
 2503              		.file 30 "c:\\program files (x86)\\gnu tools arm embedded\\8 2019-q3-update\\arm-none-eabi\\includ
 2504              		.file 31 "c:\\program files (x86)\\gnu tools arm embedded\\8 2019-q3-update\\arm-none-eabi\\includ
 2505              		.file 32 "c:\\program files (x86)\\gnu tools arm embedded\\8 2019-q3-update\\arm-none-eabi\\includ
 2506              		.file 33 "../../shields/Murata-dualstack/inc/murata.h"
 2507              		.file 34 "<built-in>"
 2508              		.file 35 "../../core/ST/STM32L4xx_HAL_Driver/Inc/stm32l4xx_hal_gpio.h"
 2509              		.file 36 "c:\\program files (x86)\\gnu tools arm embedded\\8 2019-q3-update\\arm-none-eabi\\includ
 2510              		.file 37 "../../core/ST/STM32L4xx_HAL_Driver/Inc/stm32l4xx_hal_pwr.h"
 2511              		.file 38 "../../core/platform/octa/inc/sysclock.h"
 2512              		.file 39 "../../core/platform/common/inc/platform.h"
 2513              		.file 40 "../../core/ST/STM32L4xx_HAL_Driver/Inc/stm32l4xx_hal_cortex.h"
ARM GAS  C:\Users\yvesk\AppData\Local\Temp\cc7ZgnLm.s 			page 65


DEFINED SYMBOLS
                            *ABS*:00000000 murata-dualstack-example-ns.c
C:\Users\yvesk\AppData\Local\Temp\cc7ZgnLm.s:18     .text.InitializeTimer2:00000000 $t
C:\Users\yvesk\AppData\Local\Temp\cc7ZgnLm.s:26     .text.InitializeTimer2:00000000 InitializeTimer2
C:\Users\yvesk\AppData\Local\Temp\cc7ZgnLm.s:103    .text.InitializeTimer2:00000050 $d
C:\Users\yvesk\AppData\Local\Temp\cc7ZgnLm.s:109    .text.InitializeTimer3:00000000 $t
C:\Users\yvesk\AppData\Local\Temp\cc7ZgnLm.s:116    .text.InitializeTimer3:00000000 InitializeTimer3
C:\Users\yvesk\AppData\Local\Temp\cc7ZgnLm.s:192    .text.InitializeTimer3:00000050 $d
C:\Users\yvesk\AppData\Local\Temp\cc7ZgnLm.s:198    .text.goToSleep:00000000 $t
C:\Users\yvesk\AppData\Local\Temp\cc7ZgnLm.s:205    .text.goToSleep:00000000 goToSleep
C:\Users\yvesk\AppData\Local\Temp\cc7ZgnLm.s:248    .text.goToSleep:0000002c $d
C:\Users\yvesk\AppData\Local\Temp\cc7ZgnLm.s:255    .text.LoRaWAN_send:00000000 $t
C:\Users\yvesk\AppData\Local\Temp\cc7ZgnLm.s:262    .text.LoRaWAN_send:00000000 LoRaWAN_send
C:\Users\yvesk\AppData\Local\Temp\cc7ZgnLm.s:370    .text.LoRaWAN_send:00000064 $d
                            *COM*:00000008 SHTData
C:\Users\yvesk\AppData\Local\Temp\cc7ZgnLm.s:378    .text.Dash7_send_temphum:00000000 $t
C:\Users\yvesk\AppData\Local\Temp\cc7ZgnLm.s:385    .text.Dash7_send_temphum:00000000 Dash7_send_temphum
C:\Users\yvesk\AppData\Local\Temp\cc7ZgnLm.s:509    .text.Dash7_send_temphum:00000078 $d
C:\Users\yvesk\AppData\Local\Temp\cc7ZgnLm.s:519    .text.Dash7_send_allInfo:00000000 $t
C:\Users\yvesk\AppData\Local\Temp\cc7ZgnLm.s:526    .text.Dash7_send_allInfo:00000000 Dash7_send_allInfo
C:\Users\yvesk\AppData\Local\Temp\cc7ZgnLm.s:653    .text.Dash7_send_allInfo:0000007c $d
C:\Users\yvesk\AppData\Local\Temp\cc7ZgnLm.s:665    .text.print_temp_hum:00000000 $t
C:\Users\yvesk\AppData\Local\Temp\cc7ZgnLm.s:672    .text.print_temp_hum:00000000 print_temp_hum
C:\Users\yvesk\AppData\Local\Temp\cc7ZgnLm.s:720    .text.print_temp_hum:00000034 $d
C:\Users\yvesk\AppData\Local\Temp\cc7ZgnLm.s:728    .text.temp_hum_measurement:00000000 $t
C:\Users\yvesk\AppData\Local\Temp\cc7ZgnLm.s:735    .text.temp_hum_measurement:00000000 temp_hum_measurement
C:\Users\yvesk\AppData\Local\Temp\cc7ZgnLm.s:758    .text.temp_hum_measurement:00000010 $d
C:\Users\yvesk\AppData\Local\Temp\cc7ZgnLm.s:763    .text.ble_callback:00000000 $t
C:\Users\yvesk\AppData\Local\Temp\cc7ZgnLm.s:770    .text.ble_callback:00000000 ble_callback
C:\Users\yvesk\AppData\Local\Temp\cc7ZgnLm.s:820    .text.ble_callback:00000030 $d
                            *COM*:00000002 tmpbuf_ble
C:\Users\yvesk\AppData\Local\Temp\cc7ZgnLm.s:827    .text.vApplicationIdleHook:00000000 $t
C:\Users\yvesk\AppData\Local\Temp\cc7ZgnLm.s:834    .text.vApplicationIdleHook:00000000 vApplicationIdleHook
C:\Users\yvesk\AppData\Local\Temp\cc7ZgnLm.s:847    .text.printWelcome:00000000 $t
C:\Users\yvesk\AppData\Local\Temp\cc7ZgnLm.s:854    .text.printWelcome:00000000 printWelcome
C:\Users\yvesk\AppData\Local\Temp\cc7ZgnLm.s:951    .text.printWelcome:00000070 $d
                            *COM*:00000008 short_UID
C:\Users\yvesk\AppData\Local\Temp\cc7ZgnLm.s:963    .text.quickBlink:00000000 $t
C:\Users\yvesk\AppData\Local\Temp\cc7ZgnLm.s:970    .text.quickBlink:00000000 quickBlink
C:\Users\yvesk\AppData\Local\Temp\cc7ZgnLm.s:1001   .text.quickBlink:00000024 $d
C:\Users\yvesk\AppData\Local\Temp\cc7ZgnLm.s:1006   .text.send_message:00000000 $t
C:\Users\yvesk\AppData\Local\Temp\cc7ZgnLm.s:1013   .text.send_message:00000000 send_message
C:\Users\yvesk\AppData\Local\Temp\cc7ZgnLm.s:1105   .text.send_message:00000060 $d
C:\Users\yvesk\AppData\Local\Temp\cc7ZgnLm.s:1116   .text.main:00000000 $t
C:\Users\yvesk\AppData\Local\Temp\cc7ZgnLm.s:1123   .text.main:00000000 main
C:\Users\yvesk\AppData\Local\Temp\cc7ZgnLm.s:1685   .text.main:0000029c $d
                            *COM*:0000004c common_I2C
                            *COM*:00000078 BLE_UART
C:\Users\yvesk\AppData\Local\Temp\cc7ZgnLm.s:1725   .text.HAL_GPIO_EXTI_Callback:00000000 $t
C:\Users\yvesk\AppData\Local\Temp\cc7ZgnLm.s:1732   .text.HAL_GPIO_EXTI_Callback:00000000 HAL_GPIO_EXTI_Callback
C:\Users\yvesk\AppData\Local\Temp\cc7ZgnLm.s:1767   .text.HAL_GPIO_EXTI_Callback:00000018 $d
C:\Users\yvesk\AppData\Local\Temp\cc7ZgnLm.s:1773   .text.EXTI1_IRQHandler:00000000 $t
C:\Users\yvesk\AppData\Local\Temp\cc7ZgnLm.s:1780   .text.EXTI1_IRQHandler:00000000 EXTI1_IRQHandler
C:\Users\yvesk\AppData\Local\Temp\cc7ZgnLm.s:1815   .text.EXTI1_IRQHandler:00000020 $d
C:\Users\yvesk\AppData\Local\Temp\cc7ZgnLm.s:1823   .text.EXTI0_IRQHandler:00000000 $t
C:\Users\yvesk\AppData\Local\Temp\cc7ZgnLm.s:1830   .text.EXTI0_IRQHandler:00000000 EXTI0_IRQHandler
C:\Users\yvesk\AppData\Local\Temp\cc7ZgnLm.s:1858   .text.EXTI0_IRQHandler:00000014 $d
ARM GAS  C:\Users\yvesk\AppData\Local\Temp\cc7ZgnLm.s 			page 66


C:\Users\yvesk\AppData\Local\Temp\cc7ZgnLm.s:1865   .text.TIM2_IRQHandler:00000000 $t
C:\Users\yvesk\AppData\Local\Temp\cc7ZgnLm.s:1872   .text.TIM2_IRQHandler:00000000 TIM2_IRQHandler
C:\Users\yvesk\AppData\Local\Temp\cc7ZgnLm.s:1907   .text.TIM2_IRQHandler:00000024 $d
C:\Users\yvesk\AppData\Local\Temp\cc7ZgnLm.s:1913   .text.TIM3_IRQHandler:00000000 $t
C:\Users\yvesk\AppData\Local\Temp\cc7ZgnLm.s:1920   .text.TIM3_IRQHandler:00000000 TIM3_IRQHandler
C:\Users\yvesk\AppData\Local\Temp\cc7ZgnLm.s:1977   .text.TIM3_IRQHandler:00000038 $d
C:\Users\yvesk\AppData\Local\Temp\cc7ZgnLm.s:1985   .text.HAL_UART_RxCpltCallback:00000000 $t
C:\Users\yvesk\AppData\Local\Temp\cc7ZgnLm.s:1992   .text.HAL_UART_RxCpltCallback:00000000 HAL_UART_RxCpltCallback
C:\Users\yvesk\AppData\Local\Temp\cc7ZgnLm.s:2043   .text.HAL_UART_RxCpltCallback:00000028 $d
                            *COM*:00000078 P1_UART
C:\Users\yvesk\AppData\Local\Temp\cc7ZgnLm.s:2051   .text.HAL_TIM_PeriodElapsedCallback:00000000 $t
C:\Users\yvesk\AppData\Local\Temp\cc7ZgnLm.s:2058   .text.HAL_TIM_PeriodElapsedCallback:00000000 HAL_TIM_PeriodElapsedCallback
C:\Users\yvesk\AppData\Local\Temp\cc7ZgnLm.s:2092   .text.HAL_TIM_PeriodElapsedCallback:00000014 $d
C:\Users\yvesk\AppData\Local\Temp\cc7ZgnLm.s:2097   .text.Error_Handler:00000000 $t
C:\Users\yvesk\AppData\Local\Temp\cc7ZgnLm.s:2104   .text.Error_Handler:00000000 Error_Handler
C:\Users\yvesk\AppData\Local\Temp\cc7ZgnLm.s:2257   .bss.lorawanflag:00000000 lorawanflag
C:\Users\yvesk\AppData\Local\Temp\cc7ZgnLm.s:2202   .bss.BLE_flag:00000000 BLE_flag
C:\Users\yvesk\AppData\Local\Temp\cc7ZgnLm.s:2339   .bss.timer4_first:00000000 timer4_first
C:\Users\yvesk\AppData\Local\Temp\cc7ZgnLm.s:2328   .bss.timer3_first:00000000 timer3_first
C:\Users\yvesk\AppData\Local\Temp\cc7ZgnLm.s:2269   .bss.messageMode:00000000 messageMode
C:\Users\yvesk\AppData\Local\Temp\cc7ZgnLm.s:2228   .bss.changeAcceleroMode:00000000 changeAcceleroMode
C:\Users\yvesk\AppData\Local\Temp\cc7ZgnLm.s:2293   .bss.repMode:00000000 repMode
C:\Users\yvesk\AppData\Local\Temp\cc7ZgnLm.s:2287   .bss.repFlag:00000000 repFlag
C:\Users\yvesk\AppData\Local\Temp\cc7ZgnLm.s:2344   .bss.timer4flag:00000000 timer4flag
C:\Users\yvesk\AppData\Local\Temp\cc7ZgnLm.s:2334   .bss.timer3flag:00000000 timer3flag
C:\Users\yvesk\AppData\Local\Temp\cc7ZgnLm.s:2322   .bss.timer2flag:00000000 timer2flag
C:\Users\yvesk\AppData\Local\Temp\cc7ZgnLm.s:2316   .bss.temperatureflag:00000000 temperatureflag
C:\Users\yvesk\AppData\Local\Temp\cc7ZgnLm.s:2251   .bss.loracounter:00000000 loracounter
C:\Users\yvesk\AppData\Local\Temp\cc7ZgnLm.s:2350   .bss.val:00000000 val
                            *COM*:00000001 data
C:\Users\yvesk\AppData\Local\Temp\cc7ZgnLm.s:2239   .bss.gewicht:00000000 gewicht
C:\Users\yvesk\AppData\Local\Temp\cc7ZgnLm.s:2222   .bss.about_to_sleep:00000000 about_to_sleep
C:\Users\yvesk\AppData\Local\Temp\cc7ZgnLm.s:2305   .bss.succes:00000000 succes
C:\Users\yvesk\AppData\Local\Temp\cc7ZgnLm.s:2245   .bss.isActiveSending:00000000 isActiveSending
C:\Users\yvesk\AppData\Local\Temp\cc7ZgnLm.s:2263   .bss.messageCounter:00000000 messageCounter
C:\Users\yvesk\AppData\Local\Temp\cc7ZgnLm.s:2311   .bss.successCounter:00000000 successCounter
C:\Users\yvesk\AppData\Local\Temp\cc7ZgnLm.s:2234   .bss.failureCounter:00000000 failureCounter
C:\Users\yvesk\AppData\Local\Temp\cc7ZgnLm.s:2299   .bss.rep_counter:00000000 rep_counter
C:\Users\yvesk\AppData\Local\Temp\cc7ZgnLm.s:2275   .bss.murata_data_ready:00000000 murata_data_ready
C:\Users\yvesk\AppData\Local\Temp\cc7ZgnLm.s:2281   .bss.murata_init:00000000 murata_init
C:\Users\yvesk\AppData\Local\Temp\cc7ZgnLm.s:2209   .bss.DASH7_Counter:00000000 DASH7_Counter
C:\Users\yvesk\AppData\Local\Temp\cc7ZgnLm.s:2216   .bss.LoRaWAN_Counter:00000000 LoRaWAN_Counter
                            *COM*:00000004 threadToNotify
                            *COM*:00000004 murata_reset_pin
                            *COM*:00000004 murata_wakeup_pin
                            *COM*:00000006 magRawData
                            *COM*:00000006 magRegisterData
                            *COM*:00000006 accRawData
                            *COM*:00000006 accRegisterData
                            *COM*:00000004 LSM303AGR_hi2c
                            *COM*:00000001 LSM303AGR_setting
                            *COM*:00000004 murata_rx_process_mutex_id
                            *COM*:00000004 txMutexId
                            *COM*:00000004 moduleCheckTimId
                            *COM*:00000004 dash7TimId
                            *COM*:00000004 loraWANTimId
                            *COM*:00000004 iwdgTimId
ARM GAS  C:\Users\yvesk\AppData\Local\Temp\cc7ZgnLm.s 			page 67


                            *COM*:00000004 murata_rx_processing_handle
                            *COM*:00000004 defaultTaskHandle
                            *COM*:0000002c P3_header
                            *COM*:0000002c P2_header
                            *COM*:0000002c P1_header
                            *COM*:00000064 FLASH_SPI
                            *COM*:00000064 P3_SPI
                            *COM*:00000064 P2_SPI
                            *COM*:00000064 P1_SPI
                            *COM*:0000004c P3_I2C
                            *COM*:0000004c P2_I2C
                            *COM*:0000004c P1_I2C
                            *COM*:00000078 P3_UART
                            *COM*:00000078 P2_UART
                            *COM*:00000078 USB_UART
                            *COM*:00000010 hiwdg
                            *COM*:00000008 P3_DIO6
                            *COM*:00000008 P3_DIO5
                            *COM*:00000008 P3_DIO4
                            *COM*:00000008 P3_DIO3
                            *COM*:00000008 P3_DIO2
                            *COM*:00000008 P3_DIO1
                            *COM*:00000008 P2_DIO6
                            *COM*:00000008 P2_DIO5
                            *COM*:00000008 P2_DIO4
                            *COM*:00000008 P2_DIO3
                            *COM*:00000008 P2_DIO2
                            *COM*:00000008 P2_DIO1
                            *COM*:00000008 P1_DIO6
                            *COM*:00000008 P1_DIO5
                            *COM*:00000008 P1_DIO4
                            *COM*:00000008 P1_DIO3
                            *COM*:00000008 P1_DIO2
                            *COM*:00000008 P1_DIO1
C:\Users\yvesk\AppData\Local\Temp\cc7ZgnLm.s:2203   .bss.BLE_flag:00000000 $d
C:\Users\yvesk\AppData\Local\Temp\cc7ZgnLm.s:2205   .bss.DASH7_Counter:00000000 $d
C:\Users\yvesk\AppData\Local\Temp\cc7ZgnLm.s:2212   .bss.LoRaWAN_Counter:00000000 $d
C:\Users\yvesk\AppData\Local\Temp\cc7ZgnLm.s:2223   .bss.about_to_sleep:00000000 $d
C:\Users\yvesk\AppData\Local\Temp\cc7ZgnLm.s:2229   .bss.changeAcceleroMode:00000000 $d
C:\Users\yvesk\AppData\Local\Temp\cc7ZgnLm.s:2235   .bss.failureCounter:00000000 $d
C:\Users\yvesk\AppData\Local\Temp\cc7ZgnLm.s:2240   .bss.gewicht:00000000 $d
C:\Users\yvesk\AppData\Local\Temp\cc7ZgnLm.s:2246   .bss.isActiveSending:00000000 $d
C:\Users\yvesk\AppData\Local\Temp\cc7ZgnLm.s:2252   .bss.loracounter:00000000 $d
C:\Users\yvesk\AppData\Local\Temp\cc7ZgnLm.s:2258   .bss.lorawanflag:00000000 $d
C:\Users\yvesk\AppData\Local\Temp\cc7ZgnLm.s:2264   .bss.messageCounter:00000000 $d
C:\Users\yvesk\AppData\Local\Temp\cc7ZgnLm.s:2270   .bss.messageMode:00000000 $d
C:\Users\yvesk\AppData\Local\Temp\cc7ZgnLm.s:2276   .bss.murata_data_ready:00000000 $d
C:\Users\yvesk\AppData\Local\Temp\cc7ZgnLm.s:2282   .bss.murata_init:00000000 $d
C:\Users\yvesk\AppData\Local\Temp\cc7ZgnLm.s:2288   .bss.repFlag:00000000 $d
C:\Users\yvesk\AppData\Local\Temp\cc7ZgnLm.s:2294   .bss.repMode:00000000 $d
C:\Users\yvesk\AppData\Local\Temp\cc7ZgnLm.s:2300   .bss.rep_counter:00000000 $d
C:\Users\yvesk\AppData\Local\Temp\cc7ZgnLm.s:2306   .bss.succes:00000000 $d
C:\Users\yvesk\AppData\Local\Temp\cc7ZgnLm.s:2312   .bss.successCounter:00000000 $d
C:\Users\yvesk\AppData\Local\Temp\cc7ZgnLm.s:2317   .bss.temperatureflag:00000000 $d
C:\Users\yvesk\AppData\Local\Temp\cc7ZgnLm.s:2323   .bss.timer2flag:00000000 $d
C:\Users\yvesk\AppData\Local\Temp\cc7ZgnLm.s:2329   .bss.timer3_first:00000000 $d
C:\Users\yvesk\AppData\Local\Temp\cc7ZgnLm.s:2335   .bss.timer3flag:00000000 $d
ARM GAS  C:\Users\yvesk\AppData\Local\Temp\cc7ZgnLm.s 			page 68


C:\Users\yvesk\AppData\Local\Temp\cc7ZgnLm.s:2340   .bss.timer4_first:00000000 $d
C:\Users\yvesk\AppData\Local\Temp\cc7ZgnLm.s:2345   .bss.timer4flag:00000000 $d
C:\Users\yvesk\AppData\Local\Temp\cc7ZgnLm.s:2351   .bss.val:00000000 $d
C:\Users\yvesk\AppData\Local\Temp\cc7ZgnLm.s:2353   .data.inactive_timer:00000000 $d
C:\Users\yvesk\AppData\Local\Temp\cc7ZgnLm.s:2357   .data.inactive_timer:00000000 inactive_timer
C:\Users\yvesk\AppData\Local\Temp\cc7ZgnLm.s:2361   .data.localisation_timer:00000000 $d
C:\Users\yvesk\AppData\Local\Temp\cc7ZgnLm.s:2365   .data.localisation_timer:00000000 localisation_timer
C:\Users\yvesk\AppData\Local\Temp\cc7ZgnLm.s:2369   .rodata.EXTI1_IRQHandler.str1.4:00000000 $d
C:\Users\yvesk\AppData\Local\Temp\cc7ZgnLm.s:2373   .rodata.HAL_GPIO_EXTI_Callback.str1.4:00000000 $d
C:\Users\yvesk\AppData\Local\Temp\cc7ZgnLm.s:2377   .rodata.LoRaWAN_send.str1.4:00000000 $d
C:\Users\yvesk\AppData\Local\Temp\cc7ZgnLm.s:2381   .rodata.TIM3_IRQHandler.str1.4:00000000 $d
C:\Users\yvesk\AppData\Local\Temp\cc7ZgnLm.s:2385   .rodata.ble_callback.str1.4:00000000 $d
C:\Users\yvesk\AppData\Local\Temp\cc7ZgnLm.s:2389   .rodata.goToSleep.str1.4:00000000 $d
C:\Users\yvesk\AppData\Local\Temp\cc7ZgnLm.s:2396   .rodata.main.str1.4:00000000 $d
C:\Users\yvesk\AppData\Local\Temp\cc7ZgnLm.s:2438   .rodata.printWelcome.str1.4:00000000 $d
C:\Users\yvesk\AppData\Local\Temp\cc7ZgnLm.s:2454   .rodata.print_temp_hum.str1.4:00000000 $d
C:\Users\yvesk\AppData\Local\Temp\cc7ZgnLm.s:2464   .rodata.send_message.str1.4:00000000 $d

UNDEFINED SYMBOLS
HAL_TIM_Base_Init
HAL_TIM_Base_Start_IT
HAL_NVIC_SetPriority
HAL_NVIC_EnableIRQ
puts
HAL_SuspendTick
HAL_PWR_EnterSTOPMode
HAL_ResumeTick
SystemClock_Config
Murata_LoRaWAN_Send
Murata_Dash7_Send
__aeabi_f2d
printf
SHT31_get_temp_hum
HAL_GPIO_TogglePin
HAL_Delay
HAL_Init
Initialize_Platform
get_UID
LSM303AGR_setI2CInterface
setI2CInterface_SHT31
SHT31_begin
LSM303AGR_initDefault
HAL_UART_Receive_IT
Murata_Initialize
IWDG_feed
LSM303AGR_initDouble
HAL_TIM_Base_Stop_IT
Murata_process_fifo
Murata_rxCallback
HAL_IncTick
