ARM GAS  C:\Users\yvesk\AppData\Local\Temp\ccw5KjUM.s 			page 1


   1              		.cpu cortex-m4
   2              		.eabi_attribute 27, 1
   3              		.eabi_attribute 28, 1
   4              		.eabi_attribute 20, 1
   5              		.eabi_attribute 21, 1
   6              		.eabi_attribute 23, 3
   7              		.eabi_attribute 24, 1
   8              		.eabi_attribute 25, 1
   9              		.eabi_attribute 26, 1
  10              		.eabi_attribute 30, 1
  11              		.eabi_attribute 34, 1
  12              		.eabi_attribute 18, 4
  13              		.file	"murata-dualstack-example-ns.c"
  14              		.text
  15              	.Ltext0:
  16              		.cfi_sections	.debug_frame
  17              		.section	.text.LoRaWAN_send,"ax",%progbits
  18              		.align	1
  19              		.global	LoRaWAN_send
  20              		.arch armv7e-m
  21              		.syntax unified
  22              		.thumb
  23              		.thumb_func
  24              		.fpu fpv4-sp-d16
  26              	LoRaWAN_send:
  27              	.LVL0:
  28              	.LFB133:
  29              		.file 1 "../../applications/murata-dualstack-example-ns/src/murata-dualstack-example-ns.c"
   1:../../applications/murata-dualstack-example-ns/src/murata-dualstack-example-ns.c **** /* USER CODE BEGIN Header */
   2:../../applications/murata-dualstack-example-ns/src/murata-dualstack-example-ns.c **** /**
   3:../../applications/murata-dualstack-example-ns/src/murata-dualstack-example-ns.c ****   ******************************************************************************
   4:../../applications/murata-dualstack-example-ns/src/murata-dualstack-example-ns.c ****   * @file           : main.c
   5:../../applications/murata-dualstack-example-ns/src/murata-dualstack-example-ns.c ****   * @brief          : Main program body
   6:../../applications/murata-dualstack-example-ns/src/murata-dualstack-example-ns.c ****   ******************************************************************************
   7:../../applications/murata-dualstack-example-ns/src/murata-dualstack-example-ns.c ****   * This notice applies to any and all portions of this file
   8:../../applications/murata-dualstack-example-ns/src/murata-dualstack-example-ns.c ****   * that are not between comment pairs USER CODE BEGIN and
   9:../../applications/murata-dualstack-example-ns/src/murata-dualstack-example-ns.c ****   * USER CODE END. Other portions of this file, whether 
  10:../../applications/murata-dualstack-example-ns/src/murata-dualstack-example-ns.c ****   * inserted by the user or by software development tools
  11:../../applications/murata-dualstack-example-ns/src/murata-dualstack-example-ns.c ****   * are owned by their respective copyright owners.
  12:../../applications/murata-dualstack-example-ns/src/murata-dualstack-example-ns.c ****   *
  13:../../applications/murata-dualstack-example-ns/src/murata-dualstack-example-ns.c ****   * Copyright (c) 2019 STMicroelectronics International N.V. 
  14:../../applications/murata-dualstack-example-ns/src/murata-dualstack-example-ns.c ****   * All rights reserved.
  15:../../applications/murata-dualstack-example-ns/src/murata-dualstack-example-ns.c ****   *
  16:../../applications/murata-dualstack-example-ns/src/murata-dualstack-example-ns.c ****   * Redistribution and use in source and binary forms, with or without 
  17:../../applications/murata-dualstack-example-ns/src/murata-dualstack-example-ns.c ****   * modification, are permitted, provided that the following conditions are met:
  18:../../applications/murata-dualstack-example-ns/src/murata-dualstack-example-ns.c ****   *
  19:../../applications/murata-dualstack-example-ns/src/murata-dualstack-example-ns.c ****   * 1. Redistribution of source code must retain the above copyright notice, 
  20:../../applications/murata-dualstack-example-ns/src/murata-dualstack-example-ns.c ****   *    this list of conditions and the following disclaimer.
  21:../../applications/murata-dualstack-example-ns/src/murata-dualstack-example-ns.c ****   * 2. Redistributions in binary form must reproduce the above copyright notice,
  22:../../applications/murata-dualstack-example-ns/src/murata-dualstack-example-ns.c ****   *    this list of conditions and the following disclaimer in the documentation
  23:../../applications/murata-dualstack-example-ns/src/murata-dualstack-example-ns.c ****   *    and/or other materials provided with the distribution.
  24:../../applications/murata-dualstack-example-ns/src/murata-dualstack-example-ns.c ****   * 3. Neither the name of STMicroelectronics nor the names of other 
  25:../../applications/murata-dualstack-example-ns/src/murata-dualstack-example-ns.c ****   *    contributors to this software may be used to endorse or promote products 
  26:../../applications/murata-dualstack-example-ns/src/murata-dualstack-example-ns.c ****   *    derived from this software without specific written permission.
  27:../../applications/murata-dualstack-example-ns/src/murata-dualstack-example-ns.c ****   * 4. This software, including modifications and/or derivative works of this 
  28:../../applications/murata-dualstack-example-ns/src/murata-dualstack-example-ns.c ****   *    software, must execute solely and exclusively on microcontroller or
  29:../../applications/murata-dualstack-example-ns/src/murata-dualstack-example-ns.c ****   *    microprocessor devices manufactured by or for STMicroelectronics.
ARM GAS  C:\Users\yvesk\AppData\Local\Temp\ccw5KjUM.s 			page 2


  30:../../applications/murata-dualstack-example-ns/src/murata-dualstack-example-ns.c ****   * 5. Redistribution and use of this software other than as permitted under 
  31:../../applications/murata-dualstack-example-ns/src/murata-dualstack-example-ns.c ****   *    this license is void and will automatically terminate your rights under 
  32:../../applications/murata-dualstack-example-ns/src/murata-dualstack-example-ns.c ****   *    this license. 
  33:../../applications/murata-dualstack-example-ns/src/murata-dualstack-example-ns.c ****   *
  34:../../applications/murata-dualstack-example-ns/src/murata-dualstack-example-ns.c ****   * THIS SOFTWARE IS PROVIDED BY STMICROELECTRONICS AND CONTRIBUTORS "AS IS" 
  35:../../applications/murata-dualstack-example-ns/src/murata-dualstack-example-ns.c ****   * AND ANY EXPRESS, IMPLIED OR STATUTORY WARRANTIES, INCLUDING, BUT NOT 
  36:../../applications/murata-dualstack-example-ns/src/murata-dualstack-example-ns.c ****   * LIMITED TO, THE IMPLIED WARRANTIES OF MERCHANTABILITY, FITNESS FOR A 
  37:../../applications/murata-dualstack-example-ns/src/murata-dualstack-example-ns.c ****   * PARTICULAR PURPOSE AND NON-INFRINGEMENT OF THIRD PARTY INTELLECTUAL PROPERTY
  38:../../applications/murata-dualstack-example-ns/src/murata-dualstack-example-ns.c ****   * RIGHTS ARE DISCLAIMED TO THE FULLEST EXTENT PERMITTED BY LAW. IN NO EVENT 
  39:../../applications/murata-dualstack-example-ns/src/murata-dualstack-example-ns.c ****   * SHALL STMICROELECTRONICS OR CONTRIBUTORS BE LIABLE FOR ANY DIRECT, INDIRECT,
  40:../../applications/murata-dualstack-example-ns/src/murata-dualstack-example-ns.c ****   * INCIDENTAL, SPECIAL, EXEMPLARY, OR CONSEQUENTIAL DAMAGES (INCLUDING, BUT NOT
  41:../../applications/murata-dualstack-example-ns/src/murata-dualstack-example-ns.c ****   * LIMITED TO, PROCUREMENT OF SUBSTITUTE GOODS OR SERVICES; LOSS OF USE, DATA, 
  42:../../applications/murata-dualstack-example-ns/src/murata-dualstack-example-ns.c ****   * OR PROFITS; OR BUSINESS INTERRUPTION) HOWEVER CAUSED AND ON ANY THEORY OF 
  43:../../applications/murata-dualstack-example-ns/src/murata-dualstack-example-ns.c ****   * LIABILITY, WHETHER IN CONTRACT, STRICT LIABILITY, OR TORT (INCLUDING 
  44:../../applications/murata-dualstack-example-ns/src/murata-dualstack-example-ns.c ****   * NEGLIGENCE OR OTHERWISE) ARISING IN ANY WAY OUT OF THE USE OF THIS SOFTWARE,
  45:../../applications/murata-dualstack-example-ns/src/murata-dualstack-example-ns.c ****   * EVEN IF ADVISED OF THE POSSIBILITY OF SUCH DAMAGE.
  46:../../applications/murata-dualstack-example-ns/src/murata-dualstack-example-ns.c ****   *
  47:../../applications/murata-dualstack-example-ns/src/murata-dualstack-example-ns.c ****   ******************************************************************************
  48:../../applications/murata-dualstack-example-ns/src/murata-dualstack-example-ns.c ****   */
  49:../../applications/murata-dualstack-example-ns/src/murata-dualstack-example-ns.c **** /* USER CODE END Header */
  50:../../applications/murata-dualstack-example-ns/src/murata-dualstack-example-ns.c **** 
  51:../../applications/murata-dualstack-example-ns/src/murata-dualstack-example-ns.c **** /* Includes ------------------------------------------------------------------*/
  52:../../applications/murata-dualstack-example-ns/src/murata-dualstack-example-ns.c **** #include "murata-dualstack-example-ns.h"
  53:../../applications/murata-dualstack-example-ns/src/murata-dualstack-example-ns.c **** 
  54:../../applications/murata-dualstack-example-ns/src/murata-dualstack-example-ns.c **** /* Private includes ----------------------------------------------------------*/
  55:../../applications/murata-dualstack-example-ns/src/murata-dualstack-example-ns.c **** /* USER CODE BEGIN Includes */
  56:../../applications/murata-dualstack-example-ns/src/murata-dualstack-example-ns.c **** //#include "murata.h"
  57:../../applications/murata-dualstack-example-ns/src/murata-dualstack-example-ns.c **** #include "C:\Users\yvesk\Documents\Academiejaar 2019-2020\IOT\Practicum\octa-stack-students-master\
  58:../../applications/murata-dualstack-example-ns/src/murata-dualstack-example-ns.c **** #include <stdio.h>
  59:../../applications/murata-dualstack-example-ns/src/murata-dualstack-example-ns.c **** #include "C:\Users\yvesk\Documents\Academiejaar 2019-2020\IOT\Practicum\Project_code\shields\Murata
  60:../../applications/murata-dualstack-example-ns/src/murata-dualstack-example-ns.c **** #include "C:\Users\yvesk\Documents\Academiejaar 2019-2020\IOT\Practicum\Project_code\core\drivers\S
  61:../../applications/murata-dualstack-example-ns/src/murata-dualstack-example-ns.c **** //#include "murata.h"
  62:../../applications/murata-dualstack-example-ns/src/murata-dualstack-example-ns.c **** 
  63:../../applications/murata-dualstack-example-ns/src/murata-dualstack-example-ns.c **** /* USER CODE END Includes */
  64:../../applications/murata-dualstack-example-ns/src/murata-dualstack-example-ns.c **** 
  65:../../applications/murata-dualstack-example-ns/src/murata-dualstack-example-ns.c **** /* Private typedef -----------------------------------------------------------*/
  66:../../applications/murata-dualstack-example-ns/src/murata-dualstack-example-ns.c **** /* USER CODE BEGIN PTD */
  67:../../applications/murata-dualstack-example-ns/src/murata-dualstack-example-ns.c **** 
  68:../../applications/murata-dualstack-example-ns/src/murata-dualstack-example-ns.c **** /* USER CODE END PTD */
  69:../../applications/murata-dualstack-example-ns/src/murata-dualstack-example-ns.c **** 
  70:../../applications/murata-dualstack-example-ns/src/murata-dualstack-example-ns.c **** /* Private define ------------------------------------------------------------*/
  71:../../applications/murata-dualstack-example-ns/src/murata-dualstack-example-ns.c **** /* USER CODE BEGIN PD */
  72:../../applications/murata-dualstack-example-ns/src/murata-dualstack-example-ns.c **** #define IWDG_INTERVAL           5    //seconds
  73:../../applications/murata-dualstack-example-ns/src/murata-dualstack-example-ns.c **** #define LORAWAN_INTERVAL        60   //seconds
  74:../../applications/murata-dualstack-example-ns/src/murata-dualstack-example-ns.c **** #define DASH7_INTERVAL          20  //seconds
  75:../../applications/murata-dualstack-example-ns/src/murata-dualstack-example-ns.c **** #define MODULE_CHECK_INTERVAL   3600 //seconds
  76:../../applications/murata-dualstack-example-ns/src/murata-dualstack-example-ns.c **** 
  77:../../applications/murata-dualstack-example-ns/src/murata-dualstack-example-ns.c **** #define HAL_EXTI_MODULE_ENABLED
  78:../../applications/murata-dualstack-example-ns/src/murata-dualstack-example-ns.c **** #define temp_hum_timer    3
  79:../../applications/murata-dualstack-example-ns/src/murata-dualstack-example-ns.c **** 
  80:../../applications/murata-dualstack-example-ns/src/murata-dualstack-example-ns.c **** /* USER CODE END PD */
  81:../../applications/murata-dualstack-example-ns/src/murata-dualstack-example-ns.c **** 
  82:../../applications/murata-dualstack-example-ns/src/murata-dualstack-example-ns.c **** /* Private macro -------------------------------------------------------------*/
  83:../../applications/murata-dualstack-example-ns/src/murata-dualstack-example-ns.c **** /* USER CODE BEGIN PM */
  84:../../applications/murata-dualstack-example-ns/src/murata-dualstack-example-ns.c **** 
  85:../../applications/murata-dualstack-example-ns/src/murata-dualstack-example-ns.c **** /* USER CODE END PM */
  86:../../applications/murata-dualstack-example-ns/src/murata-dualstack-example-ns.c **** 
ARM GAS  C:\Users\yvesk\AppData\Local\Temp\ccw5KjUM.s 			page 3


  87:../../applications/murata-dualstack-example-ns/src/murata-dualstack-example-ns.c **** /* Private user code ---------------------------------------------------------*/
  88:../../applications/murata-dualstack-example-ns/src/murata-dualstack-example-ns.c **** /* USER CODE BEGIN 0 */
  89:../../applications/murata-dualstack-example-ns/src/murata-dualstack-example-ns.c **** uint16_t LoRaWAN_Counter = 0;
  90:../../applications/murata-dualstack-example-ns/src/murata-dualstack-example-ns.c **** uint16_t DASH7_Counter = 0;
  91:../../applications/murata-dualstack-example-ns/src/murata-dualstack-example-ns.c **** uint8_t murata_init = 0;
  92:../../applications/murata-dualstack-example-ns/src/murata-dualstack-example-ns.c **** uint64_t short_UID;
  93:../../applications/murata-dualstack-example-ns/src/murata-dualstack-example-ns.c **** uint8_t murata_data_ready = 0;
  94:../../applications/murata-dualstack-example-ns/src/murata-dualstack-example-ns.c **** 
  95:../../applications/murata-dualstack-example-ns/src/murata-dualstack-example-ns.c **** //Zelf
  96:../../applications/murata-dualstack-example-ns/src/murata-dualstack-example-ns.c **** uint16_t rep_counter = 0; 
  97:../../applications/murata-dualstack-example-ns/src/murata-dualstack-example-ns.c **** float SHTData[2];
  98:../../applications/murata-dualstack-example-ns/src/murata-dualstack-example-ns.c **** uint8_t data; 
  99:../../applications/murata-dualstack-example-ns/src/murata-dualstack-example-ns.c **** volatile _Bool temperatureflag=0; 
 100:../../applications/murata-dualstack-example-ns/src/murata-dualstack-example-ns.c **** /* USER CODE END 0 */
 101:../../applications/murata-dualstack-example-ns/src/murata-dualstack-example-ns.c **** 
 102:../../applications/murata-dualstack-example-ns/src/murata-dualstack-example-ns.c **** /**
 103:../../applications/murata-dualstack-example-ns/src/murata-dualstack-example-ns.c ****   * @brief  The application entry point.
 104:../../applications/murata-dualstack-example-ns/src/murata-dualstack-example-ns.c ****   * @retval int
 105:../../applications/murata-dualstack-example-ns/src/murata-dualstack-example-ns.c ****   */
 106:../../applications/murata-dualstack-example-ns/src/murata-dualstack-example-ns.c **** int main(void)
 107:../../applications/murata-dualstack-example-ns/src/murata-dualstack-example-ns.c **** {
 108:../../applications/murata-dualstack-example-ns/src/murata-dualstack-example-ns.c ****   /* USER CODE BEGIN 1 */
 109:../../applications/murata-dualstack-example-ns/src/murata-dualstack-example-ns.c **** 
 110:../../applications/murata-dualstack-example-ns/src/murata-dualstack-example-ns.c ****   /* USER CODE END 1 */
 111:../../applications/murata-dualstack-example-ns/src/murata-dualstack-example-ns.c **** 
 112:../../applications/murata-dualstack-example-ns/src/murata-dualstack-example-ns.c ****   /* MCU Configuration--------------------------------------------------------*/
 113:../../applications/murata-dualstack-example-ns/src/murata-dualstack-example-ns.c **** 
 114:../../applications/murata-dualstack-example-ns/src/murata-dualstack-example-ns.c ****   /* Reset of all peripherals, Initializes the Flash interface and the Systick. */
 115:../../applications/murata-dualstack-example-ns/src/murata-dualstack-example-ns.c ****   HAL_Init();
 116:../../applications/murata-dualstack-example-ns/src/murata-dualstack-example-ns.c **** 
 117:../../applications/murata-dualstack-example-ns/src/murata-dualstack-example-ns.c ****   /* USER CODE BEGIN Init */
 118:../../applications/murata-dualstack-example-ns/src/murata-dualstack-example-ns.c **** 
 119:../../applications/murata-dualstack-example-ns/src/murata-dualstack-example-ns.c ****   /* USER CODE END Init */
 120:../../applications/murata-dualstack-example-ns/src/murata-dualstack-example-ns.c **** 
 121:../../applications/murata-dualstack-example-ns/src/murata-dualstack-example-ns.c ****   /* Configure the system clock */
 122:../../applications/murata-dualstack-example-ns/src/murata-dualstack-example-ns.c ****   SystemClock_Config();
 123:../../applications/murata-dualstack-example-ns/src/murata-dualstack-example-ns.c **** 
 124:../../applications/murata-dualstack-example-ns/src/murata-dualstack-example-ns.c ****   /* USER CODE BEGIN SysInit */
 125:../../applications/murata-dualstack-example-ns/src/murata-dualstack-example-ns.c **** 
 126:../../applications/murata-dualstack-example-ns/src/murata-dualstack-example-ns.c ****   /* USER CODE END SysInit */
 127:../../applications/murata-dualstack-example-ns/src/murata-dualstack-example-ns.c **** 
 128:../../applications/murata-dualstack-example-ns/src/murata-dualstack-example-ns.c ****   /* Initialize the platform, OCTA in this case */
 129:../../applications/murata-dualstack-example-ns/src/murata-dualstack-example-ns.c ****   Initialize_Platform();
 130:../../applications/murata-dualstack-example-ns/src/murata-dualstack-example-ns.c ****   /* USER CODE BEGIN 2 */
 131:../../applications/murata-dualstack-example-ns/src/murata-dualstack-example-ns.c **** 
 132:../../applications/murata-dualstack-example-ns/src/murata-dualstack-example-ns.c ****   // Get Unique ID of octa
 133:../../applications/murata-dualstack-example-ns/src/murata-dualstack-example-ns.c ****   short_UID = get_UID();
 134:../../applications/murata-dualstack-example-ns/src/murata-dualstack-example-ns.c **** 
 135:../../applications/murata-dualstack-example-ns/src/murata-dualstack-example-ns.c ****   //LSM30AGR (accelerometer)
 136:../../applications/murata-dualstack-example-ns/src/murata-dualstack-example-ns.c ****   LSM303AGR_setI2CInterface(&common_I2C);
 137:../../applications/murata-dualstack-example-ns/src/murata-dualstack-example-ns.c ****   setI2CInterface_SHT31(&common_I2C);
 138:../../applications/murata-dualstack-example-ns/src/murata-dualstack-example-ns.c ****   SHT31_begin(); 
 139:../../applications/murata-dualstack-example-ns/src/murata-dualstack-example-ns.c ****   LSM303AGR_init();
 140:../../applications/murata-dualstack-example-ns/src/murata-dualstack-example-ns.c **** 
 141:../../applications/murata-dualstack-example-ns/src/murata-dualstack-example-ns.c ****   // Print Welcome Message
 142:../../applications/murata-dualstack-example-ns/src/murata-dualstack-example-ns.c ****   printWelcome();
 143:../../applications/murata-dualstack-example-ns/src/murata-dualstack-example-ns.c ****   
ARM GAS  C:\Users\yvesk\AppData\Local\Temp\ccw5KjUM.s 			page 4


 144:../../applications/murata-dualstack-example-ns/src/murata-dualstack-example-ns.c ****   // LORAWAN
 145:../../applications/murata-dualstack-example-ns/src/murata-dualstack-example-ns.c ****   murata_init = Murata_Initialize(short_UID, 0);
 146:../../applications/murata-dualstack-example-ns/src/murata-dualstack-example-ns.c **** 
 147:../../applications/murata-dualstack-example-ns/src/murata-dualstack-example-ns.c ****   if (murata_init)
 148:../../applications/murata-dualstack-example-ns/src/murata-dualstack-example-ns.c ****   {
 149:../../applications/murata-dualstack-example-ns/src/murata-dualstack-example-ns.c ****     printf("Murata dualstack module init OK\r\n\r\n");
 150:../../applications/murata-dualstack-example-ns/src/murata-dualstack-example-ns.c ****   }
 151:../../applications/murata-dualstack-example-ns/src/murata-dualstack-example-ns.c **** 
 152:../../applications/murata-dualstack-example-ns/src/murata-dualstack-example-ns.c **** 
 153:../../applications/murata-dualstack-example-ns/src/murata-dualstack-example-ns.c ****   /* USER CODE END 2 */
 154:../../applications/murata-dualstack-example-ns/src/murata-dualstack-example-ns.c **** 
 155:../../applications/murata-dualstack-example-ns/src/murata-dualstack-example-ns.c ****   /* USER CODE BEGIN RTOS_MUTEX */
 156:../../applications/murata-dualstack-example-ns/src/murata-dualstack-example-ns.c ****   /* add mutexes, ... */
 157:../../applications/murata-dualstack-example-ns/src/murata-dualstack-example-ns.c **** 
 158:../../applications/murata-dualstack-example-ns/src/murata-dualstack-example-ns.c ****   // TX MUTEX ensuring no transmits are happening at the same time
 159:../../applications/murata-dualstack-example-ns/src/murata-dualstack-example-ns.c **** 
 160:../../applications/murata-dualstack-example-ns/src/murata-dualstack-example-ns.c ****   /* USER CODE END RTOS_MUTEX */
 161:../../applications/murata-dualstack-example-ns/src/murata-dualstack-example-ns.c **** 
 162:../../applications/murata-dualstack-example-ns/src/murata-dualstack-example-ns.c ****   /* USER CODE BEGIN RTOS_SEMAPHORES */
 163:../../applications/murata-dualstack-example-ns/src/murata-dualstack-example-ns.c ****   /* add semaphores, ... */
 164:../../applications/murata-dualstack-example-ns/src/murata-dualstack-example-ns.c ****   /* USER CODE END RTOS_SEMAPHORES */
 165:../../applications/murata-dualstack-example-ns/src/murata-dualstack-example-ns.c **** 
 166:../../applications/murata-dualstack-example-ns/src/murata-dualstack-example-ns.c ****   /* Create the thread(s) */
 167:../../applications/murata-dualstack-example-ns/src/murata-dualstack-example-ns.c **** 
 168:../../applications/murata-dualstack-example-ns/src/murata-dualstack-example-ns.c ****   /* USER CODE BEGIN RTOS_TIMERS */
 169:../../applications/murata-dualstack-example-ns/src/murata-dualstack-example-ns.c ****   /* start timers, add new ones, ... */
 170:../../applications/murata-dualstack-example-ns/src/murata-dualstack-example-ns.c **** 
 171:../../applications/murata-dualstack-example-ns/src/murata-dualstack-example-ns.c ****   //feed IWDG every 5 seconds
 172:../../applications/murata-dualstack-example-ns/src/murata-dualstack-example-ns.c ****   IWDG_feed(NULL);
 173:../../applications/murata-dualstack-example-ns/src/murata-dualstack-example-ns.c **** 
 174:../../applications/murata-dualstack-example-ns/src/murata-dualstack-example-ns.c ****   /* USER CODE END RTOS_TIMERS */
 175:../../applications/murata-dualstack-example-ns/src/murata-dualstack-example-ns.c **** 
 176:../../applications/murata-dualstack-example-ns/src/murata-dualstack-example-ns.c ****   /* USER CODE BEGIN RTOS_THREADS */
 177:../../applications/murata-dualstack-example-ns/src/murata-dualstack-example-ns.c ****   /* add threads, ... */
 178:../../applications/murata-dualstack-example-ns/src/murata-dualstack-example-ns.c **** 
 179:../../applications/murata-dualstack-example-ns/src/murata-dualstack-example-ns.c ****   /* USER CODE END RTOS_THREADS */
 180:../../applications/murata-dualstack-example-ns/src/murata-dualstack-example-ns.c **** 
 181:../../applications/murata-dualstack-example-ns/src/murata-dualstack-example-ns.c ****   /* USER CODE BEGIN RTOS_QUEUES */
 182:../../applications/murata-dualstack-example-ns/src/murata-dualstack-example-ns.c ****   /* add queues, ... */
 183:../../applications/murata-dualstack-example-ns/src/murata-dualstack-example-ns.c ****   /* USER CODE END RTOS_QUEUES */
 184:../../applications/murata-dualstack-example-ns/src/murata-dualstack-example-ns.c **** 
 185:../../applications/murata-dualstack-example-ns/src/murata-dualstack-example-ns.c ****   /* Start scheduler */
 186:../../applications/murata-dualstack-example-ns/src/murata-dualstack-example-ns.c **** 
 187:../../applications/murata-dualstack-example-ns/src/murata-dualstack-example-ns.c ****   /* We should never get here as control is now taken by the scheduler */
 188:../../applications/murata-dualstack-example-ns/src/murata-dualstack-example-ns.c **** 
 189:../../applications/murata-dualstack-example-ns/src/murata-dualstack-example-ns.c ****   /* Infinite loop */
 190:../../applications/murata-dualstack-example-ns/src/murata-dualstack-example-ns.c ****   uint8_t counter = 0;
 191:../../applications/murata-dualstack-example-ns/src/murata-dualstack-example-ns.c ****   uint8_t use_lora = 1;
 192:../../applications/murata-dualstack-example-ns/src/murata-dualstack-example-ns.c ****   /* USER CODE BEGIN WHILE */
 193:../../applications/murata-dualstack-example-ns/src/murata-dualstack-example-ns.c ****   while (1)
 194:../../applications/murata-dualstack-example-ns/src/murata-dualstack-example-ns.c ****   { 
 195:../../applications/murata-dualstack-example-ns/src/murata-dualstack-example-ns.c ****     IWDG_feed(NULL);
 196:../../applications/murata-dualstack-example-ns/src/murata-dualstack-example-ns.c **** 
 197:../../applications/murata-dualstack-example-ns/src/murata-dualstack-example-ns.c ****     if(murata_data_ready)
 198:../../applications/murata-dualstack-example-ns/src/murata-dualstack-example-ns.c ****     {
 199:../../applications/murata-dualstack-example-ns/src/murata-dualstack-example-ns.c ****       printf("processing murata fifo\r\n");
 200:../../applications/murata-dualstack-example-ns/src/murata-dualstack-example-ns.c ****       murata_data_ready = !Murata_process_fifo();
ARM GAS  C:\Users\yvesk\AppData\Local\Temp\ccw5KjUM.s 			page 5


 201:../../applications/murata-dualstack-example-ns/src/murata-dualstack-example-ns.c ****     }
 202:../../applications/murata-dualstack-example-ns/src/murata-dualstack-example-ns.c **** 
 203:../../applications/murata-dualstack-example-ns/src/murata-dualstack-example-ns.c **** 
 204:../../applications/murata-dualstack-example-ns/src/murata-dualstack-example-ns.c ****     //------gekopieerd van no-scheduler-example------
 205:../../applications/murata-dualstack-example-ns/src/murata-dualstack-example-ns.c ****      IWDG_feed(NULL); 
 206:../../applications/murata-dualstack-example-ns/src/murata-dualstack-example-ns.c ****     
 207:../../applications/murata-dualstack-example-ns/src/murata-dualstack-example-ns.c ****     //LSM303AGR_readRegister(0x31, data, 0);
 208:../../applications/murata-dualstack-example-ns/src/murata-dualstack-example-ns.c **** 
 209:../../applications/murata-dualstack-example-ns/src/murata-dualstack-example-ns.c ****     //de interrupt zal zorgen dat de flag op 1 staat, dan doen we een measurement van temp
 210:../../applications/murata-dualstack-example-ns/src/murata-dualstack-example-ns.c ****     if (temperatureflag==1) {
 211:../../applications/murata-dualstack-example-ns/src/murata-dualstack-example-ns.c ****       // Request to enter SLEEP mode
 212:../../applications/murata-dualstack-example-ns/src/murata-dualstack-example-ns.c **** 
 213:../../applications/murata-dualstack-example-ns/src/murata-dualstack-example-ns.c ****       rep_counter++; 
 214:../../applications/murata-dualstack-example-ns/src/murata-dualstack-example-ns.c ****       printf("%d,\r\n\r\n",rep_counter);
 215:../../applications/murata-dualstack-example-ns/src/murata-dualstack-example-ns.c **** 
 216:../../applications/murata-dualstack-example-ns/src/murata-dualstack-example-ns.c **** 
 217:../../applications/murata-dualstack-example-ns/src/murata-dualstack-example-ns.c ****       if (rep_counter==4) {
 218:../../applications/murata-dualstack-example-ns/src/murata-dualstack-example-ns.c ****         printf("going into sleepmode\r\n"); 
 219:../../applications/murata-dualstack-example-ns/src/murata-dualstack-example-ns.c ****       //HAL_PWR_EnterSLEEPMode(PWR_MAINREGULATOR_ON, PWR_SLEEPENTRY_WFI);
 220:../../applications/murata-dualstack-example-ns/src/murata-dualstack-example-ns.c ****       printf(" into sleepmode gegaan\r\n"); 
 221:../../applications/murata-dualstack-example-ns/src/murata-dualstack-example-ns.c ****       }
 222:../../applications/murata-dualstack-example-ns/src/murata-dualstack-example-ns.c **** 
 223:../../applications/murata-dualstack-example-ns/src/murata-dualstack-example-ns.c ****       murata_init=Murata_Initialize(short_UID,0);
 224:../../applications/murata-dualstack-example-ns/src/murata-dualstack-example-ns.c **** 
 225:../../applications/murata-dualstack-example-ns/src/murata-dualstack-example-ns.c ****       if (murata_init) {
 226:../../applications/murata-dualstack-example-ns/src/murata-dualstack-example-ns.c ****         printf("Lorawan module init ok\r\n\r\n");
 227:../../applications/murata-dualstack-example-ns/src/murata-dualstack-example-ns.c ****       
 228:../../applications/murata-dualstack-example-ns/src/murata-dualstack-example-ns.c ****           temp_hum_measurement();
 229:../../applications/murata-dualstack-example-ns/src/murata-dualstack-example-ns.c ****           //LoRaWAN_send(&payload);
 230:../../applications/murata-dualstack-example-ns/src/murata-dualstack-example-ns.c ****         //LoRaWAN_send_self();
 231:../../applications/murata-dualstack-example-ns/src/murata-dualstack-example-ns.c ****         Dash7_send_temphum(); 
 232:../../applications/murata-dualstack-example-ns/src/murata-dualstack-example-ns.c ****       }
 233:../../applications/murata-dualstack-example-ns/src/murata-dualstack-example-ns.c ****       
 234:../../applications/murata-dualstack-example-ns/src/murata-dualstack-example-ns.c ****         
 235:../../applications/murata-dualstack-example-ns/src/murata-dualstack-example-ns.c ****         //murata_process_rx_response();
 236:../../applications/murata-dualstack-example-ns/src/murata-dualstack-example-ns.c ****           temperatureflag=0; 
 237:../../applications/murata-dualstack-example-ns/src/murata-dualstack-example-ns.c ****     //     lora_init=Murata_Initialize(short_UID);
 238:../../applications/murata-dualstack-example-ns/src/murata-dualstack-example-ns.c ****     } 
 239:../../applications/murata-dualstack-example-ns/src/murata-dualstack-example-ns.c ****     
 240:../../applications/murata-dualstack-example-ns/src/murata-dualstack-example-ns.c ****     // SEND 5 D7 messages, every 10 sec.
 241:../../applications/murata-dualstack-example-ns/src/murata-dualstack-example-ns.c ****     // Afterwards, send 3 LoRaWAN messages, every minute
 242:../../applications/murata-dualstack-example-ns/src/murata-dualstack-example-ns.c ****     /* if(DASH7_Counter<5)
 243:../../applications/murata-dualstack-example-ns/src/murata-dualstack-example-ns.c ****     {
 244:../../applications/murata-dualstack-example-ns/src/murata-dualstack-example-ns.c ****       if(counter==DASH7_INTERVAL)
 245:../../applications/murata-dualstack-example-ns/src/murata-dualstack-example-ns.c ****       {
 246:../../applications/murata-dualstack-example-ns/src/murata-dualstack-example-ns.c ****         Dash7_send(NULL);
 247:../../applications/murata-dualstack-example-ns/src/murata-dualstack-example-ns.c ****         counter = 0;
 248:../../applications/murata-dualstack-example-ns/src/murata-dualstack-example-ns.c ****       }
 249:../../applications/murata-dualstack-example-ns/src/murata-dualstack-example-ns.c ****     }
 250:../../applications/murata-dualstack-example-ns/src/murata-dualstack-example-ns.c ****     else
 251:../../applications/murata-dualstack-example-ns/src/murata-dualstack-example-ns.c ****     { 
 252:../../applications/murata-dualstack-example-ns/src/murata-dualstack-example-ns.c ****       if(LoRaWAN_Counter == 0)
 253:../../applications/murata-dualstack-example-ns/src/murata-dualstack-example-ns.c ****         Murata_LoRaWAN_Join();
 254:../../applications/murata-dualstack-example-ns/src/murata-dualstack-example-ns.c ****       if(LoRaWAN_Counter<3)
 255:../../applications/murata-dualstack-example-ns/src/murata-dualstack-example-ns.c ****       {
 256:../../applications/murata-dualstack-example-ns/src/murata-dualstack-example-ns.c ****         if (counter == LORAWAN_INTERVAL)
 257:../../applications/murata-dualstack-example-ns/src/murata-dualstack-example-ns.c ****         {
ARM GAS  C:\Users\yvesk\AppData\Local\Temp\ccw5KjUM.s 			page 6


 258:../../applications/murata-dualstack-example-ns/src/murata-dualstack-example-ns.c ****           LoRaWAN_send(NULL);
 259:../../applications/murata-dualstack-example-ns/src/murata-dualstack-example-ns.c ****           counter = 0;
 260:../../applications/murata-dualstack-example-ns/src/murata-dualstack-example-ns.c ****         }
 261:../../applications/murata-dualstack-example-ns/src/murata-dualstack-example-ns.c ****       }
 262:../../applications/murata-dualstack-example-ns/src/murata-dualstack-example-ns.c ****       if(LoRaWAN_Counter == 3)
 263:../../applications/murata-dualstack-example-ns/src/murata-dualstack-example-ns.c ****       {
 264:../../applications/murata-dualstack-example-ns/src/murata-dualstack-example-ns.c ****         //reset counters to restart flow
 265:../../applications/murata-dualstack-example-ns/src/murata-dualstack-example-ns.c ****         DASH7_Counter = 0;
 266:../../applications/murata-dualstack-example-ns/src/murata-dualstack-example-ns.c ****         LoRaWAN_Counter = 0;
 267:../../applications/murata-dualstack-example-ns/src/murata-dualstack-example-ns.c ****       }
 268:../../applications/murata-dualstack-example-ns/src/murata-dualstack-example-ns.c ****     }
 269:../../applications/murata-dualstack-example-ns/src/murata-dualstack-example-ns.c ****    
 270:../../applications/murata-dualstack-example-ns/src/murata-dualstack-example-ns.c ****     counter++; */
 271:../../applications/murata-dualstack-example-ns/src/murata-dualstack-example-ns.c ****     HAL_Delay(1000);
 272:../../applications/murata-dualstack-example-ns/src/murata-dualstack-example-ns.c ****     
 273:../../applications/murata-dualstack-example-ns/src/murata-dualstack-example-ns.c **** 
 274:../../applications/murata-dualstack-example-ns/src/murata-dualstack-example-ns.c ****     /* USER CODE END WHILE */
 275:../../applications/murata-dualstack-example-ns/src/murata-dualstack-example-ns.c ****     
 276:../../applications/murata-dualstack-example-ns/src/murata-dualstack-example-ns.c ****     /* USER CODE BEGIN 3 */
 277:../../applications/murata-dualstack-example-ns/src/murata-dualstack-example-ns.c ****   }
 278:../../applications/murata-dualstack-example-ns/src/murata-dualstack-example-ns.c ****   /* USER CODE END 3 */
 279:../../applications/murata-dualstack-example-ns/src/murata-dualstack-example-ns.c **** }
 280:../../applications/murata-dualstack-example-ns/src/murata-dualstack-example-ns.c **** 
 281:../../applications/murata-dualstack-example-ns/src/murata-dualstack-example-ns.c **** 
 282:../../applications/murata-dualstack-example-ns/src/murata-dualstack-example-ns.c **** void LoRaWAN_send(void const *argument)
 283:../../applications/murata-dualstack-example-ns/src/murata-dualstack-example-ns.c **** {
  30              		.loc 1 283 1 view -0
  31              		.cfi_startproc
  32              		@ args = 0, pretend = 0, frame = 8
  33              		@ frame_needed = 0, uses_anonymous_args = 0
  34              		.loc 1 283 1 is_stmt 0 view .LVU1
  35 0000 00B5     		push	{lr}
  36              	.LCFI0:
  37              		.cfi_def_cfa_offset 4
  38              		.cfi_offset 14, -4
  39 0002 83B0     		sub	sp, sp, #12
  40              	.LCFI1:
  41              		.cfi_def_cfa_offset 16
 284:../../applications/murata-dualstack-example-ns/src/murata-dualstack-example-ns.c ****   if (murata_init)
  42              		.loc 1 284 3 is_stmt 1 view .LVU2
  43              		.loc 1 284 7 is_stmt 0 view .LVU3
  44 0004 124B     		ldr	r3, .L7
  45 0006 1B78     		ldrb	r3, [r3]	@ zero_extendqisi2
  46              		.loc 1 284 6 view .LVU4
  47 0008 EBB1     		cbz	r3, .L2
  48              	.LBB2:
 285:../../applications/murata-dualstack-example-ns/src/murata-dualstack-example-ns.c ****   {
 286:../../applications/murata-dualstack-example-ns/src/murata-dualstack-example-ns.c ****     uint8_t loraMessage[5];
  49              		.loc 1 286 5 is_stmt 1 view .LVU5
 287:../../applications/murata-dualstack-example-ns/src/murata-dualstack-example-ns.c ****     uint8_t i = 0;
  50              		.loc 1 287 5 view .LVU6
  51              	.LVL1:
 288:../../applications/murata-dualstack-example-ns/src/murata-dualstack-example-ns.c ****     //uint16 counter to uint8 array (little endian)
 289:../../applications/murata-dualstack-example-ns/src/murata-dualstack-example-ns.c ****     //counter (large) type byte
 290:../../applications/murata-dualstack-example-ns/src/murata-dualstack-example-ns.c ****     loraMessage[i++] = 0x14;
  52              		.loc 1 290 5 view .LVU7
  53              		.loc 1 290 22 is_stmt 0 view .LVU8
ARM GAS  C:\Users\yvesk\AppData\Local\Temp\ccw5KjUM.s 			page 7


  54 000a 1423     		movs	r3, #20
  55 000c 8DF80030 		strb	r3, [sp]
 291:../../applications/murata-dualstack-example-ns/src/murata-dualstack-example-ns.c ****     loraMessage[i++] = LoRaWAN_Counter;
  56              		.loc 1 291 5 is_stmt 1 view .LVU9
  57              		.loc 1 291 22 is_stmt 0 view .LVU10
  58 0010 104B     		ldr	r3, .L7+4
  59 0012 1B88     		ldrh	r3, [r3]
  60              	.LVL2:
  61              		.loc 1 291 22 view .LVU11
  62 0014 8DF80130 		strb	r3, [sp, #1]
 292:../../applications/murata-dualstack-example-ns/src/murata-dualstack-example-ns.c ****     loraMessage[i++] = LoRaWAN_Counter >> 8;
  63              		.loc 1 292 5 is_stmt 1 view .LVU12
  64              	.LVL3:
  65              		.loc 1 292 22 is_stmt 0 view .LVU13
  66 0018 1B0A     		lsrs	r3, r3, #8
  67 001a 8DF80230 		strb	r3, [sp, #2]
 293:../../applications/murata-dualstack-example-ns/src/murata-dualstack-example-ns.c ****     //osMutexWait(txMutexId, osWaitForever);
 294:../../applications/murata-dualstack-example-ns/src/murata-dualstack-example-ns.c ****     if(!Murata_LoRaWAN_Send((uint8_t *)loraMessage, i))
  68              		.loc 1 294 5 is_stmt 1 view .LVU14
  69              		.loc 1 294 9 is_stmt 0 view .LVU15
  70 001e 0321     		movs	r1, #3
  71 0020 6846     		mov	r0, sp
  72              	.LVL4:
  73              		.loc 1 294 9 view .LVU16
  74 0022 FFF7FEFF 		bl	Murata_LoRaWAN_Send
  75              	.LVL5:
  76              		.loc 1 294 7 view .LVU17
  77 0026 50B9     		cbnz	r0, .L3
 295:../../applications/murata-dualstack-example-ns/src/murata-dualstack-example-ns.c ****     {
 296:../../applications/murata-dualstack-example-ns/src/murata-dualstack-example-ns.c ****       murata_init++;
  78              		.loc 1 296 7 is_stmt 1 view .LVU18
  79              		.loc 1 296 18 is_stmt 0 view .LVU19
  80 0028 094A     		ldr	r2, .L7
  81 002a 1378     		ldrb	r3, [r2]	@ zero_extendqisi2
  82 002c 0133     		adds	r3, r3, #1
  83 002e 1370     		strb	r3, [r2]
 297:../../applications/murata-dualstack-example-ns/src/murata-dualstack-example-ns.c ****       if(murata_init == 10)
  84              		.loc 1 297 7 is_stmt 1 view .LVU20
  85              	.L4:
 298:../../applications/murata-dualstack-example-ns/src/murata-dualstack-example-ns.c ****         murata_init == 0;
 299:../../applications/murata-dualstack-example-ns/src/murata-dualstack-example-ns.c ****     }
 300:../../applications/murata-dualstack-example-ns/src/murata-dualstack-example-ns.c ****     else
 301:../../applications/murata-dualstack-example-ns/src/murata-dualstack-example-ns.c ****     {
 302:../../applications/murata-dualstack-example-ns/src/murata-dualstack-example-ns.c ****       murata_init = 1;
 303:../../applications/murata-dualstack-example-ns/src/murata-dualstack-example-ns.c ****     }
 304:../../applications/murata-dualstack-example-ns/src/murata-dualstack-example-ns.c ****     //BLOCK TX MUTEX FOR 3s
 305:../../applications/murata-dualstack-example-ns/src/murata-dualstack-example-ns.c ****     //osDelay(3000);
 306:../../applications/murata-dualstack-example-ns/src/murata-dualstack-example-ns.c ****     //osMutexRelease(txMutexId);
 307:../../applications/murata-dualstack-example-ns/src/murata-dualstack-example-ns.c ****     LoRaWAN_Counter++;
  86              		.loc 1 307 5 discriminator 1 view .LVU21
  87              		.loc 1 307 20 is_stmt 0 discriminator 1 view .LVU22
  88 0030 084A     		ldr	r2, .L7+4
  89 0032 1388     		ldrh	r3, [r2]
  90 0034 0133     		adds	r3, r3, #1
  91 0036 1380     		strh	r3, [r2]	@ movhi
  92              	.LVL6:
  93              	.L1:
ARM GAS  C:\Users\yvesk\AppData\Local\Temp\ccw5KjUM.s 			page 8


  94              		.loc 1 307 20 discriminator 1 view .LVU23
  95              	.LBE2:
 308:../../applications/murata-dualstack-example-ns/src/murata-dualstack-example-ns.c ****   }
 309:../../applications/murata-dualstack-example-ns/src/murata-dualstack-example-ns.c ****   else{
 310:../../applications/murata-dualstack-example-ns/src/murata-dualstack-example-ns.c ****     printf("murata not initialized, not sending\r\n");
 311:../../applications/murata-dualstack-example-ns/src/murata-dualstack-example-ns.c ****   }
 312:../../applications/murata-dualstack-example-ns/src/murata-dualstack-example-ns.c **** }
  96              		.loc 1 312 1 view .LVU24
  97 0038 03B0     		add	sp, sp, #12
  98              	.LCFI2:
  99              		.cfi_remember_state
 100              		.cfi_def_cfa_offset 4
 101              		@ sp needed
 102 003a 5DF804FB 		ldr	pc, [sp], #4
 103              	.LVL7:
 104              	.L3:
 105              	.LCFI3:
 106              		.cfi_restore_state
 107              	.LBB3:
 302:../../applications/murata-dualstack-example-ns/src/murata-dualstack-example-ns.c ****     }
 108              		.loc 1 302 7 is_stmt 1 view .LVU25
 302:../../applications/murata-dualstack-example-ns/src/murata-dualstack-example-ns.c ****     }
 109              		.loc 1 302 19 is_stmt 0 view .LVU26
 110 003e 044B     		ldr	r3, .L7
 111 0040 0122     		movs	r2, #1
 112 0042 1A70     		strb	r2, [r3]
 113 0044 F4E7     		b	.L4
 114              	.LVL8:
 115              	.L2:
 302:../../applications/murata-dualstack-example-ns/src/murata-dualstack-example-ns.c ****     }
 116              		.loc 1 302 19 view .LVU27
 117              	.LBE3:
 310:../../applications/murata-dualstack-example-ns/src/murata-dualstack-example-ns.c ****   }
 118              		.loc 1 310 5 is_stmt 1 view .LVU28
 119 0046 0448     		ldr	r0, .L7+8
 120              	.LVL9:
 310:../../applications/murata-dualstack-example-ns/src/murata-dualstack-example-ns.c ****   }
 121              		.loc 1 310 5 is_stmt 0 view .LVU29
 122 0048 FFF7FEFF 		bl	puts
 123              	.LVL10:
 124              		.loc 1 312 1 view .LVU30
 125 004c F4E7     		b	.L1
 126              	.L8:
 127 004e 00BF     		.align	2
 128              	.L7:
 129 0050 00000000 		.word	.LANCHOR0
 130 0054 00000000 		.word	.LANCHOR1
 131 0058 00000000 		.word	.LC0
 132              		.cfi_endproc
 133              	.LFE133:
 135              		.section	.text.Dash7_send,"ax",%progbits
 136              		.align	1
 137              		.global	Dash7_send
 138              		.syntax unified
 139              		.thumb
 140              		.thumb_func
 141              		.fpu fpv4-sp-d16
ARM GAS  C:\Users\yvesk\AppData\Local\Temp\ccw5KjUM.s 			page 9


 143              	Dash7_send:
 144              	.LVL11:
 145              	.LFB134:
 313:../../applications/murata-dualstack-example-ns/src/murata-dualstack-example-ns.c **** 
 314:../../applications/murata-dualstack-example-ns/src/murata-dualstack-example-ns.c **** void Dash7_send(void const *argument)
 315:../../applications/murata-dualstack-example-ns/src/murata-dualstack-example-ns.c **** {
 146              		.loc 1 315 1 is_stmt 1 view -0
 147              		.cfi_startproc
 148              		@ args = 0, pretend = 0, frame = 8
 149              		@ frame_needed = 0, uses_anonymous_args = 0
 150              		.loc 1 315 1 is_stmt 0 view .LVU32
 151 0000 00B5     		push	{lr}
 152              	.LCFI4:
 153              		.cfi_def_cfa_offset 4
 154              		.cfi_offset 14, -4
 155 0002 83B0     		sub	sp, sp, #12
 156              	.LCFI5:
 157              		.cfi_def_cfa_offset 16
 316:../../applications/murata-dualstack-example-ns/src/murata-dualstack-example-ns.c ****   if (murata_init)
 158              		.loc 1 316 3 is_stmt 1 view .LVU33
 159              		.loc 1 316 7 is_stmt 0 view .LVU34
 160 0004 124B     		ldr	r3, .L15
 161 0006 1B78     		ldrb	r3, [r3]	@ zero_extendqisi2
 162              		.loc 1 316 6 view .LVU35
 163 0008 EBB1     		cbz	r3, .L10
 164              	.LBB4:
 317:../../applications/murata-dualstack-example-ns/src/murata-dualstack-example-ns.c ****   {
 318:../../applications/murata-dualstack-example-ns/src/murata-dualstack-example-ns.c ****     uint8_t dash7Message[5];
 165              		.loc 1 318 5 is_stmt 1 view .LVU36
 319:../../applications/murata-dualstack-example-ns/src/murata-dualstack-example-ns.c ****     uint8_t i = 0;
 166              		.loc 1 319 5 view .LVU37
 167              	.LVL12:
 320:../../applications/murata-dualstack-example-ns/src/murata-dualstack-example-ns.c ****     //uint16 counter to uint8 array (little endian)
 321:../../applications/murata-dualstack-example-ns/src/murata-dualstack-example-ns.c ****     //counter (large) type byte
 322:../../applications/murata-dualstack-example-ns/src/murata-dualstack-example-ns.c ****     dash7Message[i++] = 0x14;
 168              		.loc 1 322 5 view .LVU38
 169              		.loc 1 322 23 is_stmt 0 view .LVU39
 170 000a 1423     		movs	r3, #20
 171 000c 8DF80030 		strb	r3, [sp]
 323:../../applications/murata-dualstack-example-ns/src/murata-dualstack-example-ns.c ****     dash7Message[i++] = DASH7_Counter;
 172              		.loc 1 323 5 is_stmt 1 view .LVU40
 173              		.loc 1 323 23 is_stmt 0 view .LVU41
 174 0010 104B     		ldr	r3, .L15+4
 175 0012 1B88     		ldrh	r3, [r3]
 176              	.LVL13:
 177              		.loc 1 323 23 view .LVU42
 178 0014 8DF80130 		strb	r3, [sp, #1]
 324:../../applications/murata-dualstack-example-ns/src/murata-dualstack-example-ns.c ****     dash7Message[i++] = DASH7_Counter >> 8;
 179              		.loc 1 324 5 is_stmt 1 view .LVU43
 180              	.LVL14:
 181              		.loc 1 324 23 is_stmt 0 view .LVU44
 182 0018 1B0A     		lsrs	r3, r3, #8
 183 001a 8DF80230 		strb	r3, [sp, #2]
 325:../../applications/murata-dualstack-example-ns/src/murata-dualstack-example-ns.c ****     //osMutexWait(txMutexId, osWaitForever);
 326:../../applications/murata-dualstack-example-ns/src/murata-dualstack-example-ns.c ****     if(!Murata_Dash7_Send((uint8_t *)dash7Message, i))
 184              		.loc 1 326 5 is_stmt 1 view .LVU45
 185              		.loc 1 326 9 is_stmt 0 view .LVU46
ARM GAS  C:\Users\yvesk\AppData\Local\Temp\ccw5KjUM.s 			page 10


 186 001e 0321     		movs	r1, #3
 187 0020 6846     		mov	r0, sp
 188              	.LVL15:
 189              		.loc 1 326 9 view .LVU47
 190 0022 FFF7FEFF 		bl	Murata_Dash7_Send
 191              	.LVL16:
 192              		.loc 1 326 7 view .LVU48
 193 0026 50B9     		cbnz	r0, .L11
 327:../../applications/murata-dualstack-example-ns/src/murata-dualstack-example-ns.c ****     {
 328:../../applications/murata-dualstack-example-ns/src/murata-dualstack-example-ns.c ****       murata_init++;
 194              		.loc 1 328 7 is_stmt 1 view .LVU49
 195              		.loc 1 328 18 is_stmt 0 view .LVU50
 196 0028 094A     		ldr	r2, .L15
 197 002a 1378     		ldrb	r3, [r2]	@ zero_extendqisi2
 198 002c 0133     		adds	r3, r3, #1
 199 002e 1370     		strb	r3, [r2]
 329:../../applications/murata-dualstack-example-ns/src/murata-dualstack-example-ns.c ****       if(murata_init == 10)
 200              		.loc 1 329 7 is_stmt 1 view .LVU51
 201              	.L12:
 330:../../applications/murata-dualstack-example-ns/src/murata-dualstack-example-ns.c ****         murata_init == 0;
 331:../../applications/murata-dualstack-example-ns/src/murata-dualstack-example-ns.c ****     }
 332:../../applications/murata-dualstack-example-ns/src/murata-dualstack-example-ns.c ****     else
 333:../../applications/murata-dualstack-example-ns/src/murata-dualstack-example-ns.c ****     {
 334:../../applications/murata-dualstack-example-ns/src/murata-dualstack-example-ns.c ****       murata_init = 1;
 335:../../applications/murata-dualstack-example-ns/src/murata-dualstack-example-ns.c ****     }
 336:../../applications/murata-dualstack-example-ns/src/murata-dualstack-example-ns.c ****     //BLOCK TX MUTEX FOR 3s
 337:../../applications/murata-dualstack-example-ns/src/murata-dualstack-example-ns.c ****     //osDelay(3000);
 338:../../applications/murata-dualstack-example-ns/src/murata-dualstack-example-ns.c ****     //osMutexRelease(txMutexId);
 339:../../applications/murata-dualstack-example-ns/src/murata-dualstack-example-ns.c ****     DASH7_Counter++;
 202              		.loc 1 339 5 discriminator 1 view .LVU52
 203              		.loc 1 339 18 is_stmt 0 discriminator 1 view .LVU53
 204 0030 084A     		ldr	r2, .L15+4
 205 0032 1388     		ldrh	r3, [r2]
 206 0034 0133     		adds	r3, r3, #1
 207 0036 1380     		strh	r3, [r2]	@ movhi
 208              	.LVL17:
 209              	.L9:
 210              		.loc 1 339 18 discriminator 1 view .LVU54
 211              	.LBE4:
 340:../../applications/murata-dualstack-example-ns/src/murata-dualstack-example-ns.c ****   }
 341:../../applications/murata-dualstack-example-ns/src/murata-dualstack-example-ns.c ****   else{
 342:../../applications/murata-dualstack-example-ns/src/murata-dualstack-example-ns.c ****     printf("murata not initialized, not sending\r\n");
 343:../../applications/murata-dualstack-example-ns/src/murata-dualstack-example-ns.c ****   }
 344:../../applications/murata-dualstack-example-ns/src/murata-dualstack-example-ns.c **** }
 212              		.loc 1 344 1 view .LVU55
 213 0038 03B0     		add	sp, sp, #12
 214              	.LCFI6:
 215              		.cfi_remember_state
 216              		.cfi_def_cfa_offset 4
 217              		@ sp needed
 218 003a 5DF804FB 		ldr	pc, [sp], #4
 219              	.LVL18:
 220              	.L11:
 221              	.LCFI7:
 222              		.cfi_restore_state
 223              	.LBB5:
 334:../../applications/murata-dualstack-example-ns/src/murata-dualstack-example-ns.c ****     }
ARM GAS  C:\Users\yvesk\AppData\Local\Temp\ccw5KjUM.s 			page 11


 224              		.loc 1 334 7 is_stmt 1 view .LVU56
 334:../../applications/murata-dualstack-example-ns/src/murata-dualstack-example-ns.c ****     }
 225              		.loc 1 334 19 is_stmt 0 view .LVU57
 226 003e 044B     		ldr	r3, .L15
 227 0040 0122     		movs	r2, #1
 228 0042 1A70     		strb	r2, [r3]
 229 0044 F4E7     		b	.L12
 230              	.LVL19:
 231              	.L10:
 334:../../applications/murata-dualstack-example-ns/src/murata-dualstack-example-ns.c ****     }
 232              		.loc 1 334 19 view .LVU58
 233              	.LBE5:
 342:../../applications/murata-dualstack-example-ns/src/murata-dualstack-example-ns.c ****   }
 234              		.loc 1 342 5 is_stmt 1 view .LVU59
 235 0046 0448     		ldr	r0, .L15+8
 236              	.LVL20:
 342:../../applications/murata-dualstack-example-ns/src/murata-dualstack-example-ns.c ****   }
 237              		.loc 1 342 5 is_stmt 0 view .LVU60
 238 0048 FFF7FEFF 		bl	puts
 239              	.LVL21:
 240              		.loc 1 344 1 view .LVU61
 241 004c F4E7     		b	.L9
 242              	.L16:
 243 004e 00BF     		.align	2
 244              	.L15:
 245 0050 00000000 		.word	.LANCHOR0
 246 0054 00000000 		.word	.LANCHOR2
 247 0058 00000000 		.word	.LC0
 248              		.cfi_endproc
 249              	.LFE134:
 251              		.section	.text.Dash7_send_temphum,"ax",%progbits
 252              		.align	1
 253              		.global	Dash7_send_temphum
 254              		.syntax unified
 255              		.thumb
 256              		.thumb_func
 257              		.fpu fpv4-sp-d16
 259              	Dash7_send_temphum:
 260              	.LVL22:
 261              	.LFB135:
 345:../../applications/murata-dualstack-example-ns/src/murata-dualstack-example-ns.c **** 
 346:../../applications/murata-dualstack-example-ns/src/murata-dualstack-example-ns.c **** 
 347:../../applications/murata-dualstack-example-ns/src/murata-dualstack-example-ns.c **** void Dash7_send_temphum(void const *argument)
 348:../../applications/murata-dualstack-example-ns/src/murata-dualstack-example-ns.c **** {
 262              		.loc 1 348 1 is_stmt 1 view -0
 263              		.cfi_startproc
 264              		@ args = 0, pretend = 0, frame = 8
 265              		@ frame_needed = 0, uses_anonymous_args = 0
 266              		.loc 1 348 1 is_stmt 0 view .LVU63
 267 0000 00B5     		push	{lr}
 268              	.LCFI8:
 269              		.cfi_def_cfa_offset 4
 270              		.cfi_offset 14, -4
 271 0002 83B0     		sub	sp, sp, #12
 272              	.LCFI9:
 273              		.cfi_def_cfa_offset 16
 349:../../applications/murata-dualstack-example-ns/src/murata-dualstack-example-ns.c ****   if (murata_init)
ARM GAS  C:\Users\yvesk\AppData\Local\Temp\ccw5KjUM.s 			page 12


 274              		.loc 1 349 3 is_stmt 1 view .LVU64
 275              		.loc 1 349 7 is_stmt 0 view .LVU65
 276 0004 174B     		ldr	r3, .L23
 277 0006 1B78     		ldrb	r3, [r3]	@ zero_extendqisi2
 278              		.loc 1 349 6 view .LVU66
 279 0008 3BB3     		cbz	r3, .L18
 280              	.LBB6:
 350:../../applications/murata-dualstack-example-ns/src/murata-dualstack-example-ns.c ****   {
 351:../../applications/murata-dualstack-example-ns/src/murata-dualstack-example-ns.c ****     uint8_t dash7Message[5];
 281              		.loc 1 351 5 is_stmt 1 view .LVU67
 352:../../applications/murata-dualstack-example-ns/src/murata-dualstack-example-ns.c ****     uint8_t i = 0;
 282              		.loc 1 352 5 view .LVU68
 283              	.LVL23:
 353:../../applications/murata-dualstack-example-ns/src/murata-dualstack-example-ns.c ****     //uint16 counter to uint8 array (little endian)
 354:../../applications/murata-dualstack-example-ns/src/murata-dualstack-example-ns.c ****     //counter (large) type byte
 355:../../applications/murata-dualstack-example-ns/src/murata-dualstack-example-ns.c ****     dash7Message[i++] = SHTData[0];
 284              		.loc 1 355 5 view .LVU69
 285              		.loc 1 355 32 is_stmt 0 view .LVU70
 286 000a 174A     		ldr	r2, .L23+4
 287 000c D2ED007A 		vldr.32	s15, [r2]
 288              	.LVL24:
 289              		.loc 1 355 23 view .LVU71
 290 0010 FCEEE77A 		vcvt.u32.f32	s15, s15
 291 0014 17EE903A 		vmov	r3, s15	@ int
 292 0018 8DF80030 		strb	r3, [sp]
 356:../../applications/murata-dualstack-example-ns/src/murata-dualstack-example-ns.c ****     dash7Message[i++] = SHTData[1];
 293              		.loc 1 356 5 is_stmt 1 view .LVU72
 294              		.loc 1 356 32 is_stmt 0 view .LVU73
 295 001c D2ED017A 		vldr.32	s15, [r2, #4]
 296              	.LVL25:
 297              		.loc 1 356 23 view .LVU74
 298 0020 FCEEE77A 		vcvt.u32.f32	s15, s15
 299 0024 17EE903A 		vmov	r3, s15	@ int
 300 0028 8DF80130 		strb	r3, [sp, #1]
 357:../../applications/murata-dualstack-example-ns/src/murata-dualstack-example-ns.c ****     dash7Message[i++] = 0x00;
 301              		.loc 1 357 5 is_stmt 1 view .LVU75
 302              	.LVL26:
 303              		.loc 1 357 23 is_stmt 0 view .LVU76
 304 002c 0023     		movs	r3, #0
 305 002e 8DF80230 		strb	r3, [sp, #2]
 358:../../applications/murata-dualstack-example-ns/src/murata-dualstack-example-ns.c ****     //osMutexWait(txMutexId, osWaitForever);
 359:../../applications/murata-dualstack-example-ns/src/murata-dualstack-example-ns.c ****     if(!Murata_Dash7_Send((uint8_t *)dash7Message, i))
 306              		.loc 1 359 5 is_stmt 1 view .LVU77
 307              		.loc 1 359 9 is_stmt 0 view .LVU78
 308 0032 0321     		movs	r1, #3
 309 0034 6846     		mov	r0, sp
 310              	.LVL27:
 311              		.loc 1 359 9 view .LVU79
 312 0036 FFF7FEFF 		bl	Murata_Dash7_Send
 313              	.LVL28:
 314              		.loc 1 359 7 view .LVU80
 315 003a 50B9     		cbnz	r0, .L19
 360:../../applications/murata-dualstack-example-ns/src/murata-dualstack-example-ns.c ****     {
 361:../../applications/murata-dualstack-example-ns/src/murata-dualstack-example-ns.c ****       murata_init++;
 316              		.loc 1 361 7 is_stmt 1 view .LVU81
 317              		.loc 1 361 18 is_stmt 0 view .LVU82
 318 003c 094A     		ldr	r2, .L23
ARM GAS  C:\Users\yvesk\AppData\Local\Temp\ccw5KjUM.s 			page 13


 319 003e 1378     		ldrb	r3, [r2]	@ zero_extendqisi2
 320 0040 0133     		adds	r3, r3, #1
 321 0042 1370     		strb	r3, [r2]
 362:../../applications/murata-dualstack-example-ns/src/murata-dualstack-example-ns.c ****       if(murata_init == 10)
 322              		.loc 1 362 7 is_stmt 1 view .LVU83
 323              	.L20:
 363:../../applications/murata-dualstack-example-ns/src/murata-dualstack-example-ns.c ****         murata_init == 0;
 364:../../applications/murata-dualstack-example-ns/src/murata-dualstack-example-ns.c ****     }
 365:../../applications/murata-dualstack-example-ns/src/murata-dualstack-example-ns.c ****     else
 366:../../applications/murata-dualstack-example-ns/src/murata-dualstack-example-ns.c ****     {
 367:../../applications/murata-dualstack-example-ns/src/murata-dualstack-example-ns.c ****       murata_init = 1;
 368:../../applications/murata-dualstack-example-ns/src/murata-dualstack-example-ns.c ****     }
 369:../../applications/murata-dualstack-example-ns/src/murata-dualstack-example-ns.c ****     //BLOCK TX MUTEX FOR 3s
 370:../../applications/murata-dualstack-example-ns/src/murata-dualstack-example-ns.c ****     //osDelay(3000);
 371:../../applications/murata-dualstack-example-ns/src/murata-dualstack-example-ns.c ****     //osMutexRelease(txMutexId);
 372:../../applications/murata-dualstack-example-ns/src/murata-dualstack-example-ns.c ****     DASH7_Counter++;
 324              		.loc 1 372 5 discriminator 1 view .LVU84
 325              		.loc 1 372 18 is_stmt 0 discriminator 1 view .LVU85
 326 0044 094A     		ldr	r2, .L23+8
 327 0046 1388     		ldrh	r3, [r2]
 328 0048 0133     		adds	r3, r3, #1
 329 004a 1380     		strh	r3, [r2]	@ movhi
 330              	.LVL29:
 331              	.L17:
 332              		.loc 1 372 18 discriminator 1 view .LVU86
 333              	.LBE6:
 373:../../applications/murata-dualstack-example-ns/src/murata-dualstack-example-ns.c ****   }
 374:../../applications/murata-dualstack-example-ns/src/murata-dualstack-example-ns.c ****   else{
 375:../../applications/murata-dualstack-example-ns/src/murata-dualstack-example-ns.c ****     printf("murata not initialized, not sending\r\n");
 376:../../applications/murata-dualstack-example-ns/src/murata-dualstack-example-ns.c ****   }
 377:../../applications/murata-dualstack-example-ns/src/murata-dualstack-example-ns.c **** }
 334              		.loc 1 377 1 view .LVU87
 335 004c 03B0     		add	sp, sp, #12
 336              	.LCFI10:
 337              		.cfi_remember_state
 338              		.cfi_def_cfa_offset 4
 339              		@ sp needed
 340 004e 5DF804FB 		ldr	pc, [sp], #4
 341              	.LVL30:
 342              	.L19:
 343              	.LCFI11:
 344              		.cfi_restore_state
 345              	.LBB7:
 367:../../applications/murata-dualstack-example-ns/src/murata-dualstack-example-ns.c ****     }
 346              		.loc 1 367 7 is_stmt 1 view .LVU88
 367:../../applications/murata-dualstack-example-ns/src/murata-dualstack-example-ns.c ****     }
 347              		.loc 1 367 19 is_stmt 0 view .LVU89
 348 0052 044B     		ldr	r3, .L23
 349 0054 0122     		movs	r2, #1
 350 0056 1A70     		strb	r2, [r3]
 351 0058 F4E7     		b	.L20
 352              	.LVL31:
 353              	.L18:
 367:../../applications/murata-dualstack-example-ns/src/murata-dualstack-example-ns.c ****     }
 354              		.loc 1 367 19 view .LVU90
 355              	.LBE7:
 375:../../applications/murata-dualstack-example-ns/src/murata-dualstack-example-ns.c ****   }
ARM GAS  C:\Users\yvesk\AppData\Local\Temp\ccw5KjUM.s 			page 14


 356              		.loc 1 375 5 is_stmt 1 view .LVU91
 357 005a 0548     		ldr	r0, .L23+12
 358              	.LVL32:
 375:../../applications/murata-dualstack-example-ns/src/murata-dualstack-example-ns.c ****   }
 359              		.loc 1 375 5 is_stmt 0 view .LVU92
 360 005c FFF7FEFF 		bl	puts
 361              	.LVL33:
 362              		.loc 1 377 1 view .LVU93
 363 0060 F4E7     		b	.L17
 364              	.L24:
 365 0062 00BF     		.align	2
 366              	.L23:
 367 0064 00000000 		.word	.LANCHOR0
 368 0068 00000000 		.word	SHTData
 369 006c 00000000 		.word	.LANCHOR2
 370 0070 00000000 		.word	.LC0
 371              		.cfi_endproc
 372              	.LFE135:
 374              		.global	__aeabi_f2d
 375              		.section	.text.print_temp_hum,"ax",%progbits
 376              		.align	1
 377              		.global	print_temp_hum
 378              		.syntax unified
 379              		.thumb
 380              		.thumb_func
 381              		.fpu fpv4-sp-d16
 383              	print_temp_hum:
 384              	.LFB136:
 378:../../applications/murata-dualstack-example-ns/src/murata-dualstack-example-ns.c **** 
 379:../../applications/murata-dualstack-example-ns/src/murata-dualstack-example-ns.c **** void print_temp_hum(void){
 385              		.loc 1 379 26 is_stmt 1 view -0
 386              		.cfi_startproc
 387              		@ args = 0, pretend = 0, frame = 0
 388              		@ frame_needed = 0, uses_anonymous_args = 0
 389 0000 38B5     		push	{r3, r4, r5, lr}
 390              	.LCFI12:
 391              		.cfi_def_cfa_offset 16
 392              		.cfi_offset 3, -16
 393              		.cfi_offset 4, -12
 394              		.cfi_offset 5, -8
 395              		.cfi_offset 14, -4
 380:../../applications/murata-dualstack-example-ns/src/murata-dualstack-example-ns.c ****   printf("\r\n");
 396              		.loc 1 380 3 view .LVU95
 397 0002 0C4C     		ldr	r4, .L27
 398 0004 2046     		mov	r0, r4
 399 0006 FFF7FEFF 		bl	puts
 400              	.LVL34:
 381:../../applications/murata-dualstack-example-ns/src/murata-dualstack-example-ns.c ****   printf("Temperature: %.2f C  \r\n", SHTData[0]);
 401              		.loc 1 381 3 view .LVU96
 402              		.loc 1 381 48 is_stmt 0 view .LVU97
 403 000a 0B4D     		ldr	r5, .L27+4
 404              		.loc 1 381 3 view .LVU98
 405 000c 2868     		ldr	r0, [r5]	@ float
 406 000e FFF7FEFF 		bl	__aeabi_f2d
 407              	.LVL35:
 408 0012 0246     		mov	r2, r0
 409 0014 0B46     		mov	r3, r1
ARM GAS  C:\Users\yvesk\AppData\Local\Temp\ccw5KjUM.s 			page 15


 410 0016 0948     		ldr	r0, .L27+8
 411 0018 FFF7FEFF 		bl	printf
 412              	.LVL36:
 382:../../applications/murata-dualstack-example-ns/src/murata-dualstack-example-ns.c ****   printf("Humidity: %.2f %% \r\n", SHTData[1]);
 413              		.loc 1 382 3 is_stmt 1 view .LVU99
 414 001c 6868     		ldr	r0, [r5, #4]	@ float
 415 001e FFF7FEFF 		bl	__aeabi_f2d
 416              	.LVL37:
 417 0022 0246     		mov	r2, r0
 418 0024 0B46     		mov	r3, r1
 419 0026 0648     		ldr	r0, .L27+12
 420 0028 FFF7FEFF 		bl	printf
 421              	.LVL38:
 383:../../applications/murata-dualstack-example-ns/src/murata-dualstack-example-ns.c ****   printf("\r\n");
 422              		.loc 1 383 3 view .LVU100
 423 002c 2046     		mov	r0, r4
 424 002e FFF7FEFF 		bl	puts
 425              	.LVL39:
 384:../../applications/murata-dualstack-example-ns/src/murata-dualstack-example-ns.c **** }
 426              		.loc 1 384 1 is_stmt 0 view .LVU101
 427 0032 38BD     		pop	{r3, r4, r5, pc}
 428              	.L28:
 429              		.align	2
 430              	.L27:
 431 0034 00000000 		.word	.LC1
 432 0038 00000000 		.word	SHTData
 433 003c 04000000 		.word	.LC2
 434 0040 20000000 		.word	.LC3
 435              		.cfi_endproc
 436              	.LFE136:
 438              		.section	.text.temp_hum_measurement,"ax",%progbits
 439              		.align	1
 440              		.global	temp_hum_measurement
 441              		.syntax unified
 442              		.thumb
 443              		.thumb_func
 444              		.fpu fpv4-sp-d16
 446              	temp_hum_measurement:
 447              	.LFB137:
 385:../../applications/murata-dualstack-example-ns/src/murata-dualstack-example-ns.c **** 
 386:../../applications/murata-dualstack-example-ns/src/murata-dualstack-example-ns.c **** void temp_hum_measurement(void){
 448              		.loc 1 386 32 is_stmt 1 view -0
 449              		.cfi_startproc
 450              		@ args = 0, pretend = 0, frame = 0
 451              		@ frame_needed = 0, uses_anonymous_args = 0
 452 0000 08B5     		push	{r3, lr}
 453              	.LCFI13:
 454              		.cfi_def_cfa_offset 8
 455              		.cfi_offset 3, -8
 456              		.cfi_offset 14, -4
 387:../../applications/murata-dualstack-example-ns/src/murata-dualstack-example-ns.c **** 
 388:../../applications/murata-dualstack-example-ns/src/murata-dualstack-example-ns.c ****   SHT31_get_temp_hum(SHTData);
 457              		.loc 1 388 3 view .LVU103
 458 0002 0348     		ldr	r0, .L31
 459 0004 FFF7FEFF 		bl	SHT31_get_temp_hum
 460              	.LVL40:
 389:../../applications/murata-dualstack-example-ns/src/murata-dualstack-example-ns.c ****   print_temp_hum();
ARM GAS  C:\Users\yvesk\AppData\Local\Temp\ccw5KjUM.s 			page 16


 461              		.loc 1 389 3 view .LVU104
 462 0008 FFF7FEFF 		bl	print_temp_hum
 463              	.LVL41:
 390:../../applications/murata-dualstack-example-ns/src/murata-dualstack-example-ns.c **** }
 464              		.loc 1 390 1 is_stmt 0 view .LVU105
 465 000c 08BD     		pop	{r3, pc}
 466              	.L32:
 467 000e 00BF     		.align	2
 468              	.L31:
 469 0010 00000000 		.word	SHTData
 470              		.cfi_endproc
 471              	.LFE137:
 473              		.section	.text.HAL_UART_RxCpltCallback,"ax",%progbits
 474              		.align	1
 475              		.global	HAL_UART_RxCpltCallback
 476              		.syntax unified
 477              		.thumb
 478              		.thumb_func
 479              		.fpu fpv4-sp-d16
 481              	HAL_UART_RxCpltCallback:
 482              	.LVL42:
 483              	.LFB138:
 391:../../applications/murata-dualstack-example-ns/src/murata-dualstack-example-ns.c **** 
 392:../../applications/murata-dualstack-example-ns/src/murata-dualstack-example-ns.c **** // UART RX CALLBACK
 393:../../applications/murata-dualstack-example-ns/src/murata-dualstack-example-ns.c **** void HAL_UART_RxCpltCallback(UART_HandleTypeDef *huart)
 394:../../applications/murata-dualstack-example-ns/src/murata-dualstack-example-ns.c **** {
 484              		.loc 1 394 1 is_stmt 1 view -0
 485              		.cfi_startproc
 486              		@ args = 0, pretend = 0, frame = 0
 487              		@ frame_needed = 0, uses_anonymous_args = 0
 488              		.loc 1 394 1 is_stmt 0 view .LVU107
 489 0000 08B5     		push	{r3, lr}
 490              	.LCFI14:
 491              		.cfi_def_cfa_offset 8
 492              		.cfi_offset 3, -8
 493              		.cfi_offset 14, -4
 395:../../applications/murata-dualstack-example-ns/src/murata-dualstack-example-ns.c ****   if (huart == &P1_UART)
 494              		.loc 1 395 3 is_stmt 1 view .LVU108
 495              		.loc 1 395 6 is_stmt 0 view .LVU109
 496 0002 054B     		ldr	r3, .L37
 497 0004 8342     		cmp	r3, r0
 498 0006 00D0     		beq	.L36
 499              	.LVL43:
 500              	.L33:
 396:../../applications/murata-dualstack-example-ns/src/murata-dualstack-example-ns.c ****   {
 397:../../applications/murata-dualstack-example-ns/src/murata-dualstack-example-ns.c ****     Murata_rxCallback();
 398:../../applications/murata-dualstack-example-ns/src/murata-dualstack-example-ns.c ****     murata_data_ready = 1;
 399:../../applications/murata-dualstack-example-ns/src/murata-dualstack-example-ns.c ****   }
 400:../../applications/murata-dualstack-example-ns/src/murata-dualstack-example-ns.c **** }
 501              		.loc 1 400 1 view .LVU110
 502 0008 08BD     		pop	{r3, pc}
 503              	.LVL44:
 504              	.L36:
 397:../../applications/murata-dualstack-example-ns/src/murata-dualstack-example-ns.c ****     murata_data_ready = 1;
 505              		.loc 1 397 5 is_stmt 1 view .LVU111
 506 000a FFF7FEFF 		bl	Murata_rxCallback
 507              	.LVL45:
ARM GAS  C:\Users\yvesk\AppData\Local\Temp\ccw5KjUM.s 			page 17


 398:../../applications/murata-dualstack-example-ns/src/murata-dualstack-example-ns.c ****   }
 508              		.loc 1 398 5 view .LVU112
 398:../../applications/murata-dualstack-example-ns/src/murata-dualstack-example-ns.c ****   }
 509              		.loc 1 398 23 is_stmt 0 view .LVU113
 510 000e 034B     		ldr	r3, .L37+4
 511 0010 0122     		movs	r2, #1
 512 0012 1A70     		strb	r2, [r3]
 513              		.loc 1 400 1 view .LVU114
 514 0014 F8E7     		b	.L33
 515              	.L38:
 516 0016 00BF     		.align	2
 517              	.L37:
 518 0018 00000000 		.word	P1_UART
 519 001c 00000000 		.word	.LANCHOR3
 520              		.cfi_endproc
 521              	.LFE138:
 523              		.section	.text.vApplicationIdleHook,"ax",%progbits
 524              		.align	1
 525              		.global	vApplicationIdleHook
 526              		.syntax unified
 527              		.thumb
 528              		.thumb_func
 529              		.fpu fpv4-sp-d16
 531              	vApplicationIdleHook:
 532              	.LFB139:
 401:../../applications/murata-dualstack-example-ns/src/murata-dualstack-example-ns.c **** 
 402:../../applications/murata-dualstack-example-ns/src/murata-dualstack-example-ns.c **** void vApplicationIdleHook(){
 533              		.loc 1 402 28 is_stmt 1 view -0
 534              		.cfi_startproc
 535              		@ args = 0, pretend = 0, frame = 0
 536              		@ frame_needed = 0, uses_anonymous_args = 0
 537              		@ link register save eliminated.
 403:../../applications/murata-dualstack-example-ns/src/murata-dualstack-example-ns.c ****   #if LOW_POWER
 404:../../applications/murata-dualstack-example-ns/src/murata-dualstack-example-ns.c ****     HAL_PWR_EnterSLEEPMode(PWR_MAINREGULATOR_ON, PWR_SLEEPENTRY_WFE);
 405:../../applications/murata-dualstack-example-ns/src/murata-dualstack-example-ns.c ****   #endif
 406:../../applications/murata-dualstack-example-ns/src/murata-dualstack-example-ns.c **** }
 538              		.loc 1 406 1 view .LVU116
 539 0000 7047     		bx	lr
 540              		.cfi_endproc
 541              	.LFE139:
 543              		.section	.text.printWelcome,"ax",%progbits
 544              		.align	1
 545              		.global	printWelcome
 546              		.syntax unified
 547              		.thumb
 548              		.thumb_func
 549              		.fpu fpv4-sp-d16
 551              	printWelcome:
 552              	.LFB140:
 407:../../applications/murata-dualstack-example-ns/src/murata-dualstack-example-ns.c **** 
 408:../../applications/murata-dualstack-example-ns/src/murata-dualstack-example-ns.c **** void printWelcome(void)
 409:../../applications/murata-dualstack-example-ns/src/murata-dualstack-example-ns.c **** {
 553              		.loc 1 409 1 view -0
 554              		.cfi_startproc
 555              		@ args = 0, pretend = 0, frame = 8
 556              		@ frame_needed = 0, uses_anonymous_args = 0
 557 0000 30B5     		push	{r4, r5, lr}
ARM GAS  C:\Users\yvesk\AppData\Local\Temp\ccw5KjUM.s 			page 18


 558              	.LCFI15:
 559              		.cfi_def_cfa_offset 12
 560              		.cfi_offset 4, -12
 561              		.cfi_offset 5, -8
 562              		.cfi_offset 14, -4
 563 0002 83B0     		sub	sp, sp, #12
 564              	.LCFI16:
 565              		.cfi_def_cfa_offset 24
 410:../../applications/murata-dualstack-example-ns/src/murata-dualstack-example-ns.c ****   printf("\r\n");
 566              		.loc 1 410 3 view .LVU118
 567 0004 1A4C     		ldr	r4, .L45
 568 0006 2046     		mov	r0, r4
 569 0008 FFF7FEFF 		bl	puts
 570              	.LVL46:
 411:../../applications/murata-dualstack-example-ns/src/murata-dualstack-example-ns.c ****   printf("*****************************************\r\n");
 571              		.loc 1 411 3 view .LVU119
 572 000c 194D     		ldr	r5, .L45+4
 573 000e 2846     		mov	r0, r5
 574 0010 FFF7FEFF 		bl	puts
 575              	.LVL47:
 412:../../applications/murata-dualstack-example-ns/src/murata-dualstack-example-ns.c ****   printf("Murata Dual Stack example without scheduler\r\n");
 576              		.loc 1 412 3 view .LVU120
 577 0014 1848     		ldr	r0, .L45+8
 578 0016 FFF7FEFF 		bl	puts
 579              	.LVL48:
 413:../../applications/murata-dualstack-example-ns/src/murata-dualstack-example-ns.c ****   printf("*****************************************\r\n");
 580              		.loc 1 413 3 view .LVU121
 581 001a 2846     		mov	r0, r5
 582 001c FFF7FEFF 		bl	puts
 583              	.LVL49:
 414:../../applications/murata-dualstack-example-ns/src/murata-dualstack-example-ns.c ****   printf("\r\n");
 584              		.loc 1 414 3 view .LVU122
 585 0020 2046     		mov	r0, r4
 586 0022 FFF7FEFF 		bl	puts
 587              	.LVL50:
 415:../../applications/murata-dualstack-example-ns/src/murata-dualstack-example-ns.c ****   char UIDString[sizeof(short_UID)];
 588              		.loc 1 415 3 view .LVU123
 416:../../applications/murata-dualstack-example-ns/src/murata-dualstack-example-ns.c ****   memcpy(UIDString, &short_UID, sizeof(short_UID));
 589              		.loc 1 416 3 view .LVU124
 590 0026 154B     		ldr	r3, .L45+12
 591 0028 6C46     		mov	r4, sp
 592 002a 93E80300 		ldm	r3, {r0, r1}
 593 002e 84E80300 		stm	r4, {r0, r1}
 417:../../applications/murata-dualstack-example-ns/src/murata-dualstack-example-ns.c ****   printf("octa ID: ");
 594              		.loc 1 417 3 view .LVU125
 595 0032 1348     		ldr	r0, .L45+16
 596 0034 FFF7FEFF 		bl	printf
 597              	.LVL51:
 418:../../applications/murata-dualstack-example-ns/src/murata-dualstack-example-ns.c ****   for (const char* p = UIDString; *p; ++p)
 598              		.loc 1 418 3 view .LVU126
 599              	.LBB8:
 600              		.loc 1 418 8 view .LVU127
 601              	.L41:
 602              		.loc 1 418 35 is_stmt 0 discriminator 1 view .LVU128
 603 0038 2178     		ldrb	r1, [r4]	@ zero_extendqisi2
 604              		.loc 1 418 3 discriminator 1 view .LVU129
 605 003a 21B1     		cbz	r1, .L44
ARM GAS  C:\Users\yvesk\AppData\Local\Temp\ccw5KjUM.s 			page 19


 419:../../applications/murata-dualstack-example-ns/src/murata-dualstack-example-ns.c ****     {
 420:../../applications/murata-dualstack-example-ns/src/murata-dualstack-example-ns.c ****         printf("%02x", *p);
 606              		.loc 1 420 9 is_stmt 1 discriminator 3 view .LVU130
 607 003c 1148     		ldr	r0, .L45+20
 608 003e FFF7FEFF 		bl	printf
 609              	.LVL52:
 418:../../applications/murata-dualstack-example-ns/src/murata-dualstack-example-ns.c ****   for (const char* p = UIDString; *p; ++p)
 610              		.loc 1 418 39 is_stmt 0 discriminator 3 view .LVU131
 611 0042 0134     		adds	r4, r4, #1
 612              	.LVL53:
 418:../../applications/murata-dualstack-example-ns/src/murata-dualstack-example-ns.c ****   for (const char* p = UIDString; *p; ++p)
 613              		.loc 1 418 39 discriminator 3 view .LVU132
 614 0044 F8E7     		b	.L41
 615              	.L44:
 418:../../applications/murata-dualstack-example-ns/src/murata-dualstack-example-ns.c ****   for (const char* p = UIDString; *p; ++p)
 616              		.loc 1 418 39 discriminator 3 view .LVU133
 617              	.LBE8:
 421:../../applications/murata-dualstack-example-ns/src/murata-dualstack-example-ns.c ****     }
 422:../../applications/murata-dualstack-example-ns/src/murata-dualstack-example-ns.c ****   printf("\r\n\r\n");
 618              		.loc 1 422 3 is_stmt 1 view .LVU134
 619 0046 1048     		ldr	r0, .L45+24
 620 0048 FFF7FEFF 		bl	puts
 621              	.LVL54:
 423:../../applications/murata-dualstack-example-ns/src/murata-dualstack-example-ns.c ****   HAL_GPIO_TogglePin(OCTA_BLED_GPIO_Port, OCTA_BLED_Pin);
 622              		.loc 1 423 3 view .LVU135
 623 004c 0F4C     		ldr	r4, .L45+28
 624              	.LVL55:
 625              		.loc 1 423 3 is_stmt 0 view .LVU136
 626 004e 4FF40041 		mov	r1, #32768
 627 0052 2046     		mov	r0, r4
 628 0054 FFF7FEFF 		bl	HAL_GPIO_TogglePin
 629              	.LVL56:
 424:../../applications/murata-dualstack-example-ns/src/murata-dualstack-example-ns.c ****   HAL_Delay(2000);
 630              		.loc 1 424 3 is_stmt 1 view .LVU137
 631 0058 4FF4FA60 		mov	r0, #2000
 632 005c FFF7FEFF 		bl	HAL_Delay
 633              	.LVL57:
 425:../../applications/murata-dualstack-example-ns/src/murata-dualstack-example-ns.c ****   HAL_GPIO_TogglePin(OCTA_BLED_GPIO_Port, OCTA_BLED_Pin);
 634              		.loc 1 425 3 view .LVU138
 635 0060 4FF40041 		mov	r1, #32768
 636 0064 2046     		mov	r0, r4
 637 0066 FFF7FEFF 		bl	HAL_GPIO_TogglePin
 638              	.LVL58:
 426:../../applications/murata-dualstack-example-ns/src/murata-dualstack-example-ns.c **** }
 639              		.loc 1 426 1 is_stmt 0 view .LVU139
 640 006a 03B0     		add	sp, sp, #12
 641              	.LCFI17:
 642              		.cfi_def_cfa_offset 12
 643              		@ sp needed
 644 006c 30BD     		pop	{r4, r5, pc}
 645              	.L46:
 646 006e 00BF     		.align	2
 647              	.L45:
 648 0070 00000000 		.word	.LC1
 649 0074 00000000 		.word	.LC4
 650 0078 2C000000 		.word	.LC5
 651 007c 00000000 		.word	short_UID
ARM GAS  C:\Users\yvesk\AppData\Local\Temp\ccw5KjUM.s 			page 20


 652 0080 5C000000 		.word	.LC6
 653 0084 68000000 		.word	.LC7
 654 0088 70000000 		.word	.LC8
 655 008c 000C0048 		.word	1207962624
 656              		.cfi_endproc
 657              	.LFE140:
 659              		.section	.text.main,"ax",%progbits
 660              		.align	1
 661              		.global	main
 662              		.syntax unified
 663              		.thumb
 664              		.thumb_func
 665              		.fpu fpv4-sp-d16
 667              	main:
 668              	.LFB132:
 107:../../applications/murata-dualstack-example-ns/src/murata-dualstack-example-ns.c ****   /* USER CODE BEGIN 1 */
 669              		.loc 1 107 1 is_stmt 1 view -0
 670              		.cfi_startproc
 671              		@ args = 0, pretend = 0, frame = 0
 672              		@ frame_needed = 0, uses_anonymous_args = 0
 673 0000 38B5     		push	{r3, r4, r5, lr}
 674              	.LCFI18:
 675              		.cfi_def_cfa_offset 16
 676              		.cfi_offset 3, -16
 677              		.cfi_offset 4, -12
 678              		.cfi_offset 5, -8
 679              		.cfi_offset 14, -4
 115:../../applications/murata-dualstack-example-ns/src/murata-dualstack-example-ns.c **** 
 680              		.loc 1 115 3 view .LVU141
 681 0002 FFF7FEFF 		bl	HAL_Init
 682              	.LVL59:
 122:../../applications/murata-dualstack-example-ns/src/murata-dualstack-example-ns.c **** 
 683              		.loc 1 122 3 view .LVU142
 684 0006 FFF7FEFF 		bl	SystemClock_Config
 685              	.LVL60:
 129:../../applications/murata-dualstack-example-ns/src/murata-dualstack-example-ns.c ****   /* USER CODE BEGIN 2 */
 686              		.loc 1 129 3 view .LVU143
 687 000a FFF7FEFF 		bl	Initialize_Platform
 688              	.LVL61:
 133:../../applications/murata-dualstack-example-ns/src/murata-dualstack-example-ns.c **** 
 689              		.loc 1 133 3 view .LVU144
 133:../../applications/murata-dualstack-example-ns/src/murata-dualstack-example-ns.c **** 
 690              		.loc 1 133 15 is_stmt 0 view .LVU145
 691 000e FFF7FEFF 		bl	get_UID
 692              	.LVL62:
 133:../../applications/murata-dualstack-example-ns/src/murata-dualstack-example-ns.c **** 
 693              		.loc 1 133 13 view .LVU146
 694 0012 324C     		ldr	r4, .L59
 695 0014 C4E90001 		strd	r0, [r4]
 136:../../applications/murata-dualstack-example-ns/src/murata-dualstack-example-ns.c ****   setI2CInterface_SHT31(&common_I2C);
 696              		.loc 1 136 3 is_stmt 1 view .LVU147
 697 0018 314D     		ldr	r5, .L59+4
 698 001a 2846     		mov	r0, r5
 699 001c FFF7FEFF 		bl	LSM303AGR_setI2CInterface
 700              	.LVL63:
 137:../../applications/murata-dualstack-example-ns/src/murata-dualstack-example-ns.c ****   SHT31_begin(); 
 701              		.loc 1 137 3 view .LVU148
ARM GAS  C:\Users\yvesk\AppData\Local\Temp\ccw5KjUM.s 			page 21


 702 0020 2846     		mov	r0, r5
 703 0022 FFF7FEFF 		bl	setI2CInterface_SHT31
 704              	.LVL64:
 138:../../applications/murata-dualstack-example-ns/src/murata-dualstack-example-ns.c ****   LSM303AGR_init();
 705              		.loc 1 138 3 view .LVU149
 706 0026 FFF7FEFF 		bl	SHT31_begin
 707              	.LVL65:
 139:../../applications/murata-dualstack-example-ns/src/murata-dualstack-example-ns.c **** 
 708              		.loc 1 139 3 view .LVU150
 709 002a FFF7FEFF 		bl	LSM303AGR_init
 710              	.LVL66:
 142:../../applications/murata-dualstack-example-ns/src/murata-dualstack-example-ns.c ****   
 711              		.loc 1 142 3 view .LVU151
 712 002e FFF7FEFF 		bl	printWelcome
 713              	.LVL67:
 145:../../applications/murata-dualstack-example-ns/src/murata-dualstack-example-ns.c **** 
 714              		.loc 1 145 3 view .LVU152
 145:../../applications/murata-dualstack-example-ns/src/murata-dualstack-example-ns.c **** 
 715              		.loc 1 145 17 is_stmt 0 view .LVU153
 716 0032 0022     		movs	r2, #0
 717 0034 D4E90001 		ldrd	r0, [r4]
 718 0038 FFF7FEFF 		bl	Murata_Initialize
 719              	.LVL68:
 145:../../applications/murata-dualstack-example-ns/src/murata-dualstack-example-ns.c **** 
 720              		.loc 1 145 15 view .LVU154
 721 003c 294B     		ldr	r3, .L59+8
 722 003e 1870     		strb	r0, [r3]
 147:../../applications/murata-dualstack-example-ns/src/murata-dualstack-example-ns.c ****   {
 723              		.loc 1 147 3 is_stmt 1 view .LVU155
 147:../../applications/murata-dualstack-example-ns/src/murata-dualstack-example-ns.c ****   {
 724              		.loc 1 147 6 is_stmt 0 view .LVU156
 725 0040 18B9     		cbnz	r0, .L55
 726              	.L48:
 172:../../applications/murata-dualstack-example-ns/src/murata-dualstack-example-ns.c **** 
 727              		.loc 1 172 3 is_stmt 1 view .LVU157
 728 0042 0020     		movs	r0, #0
 729 0044 FFF7FEFF 		bl	IWDG_feed
 730              	.LVL69:
 190:../../applications/murata-dualstack-example-ns/src/murata-dualstack-example-ns.c ****   uint8_t use_lora = 1;
 731              		.loc 1 190 3 view .LVU158
 191:../../applications/murata-dualstack-example-ns/src/murata-dualstack-example-ns.c ****   /* USER CODE BEGIN WHILE */
 732              		.loc 1 191 3 view .LVU159
 191:../../applications/murata-dualstack-example-ns/src/murata-dualstack-example-ns.c ****   /* USER CODE BEGIN WHILE */
 733              		.loc 1 191 3 is_stmt 0 view .LVU160
 734 0048 23E0     		b	.L53
 735              	.LVL70:
 736              	.L55:
 149:../../applications/murata-dualstack-example-ns/src/murata-dualstack-example-ns.c ****   }
 737              		.loc 1 149 5 is_stmt 1 view .LVU161
 738 004a 2748     		ldr	r0, .L59+12
 739 004c FFF7FEFF 		bl	puts
 740              	.LVL71:
 741 0050 F7E7     		b	.L48
 742              	.LVL72:
 743              	.L56:
 199:../../applications/murata-dualstack-example-ns/src/murata-dualstack-example-ns.c ****       murata_data_ready = !Murata_process_fifo();
 744              		.loc 1 199 7 view .LVU162
ARM GAS  C:\Users\yvesk\AppData\Local\Temp\ccw5KjUM.s 			page 22


 745 0052 2648     		ldr	r0, .L59+16
 746 0054 FFF7FEFF 		bl	puts
 747              	.LVL73:
 200:../../applications/murata-dualstack-example-ns/src/murata-dualstack-example-ns.c ****     }
 748              		.loc 1 200 7 view .LVU163
 200:../../applications/murata-dualstack-example-ns/src/murata-dualstack-example-ns.c ****     }
 749              		.loc 1 200 28 is_stmt 0 view .LVU164
 750 0058 FFF7FEFF 		bl	Murata_process_fifo
 751              	.LVL74:
 200:../../applications/murata-dualstack-example-ns/src/murata-dualstack-example-ns.c ****     }
 752              		.loc 1 200 27 view .LVU165
 753 005c B0FA80F0 		clz	r0, r0
 754 0060 4009     		lsrs	r0, r0, #5
 200:../../applications/murata-dualstack-example-ns/src/murata-dualstack-example-ns.c ****     }
 755              		.loc 1 200 25 view .LVU166
 756 0062 234B     		ldr	r3, .L59+20
 757 0064 1870     		strb	r0, [r3]
 758 0066 1BE0     		b	.L49
 759              	.L57:
 218:../../applications/murata-dualstack-example-ns/src/murata-dualstack-example-ns.c ****       //HAL_PWR_EnterSLEEPMode(PWR_MAINREGULATOR_ON, PWR_SLEEPENTRY_WFI);
 760              		.loc 1 218 9 is_stmt 1 view .LVU167
 761 0068 2248     		ldr	r0, .L59+24
 762 006a FFF7FEFF 		bl	puts
 763              	.LVL75:
 220:../../applications/murata-dualstack-example-ns/src/murata-dualstack-example-ns.c ****       }
 764              		.loc 1 220 7 view .LVU168
 765 006e 2248     		ldr	r0, .L59+28
 766 0070 FFF7FEFF 		bl	puts
 767              	.LVL76:
 768 0074 26E0     		b	.L51
 769              	.L58:
 770              	.LBB9:
 226:../../applications/murata-dualstack-example-ns/src/murata-dualstack-example-ns.c ****       
 771              		.loc 1 226 9 view .LVU169
 772 0076 2148     		ldr	r0, .L59+32
 773 0078 FFF7FEFF 		bl	puts
 774              	.LVL77:
 228:../../applications/murata-dualstack-example-ns/src/murata-dualstack-example-ns.c ****           //LoRaWAN_send(&payload);
 775              		.loc 1 228 11 view .LVU170
 776 007c FFF7FEFF 		bl	temp_hum_measurement
 777              	.LVL78:
 231:../../applications/murata-dualstack-example-ns/src/murata-dualstack-example-ns.c ****       }
 778              		.loc 1 231 9 view .LVU171
 779 0080 FFF7FEFF 		bl	Dash7_send_temphum
 780              	.LVL79:
 781              	.L52:
 782              	.LBE9:
 236:../../applications/murata-dualstack-example-ns/src/murata-dualstack-example-ns.c ****     //     lora_init=Murata_Initialize(short_UID);
 783              		.loc 1 236 11 view .LVU172
 236:../../applications/murata-dualstack-example-ns/src/murata-dualstack-example-ns.c ****     //     lora_init=Murata_Initialize(short_UID);
 784              		.loc 1 236 26 is_stmt 0 view .LVU173
 785 0084 1E4B     		ldr	r3, .L59+36
 786 0086 0022     		movs	r2, #0
 787 0088 1A70     		strb	r2, [r3]
 788              	.L50:
 271:../../applications/murata-dualstack-example-ns/src/murata-dualstack-example-ns.c ****     
 789              		.loc 1 271 5 is_stmt 1 view .LVU174
ARM GAS  C:\Users\yvesk\AppData\Local\Temp\ccw5KjUM.s 			page 23


 790 008a 4FF47A70 		mov	r0, #1000
 791 008e FFF7FEFF 		bl	HAL_Delay
 792              	.LVL80:
 793              	.L53:
 193:../../applications/murata-dualstack-example-ns/src/murata-dualstack-example-ns.c ****   { 
 794              		.loc 1 193 3 view .LVU175
 195:../../applications/murata-dualstack-example-ns/src/murata-dualstack-example-ns.c **** 
 795              		.loc 1 195 5 view .LVU176
 796 0092 0020     		movs	r0, #0
 797 0094 FFF7FEFF 		bl	IWDG_feed
 798              	.LVL81:
 197:../../applications/murata-dualstack-example-ns/src/murata-dualstack-example-ns.c ****     {
 799              		.loc 1 197 5 view .LVU177
 197:../../applications/murata-dualstack-example-ns/src/murata-dualstack-example-ns.c ****     {
 800              		.loc 1 197 8 is_stmt 0 view .LVU178
 801 0098 154B     		ldr	r3, .L59+20
 802 009a 1B78     		ldrb	r3, [r3]	@ zero_extendqisi2
 197:../../applications/murata-dualstack-example-ns/src/murata-dualstack-example-ns.c ****     {
 803              		.loc 1 197 7 view .LVU179
 804 009c 002B     		cmp	r3, #0
 805 009e D8D1     		bne	.L56
 806              	.L49:
 205:../../applications/murata-dualstack-example-ns/src/murata-dualstack-example-ns.c ****     
 807              		.loc 1 205 6 is_stmt 1 view .LVU180
 808 00a0 0020     		movs	r0, #0
 809 00a2 FFF7FEFF 		bl	IWDG_feed
 810              	.LVL82:
 210:../../applications/murata-dualstack-example-ns/src/murata-dualstack-example-ns.c ****       // Request to enter SLEEP mode
 811              		.loc 1 210 5 view .LVU181
 210:../../applications/murata-dualstack-example-ns/src/murata-dualstack-example-ns.c ****       // Request to enter SLEEP mode
 812              		.loc 1 210 24 is_stmt 0 view .LVU182
 813 00a6 164B     		ldr	r3, .L59+36
 814 00a8 1B78     		ldrb	r3, [r3]	@ zero_extendqisi2
 210:../../applications/murata-dualstack-example-ns/src/murata-dualstack-example-ns.c ****       // Request to enter SLEEP mode
 815              		.loc 1 210 8 view .LVU183
 816 00aa 002B     		cmp	r3, #0
 817 00ac EDD0     		beq	.L50
 213:../../applications/murata-dualstack-example-ns/src/murata-dualstack-example-ns.c ****       printf("%d,\r\n\r\n",rep_counter);
 818              		.loc 1 213 7 is_stmt 1 view .LVU184
 213:../../applications/murata-dualstack-example-ns/src/murata-dualstack-example-ns.c ****       printf("%d,\r\n\r\n",rep_counter);
 819              		.loc 1 213 18 is_stmt 0 view .LVU185
 820 00ae 154C     		ldr	r4, .L59+40
 821 00b0 2188     		ldrh	r1, [r4]
 822 00b2 0131     		adds	r1, r1, #1
 823 00b4 89B2     		uxth	r1, r1
 824 00b6 2180     		strh	r1, [r4]	@ movhi
 214:../../applications/murata-dualstack-example-ns/src/murata-dualstack-example-ns.c **** 
 825              		.loc 1 214 7 is_stmt 1 view .LVU186
 826 00b8 1348     		ldr	r0, .L59+44
 827 00ba FFF7FEFF 		bl	printf
 828              	.LVL83:
 217:../../applications/murata-dualstack-example-ns/src/murata-dualstack-example-ns.c ****         printf("going into sleepmode\r\n"); 
 829              		.loc 1 217 7 view .LVU187
 217:../../applications/murata-dualstack-example-ns/src/murata-dualstack-example-ns.c ****         printf("going into sleepmode\r\n"); 
 830              		.loc 1 217 22 is_stmt 0 view .LVU188
 831 00be 2388     		ldrh	r3, [r4]
 217:../../applications/murata-dualstack-example-ns/src/murata-dualstack-example-ns.c ****         printf("going into sleepmode\r\n"); 
ARM GAS  C:\Users\yvesk\AppData\Local\Temp\ccw5KjUM.s 			page 24


 832              		.loc 1 217 10 view .LVU189
 833 00c0 042B     		cmp	r3, #4
 834 00c2 D1D0     		beq	.L57
 835              	.L51:
 223:../../applications/murata-dualstack-example-ns/src/murata-dualstack-example-ns.c **** 
 836              		.loc 1 223 7 is_stmt 1 view .LVU190
 223:../../applications/murata-dualstack-example-ns/src/murata-dualstack-example-ns.c **** 
 837              		.loc 1 223 19 is_stmt 0 view .LVU191
 838 00c4 0022     		movs	r2, #0
 839 00c6 054B     		ldr	r3, .L59
 840 00c8 D3E90001 		ldrd	r0, [r3]
 841 00cc FFF7FEFF 		bl	Murata_Initialize
 842              	.LVL84:
 223:../../applications/murata-dualstack-example-ns/src/murata-dualstack-example-ns.c **** 
 843              		.loc 1 223 18 view .LVU192
 844 00d0 044B     		ldr	r3, .L59+8
 845 00d2 1870     		strb	r0, [r3]
 225:../../applications/murata-dualstack-example-ns/src/murata-dualstack-example-ns.c ****         printf("Lorawan module init ok\r\n\r\n");
 846              		.loc 1 225 7 is_stmt 1 view .LVU193
 225:../../applications/murata-dualstack-example-ns/src/murata-dualstack-example-ns.c ****         printf("Lorawan module init ok\r\n\r\n");
 847              		.loc 1 225 10 is_stmt 0 view .LVU194
 848 00d4 0028     		cmp	r0, #0
 849 00d6 D5D0     		beq	.L52
 850 00d8 CDE7     		b	.L58
 851              	.L60:
 852 00da 00BF     		.align	2
 853              	.L59:
 854 00dc 00000000 		.word	short_UID
 855 00e0 00000000 		.word	common_I2C
 856 00e4 00000000 		.word	.LANCHOR0
 857 00e8 00000000 		.word	.LC9
 858 00ec 24000000 		.word	.LC10
 859 00f0 00000000 		.word	.LANCHOR3
 860 00f4 44000000 		.word	.LC12
 861 00f8 5C000000 		.word	.LC13
 862 00fc 74000000 		.word	.LC14
 863 0100 00000000 		.word	.LANCHOR4
 864 0104 00000000 		.word	.LANCHOR5
 865 0108 3C000000 		.word	.LC11
 866              		.cfi_endproc
 867              	.LFE132:
 869              		.section	.text.LoRaWAN_send_self,"ax",%progbits
 870              		.align	1
 871              		.global	LoRaWAN_send_self
 872              		.syntax unified
 873              		.thumb
 874              		.thumb_func
 875              		.fpu fpv4-sp-d16
 877              	LoRaWAN_send_self:
 878              	.LFB141:
 427:../../applications/murata-dualstack-example-ns/src/murata-dualstack-example-ns.c **** 
 428:../../applications/murata-dualstack-example-ns/src/murata-dualstack-example-ns.c **** /* USER CODE END 4 */
 429:../../applications/murata-dualstack-example-ns/src/murata-dualstack-example-ns.c **** 
 430:../../applications/murata-dualstack-example-ns/src/murata-dualstack-example-ns.c **** 
 431:../../applications/murata-dualstack-example-ns/src/murata-dualstack-example-ns.c **** void LoRaWAN_send_self()
 432:../../applications/murata-dualstack-example-ns/src/murata-dualstack-example-ns.c **** {
 879              		.loc 1 432 1 is_stmt 1 view -0
ARM GAS  C:\Users\yvesk\AppData\Local\Temp\ccw5KjUM.s 			page 25


 880              		.cfi_startproc
 881              		@ args = 0, pretend = 0, frame = 8
 882              		@ frame_needed = 0, uses_anonymous_args = 0
 883 0000 00B5     		push	{lr}
 884              	.LCFI19:
 885              		.cfi_def_cfa_offset 4
 886              		.cfi_offset 14, -4
 887 0002 83B0     		sub	sp, sp, #12
 888              	.LCFI20:
 889              		.cfi_def_cfa_offset 16
 433:../../applications/murata-dualstack-example-ns/src/murata-dualstack-example-ns.c ****   if (murata_init)
 890              		.loc 1 433 3 view .LVU196
 891              		.loc 1 433 7 is_stmt 0 view .LVU197
 892 0004 194B     		ldr	r3, .L68
 893 0006 1B78     		ldrb	r3, [r3]	@ zero_extendqisi2
 894              		.loc 1 433 6 view .LVU198
 895 0008 63B3     		cbz	r3, .L62
 896              	.LBB10:
 434:../../applications/murata-dualstack-example-ns/src/murata-dualstack-example-ns.c ****   {
 435:../../applications/murata-dualstack-example-ns/src/murata-dualstack-example-ns.c ****     uint8_t loraMessage[5];
 897              		.loc 1 435 5 is_stmt 1 view .LVU199
 436:../../applications/murata-dualstack-example-ns/src/murata-dualstack-example-ns.c ****     uint8_t i = 0;
 898              		.loc 1 436 5 view .LVU200
 899              	.LVL85:
 437:../../applications/murata-dualstack-example-ns/src/murata-dualstack-example-ns.c ****     //uint16 counter to uint8 array (little endian)
 438:../../applications/murata-dualstack-example-ns/src/murata-dualstack-example-ns.c ****     //counter (large) type byte
 439:../../applications/murata-dualstack-example-ns/src/murata-dualstack-example-ns.c **** 
 440:../../applications/murata-dualstack-example-ns/src/murata-dualstack-example-ns.c ****     //first data transfer works, but afterwards it stays in a kind of 'transmitted' loop. Find wher
 441:../../applications/murata-dualstack-example-ns/src/murata-dualstack-example-ns.c ****     loraMessage[i++] = SHTData[0];
 900              		.loc 1 441 5 view .LVU201
 901              		.loc 1 441 31 is_stmt 0 view .LVU202
 902 000a 194A     		ldr	r2, .L68+4
 903 000c D2ED007A 		vldr.32	s15, [r2]
 904              	.LVL86:
 905              		.loc 1 441 22 view .LVU203
 906 0010 FCEEE77A 		vcvt.u32.f32	s15, s15
 907 0014 17EE903A 		vmov	r3, s15	@ int
 908 0018 8DF80030 		strb	r3, [sp]
 442:../../applications/murata-dualstack-example-ns/src/murata-dualstack-example-ns.c ****     loraMessage[i++] = SHTData[1];
 909              		.loc 1 442 5 is_stmt 1 view .LVU204
 910              		.loc 1 442 31 is_stmt 0 view .LVU205
 911 001c D2ED017A 		vldr.32	s15, [r2, #4]
 912              	.LVL87:
 913              		.loc 1 442 22 view .LVU206
 914 0020 FCEEE77A 		vcvt.u32.f32	s15, s15
 915 0024 17EE903A 		vmov	r3, s15	@ int
 916 0028 8DF80130 		strb	r3, [sp, #1]
 443:../../applications/murata-dualstack-example-ns/src/murata-dualstack-example-ns.c ****     loraMessage[i++] = LoRaWAN_Counter >> 8;
 917              		.loc 1 443 5 is_stmt 1 view .LVU207
 918              	.LVL88:
 919              		.loc 1 443 22 is_stmt 0 view .LVU208
 920 002c 114B     		ldr	r3, .L68+8
 921 002e 1B88     		ldrh	r3, [r3]
 922 0030 1B0A     		lsrs	r3, r3, #8
 923 0032 8DF80230 		strb	r3, [sp, #2]
 444:../../applications/murata-dualstack-example-ns/src/murata-dualstack-example-ns.c ****    // osMutexWait(txMutexId, osWaitForever);
 445:../../applications/murata-dualstack-example-ns/src/murata-dualstack-example-ns.c ****     if(!Murata_LoRaWAN_Send((uint8_t *)loraMessage, i))
ARM GAS  C:\Users\yvesk\AppData\Local\Temp\ccw5KjUM.s 			page 26


 924              		.loc 1 445 5 is_stmt 1 view .LVU209
 925              		.loc 1 445 9 is_stmt 0 view .LVU210
 926 0036 0321     		movs	r1, #3
 927 0038 6846     		mov	r0, sp
 928 003a FFF7FEFF 		bl	Murata_LoRaWAN_Send
 929              	.LVL89:
 930              		.loc 1 445 7 view .LVU211
 931 003e 48B1     		cbz	r0, .L67
 446:../../applications/murata-dualstack-example-ns/src/murata-dualstack-example-ns.c ****     {
 447:../../applications/murata-dualstack-example-ns/src/murata-dualstack-example-ns.c ****       printf("tis ni gelukt :( ");
 448:../../applications/murata-dualstack-example-ns/src/murata-dualstack-example-ns.c ****       murata_init++;
 449:../../applications/murata-dualstack-example-ns/src/murata-dualstack-example-ns.c ****       if(murata_init == 10)
 450:../../applications/murata-dualstack-example-ns/src/murata-dualstack-example-ns.c ****         murata_init == 0;
 451:../../applications/murata-dualstack-example-ns/src/murata-dualstack-example-ns.c ****     }
 452:../../applications/murata-dualstack-example-ns/src/murata-dualstack-example-ns.c ****     else
 453:../../applications/murata-dualstack-example-ns/src/murata-dualstack-example-ns.c ****     {
 454:../../applications/murata-dualstack-example-ns/src/murata-dualstack-example-ns.c ****       murata_init = 1;
 932              		.loc 1 454 7 is_stmt 1 view .LVU212
 933              		.loc 1 454 19 is_stmt 0 view .LVU213
 934 0040 0A4B     		ldr	r3, .L68
 935 0042 0122     		movs	r2, #1
 936 0044 1A70     		strb	r2, [r3]
 937              	.L64:
 455:../../applications/murata-dualstack-example-ns/src/murata-dualstack-example-ns.c ****     }
 456:../../applications/murata-dualstack-example-ns/src/murata-dualstack-example-ns.c ****     //BLOCK TX MUTEX FOR 3s
 457:../../applications/murata-dualstack-example-ns/src/murata-dualstack-example-ns.c ****     // osDelay(3000);
 458:../../applications/murata-dualstack-example-ns/src/murata-dualstack-example-ns.c ****     // osMutexRelease(txMutexId);
 459:../../applications/murata-dualstack-example-ns/src/murata-dualstack-example-ns.c ****     LoRaWAN_Counter++;
 938              		.loc 1 459 5 is_stmt 1 discriminator 1 view .LVU214
 939              		.loc 1 459 20 is_stmt 0 discriminator 1 view .LVU215
 940 0046 0B4A     		ldr	r2, .L68+8
 941 0048 1388     		ldrh	r3, [r2]
 942 004a 0133     		adds	r3, r3, #1
 943 004c 1380     		strh	r3, [r2]	@ movhi
 944              	.LVL90:
 945              	.L61:
 946              		.loc 1 459 20 discriminator 1 view .LVU216
 947              	.LBE10:
 460:../../applications/murata-dualstack-example-ns/src/murata-dualstack-example-ns.c ****   }
 461:../../applications/murata-dualstack-example-ns/src/murata-dualstack-example-ns.c ****   else{
 462:../../applications/murata-dualstack-example-ns/src/murata-dualstack-example-ns.c ****     printf("murata not initialized, not sending\r\n");
 463:../../applications/murata-dualstack-example-ns/src/murata-dualstack-example-ns.c ****   }
 464:../../applications/murata-dualstack-example-ns/src/murata-dualstack-example-ns.c **** }
 948              		.loc 1 464 1 view .LVU217
 949 004e 03B0     		add	sp, sp, #12
 950              	.LCFI21:
 951              		.cfi_remember_state
 952              		.cfi_def_cfa_offset 4
 953              		@ sp needed
 954 0050 5DF804FB 		ldr	pc, [sp], #4
 955              	.LVL91:
 956              	.L67:
 957              	.LCFI22:
 958              		.cfi_restore_state
 959              	.LBB11:
 447:../../applications/murata-dualstack-example-ns/src/murata-dualstack-example-ns.c ****       murata_init++;
 960              		.loc 1 447 7 is_stmt 1 view .LVU218
ARM GAS  C:\Users\yvesk\AppData\Local\Temp\ccw5KjUM.s 			page 27


 961 0054 0848     		ldr	r0, .L68+12
 962 0056 FFF7FEFF 		bl	printf
 963              	.LVL92:
 448:../../applications/murata-dualstack-example-ns/src/murata-dualstack-example-ns.c ****       if(murata_init == 10)
 964              		.loc 1 448 7 view .LVU219
 448:../../applications/murata-dualstack-example-ns/src/murata-dualstack-example-ns.c ****       if(murata_init == 10)
 965              		.loc 1 448 18 is_stmt 0 view .LVU220
 966 005a 044A     		ldr	r2, .L68
 967 005c 1378     		ldrb	r3, [r2]	@ zero_extendqisi2
 968 005e 0133     		adds	r3, r3, #1
 969 0060 1370     		strb	r3, [r2]
 449:../../applications/murata-dualstack-example-ns/src/murata-dualstack-example-ns.c ****         murata_init == 0;
 970              		.loc 1 449 7 is_stmt 1 view .LVU221
 971 0062 F0E7     		b	.L64
 972              	.LVL93:
 973              	.L62:
 449:../../applications/murata-dualstack-example-ns/src/murata-dualstack-example-ns.c ****         murata_init == 0;
 974              		.loc 1 449 7 is_stmt 0 view .LVU222
 975              	.LBE11:
 462:../../applications/murata-dualstack-example-ns/src/murata-dualstack-example-ns.c ****   }
 976              		.loc 1 462 5 is_stmt 1 view .LVU223
 977 0064 0548     		ldr	r0, .L68+16
 978 0066 FFF7FEFF 		bl	puts
 979              	.LVL94:
 980              		.loc 1 464 1 is_stmt 0 view .LVU224
 981 006a F0E7     		b	.L61
 982              	.L69:
 983              		.align	2
 984              	.L68:
 985 006c 00000000 		.word	.LANCHOR0
 986 0070 00000000 		.word	SHTData
 987 0074 00000000 		.word	.LANCHOR1
 988 0078 00000000 		.word	.LC15
 989 007c 00000000 		.word	.LC0
 990              		.cfi_endproc
 991              	.LFE141:
 993              		.section	.text.HAL_GPIO_EXTI_Callback,"ax",%progbits
 994              		.align	1
 995              		.global	HAL_GPIO_EXTI_Callback
 996              		.syntax unified
 997              		.thumb
 998              		.thumb_func
 999              		.fpu fpv4-sp-d16
 1001              	HAL_GPIO_EXTI_Callback:
 1002              	.LVL95:
 1003              	.LFB142:
 465:../../applications/murata-dualstack-example-ns/src/murata-dualstack-example-ns.c **** 
 466:../../applications/murata-dualstack-example-ns/src/murata-dualstack-example-ns.c **** //See platform>octa>stm32l4xx_it.c there we placed exti15_10 function to capture interrupts on one 
 467:../../applications/murata-dualstack-example-ns/src/murata-dualstack-example-ns.c **** // (see slides of Mr weyn for the exact function name). In this function we call the "HAL_GPIO_EXTI
 468:../../applications/murata-dualstack-example-ns/src/murata-dualstack-example-ns.c **** // file. In this function the "HAL_GPIO_EXTI_Callback" is called, which we define below 
 469:../../applications/murata-dualstack-example-ns/src/murata-dualstack-example-ns.c **** void HAL_GPIO_EXTI_Callback(uint16_t GPIO_Pin) {
 1004              		.loc 1 469 48 is_stmt 1 view -0
 1005              		.cfi_startproc
 1006              		@ args = 0, pretend = 0, frame = 0
 1007              		@ frame_needed = 0, uses_anonymous_args = 0
 470:../../applications/murata-dualstack-example-ns/src/murata-dualstack-example-ns.c ****   if (GPIO_Pin==GPIO_Pin_13) {
 1008              		.loc 1 470 3 view .LVU226
ARM GAS  C:\Users\yvesk\AppData\Local\Temp\ccw5KjUM.s 			page 28


 1009              		.loc 1 470 6 is_stmt 0 view .LVU227
 1010 0000 B0F5005F 		cmp	r0, #8192
 1011 0004 00D0     		beq	.L76
 1012 0006 7047     		bx	lr
 1013              	.L76:
 469:../../applications/murata-dualstack-example-ns/src/murata-dualstack-example-ns.c ****   if (GPIO_Pin==GPIO_Pin_13) {
 1014              		.loc 1 469 48 view .LVU228
 1015 0008 08B5     		push	{r3, lr}
 1016              	.LCFI23:
 1017              		.cfi_def_cfa_offset 8
 1018              		.cfi_offset 3, -8
 1019              		.cfi_offset 14, -4
 471:../../applications/murata-dualstack-example-ns/src/murata-dualstack-example-ns.c ****   temperatureflag = 1; 
 1020              		.loc 1 471 3 is_stmt 1 view .LVU229
 1021              		.loc 1 471 19 is_stmt 0 view .LVU230
 1022 000a 034B     		ldr	r3, .L77
 1023 000c 0122     		movs	r2, #1
 1024 000e 1A70     		strb	r2, [r3]
 472:../../applications/murata-dualstack-example-ns/src/murata-dualstack-example-ns.c ****   printf("interrupt accelerometer! \r\n");
 1025              		.loc 1 472 3 is_stmt 1 view .LVU231
 1026 0010 0248     		ldr	r0, .L77+4
 1027              	.LVL96:
 1028              		.loc 1 472 3 is_stmt 0 view .LVU232
 1029 0012 FFF7FEFF 		bl	puts
 1030              	.LVL97:
 473:../../applications/murata-dualstack-example-ns/src/murata-dualstack-example-ns.c ****   // we work with a flag so as to make sure that we don't stay in the callback for too long. This w
 474:../../applications/murata-dualstack-example-ns/src/murata-dualstack-example-ns.c ****   // the flag will call the measurement function in de while loop
 475:../../applications/murata-dualstack-example-ns/src/murata-dualstack-example-ns.c ****   } 
 476:../../applications/murata-dualstack-example-ns/src/murata-dualstack-example-ns.c **** }
 1031              		.loc 1 476 1 view .LVU233
 1032 0016 08BD     		pop	{r3, pc}
 1033              	.L78:
 1034              		.align	2
 1035              	.L77:
 1036 0018 00000000 		.word	.LANCHOR4
 1037 001c 00000000 		.word	.LC16
 1038              		.cfi_endproc
 1039              	.LFE142:
 1041              		.section	.text.HAL_TIM_PeriodElapsedCallback,"ax",%progbits
 1042              		.align	1
 1043              		.global	HAL_TIM_PeriodElapsedCallback
 1044              		.syntax unified
 1045              		.thumb
 1046              		.thumb_func
 1047              		.fpu fpv4-sp-d16
 1049              	HAL_TIM_PeriodElapsedCallback:
 1050              	.LVL98:
 1051              	.LFB143:
 477:../../applications/murata-dualstack-example-ns/src/murata-dualstack-example-ns.c **** 
 478:../../applications/murata-dualstack-example-ns/src/murata-dualstack-example-ns.c **** 
 479:../../applications/murata-dualstack-example-ns/src/murata-dualstack-example-ns.c **** /**
 480:../../applications/murata-dualstack-example-ns/src/murata-dualstack-example-ns.c ****   * @brief  Period elapsed callback in non blocking mode
 481:../../applications/murata-dualstack-example-ns/src/murata-dualstack-example-ns.c ****   * @note   This function is called  when TIM1 interrupt took place, inside
 482:../../applications/murata-dualstack-example-ns/src/murata-dualstack-example-ns.c ****   * HAL_TIM_IRQHandler(). It makes a direct call to HAL_IncTick() to increment
 483:../../applications/murata-dualstack-example-ns/src/murata-dualstack-example-ns.c ****   * a global variable "uwTick" used as application time base.
 484:../../applications/murata-dualstack-example-ns/src/murata-dualstack-example-ns.c ****   * @param  htim : TIM handle
 485:../../applications/murata-dualstack-example-ns/src/murata-dualstack-example-ns.c ****   * @retval None
ARM GAS  C:\Users\yvesk\AppData\Local\Temp\ccw5KjUM.s 			page 29


 486:../../applications/murata-dualstack-example-ns/src/murata-dualstack-example-ns.c ****   */
 487:../../applications/murata-dualstack-example-ns/src/murata-dualstack-example-ns.c **** void HAL_TIM_PeriodElapsedCallback(TIM_HandleTypeDef *htim)
 488:../../applications/murata-dualstack-example-ns/src/murata-dualstack-example-ns.c **** {
 1052              		.loc 1 488 1 is_stmt 1 view -0
 1053              		.cfi_startproc
 1054              		@ args = 0, pretend = 0, frame = 0
 1055              		@ frame_needed = 0, uses_anonymous_args = 0
 1056              		.loc 1 488 1 is_stmt 0 view .LVU235
 1057 0000 08B5     		push	{r3, lr}
 1058              	.LCFI24:
 1059              		.cfi_def_cfa_offset 8
 1060              		.cfi_offset 3, -8
 1061              		.cfi_offset 14, -4
 489:../../applications/murata-dualstack-example-ns/src/murata-dualstack-example-ns.c ****   /* USER CODE BEGIN Callback 0 */
 490:../../applications/murata-dualstack-example-ns/src/murata-dualstack-example-ns.c **** 
 491:../../applications/murata-dualstack-example-ns/src/murata-dualstack-example-ns.c ****   /* USER CODE END Callback 0 */
 492:../../applications/murata-dualstack-example-ns/src/murata-dualstack-example-ns.c ****   if (htim->Instance == TIM1)
 1062              		.loc 1 492 3 is_stmt 1 view .LVU236
 1063              		.loc 1 492 11 is_stmt 0 view .LVU237
 1064 0002 0268     		ldr	r2, [r0]
 1065              		.loc 1 492 6 view .LVU238
 1066 0004 034B     		ldr	r3, .L83
 1067 0006 9A42     		cmp	r2, r3
 1068 0008 00D0     		beq	.L82
 1069              	.LVL99:
 1070              	.L79:
 493:../../applications/murata-dualstack-example-ns/src/murata-dualstack-example-ns.c ****   {
 494:../../applications/murata-dualstack-example-ns/src/murata-dualstack-example-ns.c ****     HAL_IncTick();
 495:../../applications/murata-dualstack-example-ns/src/murata-dualstack-example-ns.c ****   }
 496:../../applications/murata-dualstack-example-ns/src/murata-dualstack-example-ns.c ****   /* USER CODE BEGIN Callback 1 */
 497:../../applications/murata-dualstack-example-ns/src/murata-dualstack-example-ns.c **** 
 498:../../applications/murata-dualstack-example-ns/src/murata-dualstack-example-ns.c ****   /* USER CODE END Callback 1 */
 499:../../applications/murata-dualstack-example-ns/src/murata-dualstack-example-ns.c **** }
 1071              		.loc 1 499 1 view .LVU239
 1072 000a 08BD     		pop	{r3, pc}
 1073              	.LVL100:
 1074              	.L82:
 494:../../applications/murata-dualstack-example-ns/src/murata-dualstack-example-ns.c ****   }
 1075              		.loc 1 494 5 is_stmt 1 view .LVU240
 1076 000c FFF7FEFF 		bl	HAL_IncTick
 1077              	.LVL101:
 1078              		.loc 1 499 1 is_stmt 0 view .LVU241
 1079 0010 FBE7     		b	.L79
 1080              	.L84:
 1081 0012 00BF     		.align	2
 1082              	.L83:
 1083 0014 002C0140 		.word	1073818624
 1084              		.cfi_endproc
 1085              	.LFE143:
 1087              		.section	.text.Error_Handler,"ax",%progbits
 1088              		.align	1
 1089              		.global	Error_Handler
 1090              		.syntax unified
 1091              		.thumb
 1092              		.thumb_func
 1093              		.fpu fpv4-sp-d16
 1095              	Error_Handler:
ARM GAS  C:\Users\yvesk\AppData\Local\Temp\ccw5KjUM.s 			page 30


 1096              	.LFB144:
 500:../../applications/murata-dualstack-example-ns/src/murata-dualstack-example-ns.c **** 
 501:../../applications/murata-dualstack-example-ns/src/murata-dualstack-example-ns.c **** /**
 502:../../applications/murata-dualstack-example-ns/src/murata-dualstack-example-ns.c ****   * @brief  This function is executed in case of error occurrence.
 503:../../applications/murata-dualstack-example-ns/src/murata-dualstack-example-ns.c ****   * @retval None
 504:../../applications/murata-dualstack-example-ns/src/murata-dualstack-example-ns.c ****   */
 505:../../applications/murata-dualstack-example-ns/src/murata-dualstack-example-ns.c **** void Error_Handler(void)
 506:../../applications/murata-dualstack-example-ns/src/murata-dualstack-example-ns.c **** {
 1097              		.loc 1 506 1 is_stmt 1 view -0
 1098              		.cfi_startproc
 1099              		@ args = 0, pretend = 0, frame = 0
 1100              		@ frame_needed = 0, uses_anonymous_args = 0
 1101              		@ link register save eliminated.
 507:../../applications/murata-dualstack-example-ns/src/murata-dualstack-example-ns.c ****   /* USER CODE BEGIN Error_Handler_Debug */
 508:../../applications/murata-dualstack-example-ns/src/murata-dualstack-example-ns.c ****   /* User can add his own implementation to report the HAL error return state */
 509:../../applications/murata-dualstack-example-ns/src/murata-dualstack-example-ns.c **** 
 510:../../applications/murata-dualstack-example-ns/src/murata-dualstack-example-ns.c ****   /* USER CODE END Error_Handler_Debug */
 511:../../applications/murata-dualstack-example-ns/src/murata-dualstack-example-ns.c **** }
 1102              		.loc 1 511 1 view .LVU243
 1103 0000 7047     		bx	lr
 1104              		.cfi_endproc
 1105              	.LFE144:
 1107              		.global	temperatureflag
 1108              		.comm	data,1,1
 1109              		.comm	SHTData,8,4
 1110              		.global	rep_counter
 1111              		.global	murata_data_ready
 1112              		.comm	short_UID,8,8
 1113              		.global	murata_init
 1114              		.global	DASH7_Counter
 1115              		.global	LoRaWAN_Counter
 1116              		.comm	temp,4,4
 1117              		.comm	humidity,4,4
 1118              		.comm	_i2caddr,1,1
 1119              		.comm	SHThi2cLib,4,4
 1120              		.comm	threadToNotify,4,4
 1121              		.comm	murata_reset_pin,4,4
 1122              		.comm	murata_wakeup_pin,4,4
 1123              		.comm	magRawData,6,4
 1124              		.comm	magRegisterData,6,4
 1125              		.comm	accRawData,6,4
 1126              		.comm	accRegisterData,6,4
 1127              		.comm	LSM303AGR_hi2c,4,4
 1128              		.comm	LSM303AGR_setting,1,1
 1129              		.comm	murata_rx_process_mutex_id,4,4
 1130              		.comm	txMutexId,4,4
 1131              		.comm	moduleCheckTimId,4,4
 1132              		.comm	dash7TimId,4,4
 1133              		.comm	loraWANTimId,4,4
 1134              		.comm	iwdgTimId,4,4
 1135              		.comm	murata_rx_processing_handle,4,4
 1136              		.comm	defaultTaskHandle,4,4
 1137              		.comm	P3_header,44,4
 1138              		.comm	P2_header,44,4
 1139              		.comm	P1_header,44,4
 1140              		.comm	FLASH_SPI,100,4
 1141              		.comm	P3_SPI,100,4
ARM GAS  C:\Users\yvesk\AppData\Local\Temp\ccw5KjUM.s 			page 31


 1142              		.comm	P2_SPI,100,4
 1143              		.comm	P1_SPI,100,4
 1144              		.comm	P3_I2C,76,4
 1145              		.comm	P2_I2C,76,4
 1146              		.comm	P1_I2C,76,4
 1147              		.comm	common_I2C,76,4
 1148              		.comm	P3_UART,120,4
 1149              		.comm	P2_UART,120,4
 1150              		.comm	P1_UART,120,4
 1151              		.comm	BLE_UART,120,4
 1152              		.comm	USB_UART,120,4
 1153              		.comm	hiwdg,16,4
 1154              		.comm	P3_DIO6,8,4
 1155              		.comm	P3_DIO5,8,4
 1156              		.comm	P3_DIO4,8,4
 1157              		.comm	P3_DIO3,8,4
 1158              		.comm	P3_DIO2,8,4
 1159              		.comm	P3_DIO1,8,4
 1160              		.comm	P2_DIO6,8,4
 1161              		.comm	P2_DIO5,8,4
 1162              		.comm	P2_DIO4,8,4
 1163              		.comm	P2_DIO3,8,4
 1164              		.comm	P2_DIO2,8,4
 1165              		.comm	P2_DIO1,8,4
 1166              		.comm	P1_DIO6,8,4
 1167              		.comm	P1_DIO5,8,4
 1168              		.comm	P1_DIO4,8,4
 1169              		.comm	P1_DIO3,8,4
 1170              		.comm	P1_DIO2,8,4
 1171              		.comm	P1_DIO1,8,4
 1172              		.section	.bss.DASH7_Counter,"aw",%nobits
 1173              		.align	1
 1174              		.set	.LANCHOR2,. + 0
 1177              	DASH7_Counter:
 1178 0000 0000     		.space	2
 1179              		.section	.bss.LoRaWAN_Counter,"aw",%nobits
 1180              		.align	1
 1181              		.set	.LANCHOR1,. + 0
 1184              	LoRaWAN_Counter:
 1185 0000 0000     		.space	2
 1186              		.section	.bss.murata_data_ready,"aw",%nobits
 1187              		.set	.LANCHOR3,. + 0
 1190              	murata_data_ready:
 1191 0000 00       		.space	1
 1192              		.section	.bss.murata_init,"aw",%nobits
 1193              		.set	.LANCHOR0,. + 0
 1196              	murata_init:
 1197 0000 00       		.space	1
 1198              		.section	.bss.rep_counter,"aw",%nobits
 1199              		.align	1
 1200              		.set	.LANCHOR5,. + 0
 1203              	rep_counter:
 1204 0000 0000     		.space	2
 1205              		.section	.bss.temperatureflag,"aw",%nobits
 1206              		.set	.LANCHOR4,. + 0
 1209              	temperatureflag:
 1210 0000 00       		.space	1
ARM GAS  C:\Users\yvesk\AppData\Local\Temp\ccw5KjUM.s 			page 32


 1211              		.section	.rodata.HAL_GPIO_EXTI_Callback.str1.4,"aMS",%progbits,1
 1212              		.align	2
 1213              	.LC16:
 1214 0000 696E7465 		.ascii	"interrupt accelerometer! \015\000"
 1214      72727570 
 1214      74206163 
 1214      63656C65 
 1214      726F6D65 
 1215              		.section	.rodata.LoRaWAN_send.str1.4,"aMS",%progbits,1
 1216              		.align	2
 1217              	.LC0:
 1218 0000 6D757261 		.ascii	"murata not initialized, not sending\015\000"
 1218      7461206E 
 1218      6F742069 
 1218      6E697469 
 1218      616C697A 
 1219              		.section	.rodata.LoRaWAN_send_self.str1.4,"aMS",%progbits,1
 1220              		.align	2
 1221              	.LC15:
 1222 0000 74697320 		.ascii	"tis ni gelukt :( \000"
 1222      6E692067 
 1222      656C756B 
 1222      74203A28 
 1222      2000
 1223              		.section	.rodata.main.str1.4,"aMS",%progbits,1
 1224              		.align	2
 1225              	.LC9:
 1226 0000 4D757261 		.ascii	"Murata dualstack module init OK\015\012\015\000"
 1226      74612064 
 1226      75616C73 
 1226      7461636B 
 1226      206D6F64 
 1227 0023 00       		.space	1
 1228              	.LC10:
 1229 0024 70726F63 		.ascii	"processing murata fifo\015\000"
 1229      65737369 
 1229      6E67206D 
 1229      75726174 
 1229      61206669 
 1230              	.LC11:
 1231 003c 25642C0D 		.ascii	"%d,\015\012\015\012\000"
 1231      0A0D0A00 
 1232              	.LC12:
 1233 0044 676F696E 		.ascii	"going into sleepmode\015\000"
 1233      6720696E 
 1233      746F2073 
 1233      6C656570 
 1233      6D6F6465 
 1234 005a 0000     		.space	2
 1235              	.LC13:
 1236 005c 20696E74 		.ascii	" into sleepmode gegaan\015\000"
 1236      6F20736C 
 1236      6565706D 
 1236      6F646520 
 1236      67656761 
 1237              	.LC14:
 1238 0074 4C6F7261 		.ascii	"Lorawan module init ok\015\012\015\000"
ARM GAS  C:\Users\yvesk\AppData\Local\Temp\ccw5KjUM.s 			page 33


 1238      77616E20 
 1238      6D6F6475 
 1238      6C652069 
 1238      6E697420 
 1239              		.section	.rodata.printWelcome.str1.4,"aMS",%progbits,1
 1240              		.align	2
 1241              	.LC4:
 1242 0000 2A2A2A2A 		.ascii	"*****************************************\015\000"
 1242      2A2A2A2A 
 1242      2A2A2A2A 
 1242      2A2A2A2A 
 1242      2A2A2A2A 
 1243 002b 00       		.space	1
 1244              	.LC5:
 1245 002c 4D757261 		.ascii	"Murata Dual Stack example without scheduler\015\000"
 1245      74612044 
 1245      75616C20 
 1245      53746163 
 1245      6B206578 
 1246 0059 000000   		.space	3
 1247              	.LC6:
 1248 005c 6F637461 		.ascii	"octa ID: \000"
 1248      2049443A 
 1248      2000
 1249 0066 0000     		.space	2
 1250              	.LC7:
 1251 0068 25303278 		.ascii	"%02x\000"
 1251      00
 1252 006d 000000   		.space	3
 1253              	.LC8:
 1254 0070 0D0A0D00 		.ascii	"\015\012\015\000"
 1255              		.section	.rodata.print_temp_hum.str1.4,"aMS",%progbits,1
 1256              		.align	2
 1257              	.LC1:
 1258 0000 0D00     		.ascii	"\015\000"
 1259 0002 0000     		.space	2
 1260              	.LC2:
 1261 0004 54656D70 		.ascii	"Temperature: %.2f \302\260C  \015\012\000"
 1261      65726174 
 1261      7572653A 
 1261      20252E32 
 1261      6620C2B0 
 1262 001e 0000     		.space	2
 1263              	.LC3:
 1264 0020 48756D69 		.ascii	"Humidity: %.2f %% \015\012\000"
 1264      64697479 
 1264      3A20252E 
 1264      32662025 
 1264      25200D0A 
 1265              		.weak	SystemClock_Config
 1266              		.text
 1267              	.Letext0:
 1268              		.file 2 "c:\\program files (x86)\\gnu tools arm embedded\\8 2019-q3-update\\arm-none-eabi\\include
 1269              		.file 3 "c:\\program files (x86)\\gnu tools arm embedded\\8 2019-q3-update\\arm-none-eabi\\include
 1270              		.file 4 "../../core/ST/CMSIS/Include/core_cm4.h"
 1271              		.file 5 "../../core/ST/CMSIS/Device/ST/STM32L4xx/Include/system_stm32l4xx.h"
 1272              		.file 6 "../../core/ST/CMSIS/Device/ST/STM32L4xx/Include/stm32l496xx.h"
ARM GAS  C:\Users\yvesk\AppData\Local\Temp\ccw5KjUM.s 			page 34


 1273              		.file 7 "../../core/ST/STM32L4xx_HAL_Driver/Inc/stm32l4xx_hal_def.h"
 1274              		.file 8 "../../core/ST/STM32L4xx_HAL_Driver/Inc/stm32l4xx_hal_dma.h"
 1275              		.file 9 "../../core/ST/STM32L4xx_HAL_Driver/Inc/stm32l4xx_hal_i2c.h"
 1276              		.file 10 "../../core/ST/STM32L4xx_HAL_Driver/Inc/stm32l4xx_hal_iwdg.h"
 1277              		.file 11 "../../core/ST/STM32L4xx_HAL_Driver/Inc/stm32l4xx_hal_spi.h"
 1278              		.file 12 "../../core/ST/STM32L4xx_HAL_Driver/Inc/stm32l4xx_hal_tim.h"
 1279              		.file 13 "../../core/ST/STM32L4xx_HAL_Driver/Inc/stm32l4xx_hal_uart.h"
 1280              		.file 14 "../../core/ST/STM32L4xx_HAL_Driver/Inc/stm32l4xx_hal.h"
 1281              		.file 15 "../../core/ST/Middlewares/Third_Party/FreeRTOS/Source/include/task.h"
 1282              		.file 16 "../../core/ST/Middlewares/Third_Party/FreeRTOS/Source/include/timers.h"
 1283              		.file 17 "../../core/ST/Middlewares/Third_Party/FreeRTOS/Source/include/queue.h"
 1284              		.file 18 "../../core/ST/Middlewares/Third_Party/FreeRTOS/Source/include/semphr.h"
 1285              		.file 19 "../../core/ST/Middlewares/Third_Party/FreeRTOS/Source/CMSIS_RTOS/cmsis_os.h"
 1286              		.file 20 "../../core/platform/octa/inc/gpio.h"
 1287              		.file 21 "../../core/platform/octa/inc/iwdg.h"
 1288              		.file 22 "../../core/platform/octa/inc/uart.h"
 1289              		.file 23 "../../core/platform/octa/inc/i2c.h"
 1290              		.file 24 "../../core/platform/octa/inc/spi.h"
 1291              		.file 25 "../../core/platform/octa/inc/octa.h"
 1292              		.file 26 "../../applications/murata-dualstack-example-ns/inc/murata-dualstack-example-ns.h"
 1293              		.file 27 "C:\\Users\\yvesk\\Documents\\Academiejaar 2019-2020\\IOT\\Practicum\\octa-stack-students
 1294              		.file 28 "c:\\program files (x86)\\gnu tools arm embedded\\8 2019-q3-update\\lib\\gcc\\arm-none-ea
 1295              		.file 29 "c:\\program files (x86)\\gnu tools arm embedded\\8 2019-q3-update\\arm-none-eabi\\includ
 1296              		.file 30 "c:\\program files (x86)\\gnu tools arm embedded\\8 2019-q3-update\\arm-none-eabi\\includ
 1297              		.file 31 "c:\\program files (x86)\\gnu tools arm embedded\\8 2019-q3-update\\arm-none-eabi\\includ
 1298              		.file 32 "C:\\Users\\yvesk\\Documents\\Academiejaar 2019-2020\\IOT\\Practicum\\Project_code\\shiel
 1299              		.file 33 "C:\\Users\\yvesk\\Documents\\Academiejaar 2019-2020\\IOT\\Practicum\\Project_code\\core\
 1300              		.file 34 "<built-in>"
 1301              		.file 35 "c:\\program files (x86)\\gnu tools arm embedded\\8 2019-q3-update\\arm-none-eabi\\includ
 1302              		.file 36 "../../core/ST/STM32L4xx_HAL_Driver/Inc/stm32l4xx_hal_gpio.h"
 1303              		.file 37 "../../core/platform/octa/inc/sysclock.h"
 1304              		.file 38 "../../core/platform/common/inc/platform.h"
ARM GAS  C:\Users\yvesk\AppData\Local\Temp\ccw5KjUM.s 			page 35

