ARM GAS  C:\Users\yvesk\AppData\Local\Temp\ccsBUdhh.s 			page 1


   1              		.cpu cortex-m4
   2              		.eabi_attribute 27, 1
   3              		.eabi_attribute 28, 1
   4              		.eabi_attribute 20, 1
   5              		.eabi_attribute 21, 1
   6              		.eabi_attribute 23, 3
   7              		.eabi_attribute 24, 1
   8              		.eabi_attribute 25, 1
   9              		.eabi_attribute 26, 1
  10              		.eabi_attribute 30, 1
  11              		.eabi_attribute 34, 1
  12              		.eabi_attribute 18, 4
  13              		.file	"murata-dualstack-example-ns.c"
  14              		.text
  15              	.Ltext0:
  16              		.cfi_sections	.debug_frame
  17              		.section	.text.InitializeTimer2,"ax",%progbits
  18              		.align	1
  19              		.global	InitializeTimer2
  20              		.arch armv7e-m
  21              		.syntax unified
  22              		.thumb
  23              		.thumb_func
  24              		.fpu fpv4-sp-d16
  26              	InitializeTimer2:
  27              	.LFB132:
  28              		.file 1 "../../applications/murata-dualstack-example-ns/src/murata-dualstack-example-ns.c"
   1:../../applications/murata-dualstack-example-ns/src/murata-dualstack-example-ns.c **** /* USER CODE BEGIN Header */
   2:../../applications/murata-dualstack-example-ns/src/murata-dualstack-example-ns.c **** /**
   3:../../applications/murata-dualstack-example-ns/src/murata-dualstack-example-ns.c ****   ******************************************************************************
   4:../../applications/murata-dualstack-example-ns/src/murata-dualstack-example-ns.c ****   * @file           : main.c
   5:../../applications/murata-dualstack-example-ns/src/murata-dualstack-example-ns.c ****   * @brief          : Main program body
   6:../../applications/murata-dualstack-example-ns/src/murata-dualstack-example-ns.c ****   ******************************************************************************
   7:../../applications/murata-dualstack-example-ns/src/murata-dualstack-example-ns.c ****   * This notice applies to any and all portions of this file
   8:../../applications/murata-dualstack-example-ns/src/murata-dualstack-example-ns.c ****   * that are not between comment pairs USER CODE BEGIN and
   9:../../applications/murata-dualstack-example-ns/src/murata-dualstack-example-ns.c ****   * USER CODE END. Other portions of this file, whether 
  10:../../applications/murata-dualstack-example-ns/src/murata-dualstack-example-ns.c ****   * inserted by the user or by software development tools
  11:../../applications/murata-dualstack-example-ns/src/murata-dualstack-example-ns.c ****   * are owned by their respective copyright owners.
  12:../../applications/murata-dualstack-example-ns/src/murata-dualstack-example-ns.c ****   *
  13:../../applications/murata-dualstack-example-ns/src/murata-dualstack-example-ns.c ****   * Copyright (c) 2019 STMicroelectronics International N.V. 
  14:../../applications/murata-dualstack-example-ns/src/murata-dualstack-example-ns.c ****   * All rights reserved.
  15:../../applications/murata-dualstack-example-ns/src/murata-dualstack-example-ns.c ****   *
  16:../../applications/murata-dualstack-example-ns/src/murata-dualstack-example-ns.c ****   * Redistribution and use in source and binary forms, with or without 
  17:../../applications/murata-dualstack-example-ns/src/murata-dualstack-example-ns.c ****   * modification, are permitted, provided that the following conditions are met:
  18:../../applications/murata-dualstack-example-ns/src/murata-dualstack-example-ns.c ****   *
  19:../../applications/murata-dualstack-example-ns/src/murata-dualstack-example-ns.c ****   * 1. Redistribution of source code must retain the above copyright notice, 
  20:../../applications/murata-dualstack-example-ns/src/murata-dualstack-example-ns.c ****   *    this list of conditions and the following disclaimer.
  21:../../applications/murata-dualstack-example-ns/src/murata-dualstack-example-ns.c ****   * 2. Redistributions in binary form must reproduce the above copyright notice,
  22:../../applications/murata-dualstack-example-ns/src/murata-dualstack-example-ns.c ****   *    this list of conditions and the following disclaimer in the documentation
  23:../../applications/murata-dualstack-example-ns/src/murata-dualstack-example-ns.c ****   *    and/or other materials provided with the distribution.
  24:../../applications/murata-dualstack-example-ns/src/murata-dualstack-example-ns.c ****   * 3. Neither the name of STMicroelectronics nor the names of other 
  25:../../applications/murata-dualstack-example-ns/src/murata-dualstack-example-ns.c ****   *    contributors to this software may be used to endorse or promote products 
  26:../../applications/murata-dualstack-example-ns/src/murata-dualstack-example-ns.c ****   *    derived from this software without specific written permission.
  27:../../applications/murata-dualstack-example-ns/src/murata-dualstack-example-ns.c ****   * 4. This software, including modifications and/or derivative works of this 
  28:../../applications/murata-dualstack-example-ns/src/murata-dualstack-example-ns.c ****   *    software, must execute solely and exclusively on microcontroller or
  29:../../applications/murata-dualstack-example-ns/src/murata-dualstack-example-ns.c ****   *    microprocessor devices manufactured by or for STMicroelectronics.
  30:../../applications/murata-dualstack-example-ns/src/murata-dualstack-example-ns.c ****   * 5. Redistribution and use of this software other than as permitted under 
ARM GAS  C:\Users\yvesk\AppData\Local\Temp\ccsBUdhh.s 			page 2


  31:../../applications/murata-dualstack-example-ns/src/murata-dualstack-example-ns.c ****   *    this license is void and will automatically terminate your rights under 
  32:../../applications/murata-dualstack-example-ns/src/murata-dualstack-example-ns.c ****   *    this license. 
  33:../../applications/murata-dualstack-example-ns/src/murata-dualstack-example-ns.c ****   *
  34:../../applications/murata-dualstack-example-ns/src/murata-dualstack-example-ns.c ****   * THIS SOFTWARE IS PROVIDED BY STMICROELECTRONICS AND CONTRIBUTORS "AS IS" 
  35:../../applications/murata-dualstack-example-ns/src/murata-dualstack-example-ns.c ****   * AND ANY EXPRESS, IMPLIED OR STATUTORY WARRANTIES, INCLUDING, BUT NOT 
  36:../../applications/murata-dualstack-example-ns/src/murata-dualstack-example-ns.c ****   * LIMITED TO, THE IMPLIED WARRANTIES OF MERCHANTABILITY, FITNESS FOR A 
  37:../../applications/murata-dualstack-example-ns/src/murata-dualstack-example-ns.c ****   * PARTICULAR PURPOSE AND NON-INFRINGEMENT OF THIRD PARTY INTELLECTUAL PROPERTY
  38:../../applications/murata-dualstack-example-ns/src/murata-dualstack-example-ns.c ****   * RIGHTS ARE DISCLAIMED TO THE FULLEST EXTENT PERMITTED BY LAW. IN NO EVENT 
  39:../../applications/murata-dualstack-example-ns/src/murata-dualstack-example-ns.c ****   * SHALL STMICROELECTRONICS OR CONTRIBUTORS BE LIABLE FOR ANY DIRECT, INDIRECT,
  40:../../applications/murata-dualstack-example-ns/src/murata-dualstack-example-ns.c ****   * INCIDENTAL, SPECIAL, EXEMPLARY, OR CONSEQUENTIAL DAMAGES (INCLUDING, BUT NOT
  41:../../applications/murata-dualstack-example-ns/src/murata-dualstack-example-ns.c ****   * LIMITED TO, PROCUREMENT OF SUBSTITUTE GOODS OR SERVICES; LOSS OF USE, DATA, 
  42:../../applications/murata-dualstack-example-ns/src/murata-dualstack-example-ns.c ****   * OR PROFITS; OR BUSINESS INTERRUPTION) HOWEVER CAUSED AND ON ANY THEORY OF 
  43:../../applications/murata-dualstack-example-ns/src/murata-dualstack-example-ns.c ****   * LIABILITY, WHETHER IN CONTRACT, STRICT LIABILITY, OR TORT (INCLUDING 
  44:../../applications/murata-dualstack-example-ns/src/murata-dualstack-example-ns.c ****   * NEGLIGENCE OR OTHERWISE) ARISING IN ANY WAY OUT OF THE USE OF THIS SOFTWARE,
  45:../../applications/murata-dualstack-example-ns/src/murata-dualstack-example-ns.c ****   * EVEN IF ADVISED OF THE POSSIBILITY OF SUCH DAMAGE.
  46:../../applications/murata-dualstack-example-ns/src/murata-dualstack-example-ns.c ****   *
  47:../../applications/murata-dualstack-example-ns/src/murata-dualstack-example-ns.c ****   ******************************************************************************
  48:../../applications/murata-dualstack-example-ns/src/murata-dualstack-example-ns.c ****   */
  49:../../applications/murata-dualstack-example-ns/src/murata-dualstack-example-ns.c **** /* USER CODE END Header */
  50:../../applications/murata-dualstack-example-ns/src/murata-dualstack-example-ns.c **** 
  51:../../applications/murata-dualstack-example-ns/src/murata-dualstack-example-ns.c **** /* Includes ------------------------------------------------------------------*/
  52:../../applications/murata-dualstack-example-ns/src/murata-dualstack-example-ns.c **** #include "murata-dualstack-example-ns.h"
  53:../../applications/murata-dualstack-example-ns/src/murata-dualstack-example-ns.c **** 
  54:../../applications/murata-dualstack-example-ns/src/murata-dualstack-example-ns.c **** /* Private includes ----------------------------------------------------------*/
  55:../../applications/murata-dualstack-example-ns/src/murata-dualstack-example-ns.c **** /* USER CODE BEGIN Includes */
  56:../../applications/murata-dualstack-example-ns/src/murata-dualstack-example-ns.c **** //#include "murata.h"
  57:../../applications/murata-dualstack-example-ns/src/murata-dualstack-example-ns.c **** #include <LSM303AGRSensor.h>
  58:../../applications/murata-dualstack-example-ns/src/murata-dualstack-example-ns.c **** #include <stdio.h>
  59:../../applications/murata-dualstack-example-ns/src/murata-dualstack-example-ns.c **** #include <murata.h>
  60:../../applications/murata-dualstack-example-ns/src/murata-dualstack-example-ns.c **** //#include "murata.h"
  61:../../applications/murata-dualstack-example-ns/src/murata-dualstack-example-ns.c **** 
  62:../../applications/murata-dualstack-example-ns/src/murata-dualstack-example-ns.c **** /* USER CODE END Includes */
  63:../../applications/murata-dualstack-example-ns/src/murata-dualstack-example-ns.c **** 
  64:../../applications/murata-dualstack-example-ns/src/murata-dualstack-example-ns.c **** /* Private typedef -----------------------------------------------------------*/
  65:../../applications/murata-dualstack-example-ns/src/murata-dualstack-example-ns.c **** /* USER CODE BEGIN PTD */
  66:../../applications/murata-dualstack-example-ns/src/murata-dualstack-example-ns.c **** 
  67:../../applications/murata-dualstack-example-ns/src/murata-dualstack-example-ns.c **** /* USER CODE END PTD */
  68:../../applications/murata-dualstack-example-ns/src/murata-dualstack-example-ns.c **** 
  69:../../applications/murata-dualstack-example-ns/src/murata-dualstack-example-ns.c **** /* Private define ------------------------------------------------------------*/
  70:../../applications/murata-dualstack-example-ns/src/murata-dualstack-example-ns.c **** /* USER CODE BEGIN PD */
  71:../../applications/murata-dualstack-example-ns/src/murata-dualstack-example-ns.c **** #define IWDG_INTERVAL           5    //seconds
  72:../../applications/murata-dualstack-example-ns/src/murata-dualstack-example-ns.c **** #define LORAWAN_INTERVAL        60   //seconds
  73:../../applications/murata-dualstack-example-ns/src/murata-dualstack-example-ns.c **** #define DASH7_INTERVAL          20  //seconds
  74:../../applications/murata-dualstack-example-ns/src/murata-dualstack-example-ns.c **** #define MODULE_CHECK_INTERVAL   3600 //seconds
  75:../../applications/murata-dualstack-example-ns/src/murata-dualstack-example-ns.c **** 
  76:../../applications/murata-dualstack-example-ns/src/murata-dualstack-example-ns.c **** #define HAL_EXTI_MODULE_ENABLED
  77:../../applications/murata-dualstack-example-ns/src/murata-dualstack-example-ns.c **** #define temp_hum_timer    3
  78:../../applications/murata-dualstack-example-ns/src/murata-dualstack-example-ns.c **** 
  79:../../applications/murata-dualstack-example-ns/src/murata-dualstack-example-ns.c **** /* USER CODE END PD */
  80:../../applications/murata-dualstack-example-ns/src/murata-dualstack-example-ns.c **** 
  81:../../applications/murata-dualstack-example-ns/src/murata-dualstack-example-ns.c **** /* Private macro -------------------------------------------------------------*/
  82:../../applications/murata-dualstack-example-ns/src/murata-dualstack-example-ns.c **** /* USER CODE BEGIN PM */
  83:../../applications/murata-dualstack-example-ns/src/murata-dualstack-example-ns.c **** 
  84:../../applications/murata-dualstack-example-ns/src/murata-dualstack-example-ns.c **** /* USER CODE END PM */
  85:../../applications/murata-dualstack-example-ns/src/murata-dualstack-example-ns.c **** 
  86:../../applications/murata-dualstack-example-ns/src/murata-dualstack-example-ns.c **** /* Private user code ---------------------------------------------------------*/
  87:../../applications/murata-dualstack-example-ns/src/murata-dualstack-example-ns.c **** /* USER CODE BEGIN 0 */
ARM GAS  C:\Users\yvesk\AppData\Local\Temp\ccsBUdhh.s 			page 3


  88:../../applications/murata-dualstack-example-ns/src/murata-dualstack-example-ns.c **** uint16_t LoRaWAN_Counter = 0;
  89:../../applications/murata-dualstack-example-ns/src/murata-dualstack-example-ns.c **** uint16_t DASH7_Counter = 0;
  90:../../applications/murata-dualstack-example-ns/src/murata-dualstack-example-ns.c **** uint8_t murata_init = 0;
  91:../../applications/murata-dualstack-example-ns/src/murata-dualstack-example-ns.c **** uint64_t short_UID;
  92:../../applications/murata-dualstack-example-ns/src/murata-dualstack-example-ns.c **** uint8_t murata_data_ready = 0;
  93:../../applications/murata-dualstack-example-ns/src/murata-dualstack-example-ns.c **** 
  94:../../applications/murata-dualstack-example-ns/src/murata-dualstack-example-ns.c **** //Zelf
  95:../../applications/murata-dualstack-example-ns/src/murata-dualstack-example-ns.c **** uint8_t rep_counter = 0; 
  96:../../applications/murata-dualstack-example-ns/src/murata-dualstack-example-ns.c **** extern volatile uint8_t failureCounter=0; 
  97:../../applications/murata-dualstack-example-ns/src/murata-dualstack-example-ns.c **** extern volatile uint8_t successCounter=0;
  98:../../applications/murata-dualstack-example-ns/src/murata-dualstack-example-ns.c **** 
  99:../../applications/murata-dualstack-example-ns/src/murata-dualstack-example-ns.c **** float SHTData[2];
 100:../../applications/murata-dualstack-example-ns/src/murata-dualstack-example-ns.c **** uint8_t data; 
 101:../../applications/murata-dualstack-example-ns/src/murata-dualstack-example-ns.c **** volatile _Bool temperatureflag=0; 
 102:../../applications/murata-dualstack-example-ns/src/murata-dualstack-example-ns.c **** volatile _Bool timer2flag=0; 
 103:../../applications/murata-dualstack-example-ns/src/murata-dualstack-example-ns.c **** volatile _Bool timer3flag=0; 
 104:../../applications/murata-dualstack-example-ns/src/murata-dualstack-example-ns.c **** volatile _Bool repFlag=0;
 105:../../applications/murata-dualstack-example-ns/src/murata-dualstack-example-ns.c **** volatile _Bool repMode=0; 
 106:../../applications/murata-dualstack-example-ns/src/murata-dualstack-example-ns.c **** _Bool changeAcceleroMode=0; 
 107:../../applications/murata-dualstack-example-ns/src/murata-dualstack-example-ns.c **** _Bool volatile messageMode=0; 
 108:../../applications/murata-dualstack-example-ns/src/murata-dualstack-example-ns.c **** volatile _Bool timer3_first=0; 
 109:../../applications/murata-dualstack-example-ns/src/murata-dualstack-example-ns.c **** 
 110:../../applications/murata-dualstack-example-ns/src/murata-dualstack-example-ns.c **** 
 111:../../applications/murata-dualstack-example-ns/src/murata-dualstack-example-ns.c **** /* USER CODE END 0 */
 112:../../applications/murata-dualstack-example-ns/src/murata-dualstack-example-ns.c **** 
 113:../../applications/murata-dualstack-example-ns/src/murata-dualstack-example-ns.c **** 
 114:../../applications/murata-dualstack-example-ns/src/murata-dualstack-example-ns.c ****  
 115:../../applications/murata-dualstack-example-ns/src/murata-dualstack-example-ns.c **** static TIM_HandleTypeDef localisation_timer = { 
 116:../../applications/murata-dualstack-example-ns/src/murata-dualstack-example-ns.c ****     .Instance = TIM2
 117:../../applications/murata-dualstack-example-ns/src/murata-dualstack-example-ns.c **** };
 118:../../applications/murata-dualstack-example-ns/src/murata-dualstack-example-ns.c **** 
 119:../../applications/murata-dualstack-example-ns/src/murata-dualstack-example-ns.c **** static TIM_HandleTypeDef inactive_timer = { 
 120:../../applications/murata-dualstack-example-ns/src/murata-dualstack-example-ns.c ****     .Instance = TIM3
 121:../../applications/murata-dualstack-example-ns/src/murata-dualstack-example-ns.c **** };
 122:../../applications/murata-dualstack-example-ns/src/murata-dualstack-example-ns.c ****  
 123:../../applications/murata-dualstack-example-ns/src/murata-dualstack-example-ns.c **** void InitializeTimer2()
 124:../../applications/murata-dualstack-example-ns/src/murata-dualstack-example-ns.c **** {
  29              		.loc 1 124 1 view -0
  30              		.cfi_startproc
  31              		@ args = 0, pretend = 0, frame = 8
  32              		@ frame_needed = 0, uses_anonymous_args = 0
  33              		@ link register save eliminated.
  34 0000 82B0     		sub	sp, sp, #8
  35              	.LCFI0:
  36              		.cfi_def_cfa_offset 8
 125:../../applications/murata-dualstack-example-ns/src/murata-dualstack-example-ns.c ****     __TIM2_CLK_ENABLE();
  37              		.loc 1 125 5 view .LVU1
  38              	.LBB2:
  39              		.loc 1 125 5 view .LVU2
  40              		.loc 1 125 5 view .LVU3
  41 0002 0B4B     		ldr	r3, .L3
  42 0004 9A6D     		ldr	r2, [r3, #88]
  43 0006 42F00102 		orr	r2, r2, #1
  44 000a 9A65     		str	r2, [r3, #88]
  45              		.loc 1 125 5 view .LVU4
  46 000c 9B6D     		ldr	r3, [r3, #88]
  47 000e 03F00103 		and	r3, r3, #1
ARM GAS  C:\Users\yvesk\AppData\Local\Temp\ccsBUdhh.s 			page 4


  48 0012 0193     		str	r3, [sp, #4]
  49              		.loc 1 125 5 view .LVU5
  50 0014 019B     		ldr	r3, [sp, #4]
  51              	.LBE2:
 126:../../applications/murata-dualstack-example-ns/src/murata-dualstack-example-ns.c ****     localisation_timer.Init.Prescaler = 16000;                            //1 step = clockperiod x 
  52              		.loc 1 126 5 view .LVU6
  53              		.loc 1 126 39 is_stmt 0 view .LVU7
  54 0016 074B     		ldr	r3, .L3+4
  55 0018 4FF47A52 		mov	r2, #16000
  56 001c 5A60     		str	r2, [r3, #4]
 127:../../applications/murata-dualstack-example-ns/src/murata-dualstack-example-ns.c ****     localisation_timer.Init.CounterMode = TIM_COUNTERMODE_UP;             //timer will count up
  57              		.loc 1 127 5 is_stmt 1 view .LVU8
  58              		.loc 1 127 41 is_stmt 0 view .LVU9
  59 001e 0022     		movs	r2, #0
  60 0020 9A60     		str	r2, [r3, #8]
 128:../../applications/murata-dualstack-example-ns/src/murata-dualstack-example-ns.c ****     localisation_timer.Init.Period = 60000;                                 //60000 steps of clockp
  61              		.loc 1 128 5 is_stmt 1 view .LVU10
  62              		.loc 1 128 36 is_stmt 0 view .LVU11
  63 0022 4EF66021 		movw	r1, #60000
  64 0026 D960     		str	r1, [r3, #12]
 129:../../applications/murata-dualstack-example-ns/src/murata-dualstack-example-ns.c ****     localisation_timer.Init.ClockDivision = TIM_CLOCKDIVISION_DIV1;
  65              		.loc 1 129 5 is_stmt 1 view .LVU12
  66              		.loc 1 129 43 is_stmt 0 view .LVU13
  67 0028 1A61     		str	r2, [r3, #16]
 130:../../applications/murata-dualstack-example-ns/src/murata-dualstack-example-ns.c ****     localisation_timer.Init.RepetitionCounter = 0;
  68              		.loc 1 130 5 is_stmt 1 view .LVU14
  69              		.loc 1 130 47 is_stmt 0 view .LVU15
  70 002a 5A61     		str	r2, [r3, #20]
 131:../../applications/murata-dualstack-example-ns/src/murata-dualstack-example-ns.c ****    /*  HAL_TIM_Base_Init(&localisation_timer);
 132:../../applications/murata-dualstack-example-ns/src/murata-dualstack-example-ns.c ****     HAL_TIM_Base_Start_IT(&localisation_timer);
 133:../../applications/murata-dualstack-example-ns/src/murata-dualstack-example-ns.c ****     HAL_NVIC_SetPriority(TIM2_IRQn, 0, 0);                              //set de priority of the in
 134:../../applications/murata-dualstack-example-ns/src/murata-dualstack-example-ns.c ****     HAL_NVIC_EnableIRQ(TIM2_IRQn);        */                               //enable de interrupt va
 135:../../applications/murata-dualstack-example-ns/src/murata-dualstack-example-ns.c **** } 
  71              		.loc 1 135 1 view .LVU16
  72 002c 02B0     		add	sp, sp, #8
  73              	.LCFI1:
  74              		.cfi_def_cfa_offset 0
  75              		@ sp needed
  76 002e 7047     		bx	lr
  77              	.L4:
  78              		.align	2
  79              	.L3:
  80 0030 00100240 		.word	1073876992
  81 0034 00000000 		.word	.LANCHOR0
  82              		.cfi_endproc
  83              	.LFE132:
  85              		.section	.text.InitializeTimer3,"ax",%progbits
  86              		.align	1
  87              		.global	InitializeTimer3
  88              		.syntax unified
  89              		.thumb
  90              		.thumb_func
  91              		.fpu fpv4-sp-d16
  93              	InitializeTimer3:
  94              	.LFB133:
 136:../../applications/murata-dualstack-example-ns/src/murata-dualstack-example-ns.c **** 
 137:../../applications/murata-dualstack-example-ns/src/murata-dualstack-example-ns.c **** void InitializeTimer3()
ARM GAS  C:\Users\yvesk\AppData\Local\Temp\ccsBUdhh.s 			page 5


 138:../../applications/murata-dualstack-example-ns/src/murata-dualstack-example-ns.c **** {
  95              		.loc 1 138 1 is_stmt 1 view -0
  96              		.cfi_startproc
  97              		@ args = 0, pretend = 0, frame = 8
  98              		@ frame_needed = 0, uses_anonymous_args = 0
  99              		@ link register save eliminated.
 100 0000 82B0     		sub	sp, sp, #8
 101              	.LCFI2:
 102              		.cfi_def_cfa_offset 8
 139:../../applications/murata-dualstack-example-ns/src/murata-dualstack-example-ns.c ****     __TIM3_CLK_ENABLE();
 103              		.loc 1 139 5 view .LVU18
 104              	.LBB3:
 105              		.loc 1 139 5 view .LVU19
 106              		.loc 1 139 5 view .LVU20
 107 0002 0B4B     		ldr	r3, .L7
 108 0004 9A6D     		ldr	r2, [r3, #88]
 109 0006 42F00202 		orr	r2, r2, #2
 110 000a 9A65     		str	r2, [r3, #88]
 111              		.loc 1 139 5 view .LVU21
 112 000c 9B6D     		ldr	r3, [r3, #88]
 113 000e 03F00203 		and	r3, r3, #2
 114 0012 0193     		str	r3, [sp, #4]
 115              		.loc 1 139 5 view .LVU22
 116 0014 019B     		ldr	r3, [sp, #4]
 117              	.LBE3:
 140:../../applications/murata-dualstack-example-ns/src/murata-dualstack-example-ns.c ****     inactive_timer.Init.Prescaler = 16000;                            //1 step = clockperiod x pres
 118              		.loc 1 140 5 view .LVU23
 119              		.loc 1 140 35 is_stmt 0 view .LVU24
 120 0016 074B     		ldr	r3, .L7+4
 121 0018 4FF47A52 		mov	r2, #16000
 122 001c 5A60     		str	r2, [r3, #4]
 141:../../applications/murata-dualstack-example-ns/src/murata-dualstack-example-ns.c ****     inactive_timer.Init.CounterMode = TIM_COUNTERMODE_UP;             //timer will count up
 123              		.loc 1 141 5 is_stmt 1 view .LVU25
 124              		.loc 1 141 37 is_stmt 0 view .LVU26
 125 001e 0022     		movs	r2, #0
 126 0020 9A60     		str	r2, [r3, #8]
 142:../../applications/murata-dualstack-example-ns/src/murata-dualstack-example-ns.c ****     inactive_timer.Init.Period = 60000;                                 //60000 steps of clockperio
 127              		.loc 1 142 5 is_stmt 1 view .LVU27
 128              		.loc 1 142 32 is_stmt 0 view .LVU28
 129 0022 4EF66021 		movw	r1, #60000
 130 0026 D960     		str	r1, [r3, #12]
 143:../../applications/murata-dualstack-example-ns/src/murata-dualstack-example-ns.c ****     inactive_timer.Init.ClockDivision = TIM_CLOCKDIVISION_DIV1;
 131              		.loc 1 143 5 is_stmt 1 view .LVU29
 132              		.loc 1 143 39 is_stmt 0 view .LVU30
 133 0028 1A61     		str	r2, [r3, #16]
 144:../../applications/murata-dualstack-example-ns/src/murata-dualstack-example-ns.c ****     inactive_timer.Init.RepetitionCounter = 0;
 134              		.loc 1 144 5 is_stmt 1 view .LVU31
 135              		.loc 1 144 43 is_stmt 0 view .LVU32
 136 002a 5A61     		str	r2, [r3, #20]
 145:../../applications/murata-dualstack-example-ns/src/murata-dualstack-example-ns.c ****     /* HAL_TIM_Base_Init(&inactive_timer);
 146:../../applications/murata-dualstack-example-ns/src/murata-dualstack-example-ns.c ****     HAL_TIM_Base_Start_IT(&inactive_timer);
 147:../../applications/murata-dualstack-example-ns/src/murata-dualstack-example-ns.c ****     HAL_NVIC_SetPriority(TIM3_IRQn, 0, 0); 
 148:../../applications/murata-dualstack-example-ns/src/murata-dualstack-example-ns.c ****     HAL_NVIC_EnableIRQ(TIM3_IRQn); */
 149:../../applications/murata-dualstack-example-ns/src/murata-dualstack-example-ns.c **** }
 137              		.loc 1 149 1 view .LVU33
 138 002c 02B0     		add	sp, sp, #8
 139              	.LCFI3:
ARM GAS  C:\Users\yvesk\AppData\Local\Temp\ccsBUdhh.s 			page 6


 140              		.cfi_def_cfa_offset 0
 141              		@ sp needed
 142 002e 7047     		bx	lr
 143              	.L8:
 144              		.align	2
 145              	.L7:
 146 0030 00100240 		.word	1073876992
 147 0034 00000000 		.word	.LANCHOR1
 148              		.cfi_endproc
 149              	.LFE133:
 151              		.section	.text.goToSleep,"ax",%progbits
 152              		.align	1
 153              		.global	goToSleep
 154              		.syntax unified
 155              		.thumb
 156              		.thumb_func
 157              		.fpu fpv4-sp-d16
 159              	goToSleep:
 160              	.LFB135:
 150:../../applications/murata-dualstack-example-ns/src/murata-dualstack-example-ns.c **** 
 151:../../applications/murata-dualstack-example-ns/src/murata-dualstack-example-ns.c **** /**
 152:../../applications/murata-dualstack-example-ns/src/murata-dualstack-example-ns.c ****   * @brief  The application entry point.
 153:../../applications/murata-dualstack-example-ns/src/murata-dualstack-example-ns.c ****   * @retval int
 154:../../applications/murata-dualstack-example-ns/src/murata-dualstack-example-ns.c ****   */
 155:../../applications/murata-dualstack-example-ns/src/murata-dualstack-example-ns.c **** int main(void)
 156:../../applications/murata-dualstack-example-ns/src/murata-dualstack-example-ns.c **** {
 157:../../applications/murata-dualstack-example-ns/src/murata-dualstack-example-ns.c ****   /* USER CODE BEGIN 1 */
 158:../../applications/murata-dualstack-example-ns/src/murata-dualstack-example-ns.c **** 
 159:../../applications/murata-dualstack-example-ns/src/murata-dualstack-example-ns.c ****   /* USER CODE END 1 */
 160:../../applications/murata-dualstack-example-ns/src/murata-dualstack-example-ns.c **** 
 161:../../applications/murata-dualstack-example-ns/src/murata-dualstack-example-ns.c ****   /* MCU Configuration--------------------------------------------------------*/
 162:../../applications/murata-dualstack-example-ns/src/murata-dualstack-example-ns.c **** 
 163:../../applications/murata-dualstack-example-ns/src/murata-dualstack-example-ns.c ****   /* Reset of all peripherals, Initializes the Flash interface and the Systick. */
 164:../../applications/murata-dualstack-example-ns/src/murata-dualstack-example-ns.c ****   HAL_Init();
 165:../../applications/murata-dualstack-example-ns/src/murata-dualstack-example-ns.c **** 
 166:../../applications/murata-dualstack-example-ns/src/murata-dualstack-example-ns.c ****   /* USER CODE BEGIN Init */
 167:../../applications/murata-dualstack-example-ns/src/murata-dualstack-example-ns.c **** 
 168:../../applications/murata-dualstack-example-ns/src/murata-dualstack-example-ns.c ****   /* USER CODE END Init */
 169:../../applications/murata-dualstack-example-ns/src/murata-dualstack-example-ns.c **** 
 170:../../applications/murata-dualstack-example-ns/src/murata-dualstack-example-ns.c ****   /* Configure the system clock */
 171:../../applications/murata-dualstack-example-ns/src/murata-dualstack-example-ns.c ****   SystemClock_Config();
 172:../../applications/murata-dualstack-example-ns/src/murata-dualstack-example-ns.c **** 
 173:../../applications/murata-dualstack-example-ns/src/murata-dualstack-example-ns.c ****   /* USER CODE BEGIN SysInit */
 174:../../applications/murata-dualstack-example-ns/src/murata-dualstack-example-ns.c **** 
 175:../../applications/murata-dualstack-example-ns/src/murata-dualstack-example-ns.c ****   /* USER CODE END SysInit */
 176:../../applications/murata-dualstack-example-ns/src/murata-dualstack-example-ns.c **** 
 177:../../applications/murata-dualstack-example-ns/src/murata-dualstack-example-ns.c ****   /* Initialize the platform, OCTA in this case */
 178:../../applications/murata-dualstack-example-ns/src/murata-dualstack-example-ns.c ****   Initialize_Platform();
 179:../../applications/murata-dualstack-example-ns/src/murata-dualstack-example-ns.c **** 
 180:../../applications/murata-dualstack-example-ns/src/murata-dualstack-example-ns.c ****   /* Initialize the the timer */
 181:../../applications/murata-dualstack-example-ns/src/murata-dualstack-example-ns.c ****   InitializeTimer2();
 182:../../applications/murata-dualstack-example-ns/src/murata-dualstack-example-ns.c ****   InitializeTimer3(); 
 183:../../applications/murata-dualstack-example-ns/src/murata-dualstack-example-ns.c **** 
 184:../../applications/murata-dualstack-example-ns/src/murata-dualstack-example-ns.c ****   /* USER CODE BEGIN 2 */
 185:../../applications/murata-dualstack-example-ns/src/murata-dualstack-example-ns.c **** 
 186:../../applications/murata-dualstack-example-ns/src/murata-dualstack-example-ns.c ****   // Get Unique ID of octa
 187:../../applications/murata-dualstack-example-ns/src/murata-dualstack-example-ns.c ****   short_UID = get_UID();
ARM GAS  C:\Users\yvesk\AppData\Local\Temp\ccsBUdhh.s 			page 7


 188:../../applications/murata-dualstack-example-ns/src/murata-dualstack-example-ns.c **** 
 189:../../applications/murata-dualstack-example-ns/src/murata-dualstack-example-ns.c ****   //LSM30AGR (accelerometer)
 190:../../applications/murata-dualstack-example-ns/src/murata-dualstack-example-ns.c ****   LSM303AGR_setI2CInterface(&common_I2C);
 191:../../applications/murata-dualstack-example-ns/src/murata-dualstack-example-ns.c ****   setI2CInterface_SHT31(&common_I2C);
 192:../../applications/murata-dualstack-example-ns/src/murata-dualstack-example-ns.c ****   SHT31_begin(); 
 193:../../applications/murata-dualstack-example-ns/src/murata-dualstack-example-ns.c ****   LSM303AGR_initDefault();
 194:../../applications/murata-dualstack-example-ns/src/murata-dualstack-example-ns.c **** 
 195:../../applications/murata-dualstack-example-ns/src/murata-dualstack-example-ns.c **** 
 196:../../applications/murata-dualstack-example-ns/src/murata-dualstack-example-ns.c ****   /* EXTI interrupt init*/
 197:../../applications/murata-dualstack-example-ns/src/murata-dualstack-example-ns.c ****   HAL_NVIC_SetPriority(EXTI1_IRQn, 0, 0);
 198:../../applications/murata-dualstack-example-ns/src/murata-dualstack-example-ns.c ****   HAL_NVIC_EnableIRQ(EXTI1_IRQn);
 199:../../applications/murata-dualstack-example-ns/src/murata-dualstack-example-ns.c **** 
 200:../../applications/murata-dualstack-example-ns/src/murata-dualstack-example-ns.c ****   // Print Welcome Message
 201:../../applications/murata-dualstack-example-ns/src/murata-dualstack-example-ns.c ****   printWelcome();
 202:../../applications/murata-dualstack-example-ns/src/murata-dualstack-example-ns.c ****   
 203:../../applications/murata-dualstack-example-ns/src/murata-dualstack-example-ns.c ****   // LORAWAN
 204:../../applications/murata-dualstack-example-ns/src/murata-dualstack-example-ns.c ****   murata_init = Murata_Initialize(short_UID, 0);
 205:../../applications/murata-dualstack-example-ns/src/murata-dualstack-example-ns.c **** 
 206:../../applications/murata-dualstack-example-ns/src/murata-dualstack-example-ns.c ****   if (murata_init)
 207:../../applications/murata-dualstack-example-ns/src/murata-dualstack-example-ns.c ****   {
 208:../../applications/murata-dualstack-example-ns/src/murata-dualstack-example-ns.c ****     printf("Murata dualstack module init OK\r\n\r\n");
 209:../../applications/murata-dualstack-example-ns/src/murata-dualstack-example-ns.c ****   }
 210:../../applications/murata-dualstack-example-ns/src/murata-dualstack-example-ns.c **** 
 211:../../applications/murata-dualstack-example-ns/src/murata-dualstack-example-ns.c **** 
 212:../../applications/murata-dualstack-example-ns/src/murata-dualstack-example-ns.c ****   /* USER CODE END 2 */
 213:../../applications/murata-dualstack-example-ns/src/murata-dualstack-example-ns.c **** 
 214:../../applications/murata-dualstack-example-ns/src/murata-dualstack-example-ns.c ****   /* USER CODE BEGIN RTOS_MUTEX */
 215:../../applications/murata-dualstack-example-ns/src/murata-dualstack-example-ns.c ****   /* add mutexes, ... */
 216:../../applications/murata-dualstack-example-ns/src/murata-dualstack-example-ns.c **** 
 217:../../applications/murata-dualstack-example-ns/src/murata-dualstack-example-ns.c ****   // TX MUTEX ensuring no transmits are happening at the same time
 218:../../applications/murata-dualstack-example-ns/src/murata-dualstack-example-ns.c **** 
 219:../../applications/murata-dualstack-example-ns/src/murata-dualstack-example-ns.c ****   /* USER CODE END RTOS_MUTEX */
 220:../../applications/murata-dualstack-example-ns/src/murata-dualstack-example-ns.c **** 
 221:../../applications/murata-dualstack-example-ns/src/murata-dualstack-example-ns.c ****   /* USER CODE BEGIN RTOS_SEMAPHORES */
 222:../../applications/murata-dualstack-example-ns/src/murata-dualstack-example-ns.c ****   /* add semaphores, ... */
 223:../../applications/murata-dualstack-example-ns/src/murata-dualstack-example-ns.c ****   /* USER CODE END RTOS_SEMAPHORES */
 224:../../applications/murata-dualstack-example-ns/src/murata-dualstack-example-ns.c **** 
 225:../../applications/murata-dualstack-example-ns/src/murata-dualstack-example-ns.c ****   /* Create the thread(s) */
 226:../../applications/murata-dualstack-example-ns/src/murata-dualstack-example-ns.c **** 
 227:../../applications/murata-dualstack-example-ns/src/murata-dualstack-example-ns.c ****   /* USER CODE BEGIN RTOS_TIMERS */
 228:../../applications/murata-dualstack-example-ns/src/murata-dualstack-example-ns.c ****   /* start timers, add new ones, ... */
 229:../../applications/murata-dualstack-example-ns/src/murata-dualstack-example-ns.c **** 
 230:../../applications/murata-dualstack-example-ns/src/murata-dualstack-example-ns.c ****   //feed IWDG every 5 seconds
 231:../../applications/murata-dualstack-example-ns/src/murata-dualstack-example-ns.c ****   //IWDG_feed(NULL);
 232:../../applications/murata-dualstack-example-ns/src/murata-dualstack-example-ns.c **** 
 233:../../applications/murata-dualstack-example-ns/src/murata-dualstack-example-ns.c ****   /* USER CODE END RTOS_TIMERS */
 234:../../applications/murata-dualstack-example-ns/src/murata-dualstack-example-ns.c **** 
 235:../../applications/murata-dualstack-example-ns/src/murata-dualstack-example-ns.c ****   /* USER CODE BEGIN RTOS_THREADS */
 236:../../applications/murata-dualstack-example-ns/src/murata-dualstack-example-ns.c ****   /* add threads, ... */
 237:../../applications/murata-dualstack-example-ns/src/murata-dualstack-example-ns.c **** 
 238:../../applications/murata-dualstack-example-ns/src/murata-dualstack-example-ns.c ****   /* USER CODE END RTOS_THREADS */
 239:../../applications/murata-dualstack-example-ns/src/murata-dualstack-example-ns.c **** 
 240:../../applications/murata-dualstack-example-ns/src/murata-dualstack-example-ns.c ****   /* USER CODE BEGIN RTOS_QUEUES */
 241:../../applications/murata-dualstack-example-ns/src/murata-dualstack-example-ns.c ****   /* add queues, ... */
 242:../../applications/murata-dualstack-example-ns/src/murata-dualstack-example-ns.c ****   /* USER CODE END RTOS_QUEUES */
 243:../../applications/murata-dualstack-example-ns/src/murata-dualstack-example-ns.c **** 
 244:../../applications/murata-dualstack-example-ns/src/murata-dualstack-example-ns.c ****   /* Start scheduler */
ARM GAS  C:\Users\yvesk\AppData\Local\Temp\ccsBUdhh.s 			page 8


 245:../../applications/murata-dualstack-example-ns/src/murata-dualstack-example-ns.c **** 
 246:../../applications/murata-dualstack-example-ns/src/murata-dualstack-example-ns.c ****   /* We should never get here as control is now taken by the scheduler */
 247:../../applications/murata-dualstack-example-ns/src/murata-dualstack-example-ns.c ****   //HAL_Delay(10000);
 248:../../applications/murata-dualstack-example-ns/src/murata-dualstack-example-ns.c ****   /* Infinite loop */
 249:../../applications/murata-dualstack-example-ns/src/murata-dualstack-example-ns.c ****   uint8_t counter = 0;
 250:../../applications/murata-dualstack-example-ns/src/murata-dualstack-example-ns.c ****   uint8_t use_lora = 1;
 251:../../applications/murata-dualstack-example-ns/src/murata-dualstack-example-ns.c ****   uint8_t timerValue = 0; 
 252:../../applications/murata-dualstack-example-ns/src/murata-dualstack-example-ns.c ****   /* USER CODE BEGIN WHILE */
 253:../../applications/murata-dualstack-example-ns/src/murata-dualstack-example-ns.c ****   while (1)
 254:../../applications/murata-dualstack-example-ns/src/murata-dualstack-example-ns.c ****   { 
 255:../../applications/murata-dualstack-example-ns/src/murata-dualstack-example-ns.c ****      IWDG_feed(NULL);
 256:../../applications/murata-dualstack-example-ns/src/murata-dualstack-example-ns.c ****     //HAL_Delay(5000);
 257:../../applications/murata-dualstack-example-ns/src/murata-dualstack-example-ns.c ****     if(murata_data_ready)
 258:../../applications/murata-dualstack-example-ns/src/murata-dualstack-example-ns.c ****     {
 259:../../applications/murata-dualstack-example-ns/src/murata-dualstack-example-ns.c ****       printf("processing murata fifo\r\n");
 260:../../applications/murata-dualstack-example-ns/src/murata-dualstack-example-ns.c ****       murata_data_ready = !Murata_process_fifo();
 261:../../applications/murata-dualstack-example-ns/src/murata-dualstack-example-ns.c ****     }
 262:../../applications/murata-dualstack-example-ns/src/murata-dualstack-example-ns.c **** 
 263:../../applications/murata-dualstack-example-ns/src/murata-dualstack-example-ns.c **** 
 264:../../applications/murata-dualstack-example-ns/src/murata-dualstack-example-ns.c ****     //------gekopieerd van no-scheduler-example------
 265:../../applications/murata-dualstack-example-ns/src/murata-dualstack-example-ns.c ****      IWDG_feed(NULL); 
 266:../../applications/murata-dualstack-example-ns/src/murata-dualstack-example-ns.c ****     
 267:../../applications/murata-dualstack-example-ns/src/murata-dualstack-example-ns.c ****     //LSM303AGR_readRegister(0x31, data, 0);
 268:../../applications/murata-dualstack-example-ns/src/murata-dualstack-example-ns.c **** 
 269:../../applications/murata-dualstack-example-ns/src/murata-dualstack-example-ns.c ****     if(changeAcceleroMode==1){
 270:../../applications/murata-dualstack-example-ns/src/murata-dualstack-example-ns.c **** 
 271:../../applications/murata-dualstack-example-ns/src/murata-dualstack-example-ns.c ****       if(repMode==1){
 272:../../applications/murata-dualstack-example-ns/src/murata-dualstack-example-ns.c ****         LSM303AGR_initDouble();
 273:../../applications/murata-dualstack-example-ns/src/murata-dualstack-example-ns.c ****         printf("Started Repping\r\n");
 274:../../applications/murata-dualstack-example-ns/src/murata-dualstack-example-ns.c ****         printf("LSM in double click mode \r\n");
 275:../../applications/murata-dualstack-example-ns/src/murata-dualstack-example-ns.c ****         if (murata_init) {
 276:../../applications/murata-dualstack-example-ns/src/murata-dualstack-example-ns.c ****           printf("Sending D7 Message with BLE info + temp + hum\r\n");
 277:../../applications/murata-dualstack-example-ns/src/murata-dualstack-example-ns.c ****           temp_hum_measurement();
 278:../../applications/murata-dualstack-example-ns/src/murata-dualstack-example-ns.c ****           send_message(1);
 279:../../applications/murata-dualstack-example-ns/src/murata-dualstack-example-ns.c ****           printf("Failure counter = %d\r\n",failureCounter);
 280:../../applications/murata-dualstack-example-ns/src/murata-dualstack-example-ns.c **** 
 281:../../applications/murata-dualstack-example-ns/src/murata-dualstack-example-ns.c ****         //TODO: Send BLE info
 282:../../applications/murata-dualstack-example-ns/src/murata-dualstack-example-ns.c ****         }
 283:../../applications/murata-dualstack-example-ns/src/murata-dualstack-example-ns.c ****         
 284:../../applications/murata-dualstack-example-ns/src/murata-dualstack-example-ns.c ****       }else{
 285:../../applications/murata-dualstack-example-ns/src/murata-dualstack-example-ns.c ****         LSM303AGR_initDefault();
 286:../../applications/murata-dualstack-example-ns/src/murata-dualstack-example-ns.c ****         printf("Stopped Repping\nLSM in default mode \r\n\n");
 287:../../applications/murata-dualstack-example-ns/src/murata-dualstack-example-ns.c ****         if (murata_init) {
 288:../../applications/murata-dualstack-example-ns/src/murata-dualstack-example-ns.c ****           printf("Sending D7 Message with BLE info + temp + hum + amount of reps\r\n");
 289:../../applications/murata-dualstack-example-ns/src/murata-dualstack-example-ns.c ****           temp_hum_measurement();
 290:../../applications/murata-dualstack-example-ns/src/murata-dualstack-example-ns.c ****         //Dash7_send_temphum();
 291:../../applications/murata-dualstack-example-ns/src/murata-dualstack-example-ns.c ****           send_message(2);
 292:../../applications/murata-dualstack-example-ns/src/murata-dualstack-example-ns.c **** 
 293:../../applications/murata-dualstack-example-ns/src/murata-dualstack-example-ns.c ****         //TODO: Also send BLE info and reps
 294:../../applications/murata-dualstack-example-ns/src/murata-dualstack-example-ns.c **** 
 295:../../applications/murata-dualstack-example-ns/src/murata-dualstack-example-ns.c ****         //Set reps to zero again, for the next user
 296:../../applications/murata-dualstack-example-ns/src/murata-dualstack-example-ns.c ****         }
 297:../../applications/murata-dualstack-example-ns/src/murata-dualstack-example-ns.c ****         rep_counter=0;
 298:../../applications/murata-dualstack-example-ns/src/murata-dualstack-example-ns.c ****       }
 299:../../applications/murata-dualstack-example-ns/src/murata-dualstack-example-ns.c ****       changeAcceleroMode=0;
 300:../../applications/murata-dualstack-example-ns/src/murata-dualstack-example-ns.c **** 
 301:../../applications/murata-dualstack-example-ns/src/murata-dualstack-example-ns.c ****     }
ARM GAS  C:\Users\yvesk\AppData\Local\Temp\ccsBUdhh.s 			page 9


 302:../../applications/murata-dualstack-example-ns/src/murata-dualstack-example-ns.c **** 
 303:../../applications/murata-dualstack-example-ns/src/murata-dualstack-example-ns.c ****     //de interrupt zal zorgen dat de flag op 1 staat, dan doen we een measurement van temp
 304:../../applications/murata-dualstack-example-ns/src/murata-dualstack-example-ns.c ****     if (repFlag==1) {
 305:../../applications/murata-dualstack-example-ns/src/murata-dualstack-example-ns.c ****       if (repMode==1) {
 306:../../applications/murata-dualstack-example-ns/src/murata-dualstack-example-ns.c ****       // Request to enter SLEEP mode
 307:../../applications/murata-dualstack-example-ns/src/murata-dualstack-example-ns.c ****       timerValue = __HAL_TIM_GET_COUNTER(&localisation_timer);
 308:../../applications/murata-dualstack-example-ns/src/murata-dualstack-example-ns.c ****       printf("Timer value: %d,\r\n\r\n",timerValue);
 309:../../applications/murata-dualstack-example-ns/src/murata-dualstack-example-ns.c ****       rep_counter++; 
 310:../../applications/murata-dualstack-example-ns/src/murata-dualstack-example-ns.c ****       printf("Rep counter: %d,\r\n\r\n",rep_counter);
 311:../../applications/murata-dualstack-example-ns/src/murata-dualstack-example-ns.c **** 
 312:../../applications/murata-dualstack-example-ns/src/murata-dualstack-example-ns.c ****       } 
 313:../../applications/murata-dualstack-example-ns/src/murata-dualstack-example-ns.c ****         //reset de inactive timer want accelerometer interrupt
 314:../../applications/murata-dualstack-example-ns/src/murata-dualstack-example-ns.c ****         // HAL_TIM_Base_Stop_IT(&inactive_timer);    
 315:../../applications/murata-dualstack-example-ns/src/murata-dualstack-example-ns.c ****  
 316:../../applications/murata-dualstack-example-ns/src/murata-dualstack-example-ns.c **** 
 317:../../applications/murata-dualstack-example-ns/src/murata-dualstack-example-ns.c ****       //  __HAL_TIM_SET_COUNTER(&inactive_timer, 0);
 318:../../applications/murata-dualstack-example-ns/src/murata-dualstack-example-ns.c ****  
 319:../../applications/murata-dualstack-example-ns/src/murata-dualstack-example-ns.c **** 
 320:../../applications/murata-dualstack-example-ns/src/murata-dualstack-example-ns.c ****         //HAL_TIM_Base_Start_IT(&inactive_timer);         
 321:../../applications/murata-dualstack-example-ns/src/murata-dualstack-example-ns.c **** 
 322:../../applications/murata-dualstack-example-ns/src/murata-dualstack-example-ns.c ****       
 323:../../applications/murata-dualstack-example-ns/src/murata-dualstack-example-ns.c ****       
 324:../../applications/murata-dualstack-example-ns/src/murata-dualstack-example-ns.c ****           repFlag=0; 
 325:../../applications/murata-dualstack-example-ns/src/murata-dualstack-example-ns.c ****     }  
 326:../../applications/murata-dualstack-example-ns/src/murata-dualstack-example-ns.c **** 
 327:../../applications/murata-dualstack-example-ns/src/murata-dualstack-example-ns.c **** 
 328:../../applications/murata-dualstack-example-ns/src/murata-dualstack-example-ns.c **** 
 329:../../applications/murata-dualstack-example-ns/src/murata-dualstack-example-ns.c ****     if(timer2flag==1) {
 330:../../applications/murata-dualstack-example-ns/src/murata-dualstack-example-ns.c ****        
 331:../../applications/murata-dualstack-example-ns/src/murata-dualstack-example-ns.c ****       if (murata_init) {
 332:../../applications/murata-dualstack-example-ns/src/murata-dualstack-example-ns.c ****         printf("Sending dash7 localisation message (once per minute)\r\n\r\n");
 333:../../applications/murata-dualstack-example-ns/src/murata-dualstack-example-ns.c ****           temp_hum_measurement();
 334:../../applications/murata-dualstack-example-ns/src/murata-dualstack-example-ns.c ****         send_message(1);
 335:../../applications/murata-dualstack-example-ns/src/murata-dualstack-example-ns.c ****          
 336:../../applications/murata-dualstack-example-ns/src/murata-dualstack-example-ns.c ****       }
 337:../../applications/murata-dualstack-example-ns/src/murata-dualstack-example-ns.c ****      timer2flag=0;
 338:../../applications/murata-dualstack-example-ns/src/murata-dualstack-example-ns.c ****     }
 339:../../applications/murata-dualstack-example-ns/src/murata-dualstack-example-ns.c ****  
 340:../../applications/murata-dualstack-example-ns/src/murata-dualstack-example-ns.c ****      if(timer3flag==1) {
 341:../../applications/murata-dualstack-example-ns/src/murata-dualstack-example-ns.c ****       
 342:../../applications/murata-dualstack-example-ns/src/murata-dualstack-example-ns.c ****       if (murata_init) {
 343:../../applications/murata-dualstack-example-ns/src/murata-dualstack-example-ns.c ****         
 344:../../applications/murata-dualstack-example-ns/src/murata-dualstack-example-ns.c ****         printf("Sending dash7 go to sleep message (once per minute)\r\n\r\n");
 345:../../applications/murata-dualstack-example-ns/src/murata-dualstack-example-ns.c ****         temp_hum_measurement();
 346:../../applications/murata-dualstack-example-ns/src/murata-dualstack-example-ns.c ****         send_message(1); 
 347:../../applications/murata-dualstack-example-ns/src/murata-dualstack-example-ns.c ****         //goToSleep(); 
 348:../../applications/murata-dualstack-example-ns/src/murata-dualstack-example-ns.c ****       }
 349:../../applications/murata-dualstack-example-ns/src/murata-dualstack-example-ns.c ****      timer3flag=0;
 350:../../applications/murata-dualstack-example-ns/src/murata-dualstack-example-ns.c ****     } 
 351:../../applications/murata-dualstack-example-ns/src/murata-dualstack-example-ns.c **** 
 352:../../applications/murata-dualstack-example-ns/src/murata-dualstack-example-ns.c ****     if (failureCounter==3) {
 353:../../applications/murata-dualstack-example-ns/src/murata-dualstack-example-ns.c ****       printf("Going to LoRaWAN mode\r\n\r\n");
 354:../../applications/murata-dualstack-example-ns/src/murata-dualstack-example-ns.c ****       messageMode=1;      //go to lorawanmode
 355:../../applications/murata-dualstack-example-ns/src/murata-dualstack-example-ns.c ****       successCounter=0;
 356:../../applications/murata-dualstack-example-ns/src/murata-dualstack-example-ns.c ****       failureCounter=4; 
 357:../../applications/murata-dualstack-example-ns/src/murata-dualstack-example-ns.c ****     }
 358:../../applications/murata-dualstack-example-ns/src/murata-dualstack-example-ns.c **** 
ARM GAS  C:\Users\yvesk\AppData\Local\Temp\ccsBUdhh.s 			page 10


 359:../../applications/murata-dualstack-example-ns/src/murata-dualstack-example-ns.c ****      if (successCounter==1) {
 360:../../applications/murata-dualstack-example-ns/src/murata-dualstack-example-ns.c ****       printf("Going to dash7 mode\r\n\r\n");
 361:../../applications/murata-dualstack-example-ns/src/murata-dualstack-example-ns.c ****       messageMode=0;    //go to dash7mode
 362:../../applications/murata-dualstack-example-ns/src/murata-dualstack-example-ns.c ****       successCounter=2;     //step over the 1 value so that between messages this if isn't accessed
 363:../../applications/murata-dualstack-example-ns/src/murata-dualstack-example-ns.c ****     }
 364:../../applications/murata-dualstack-example-ns/src/murata-dualstack-example-ns.c **** 
 365:../../applications/murata-dualstack-example-ns/src/murata-dualstack-example-ns.c ****    
 366:../../applications/murata-dualstack-example-ns/src/murata-dualstack-example-ns.c **** 
 367:../../applications/murata-dualstack-example-ns/src/murata-dualstack-example-ns.c ****     // SEND 5 D7 messages, every 10 sec.
 368:../../applications/murata-dualstack-example-ns/src/murata-dualstack-example-ns.c ****     // Afterwards, send 3 LoRaWAN messages, every minute
 369:../../applications/murata-dualstack-example-ns/src/murata-dualstack-example-ns.c ****    /*  if(DASH7_Counter<5)
 370:../../applications/murata-dualstack-example-ns/src/murata-dualstack-example-ns.c ****     {
 371:../../applications/murata-dualstack-example-ns/src/murata-dualstack-example-ns.c ****       if(counter==DASH7_INTERVAL)
 372:../../applications/murata-dualstack-example-ns/src/murata-dualstack-example-ns.c ****       {
 373:../../applications/murata-dualstack-example-ns/src/murata-dualstack-example-ns.c ****         Dash7_send(NULL);
 374:../../applications/murata-dualstack-example-ns/src/murata-dualstack-example-ns.c ****         counter = 0;
 375:../../applications/murata-dualstack-example-ns/src/murata-dualstack-example-ns.c ****       }
 376:../../applications/murata-dualstack-example-ns/src/murata-dualstack-example-ns.c ****     }
 377:../../applications/murata-dualstack-example-ns/src/murata-dualstack-example-ns.c ****     else
 378:../../applications/murata-dualstack-example-ns/src/murata-dualstack-example-ns.c ****     { 
 379:../../applications/murata-dualstack-example-ns/src/murata-dualstack-example-ns.c ****       if(LoRaWAN_Counter == 0)
 380:../../applications/murata-dualstack-example-ns/src/murata-dualstack-example-ns.c ****         Murata_LoRaWAN_Join();
 381:../../applications/murata-dualstack-example-ns/src/murata-dualstack-example-ns.c ****       if(LoRaWAN_Counter<3)
 382:../../applications/murata-dualstack-example-ns/src/murata-dualstack-example-ns.c ****       {
 383:../../applications/murata-dualstack-example-ns/src/murata-dualstack-example-ns.c ****         if (counter == LORAWAN_INTERVAL)
 384:../../applications/murata-dualstack-example-ns/src/murata-dualstack-example-ns.c ****         {
 385:../../applications/murata-dualstack-example-ns/src/murata-dualstack-example-ns.c ****           LoRaWAN_send(NULL);
 386:../../applications/murata-dualstack-example-ns/src/murata-dualstack-example-ns.c ****           counter = 0;
 387:../../applications/murata-dualstack-example-ns/src/murata-dualstack-example-ns.c ****         }
 388:../../applications/murata-dualstack-example-ns/src/murata-dualstack-example-ns.c ****       }
 389:../../applications/murata-dualstack-example-ns/src/murata-dualstack-example-ns.c ****       if(LoRaWAN_Counter == 3)
 390:../../applications/murata-dualstack-example-ns/src/murata-dualstack-example-ns.c ****       {
 391:../../applications/murata-dualstack-example-ns/src/murata-dualstack-example-ns.c ****         //reset counters to restart flow
 392:../../applications/murata-dualstack-example-ns/src/murata-dualstack-example-ns.c ****         DASH7_Counter = 0;
 393:../../applications/murata-dualstack-example-ns/src/murata-dualstack-example-ns.c ****         LoRaWAN_Counter = 0;
 394:../../applications/murata-dualstack-example-ns/src/murata-dualstack-example-ns.c ****       }
 395:../../applications/murata-dualstack-example-ns/src/murata-dualstack-example-ns.c ****     }
 396:../../applications/murata-dualstack-example-ns/src/murata-dualstack-example-ns.c ****    
 397:../../applications/murata-dualstack-example-ns/src/murata-dualstack-example-ns.c ****     counter++; */
 398:../../applications/murata-dualstack-example-ns/src/murata-dualstack-example-ns.c ****     //HAL_Delay(1000);
 399:../../applications/murata-dualstack-example-ns/src/murata-dualstack-example-ns.c ****     
 400:../../applications/murata-dualstack-example-ns/src/murata-dualstack-example-ns.c **** 
 401:../../applications/murata-dualstack-example-ns/src/murata-dualstack-example-ns.c ****     /* USER CODE END WHILE */
 402:../../applications/murata-dualstack-example-ns/src/murata-dualstack-example-ns.c ****     
 403:../../applications/murata-dualstack-example-ns/src/murata-dualstack-example-ns.c ****     /* USER CODE BEGIN 3 */
 404:../../applications/murata-dualstack-example-ns/src/murata-dualstack-example-ns.c ****   }
 405:../../applications/murata-dualstack-example-ns/src/murata-dualstack-example-ns.c ****   /* USER CODE END 3 */
 406:../../applications/murata-dualstack-example-ns/src/murata-dualstack-example-ns.c **** }
 407:../../applications/murata-dualstack-example-ns/src/murata-dualstack-example-ns.c **** 
 408:../../applications/murata-dualstack-example-ns/src/murata-dualstack-example-ns.c **** void goToSleep(void) {
 161              		.loc 1 408 22 is_stmt 1 view -0
 162              		.cfi_startproc
 163              		@ args = 0, pretend = 0, frame = 0
 164              		@ frame_needed = 0, uses_anonymous_args = 0
 165 0000 08B5     		push	{r3, lr}
 166              	.LCFI4:
 167              		.cfi_def_cfa_offset 8
ARM GAS  C:\Users\yvesk\AppData\Local\Temp\ccsBUdhh.s 			page 11


 168              		.cfi_offset 3, -8
 169              		.cfi_offset 14, -4
 409:../../applications/murata-dualstack-example-ns/src/murata-dualstack-example-ns.c ****   
 410:../../applications/murata-dualstack-example-ns/src/murata-dualstack-example-ns.c ****       printf("going into sleepmode\r\n"); 
 170              		.loc 1 410 7 view .LVU35
 171 0002 0A48     		ldr	r0, .L11
 172 0004 FFF7FEFF 		bl	puts
 173              	.LVL0:
 411:../../applications/murata-dualstack-example-ns/src/murata-dualstack-example-ns.c ****        HAL_SuspendTick(); 
 174              		.loc 1 411 8 view .LVU36
 175 0008 FFF7FEFF 		bl	HAL_SuspendTick
 176              	.LVL1:
 412:../../applications/murata-dualstack-example-ns/src/murata-dualstack-example-ns.c **** 
 413:../../applications/murata-dualstack-example-ns/src/murata-dualstack-example-ns.c ****       HAL_PWR_EnterSTOPMode(PWR_MAINREGULATOR_ON, PWR_SLEEPENTRY_WFI);
 177              		.loc 1 413 7 view .LVU37
 178 000c 0121     		movs	r1, #1
 179 000e 0020     		movs	r0, #0
 180 0010 FFF7FEFF 		bl	HAL_PWR_EnterSTOPMode
 181              	.LVL2:
 414:../../applications/murata-dualstack-example-ns/src/murata-dualstack-example-ns.c **** 
 415:../../applications/murata-dualstack-example-ns/src/murata-dualstack-example-ns.c ****       HAL_ResumeTick(); 
 182              		.loc 1 415 7 view .LVU38
 183 0014 FFF7FEFF 		bl	HAL_ResumeTick
 184              	.LVL3:
 416:../../applications/murata-dualstack-example-ns/src/murata-dualstack-example-ns.c ****       SystemClock_Config(); 
 185              		.loc 1 416 7 view .LVU39
 186 0018 FFF7FEFF 		bl	SystemClock_Config
 187              	.LVL4:
 417:../../applications/murata-dualstack-example-ns/src/murata-dualstack-example-ns.c ****       printf(" came out of sleepmode \r\n");  
 188              		.loc 1 417 7 view .LVU40
 189 001c 0448     		ldr	r0, .L11+4
 190 001e FFF7FEFF 		bl	puts
 191              	.LVL5:
 418:../../applications/murata-dualstack-example-ns/src/murata-dualstack-example-ns.c ****       timer3_first=0;  
 192              		.loc 1 418 7 view .LVU41
 193              		.loc 1 418 19 is_stmt 0 view .LVU42
 194 0022 044B     		ldr	r3, .L11+8
 195 0024 0022     		movs	r2, #0
 196 0026 1A70     		strb	r2, [r3]
 419:../../applications/murata-dualstack-example-ns/src/murata-dualstack-example-ns.c **** }
 197              		.loc 1 419 1 view .LVU43
 198 0028 08BD     		pop	{r3, pc}
 199              	.L12:
 200 002a 00BF     		.align	2
 201              	.L11:
 202 002c 00000000 		.word	.LC0
 203 0030 18000000 		.word	.LC1
 204 0034 00000000 		.word	.LANCHOR2
 205              		.cfi_endproc
 206              	.LFE135:
 208              		.section	.text.LoRaWAN_send,"ax",%progbits
 209              		.align	1
 210              		.global	LoRaWAN_send
 211              		.syntax unified
 212              		.thumb
 213              		.thumb_func
 214              		.fpu fpv4-sp-d16
ARM GAS  C:\Users\yvesk\AppData\Local\Temp\ccsBUdhh.s 			page 12


 216              	LoRaWAN_send:
 217              	.LVL6:
 218              	.LFB137:
 420:../../applications/murata-dualstack-example-ns/src/murata-dualstack-example-ns.c **** 
 421:../../applications/murata-dualstack-example-ns/src/murata-dualstack-example-ns.c **** void send_message(uint8_t type) {
 422:../../applications/murata-dualstack-example-ns/src/murata-dualstack-example-ns.c ****   if (messageMode==0) {                 //dash7mode
 423:../../applications/murata-dualstack-example-ns/src/murata-dualstack-example-ns.c ****     switch (type) {
 424:../../applications/murata-dualstack-example-ns/src/murata-dualstack-example-ns.c ****       case 1:
 425:../../applications/murata-dualstack-example-ns/src/murata-dualstack-example-ns.c ****       Dash7_send_temphum();  
 426:../../applications/murata-dualstack-example-ns/src/murata-dualstack-example-ns.c ****       printf("sending temphum message\r\n");
 427:../../applications/murata-dualstack-example-ns/src/murata-dualstack-example-ns.c ****       break; 
 428:../../applications/murata-dualstack-example-ns/src/murata-dualstack-example-ns.c ****       case 2:
 429:../../applications/murata-dualstack-example-ns/src/murata-dualstack-example-ns.c ****       Dash7_send_allInfo();
 430:../../applications/murata-dualstack-example-ns/src/murata-dualstack-example-ns.c ****       printf("sending allinfo message\r\n");
 431:../../applications/murata-dualstack-example-ns/src/murata-dualstack-example-ns.c ****       break; 
 432:../../applications/murata-dualstack-example-ns/src/murata-dualstack-example-ns.c ****       default:
 433:../../applications/murata-dualstack-example-ns/src/murata-dualstack-example-ns.c ****       printf("No case was matched\r\n"); 
 434:../../applications/murata-dualstack-example-ns/src/murata-dualstack-example-ns.c ****       break;  
 435:../../applications/murata-dualstack-example-ns/src/murata-dualstack-example-ns.c ****     }
 436:../../applications/murata-dualstack-example-ns/src/murata-dualstack-example-ns.c ****   } else {                               //lorawanmode
 437:../../applications/murata-dualstack-example-ns/src/murata-dualstack-example-ns.c ****       LoRaWAN_send(NULL);  
 438:../../applications/murata-dualstack-example-ns/src/murata-dualstack-example-ns.c ****       Dash7_send_temphum(); 
 439:../../applications/murata-dualstack-example-ns/src/murata-dualstack-example-ns.c ****       printf("sending out of reach lorawan message\r\n");
 440:../../applications/murata-dualstack-example-ns/src/murata-dualstack-example-ns.c ****   }
 441:../../applications/murata-dualstack-example-ns/src/murata-dualstack-example-ns.c **** }
 442:../../applications/murata-dualstack-example-ns/src/murata-dualstack-example-ns.c **** 
 443:../../applications/murata-dualstack-example-ns/src/murata-dualstack-example-ns.c **** /* void LoRaWAN_send(void const *argument)
 444:../../applications/murata-dualstack-example-ns/src/murata-dualstack-example-ns.c **** {
 445:../../applications/murata-dualstack-example-ns/src/murata-dualstack-example-ns.c ****   if (murata_init)
 446:../../applications/murata-dualstack-example-ns/src/murata-dualstack-example-ns.c ****   {
 447:../../applications/murata-dualstack-example-ns/src/murata-dualstack-example-ns.c ****     uint8_t loraMessage[5];
 448:../../applications/murata-dualstack-example-ns/src/murata-dualstack-example-ns.c ****     uint8_t i = 0;
 449:../../applications/murata-dualstack-example-ns/src/murata-dualstack-example-ns.c ****     //uint16 counter to uint8 array (little endian)
 450:../../applications/murata-dualstack-example-ns/src/murata-dualstack-example-ns.c ****     //counter (large) type byte
 451:../../applications/murata-dualstack-example-ns/src/murata-dualstack-example-ns.c ****     loraMessage[i++] = 0x14;
 452:../../applications/murata-dualstack-example-ns/src/murata-dualstack-example-ns.c ****     loraMessage[i++] = LoRaWAN_Counter;
 453:../../applications/murata-dualstack-example-ns/src/murata-dualstack-example-ns.c ****     loraMessage[i++] = LoRaWAN_Counter >> 8;
 454:../../applications/murata-dualstack-example-ns/src/murata-dualstack-example-ns.c ****     //osMutexWait(txMutexId, osWaitForever);
 455:../../applications/murata-dualstack-example-ns/src/murata-dualstack-example-ns.c ****     if(!Murata_LoRaWAN_Send((uint8_t *)loraMessage, i))
 456:../../applications/murata-dualstack-example-ns/src/murata-dualstack-example-ns.c ****     {
 457:../../applications/murata-dualstack-example-ns/src/murata-dualstack-example-ns.c ****       murata_init++;
 458:../../applications/murata-dualstack-example-ns/src/murata-dualstack-example-ns.c ****       if(murata_init == 10)
 459:../../applications/murata-dualstack-example-ns/src/murata-dualstack-example-ns.c ****         murata_init == 0;
 460:../../applications/murata-dualstack-example-ns/src/murata-dualstack-example-ns.c ****     }
 461:../../applications/murata-dualstack-example-ns/src/murata-dualstack-example-ns.c ****     else
 462:../../applications/murata-dualstack-example-ns/src/murata-dualstack-example-ns.c ****     {
 463:../../applications/murata-dualstack-example-ns/src/murata-dualstack-example-ns.c ****       murata_init = 1;
 464:../../applications/murata-dualstack-example-ns/src/murata-dualstack-example-ns.c ****     }
 465:../../applications/murata-dualstack-example-ns/src/murata-dualstack-example-ns.c ****     //BLOCK TX MUTEX FOR 3s
 466:../../applications/murata-dualstack-example-ns/src/murata-dualstack-example-ns.c ****     //osDelay(3000);
 467:../../applications/murata-dualstack-example-ns/src/murata-dualstack-example-ns.c ****     //osMutexRelease(txMutexId);
 468:../../applications/murata-dualstack-example-ns/src/murata-dualstack-example-ns.c ****     LoRaWAN_Counter++;
 469:../../applications/murata-dualstack-example-ns/src/murata-dualstack-example-ns.c ****   }
 470:../../applications/murata-dualstack-example-ns/src/murata-dualstack-example-ns.c ****   else{
 471:../../applications/murata-dualstack-example-ns/src/murata-dualstack-example-ns.c ****     printf("murata not initialized, not sending\r\n");
 472:../../applications/murata-dualstack-example-ns/src/murata-dualstack-example-ns.c ****   }
 473:../../applications/murata-dualstack-example-ns/src/murata-dualstack-example-ns.c **** } */
ARM GAS  C:\Users\yvesk\AppData\Local\Temp\ccsBUdhh.s 			page 13


 474:../../applications/murata-dualstack-example-ns/src/murata-dualstack-example-ns.c **** 
 475:../../applications/murata-dualstack-example-ns/src/murata-dualstack-example-ns.c **** void LoRaWAN_send(void const *argument)
 476:../../applications/murata-dualstack-example-ns/src/murata-dualstack-example-ns.c **** {
 219              		.loc 1 476 1 is_stmt 1 view -0
 220              		.cfi_startproc
 221              		@ args = 0, pretend = 0, frame = 8
 222              		@ frame_needed = 0, uses_anonymous_args = 0
 223              		.loc 1 476 1 is_stmt 0 view .LVU45
 224 0000 00B5     		push	{lr}
 225              	.LCFI5:
 226              		.cfi_def_cfa_offset 4
 227              		.cfi_offset 14, -4
 228 0002 83B0     		sub	sp, sp, #12
 229              	.LCFI6:
 230              		.cfi_def_cfa_offset 16
 477:../../applications/murata-dualstack-example-ns/src/murata-dualstack-example-ns.c ****   if (murata_init)
 231              		.loc 1 477 3 is_stmt 1 view .LVU46
 232              		.loc 1 477 7 is_stmt 0 view .LVU47
 233 0004 174B     		ldr	r3, .L19
 234 0006 1B78     		ldrb	r3, [r3]	@ zero_extendqisi2
 235              		.loc 1 477 6 view .LVU48
 236 0008 3BB3     		cbz	r3, .L14
 237              	.LBB4:
 478:../../applications/murata-dualstack-example-ns/src/murata-dualstack-example-ns.c ****   {
 479:../../applications/murata-dualstack-example-ns/src/murata-dualstack-example-ns.c ****     uint8_t loraMessage[5];
 238              		.loc 1 479 5 is_stmt 1 view .LVU49
 480:../../applications/murata-dualstack-example-ns/src/murata-dualstack-example-ns.c ****     uint8_t i = 0;
 239              		.loc 1 480 5 view .LVU50
 240              	.LVL7:
 481:../../applications/murata-dualstack-example-ns/src/murata-dualstack-example-ns.c ****     //uint16 counter to uint8 array (little endian)
 482:../../applications/murata-dualstack-example-ns/src/murata-dualstack-example-ns.c ****     //counter (large) type byte
 483:../../applications/murata-dualstack-example-ns/src/murata-dualstack-example-ns.c ****     loraMessage[i++] = SHTData[0];
 241              		.loc 1 483 5 view .LVU51
 242              		.loc 1 483 31 is_stmt 0 view .LVU52
 243 000a 174A     		ldr	r2, .L19+4
 244 000c D2ED007A 		vldr.32	s15, [r2]
 245              	.LVL8:
 246              		.loc 1 483 22 view .LVU53
 247 0010 FCEEE77A 		vcvt.u32.f32	s15, s15
 248 0014 17EE903A 		vmov	r3, s15	@ int
 249 0018 8DF80030 		strb	r3, [sp]
 484:../../applications/murata-dualstack-example-ns/src/murata-dualstack-example-ns.c ****     loraMessage[i++] = SHTData[1];
 250              		.loc 1 484 5 is_stmt 1 view .LVU54
 251              		.loc 1 484 31 is_stmt 0 view .LVU55
 252 001c D2ED017A 		vldr.32	s15, [r2, #4]
 253              	.LVL9:
 254              		.loc 1 484 22 view .LVU56
 255 0020 FCEEE77A 		vcvt.u32.f32	s15, s15
 256 0024 17EE903A 		vmov	r3, s15	@ int
 257 0028 8DF80130 		strb	r3, [sp, #1]
 485:../../applications/murata-dualstack-example-ns/src/murata-dualstack-example-ns.c ****     loraMessage[i++] = 0x00;
 258              		.loc 1 485 5 is_stmt 1 view .LVU57
 259              	.LVL10:
 260              		.loc 1 485 22 is_stmt 0 view .LVU58
 261 002c 0023     		movs	r3, #0
 262 002e 8DF80230 		strb	r3, [sp, #2]
 486:../../applications/murata-dualstack-example-ns/src/murata-dualstack-example-ns.c ****     
ARM GAS  C:\Users\yvesk\AppData\Local\Temp\ccsBUdhh.s 			page 14


 487:../../applications/murata-dualstack-example-ns/src/murata-dualstack-example-ns.c ****     //osMutexWait(txMutexId, osWaitForever);
 488:../../applications/murata-dualstack-example-ns/src/murata-dualstack-example-ns.c ****     if(!Murata_LoRaWAN_Send((uint8_t *)loraMessage, i))
 263              		.loc 1 488 5 is_stmt 1 view .LVU59
 264              		.loc 1 488 9 is_stmt 0 view .LVU60
 265 0032 0321     		movs	r1, #3
 266 0034 6846     		mov	r0, sp
 267              	.LVL11:
 268              		.loc 1 488 9 view .LVU61
 269 0036 FFF7FEFF 		bl	Murata_LoRaWAN_Send
 270              	.LVL12:
 271              		.loc 1 488 7 view .LVU62
 272 003a 50B9     		cbnz	r0, .L15
 489:../../applications/murata-dualstack-example-ns/src/murata-dualstack-example-ns.c ****     {
 490:../../applications/murata-dualstack-example-ns/src/murata-dualstack-example-ns.c ****       murata_init++;
 273              		.loc 1 490 7 is_stmt 1 view .LVU63
 274              		.loc 1 490 18 is_stmt 0 view .LVU64
 275 003c 094A     		ldr	r2, .L19
 276 003e 1378     		ldrb	r3, [r2]	@ zero_extendqisi2
 277 0040 0133     		adds	r3, r3, #1
 278 0042 1370     		strb	r3, [r2]
 491:../../applications/murata-dualstack-example-ns/src/murata-dualstack-example-ns.c ****       if(murata_init == 10)
 279              		.loc 1 491 7 is_stmt 1 view .LVU65
 280              	.L16:
 492:../../applications/murata-dualstack-example-ns/src/murata-dualstack-example-ns.c ****         murata_init == 0;
 493:../../applications/murata-dualstack-example-ns/src/murata-dualstack-example-ns.c ****     }
 494:../../applications/murata-dualstack-example-ns/src/murata-dualstack-example-ns.c ****     else
 495:../../applications/murata-dualstack-example-ns/src/murata-dualstack-example-ns.c ****     {
 496:../../applications/murata-dualstack-example-ns/src/murata-dualstack-example-ns.c ****       murata_init = 1;
 497:../../applications/murata-dualstack-example-ns/src/murata-dualstack-example-ns.c ****     }
 498:../../applications/murata-dualstack-example-ns/src/murata-dualstack-example-ns.c ****     //BLOCK TX MUTEX FOR 3s
 499:../../applications/murata-dualstack-example-ns/src/murata-dualstack-example-ns.c ****     //osDelay(3000);
 500:../../applications/murata-dualstack-example-ns/src/murata-dualstack-example-ns.c ****     //osMutexRelease(txMutexId);
 501:../../applications/murata-dualstack-example-ns/src/murata-dualstack-example-ns.c ****     LoRaWAN_Counter++;
 281              		.loc 1 501 5 discriminator 1 view .LVU66
 282              		.loc 1 501 20 is_stmt 0 discriminator 1 view .LVU67
 283 0044 094A     		ldr	r2, .L19+8
 284 0046 1388     		ldrh	r3, [r2]
 285 0048 0133     		adds	r3, r3, #1
 286 004a 1380     		strh	r3, [r2]	@ movhi
 287              	.LVL13:
 288              	.L13:
 289              		.loc 1 501 20 discriminator 1 view .LVU68
 290              	.LBE4:
 502:../../applications/murata-dualstack-example-ns/src/murata-dualstack-example-ns.c ****   }
 503:../../applications/murata-dualstack-example-ns/src/murata-dualstack-example-ns.c ****   else{
 504:../../applications/murata-dualstack-example-ns/src/murata-dualstack-example-ns.c ****     printf("murata not initialized, not sending\r\n");
 505:../../applications/murata-dualstack-example-ns/src/murata-dualstack-example-ns.c ****   }
 506:../../applications/murata-dualstack-example-ns/src/murata-dualstack-example-ns.c **** }
 291              		.loc 1 506 1 view .LVU69
 292 004c 03B0     		add	sp, sp, #12
 293              	.LCFI7:
 294              		.cfi_remember_state
 295              		.cfi_def_cfa_offset 4
 296              		@ sp needed
 297 004e 5DF804FB 		ldr	pc, [sp], #4
 298              	.LVL14:
 299              	.L15:
ARM GAS  C:\Users\yvesk\AppData\Local\Temp\ccsBUdhh.s 			page 15


 300              	.LCFI8:
 301              		.cfi_restore_state
 302              	.LBB5:
 496:../../applications/murata-dualstack-example-ns/src/murata-dualstack-example-ns.c ****     }
 303              		.loc 1 496 7 is_stmt 1 view .LVU70
 496:../../applications/murata-dualstack-example-ns/src/murata-dualstack-example-ns.c ****     }
 304              		.loc 1 496 19 is_stmt 0 view .LVU71
 305 0052 044B     		ldr	r3, .L19
 306 0054 0122     		movs	r2, #1
 307 0056 1A70     		strb	r2, [r3]
 308 0058 F4E7     		b	.L16
 309              	.LVL15:
 310              	.L14:
 496:../../applications/murata-dualstack-example-ns/src/murata-dualstack-example-ns.c ****     }
 311              		.loc 1 496 19 view .LVU72
 312              	.LBE5:
 504:../../applications/murata-dualstack-example-ns/src/murata-dualstack-example-ns.c ****   }
 313              		.loc 1 504 5 is_stmt 1 view .LVU73
 314 005a 0548     		ldr	r0, .L19+12
 315              	.LVL16:
 504:../../applications/murata-dualstack-example-ns/src/murata-dualstack-example-ns.c ****   }
 316              		.loc 1 504 5 is_stmt 0 view .LVU74
 317 005c FFF7FEFF 		bl	puts
 318              	.LVL17:
 319              		.loc 1 506 1 view .LVU75
 320 0060 F4E7     		b	.L13
 321              	.L20:
 322 0062 00BF     		.align	2
 323              	.L19:
 324 0064 00000000 		.word	.LANCHOR3
 325 0068 00000000 		.word	SHTData
 326 006c 00000000 		.word	.LANCHOR4
 327 0070 00000000 		.word	.LC2
 328              		.cfi_endproc
 329              	.LFE137:
 331              		.section	.text.Dash7_send,"ax",%progbits
 332              		.align	1
 333              		.global	Dash7_send
 334              		.syntax unified
 335              		.thumb
 336              		.thumb_func
 337              		.fpu fpv4-sp-d16
 339              	Dash7_send:
 340              	.LVL18:
 341              	.LFB138:
 507:../../applications/murata-dualstack-example-ns/src/murata-dualstack-example-ns.c **** 
 508:../../applications/murata-dualstack-example-ns/src/murata-dualstack-example-ns.c **** 
 509:../../applications/murata-dualstack-example-ns/src/murata-dualstack-example-ns.c **** void Dash7_send(void const *argument)
 510:../../applications/murata-dualstack-example-ns/src/murata-dualstack-example-ns.c **** {
 342              		.loc 1 510 1 is_stmt 1 view -0
 343              		.cfi_startproc
 344              		@ args = 0, pretend = 0, frame = 8
 345              		@ frame_needed = 0, uses_anonymous_args = 0
 346              		.loc 1 510 1 is_stmt 0 view .LVU77
 347 0000 00B5     		push	{lr}
 348              	.LCFI9:
 349              		.cfi_def_cfa_offset 4
ARM GAS  C:\Users\yvesk\AppData\Local\Temp\ccsBUdhh.s 			page 16


 350              		.cfi_offset 14, -4
 351 0002 83B0     		sub	sp, sp, #12
 352              	.LCFI10:
 353              		.cfi_def_cfa_offset 16
 511:../../applications/murata-dualstack-example-ns/src/murata-dualstack-example-ns.c ****   if (murata_init)
 354              		.loc 1 511 3 is_stmt 1 view .LVU78
 355              		.loc 1 511 7 is_stmt 0 view .LVU79
 356 0004 154B     		ldr	r3, .L27
 357 0006 1B78     		ldrb	r3, [r3]	@ zero_extendqisi2
 358              		.loc 1 511 6 view .LVU80
 359 0008 23B3     		cbz	r3, .L22
 360              	.LBB6:
 512:../../applications/murata-dualstack-example-ns/src/murata-dualstack-example-ns.c ****   {
 513:../../applications/murata-dualstack-example-ns/src/murata-dualstack-example-ns.c ****     uint8_t dash7Message[5];
 361              		.loc 1 513 5 is_stmt 1 view .LVU81
 514:../../applications/murata-dualstack-example-ns/src/murata-dualstack-example-ns.c ****     uint8_t i = 0;
 362              		.loc 1 514 5 view .LVU82
 363              	.LVL19:
 515:../../applications/murata-dualstack-example-ns/src/murata-dualstack-example-ns.c ****     //uint16 counter to uint8 array (little endian)
 516:../../applications/murata-dualstack-example-ns/src/murata-dualstack-example-ns.c ****     //counter (large) type byte
 517:../../applications/murata-dualstack-example-ns/src/murata-dualstack-example-ns.c ****     dash7Message[i++] = 0x14;
 364              		.loc 1 517 5 view .LVU83
 365              		.loc 1 517 23 is_stmt 0 view .LVU84
 366 000a 1423     		movs	r3, #20
 367 000c 8DF80030 		strb	r3, [sp]
 518:../../applications/murata-dualstack-example-ns/src/murata-dualstack-example-ns.c ****     dash7Message[i++] = DASH7_Counter;
 368              		.loc 1 518 5 is_stmt 1 view .LVU85
 369              		.loc 1 518 23 is_stmt 0 view .LVU86
 370 0010 134B     		ldr	r3, .L27+4
 371 0012 1B88     		ldrh	r3, [r3]
 372              	.LVL20:
 373              		.loc 1 518 23 view .LVU87
 374 0014 8DF80130 		strb	r3, [sp, #1]
 519:../../applications/murata-dualstack-example-ns/src/murata-dualstack-example-ns.c ****     dash7Message[i++] = DASH7_Counter >> 8;
 375              		.loc 1 519 5 is_stmt 1 view .LVU88
 376              	.LVL21:
 377              		.loc 1 519 23 is_stmt 0 view .LVU89
 378 0018 1B0A     		lsrs	r3, r3, #8
 379 001a 8DF80230 		strb	r3, [sp, #2]
 520:../../applications/murata-dualstack-example-ns/src/murata-dualstack-example-ns.c ****     dash7Message[i++] = 0x00;
 380              		.loc 1 520 5 is_stmt 1 view .LVU90
 381              	.LVL22:
 382              		.loc 1 520 23 is_stmt 0 view .LVU91
 383 001e 0023     		movs	r3, #0
 384 0020 8DF80330 		strb	r3, [sp, #3]
 521:../../applications/murata-dualstack-example-ns/src/murata-dualstack-example-ns.c ****     dash7Message[i++] = 0x00;
 385              		.loc 1 521 5 is_stmt 1 view .LVU92
 386              	.LVL23:
 387              		.loc 1 521 23 is_stmt 0 view .LVU93
 388 0024 8DF80430 		strb	r3, [sp, #4]
 522:../../applications/murata-dualstack-example-ns/src/murata-dualstack-example-ns.c ****     dash7Message[i++] = 0x00;
 389              		.loc 1 522 5 is_stmt 1 view .LVU94
 390              	.LVL24:
 391              		.loc 1 522 23 is_stmt 0 view .LVU95
 392 0028 8DF80530 		strb	r3, [sp, #5]
 523:../../applications/murata-dualstack-example-ns/src/murata-dualstack-example-ns.c ****     //osMutexWait(txMutexId, osWaitForever);
 524:../../applications/murata-dualstack-example-ns/src/murata-dualstack-example-ns.c ****     if(!Murata_Dash7_Send((uint8_t *)dash7Message, i))
ARM GAS  C:\Users\yvesk\AppData\Local\Temp\ccsBUdhh.s 			page 17


 393              		.loc 1 524 5 is_stmt 1 view .LVU96
 394              		.loc 1 524 9 is_stmt 0 view .LVU97
 395 002c 0621     		movs	r1, #6
 396 002e 6846     		mov	r0, sp
 397              	.LVL25:
 398              		.loc 1 524 9 view .LVU98
 399 0030 FFF7FEFF 		bl	Murata_Dash7_Send
 400              	.LVL26:
 401              		.loc 1 524 7 view .LVU99
 402 0034 50B9     		cbnz	r0, .L23
 525:../../applications/murata-dualstack-example-ns/src/murata-dualstack-example-ns.c ****     {
 526:../../applications/murata-dualstack-example-ns/src/murata-dualstack-example-ns.c ****       murata_init++;
 403              		.loc 1 526 7 is_stmt 1 view .LVU100
 404              		.loc 1 526 18 is_stmt 0 view .LVU101
 405 0036 094A     		ldr	r2, .L27
 406 0038 1378     		ldrb	r3, [r2]	@ zero_extendqisi2
 407 003a 0133     		adds	r3, r3, #1
 408 003c 1370     		strb	r3, [r2]
 527:../../applications/murata-dualstack-example-ns/src/murata-dualstack-example-ns.c ****       if(murata_init == 10)
 409              		.loc 1 527 7 is_stmt 1 view .LVU102
 410              	.L24:
 528:../../applications/murata-dualstack-example-ns/src/murata-dualstack-example-ns.c ****         murata_init == 0;
 529:../../applications/murata-dualstack-example-ns/src/murata-dualstack-example-ns.c ****     }
 530:../../applications/murata-dualstack-example-ns/src/murata-dualstack-example-ns.c ****     else
 531:../../applications/murata-dualstack-example-ns/src/murata-dualstack-example-ns.c ****     {
 532:../../applications/murata-dualstack-example-ns/src/murata-dualstack-example-ns.c ****       murata_init = 1;
 533:../../applications/murata-dualstack-example-ns/src/murata-dualstack-example-ns.c ****     }
 534:../../applications/murata-dualstack-example-ns/src/murata-dualstack-example-ns.c ****     //BLOCK TX MUTEX FOR 3s
 535:../../applications/murata-dualstack-example-ns/src/murata-dualstack-example-ns.c ****     //osDelay(3000);
 536:../../applications/murata-dualstack-example-ns/src/murata-dualstack-example-ns.c ****     //osMutexRelease(txMutexId);
 537:../../applications/murata-dualstack-example-ns/src/murata-dualstack-example-ns.c ****     DASH7_Counter++;
 411              		.loc 1 537 5 discriminator 1 view .LVU103
 412              		.loc 1 537 18 is_stmt 0 discriminator 1 view .LVU104
 413 003e 084A     		ldr	r2, .L27+4
 414 0040 1388     		ldrh	r3, [r2]
 415 0042 0133     		adds	r3, r3, #1
 416 0044 1380     		strh	r3, [r2]	@ movhi
 417              	.LVL27:
 418              	.L21:
 419              		.loc 1 537 18 discriminator 1 view .LVU105
 420              	.LBE6:
 538:../../applications/murata-dualstack-example-ns/src/murata-dualstack-example-ns.c ****   }
 539:../../applications/murata-dualstack-example-ns/src/murata-dualstack-example-ns.c ****   else{
 540:../../applications/murata-dualstack-example-ns/src/murata-dualstack-example-ns.c ****     printf("murata not initialized, not sending\r\n");
 541:../../applications/murata-dualstack-example-ns/src/murata-dualstack-example-ns.c ****   }
 542:../../applications/murata-dualstack-example-ns/src/murata-dualstack-example-ns.c **** }
 421              		.loc 1 542 1 view .LVU106
 422 0046 03B0     		add	sp, sp, #12
 423              	.LCFI11:
 424              		.cfi_remember_state
 425              		.cfi_def_cfa_offset 4
 426              		@ sp needed
 427 0048 5DF804FB 		ldr	pc, [sp], #4
 428              	.LVL28:
 429              	.L23:
 430              	.LCFI12:
 431              		.cfi_restore_state
ARM GAS  C:\Users\yvesk\AppData\Local\Temp\ccsBUdhh.s 			page 18


 432              	.LBB7:
 532:../../applications/murata-dualstack-example-ns/src/murata-dualstack-example-ns.c ****     }
 433              		.loc 1 532 7 is_stmt 1 view .LVU107
 532:../../applications/murata-dualstack-example-ns/src/murata-dualstack-example-ns.c ****     }
 434              		.loc 1 532 19 is_stmt 0 view .LVU108
 435 004c 034B     		ldr	r3, .L27
 436 004e 0122     		movs	r2, #1
 437 0050 1A70     		strb	r2, [r3]
 438 0052 F4E7     		b	.L24
 439              	.LVL29:
 440              	.L22:
 532:../../applications/murata-dualstack-example-ns/src/murata-dualstack-example-ns.c ****     }
 441              		.loc 1 532 19 view .LVU109
 442              	.LBE7:
 540:../../applications/murata-dualstack-example-ns/src/murata-dualstack-example-ns.c ****   }
 443              		.loc 1 540 5 is_stmt 1 view .LVU110
 444 0054 0348     		ldr	r0, .L27+8
 445              	.LVL30:
 540:../../applications/murata-dualstack-example-ns/src/murata-dualstack-example-ns.c ****   }
 446              		.loc 1 540 5 is_stmt 0 view .LVU111
 447 0056 FFF7FEFF 		bl	puts
 448              	.LVL31:
 449              		.loc 1 542 1 view .LVU112
 450 005a F4E7     		b	.L21
 451              	.L28:
 452              		.align	2
 453              	.L27:
 454 005c 00000000 		.word	.LANCHOR3
 455 0060 00000000 		.word	.LANCHOR5
 456 0064 00000000 		.word	.LC2
 457              		.cfi_endproc
 458              	.LFE138:
 460              		.section	.text.Dash7_send_temphum,"ax",%progbits
 461              		.align	1
 462              		.global	Dash7_send_temphum
 463              		.syntax unified
 464              		.thumb
 465              		.thumb_func
 466              		.fpu fpv4-sp-d16
 468              	Dash7_send_temphum:
 469              	.LVL32:
 470              	.LFB139:
 543:../../applications/murata-dualstack-example-ns/src/murata-dualstack-example-ns.c **** 
 544:../../applications/murata-dualstack-example-ns/src/murata-dualstack-example-ns.c **** void Dash7_send_temphum(void const *argument)
 545:../../applications/murata-dualstack-example-ns/src/murata-dualstack-example-ns.c **** {
 471              		.loc 1 545 1 is_stmt 1 view -0
 472              		.cfi_startproc
 473              		@ args = 0, pretend = 0, frame = 8
 474              		@ frame_needed = 0, uses_anonymous_args = 0
 475              		.loc 1 545 1 is_stmt 0 view .LVU114
 476 0000 00B5     		push	{lr}
 477              	.LCFI13:
 478              		.cfi_def_cfa_offset 4
 479              		.cfi_offset 14, -4
 480 0002 83B0     		sub	sp, sp, #12
 481              	.LCFI14:
 482              		.cfi_def_cfa_offset 16
ARM GAS  C:\Users\yvesk\AppData\Local\Temp\ccsBUdhh.s 			page 19


 546:../../applications/murata-dualstack-example-ns/src/murata-dualstack-example-ns.c ****   if (murata_init)
 483              		.loc 1 546 3 is_stmt 1 view .LVU115
 484              		.loc 1 546 7 is_stmt 0 view .LVU116
 485 0004 1A4B     		ldr	r3, .L35
 486 0006 1B78     		ldrb	r3, [r3]	@ zero_extendqisi2
 487              		.loc 1 546 6 view .LVU117
 488 0008 6BB3     		cbz	r3, .L30
 489              	.LBB8:
 547:../../applications/murata-dualstack-example-ns/src/murata-dualstack-example-ns.c ****   {
 548:../../applications/murata-dualstack-example-ns/src/murata-dualstack-example-ns.c ****     uint8_t dash7Message[5];
 490              		.loc 1 548 5 is_stmt 1 view .LVU118
 549:../../applications/murata-dualstack-example-ns/src/murata-dualstack-example-ns.c ****     uint8_t i = 0;
 491              		.loc 1 549 5 view .LVU119
 492              	.LVL33:
 550:../../applications/murata-dualstack-example-ns/src/murata-dualstack-example-ns.c ****     //uint16 counter to uint8 array (little endian)
 551:../../applications/murata-dualstack-example-ns/src/murata-dualstack-example-ns.c ****     //counter (large) type byte
 552:../../applications/murata-dualstack-example-ns/src/murata-dualstack-example-ns.c ****     dash7Message[i++] = SHTData[0];
 493              		.loc 1 552 5 view .LVU120
 494              		.loc 1 552 32 is_stmt 0 view .LVU121
 495 000a 1A4A     		ldr	r2, .L35+4
 496 000c D2ED007A 		vldr.32	s15, [r2]
 497              	.LVL34:
 498              		.loc 1 552 23 view .LVU122
 499 0010 FCEEE77A 		vcvt.u32.f32	s15, s15
 500 0014 17EE903A 		vmov	r3, s15	@ int
 501 0018 8DF80030 		strb	r3, [sp]
 553:../../applications/murata-dualstack-example-ns/src/murata-dualstack-example-ns.c ****     dash7Message[i++] = SHTData[1];
 502              		.loc 1 553 5 is_stmt 1 view .LVU123
 503              		.loc 1 553 32 is_stmt 0 view .LVU124
 504 001c D2ED017A 		vldr.32	s15, [r2, #4]
 505              	.LVL35:
 506              		.loc 1 553 23 view .LVU125
 507 0020 FCEEE77A 		vcvt.u32.f32	s15, s15
 508 0024 17EE903A 		vmov	r3, s15	@ int
 509 0028 8DF80130 		strb	r3, [sp, #1]
 554:../../applications/murata-dualstack-example-ns/src/murata-dualstack-example-ns.c ****     dash7Message[i++] = 0x00;
 510              		.loc 1 554 5 is_stmt 1 view .LVU126
 511              	.LVL36:
 512              		.loc 1 554 23 is_stmt 0 view .LVU127
 513 002c 0023     		movs	r3, #0
 514 002e 8DF80230 		strb	r3, [sp, #2]
 555:../../applications/murata-dualstack-example-ns/src/murata-dualstack-example-ns.c ****     dash7Message[i++] = 0x00;
 515              		.loc 1 555 5 is_stmt 1 view .LVU128
 516              	.LVL37:
 517              		.loc 1 555 23 is_stmt 0 view .LVU129
 518 0032 8DF80330 		strb	r3, [sp, #3]
 556:../../applications/murata-dualstack-example-ns/src/murata-dualstack-example-ns.c ****     dash7Message[i++] = 0x00;
 519              		.loc 1 556 5 is_stmt 1 view .LVU130
 520              	.LVL38:
 521              		.loc 1 556 23 is_stmt 0 view .LVU131
 522 0036 8DF80430 		strb	r3, [sp, #4]
 557:../../applications/murata-dualstack-example-ns/src/murata-dualstack-example-ns.c ****     dash7Message[i++] = 0x00;
 523              		.loc 1 557 5 is_stmt 1 view .LVU132
 524              	.LVL39:
 525              		.loc 1 557 23 is_stmt 0 view .LVU133
 526 003a 8DF80530 		strb	r3, [sp, #5]
 558:../../applications/murata-dualstack-example-ns/src/murata-dualstack-example-ns.c ****     //osMutexWait(txMutexId, osWaitForever);
ARM GAS  C:\Users\yvesk\AppData\Local\Temp\ccsBUdhh.s 			page 20


 559:../../applications/murata-dualstack-example-ns/src/murata-dualstack-example-ns.c ****     if(!Murata_Dash7_Send((uint8_t *)dash7Message, i))
 527              		.loc 1 559 5 is_stmt 1 view .LVU134
 528              		.loc 1 559 9 is_stmt 0 view .LVU135
 529 003e 0621     		movs	r1, #6
 530 0040 6846     		mov	r0, sp
 531              	.LVL40:
 532              		.loc 1 559 9 view .LVU136
 533 0042 FFF7FEFF 		bl	Murata_Dash7_Send
 534              	.LVL41:
 535              		.loc 1 559 7 view .LVU137
 536 0046 50B9     		cbnz	r0, .L31
 560:../../applications/murata-dualstack-example-ns/src/murata-dualstack-example-ns.c ****     {
 561:../../applications/murata-dualstack-example-ns/src/murata-dualstack-example-ns.c ****       murata_init++;
 537              		.loc 1 561 7 is_stmt 1 view .LVU138
 538              		.loc 1 561 18 is_stmt 0 view .LVU139
 539 0048 094A     		ldr	r2, .L35
 540 004a 1378     		ldrb	r3, [r2]	@ zero_extendqisi2
 541 004c 0133     		adds	r3, r3, #1
 542 004e 1370     		strb	r3, [r2]
 562:../../applications/murata-dualstack-example-ns/src/murata-dualstack-example-ns.c ****       if(murata_init == 10)
 543              		.loc 1 562 7 is_stmt 1 view .LVU140
 544              	.L32:
 563:../../applications/murata-dualstack-example-ns/src/murata-dualstack-example-ns.c ****         murata_init == 0;
 564:../../applications/murata-dualstack-example-ns/src/murata-dualstack-example-ns.c ****     }
 565:../../applications/murata-dualstack-example-ns/src/murata-dualstack-example-ns.c ****     else
 566:../../applications/murata-dualstack-example-ns/src/murata-dualstack-example-ns.c ****     {
 567:../../applications/murata-dualstack-example-ns/src/murata-dualstack-example-ns.c ****       murata_init = 1;
 568:../../applications/murata-dualstack-example-ns/src/murata-dualstack-example-ns.c ****     }
 569:../../applications/murata-dualstack-example-ns/src/murata-dualstack-example-ns.c ****     //BLOCK TX MUTEX FOR 3s
 570:../../applications/murata-dualstack-example-ns/src/murata-dualstack-example-ns.c ****     //osDelay(3000);
 571:../../applications/murata-dualstack-example-ns/src/murata-dualstack-example-ns.c ****     //osMutexRelease(txMutexId);
 572:../../applications/murata-dualstack-example-ns/src/murata-dualstack-example-ns.c ****     DASH7_Counter++;
 545              		.loc 1 572 5 discriminator 1 view .LVU141
 546              		.loc 1 572 18 is_stmt 0 discriminator 1 view .LVU142
 547 0050 094A     		ldr	r2, .L35+8
 548 0052 1388     		ldrh	r3, [r2]
 549 0054 0133     		adds	r3, r3, #1
 550 0056 1380     		strh	r3, [r2]	@ movhi
 551              	.LVL42:
 552              	.L29:
 553              		.loc 1 572 18 discriminator 1 view .LVU143
 554              	.LBE8:
 573:../../applications/murata-dualstack-example-ns/src/murata-dualstack-example-ns.c ****   }
 574:../../applications/murata-dualstack-example-ns/src/murata-dualstack-example-ns.c ****   else{
 575:../../applications/murata-dualstack-example-ns/src/murata-dualstack-example-ns.c ****     printf("murata not initialized, not sending\r\n");
 576:../../applications/murata-dualstack-example-ns/src/murata-dualstack-example-ns.c ****   }
 577:../../applications/murata-dualstack-example-ns/src/murata-dualstack-example-ns.c **** }
 555              		.loc 1 577 1 view .LVU144
 556 0058 03B0     		add	sp, sp, #12
 557              	.LCFI15:
 558              		.cfi_remember_state
 559              		.cfi_def_cfa_offset 4
 560              		@ sp needed
 561 005a 5DF804FB 		ldr	pc, [sp], #4
 562              	.LVL43:
 563              	.L31:
 564              	.LCFI16:
ARM GAS  C:\Users\yvesk\AppData\Local\Temp\ccsBUdhh.s 			page 21


 565              		.cfi_restore_state
 566              	.LBB9:
 567:../../applications/murata-dualstack-example-ns/src/murata-dualstack-example-ns.c ****     }
 567              		.loc 1 567 7 is_stmt 1 view .LVU145
 567:../../applications/murata-dualstack-example-ns/src/murata-dualstack-example-ns.c ****     }
 568              		.loc 1 567 19 is_stmt 0 view .LVU146
 569 005e 044B     		ldr	r3, .L35
 570 0060 0122     		movs	r2, #1
 571 0062 1A70     		strb	r2, [r3]
 572 0064 F4E7     		b	.L32
 573              	.LVL44:
 574              	.L30:
 567:../../applications/murata-dualstack-example-ns/src/murata-dualstack-example-ns.c ****     }
 575              		.loc 1 567 19 view .LVU147
 576              	.LBE9:
 575:../../applications/murata-dualstack-example-ns/src/murata-dualstack-example-ns.c ****   }
 577              		.loc 1 575 5 is_stmt 1 view .LVU148
 578 0066 0548     		ldr	r0, .L35+12
 579              	.LVL45:
 575:../../applications/murata-dualstack-example-ns/src/murata-dualstack-example-ns.c ****   }
 580              		.loc 1 575 5 is_stmt 0 view .LVU149
 581 0068 FFF7FEFF 		bl	puts
 582              	.LVL46:
 583              		.loc 1 577 1 view .LVU150
 584 006c F4E7     		b	.L29
 585              	.L36:
 586 006e 00BF     		.align	2
 587              	.L35:
 588 0070 00000000 		.word	.LANCHOR3
 589 0074 00000000 		.word	SHTData
 590 0078 00000000 		.word	.LANCHOR5
 591 007c 00000000 		.word	.LC2
 592              		.cfi_endproc
 593              	.LFE139:
 595              		.section	.text.Dash7_send_allInfo,"ax",%progbits
 596              		.align	1
 597              		.global	Dash7_send_allInfo
 598              		.syntax unified
 599              		.thumb
 600              		.thumb_func
 601              		.fpu fpv4-sp-d16
 603              	Dash7_send_allInfo:
 604              	.LVL47:
 605              	.LFB140:
 578:../../applications/murata-dualstack-example-ns/src/murata-dualstack-example-ns.c **** 
 579:../../applications/murata-dualstack-example-ns/src/murata-dualstack-example-ns.c **** 
 580:../../applications/murata-dualstack-example-ns/src/murata-dualstack-example-ns.c **** void Dash7_send_allInfo(void const *argument)
 581:../../applications/murata-dualstack-example-ns/src/murata-dualstack-example-ns.c **** {
 606              		.loc 1 581 1 is_stmt 1 view -0
 607              		.cfi_startproc
 608              		@ args = 0, pretend = 0, frame = 8
 609              		@ frame_needed = 0, uses_anonymous_args = 0
 610              		.loc 1 581 1 is_stmt 0 view .LVU152
 611 0000 00B5     		push	{lr}
 612              	.LCFI17:
 613              		.cfi_def_cfa_offset 4
 614              		.cfi_offset 14, -4
ARM GAS  C:\Users\yvesk\AppData\Local\Temp\ccsBUdhh.s 			page 22


 615 0002 83B0     		sub	sp, sp, #12
 616              	.LCFI18:
 617              		.cfi_def_cfa_offset 16
 582:../../applications/murata-dualstack-example-ns/src/murata-dualstack-example-ns.c ****   if (murata_init)
 618              		.loc 1 582 3 is_stmt 1 view .LVU153
 619              		.loc 1 582 7 is_stmt 0 view .LVU154
 620 0004 1B4B     		ldr	r3, .L43
 621 0006 1B78     		ldrb	r3, [r3]	@ zero_extendqisi2
 622              		.loc 1 582 6 view .LVU155
 623 0008 7BB3     		cbz	r3, .L38
 624              	.LBB10:
 583:../../applications/murata-dualstack-example-ns/src/murata-dualstack-example-ns.c ****   {
 584:../../applications/murata-dualstack-example-ns/src/murata-dualstack-example-ns.c ****     uint8_t dash7Message[5];
 625              		.loc 1 584 5 is_stmt 1 view .LVU156
 585:../../applications/murata-dualstack-example-ns/src/murata-dualstack-example-ns.c ****     uint8_t i = 0;
 626              		.loc 1 585 5 view .LVU157
 627              	.LVL48:
 586:../../applications/murata-dualstack-example-ns/src/murata-dualstack-example-ns.c ****     //uint16 counter to uint8 array (little endian)
 587:../../applications/murata-dualstack-example-ns/src/murata-dualstack-example-ns.c ****     //counter (large) type byte
 588:../../applications/murata-dualstack-example-ns/src/murata-dualstack-example-ns.c ****     dash7Message[i++] = SHTData[0];
 628              		.loc 1 588 5 view .LVU158
 629              		.loc 1 588 32 is_stmt 0 view .LVU159
 630 000a 1B4A     		ldr	r2, .L43+4
 631 000c D2ED007A 		vldr.32	s15, [r2]
 632              	.LVL49:
 633              		.loc 1 588 23 view .LVU160
 634 0010 FCEEE77A 		vcvt.u32.f32	s15, s15
 635 0014 17EE903A 		vmov	r3, s15	@ int
 636 0018 8DF80030 		strb	r3, [sp]
 589:../../applications/murata-dualstack-example-ns/src/murata-dualstack-example-ns.c ****     dash7Message[i++] = SHTData[1];
 637              		.loc 1 589 5 is_stmt 1 view .LVU161
 638              		.loc 1 589 32 is_stmt 0 view .LVU162
 639 001c D2ED017A 		vldr.32	s15, [r2, #4]
 640              	.LVL50:
 641              		.loc 1 589 23 view .LVU163
 642 0020 FCEEE77A 		vcvt.u32.f32	s15, s15
 643 0024 17EE903A 		vmov	r3, s15	@ int
 644 0028 8DF80130 		strb	r3, [sp, #1]
 590:../../applications/murata-dualstack-example-ns/src/murata-dualstack-example-ns.c ****     dash7Message[i++] = rep_counter;
 645              		.loc 1 590 5 is_stmt 1 view .LVU164
 646              	.LVL51:
 647              		.loc 1 590 23 is_stmt 0 view .LVU165
 648 002c 134B     		ldr	r3, .L43+8
 649 002e 1B78     		ldrb	r3, [r3]	@ zero_extendqisi2
 650 0030 8DF80230 		strb	r3, [sp, #2]
 591:../../applications/murata-dualstack-example-ns/src/murata-dualstack-example-ns.c ****     dash7Message[i++] = 0x00;
 651              		.loc 1 591 5 is_stmt 1 view .LVU166
 652              	.LVL52:
 653              		.loc 1 591 23 is_stmt 0 view .LVU167
 654 0034 0023     		movs	r3, #0
 655 0036 8DF80330 		strb	r3, [sp, #3]
 592:../../applications/murata-dualstack-example-ns/src/murata-dualstack-example-ns.c ****     dash7Message[i++] = 0x00;
 656              		.loc 1 592 5 is_stmt 1 view .LVU168
 657              	.LVL53:
 658              		.loc 1 592 23 is_stmt 0 view .LVU169
 659 003a 8DF80430 		strb	r3, [sp, #4]
 593:../../applications/murata-dualstack-example-ns/src/murata-dualstack-example-ns.c ****     dash7Message[i++] = 0x00;
ARM GAS  C:\Users\yvesk\AppData\Local\Temp\ccsBUdhh.s 			page 23


 660              		.loc 1 593 5 is_stmt 1 view .LVU170
 661              	.LVL54:
 662              		.loc 1 593 23 is_stmt 0 view .LVU171
 663 003e 8DF80530 		strb	r3, [sp, #5]
 594:../../applications/murata-dualstack-example-ns/src/murata-dualstack-example-ns.c **** 
 595:../../applications/murata-dualstack-example-ns/src/murata-dualstack-example-ns.c ****     //osMutexWait(txMutexId, osWaitForever);
 596:../../applications/murata-dualstack-example-ns/src/murata-dualstack-example-ns.c ****     if(!Murata_Dash7_Send((uint8_t *)dash7Message, i))
 664              		.loc 1 596 5 is_stmt 1 view .LVU172
 665              		.loc 1 596 9 is_stmt 0 view .LVU173
 666 0042 0621     		movs	r1, #6
 667 0044 6846     		mov	r0, sp
 668              	.LVL55:
 669              		.loc 1 596 9 view .LVU174
 670 0046 FFF7FEFF 		bl	Murata_Dash7_Send
 671              	.LVL56:
 672              		.loc 1 596 7 view .LVU175
 673 004a 50B9     		cbnz	r0, .L39
 597:../../applications/murata-dualstack-example-ns/src/murata-dualstack-example-ns.c ****     {
 598:../../applications/murata-dualstack-example-ns/src/murata-dualstack-example-ns.c ****       murata_init++;
 674              		.loc 1 598 7 is_stmt 1 view .LVU176
 675              		.loc 1 598 18 is_stmt 0 view .LVU177
 676 004c 094A     		ldr	r2, .L43
 677 004e 1378     		ldrb	r3, [r2]	@ zero_extendqisi2
 678 0050 0133     		adds	r3, r3, #1
 679 0052 1370     		strb	r3, [r2]
 599:../../applications/murata-dualstack-example-ns/src/murata-dualstack-example-ns.c ****       if(murata_init == 10)
 680              		.loc 1 599 7 is_stmt 1 view .LVU178
 681              	.L40:
 600:../../applications/murata-dualstack-example-ns/src/murata-dualstack-example-ns.c ****         murata_init == 0;
 601:../../applications/murata-dualstack-example-ns/src/murata-dualstack-example-ns.c ****     }
 602:../../applications/murata-dualstack-example-ns/src/murata-dualstack-example-ns.c ****     else
 603:../../applications/murata-dualstack-example-ns/src/murata-dualstack-example-ns.c ****     {
 604:../../applications/murata-dualstack-example-ns/src/murata-dualstack-example-ns.c ****       murata_init = 1;
 605:../../applications/murata-dualstack-example-ns/src/murata-dualstack-example-ns.c ****     }
 606:../../applications/murata-dualstack-example-ns/src/murata-dualstack-example-ns.c ****     //BLOCK TX MUTEX FOR 3s
 607:../../applications/murata-dualstack-example-ns/src/murata-dualstack-example-ns.c ****     //osDelay(3000);
 608:../../applications/murata-dualstack-example-ns/src/murata-dualstack-example-ns.c ****     //osMutexRelease(txMutexId);
 609:../../applications/murata-dualstack-example-ns/src/murata-dualstack-example-ns.c ****     DASH7_Counter++;
 682              		.loc 1 609 5 discriminator 1 view .LVU179
 683              		.loc 1 609 18 is_stmt 0 discriminator 1 view .LVU180
 684 0054 0A4A     		ldr	r2, .L43+12
 685 0056 1388     		ldrh	r3, [r2]
 686 0058 0133     		adds	r3, r3, #1
 687 005a 1380     		strh	r3, [r2]	@ movhi
 688              	.LVL57:
 689              	.L37:
 690              		.loc 1 609 18 discriminator 1 view .LVU181
 691              	.LBE10:
 610:../../applications/murata-dualstack-example-ns/src/murata-dualstack-example-ns.c ****   }
 611:../../applications/murata-dualstack-example-ns/src/murata-dualstack-example-ns.c ****   else{
 612:../../applications/murata-dualstack-example-ns/src/murata-dualstack-example-ns.c ****     printf("murata not initialized, not sending\r\n");
 613:../../applications/murata-dualstack-example-ns/src/murata-dualstack-example-ns.c ****   }
 614:../../applications/murata-dualstack-example-ns/src/murata-dualstack-example-ns.c **** }
 692              		.loc 1 614 1 view .LVU182
 693 005c 03B0     		add	sp, sp, #12
 694              	.LCFI19:
 695              		.cfi_remember_state
ARM GAS  C:\Users\yvesk\AppData\Local\Temp\ccsBUdhh.s 			page 24


 696              		.cfi_def_cfa_offset 4
 697              		@ sp needed
 698 005e 5DF804FB 		ldr	pc, [sp], #4
 699              	.LVL58:
 700              	.L39:
 701              	.LCFI20:
 702              		.cfi_restore_state
 703              	.LBB11:
 604:../../applications/murata-dualstack-example-ns/src/murata-dualstack-example-ns.c ****     }
 704              		.loc 1 604 7 is_stmt 1 view .LVU183
 604:../../applications/murata-dualstack-example-ns/src/murata-dualstack-example-ns.c ****     }
 705              		.loc 1 604 19 is_stmt 0 view .LVU184
 706 0062 044B     		ldr	r3, .L43
 707 0064 0122     		movs	r2, #1
 708 0066 1A70     		strb	r2, [r3]
 709 0068 F4E7     		b	.L40
 710              	.LVL59:
 711              	.L38:
 604:../../applications/murata-dualstack-example-ns/src/murata-dualstack-example-ns.c ****     }
 712              		.loc 1 604 19 view .LVU185
 713              	.LBE11:
 612:../../applications/murata-dualstack-example-ns/src/murata-dualstack-example-ns.c ****   }
 714              		.loc 1 612 5 is_stmt 1 view .LVU186
 715 006a 0648     		ldr	r0, .L43+16
 716              	.LVL60:
 612:../../applications/murata-dualstack-example-ns/src/murata-dualstack-example-ns.c ****   }
 717              		.loc 1 612 5 is_stmt 0 view .LVU187
 718 006c FFF7FEFF 		bl	puts
 719              	.LVL61:
 720              		.loc 1 614 1 view .LVU188
 721 0070 F4E7     		b	.L37
 722              	.L44:
 723 0072 00BF     		.align	2
 724              	.L43:
 725 0074 00000000 		.word	.LANCHOR3
 726 0078 00000000 		.word	SHTData
 727 007c 00000000 		.word	.LANCHOR6
 728 0080 00000000 		.word	.LANCHOR5
 729 0084 00000000 		.word	.LC2
 730              		.cfi_endproc
 731              	.LFE140:
 733              		.section	.text.send_message,"ax",%progbits
 734              		.align	1
 735              		.global	send_message
 736              		.syntax unified
 737              		.thumb
 738              		.thumb_func
 739              		.fpu fpv4-sp-d16
 741              	send_message:
 742              	.LVL62:
 743              	.LFB136:
 421:../../applications/murata-dualstack-example-ns/src/murata-dualstack-example-ns.c ****   if (messageMode==0) {                 //dash7mode
 744              		.loc 1 421 33 is_stmt 1 view -0
 745              		.cfi_startproc
 746              		@ args = 0, pretend = 0, frame = 0
 747              		@ frame_needed = 0, uses_anonymous_args = 0
 421:../../applications/murata-dualstack-example-ns/src/murata-dualstack-example-ns.c ****   if (messageMode==0) {                 //dash7mode
ARM GAS  C:\Users\yvesk\AppData\Local\Temp\ccsBUdhh.s 			page 25


 748              		.loc 1 421 33 is_stmt 0 view .LVU190
 749 0000 08B5     		push	{r3, lr}
 750              	.LCFI21:
 751              		.cfi_def_cfa_offset 8
 752              		.cfi_offset 3, -8
 753              		.cfi_offset 14, -4
 422:../../applications/murata-dualstack-example-ns/src/murata-dualstack-example-ns.c ****     switch (type) {
 754              		.loc 1 422 3 is_stmt 1 view .LVU191
 422:../../applications/murata-dualstack-example-ns/src/murata-dualstack-example-ns.c ****     switch (type) {
 755              		.loc 1 422 18 is_stmt 0 view .LVU192
 756 0002 104B     		ldr	r3, .L53
 757 0004 1B78     		ldrb	r3, [r3]	@ zero_extendqisi2
 422:../../applications/murata-dualstack-example-ns/src/murata-dualstack-example-ns.c ****     switch (type) {
 758              		.loc 1 422 6 view .LVU193
 759 0006 9BB9     		cbnz	r3, .L46
 423:../../applications/murata-dualstack-example-ns/src/murata-dualstack-example-ns.c ****       case 1:
 760              		.loc 1 423 5 is_stmt 1 view .LVU194
 761 0008 0128     		cmp	r0, #1
 762 000a 05D0     		beq	.L47
 763 000c 0228     		cmp	r0, #2
 764 000e 09D0     		beq	.L48
 765              	.LBB12:
 433:../../applications/murata-dualstack-example-ns/src/murata-dualstack-example-ns.c ****       break;  
 766              		.loc 1 433 7 view .LVU195
 767 0010 0D48     		ldr	r0, .L53+4
 768              	.LVL63:
 433:../../applications/murata-dualstack-example-ns/src/murata-dualstack-example-ns.c ****       break;  
 769              		.loc 1 433 7 is_stmt 0 view .LVU196
 770 0012 FFF7FEFF 		bl	puts
 771              	.LVL64:
 434:../../applications/murata-dualstack-example-ns/src/murata-dualstack-example-ns.c ****     }
 772              		.loc 1 434 7 is_stmt 1 view .LVU197
 773 0016 13E0     		b	.L45
 774              	.LVL65:
 775              	.L47:
 425:../../applications/murata-dualstack-example-ns/src/murata-dualstack-example-ns.c ****       printf("sending temphum message\r\n");
 776              		.loc 1 425 7 view .LVU198
 777 0018 FFF7FEFF 		bl	Dash7_send_temphum
 778              	.LVL66:
 426:../../applications/murata-dualstack-example-ns/src/murata-dualstack-example-ns.c ****       break; 
 779              		.loc 1 426 7 view .LVU199
 780 001c 0B48     		ldr	r0, .L53+8
 781 001e FFF7FEFF 		bl	puts
 782              	.LVL67:
 427:../../applications/murata-dualstack-example-ns/src/murata-dualstack-example-ns.c ****       case 2:
 783              		.loc 1 427 7 view .LVU200
 784 0022 0DE0     		b	.L45
 785              	.LVL68:
 786              	.L48:
 429:../../applications/murata-dualstack-example-ns/src/murata-dualstack-example-ns.c ****       printf("sending allinfo message\r\n");
 787              		.loc 1 429 7 view .LVU201
 788 0024 FFF7FEFF 		bl	Dash7_send_allInfo
 789              	.LVL69:
 430:../../applications/murata-dualstack-example-ns/src/murata-dualstack-example-ns.c ****       break; 
 790              		.loc 1 430 7 view .LVU202
 791 0028 0948     		ldr	r0, .L53+12
 792 002a FFF7FEFF 		bl	puts
ARM GAS  C:\Users\yvesk\AppData\Local\Temp\ccsBUdhh.s 			page 26


 793              	.LVL70:
 431:../../applications/murata-dualstack-example-ns/src/murata-dualstack-example-ns.c ****       default:
 794              		.loc 1 431 7 view .LVU203
 795 002e 07E0     		b	.L45
 796              	.LVL71:
 797              	.L46:
 431:../../applications/murata-dualstack-example-ns/src/murata-dualstack-example-ns.c ****       default:
 798              		.loc 1 431 7 is_stmt 0 view .LVU204
 799              	.LBE12:
 800              	.LBB13:
 437:../../applications/murata-dualstack-example-ns/src/murata-dualstack-example-ns.c ****       Dash7_send_temphum(); 
 801              		.loc 1 437 7 is_stmt 1 view .LVU205
 802 0030 0020     		movs	r0, #0
 803              	.LVL72:
 437:../../applications/murata-dualstack-example-ns/src/murata-dualstack-example-ns.c ****       Dash7_send_temphum(); 
 804              		.loc 1 437 7 is_stmt 0 view .LVU206
 805 0032 FFF7FEFF 		bl	LoRaWAN_send
 806              	.LVL73:
 438:../../applications/murata-dualstack-example-ns/src/murata-dualstack-example-ns.c ****       printf("sending out of reach lorawan message\r\n");
 807              		.loc 1 438 7 is_stmt 1 view .LVU207
 808 0036 FFF7FEFF 		bl	Dash7_send_temphum
 809              	.LVL74:
 439:../../applications/murata-dualstack-example-ns/src/murata-dualstack-example-ns.c ****   }
 810              		.loc 1 439 7 view .LVU208
 811 003a 0648     		ldr	r0, .L53+16
 812 003c FFF7FEFF 		bl	puts
 813              	.LVL75:
 814              	.L45:
 815              	.LBE13:
 441:../../applications/murata-dualstack-example-ns/src/murata-dualstack-example-ns.c **** 
 816              		.loc 1 441 1 is_stmt 0 view .LVU209
 817 0040 08BD     		pop	{r3, pc}
 818              	.L54:
 819 0042 00BF     		.align	2
 820              	.L53:
 821 0044 00000000 		.word	.LANCHOR7
 822 0048 38000000 		.word	.LC5
 823 004c 00000000 		.word	.LC3
 824 0050 1C000000 		.word	.LC4
 825 0054 50000000 		.word	.LC6
 826              		.cfi_endproc
 827              	.LFE136:
 829              		.global	__aeabi_f2d
 830              		.section	.text.print_temp_hum,"ax",%progbits
 831              		.align	1
 832              		.global	print_temp_hum
 833              		.syntax unified
 834              		.thumb
 835              		.thumb_func
 836              		.fpu fpv4-sp-d16
 838              	print_temp_hum:
 839              	.LFB141:
 615:../../applications/murata-dualstack-example-ns/src/murata-dualstack-example-ns.c **** 
 616:../../applications/murata-dualstack-example-ns/src/murata-dualstack-example-ns.c **** 
 617:../../applications/murata-dualstack-example-ns/src/murata-dualstack-example-ns.c **** 
 618:../../applications/murata-dualstack-example-ns/src/murata-dualstack-example-ns.c **** void print_temp_hum(void){
 840              		.loc 1 618 26 is_stmt 1 view -0
ARM GAS  C:\Users\yvesk\AppData\Local\Temp\ccsBUdhh.s 			page 27


 841              		.cfi_startproc
 842              		@ args = 0, pretend = 0, frame = 0
 843              		@ frame_needed = 0, uses_anonymous_args = 0
 844 0000 38B5     		push	{r3, r4, r5, lr}
 845              	.LCFI22:
 846              		.cfi_def_cfa_offset 16
 847              		.cfi_offset 3, -16
 848              		.cfi_offset 4, -12
 849              		.cfi_offset 5, -8
 850              		.cfi_offset 14, -4
 619:../../applications/murata-dualstack-example-ns/src/murata-dualstack-example-ns.c ****   printf("\r\n");
 851              		.loc 1 619 3 view .LVU211
 852 0002 0C4C     		ldr	r4, .L57
 853 0004 2046     		mov	r0, r4
 854 0006 FFF7FEFF 		bl	puts
 855              	.LVL76:
 620:../../applications/murata-dualstack-example-ns/src/murata-dualstack-example-ns.c ****   printf("Temperature: %.2f C  \r\n", SHTData[0]);
 856              		.loc 1 620 3 view .LVU212
 857              		.loc 1 620 48 is_stmt 0 view .LVU213
 858 000a 0B4D     		ldr	r5, .L57+4
 859              		.loc 1 620 3 view .LVU214
 860 000c 2868     		ldr	r0, [r5]	@ float
 861 000e FFF7FEFF 		bl	__aeabi_f2d
 862              	.LVL77:
 863 0012 0246     		mov	r2, r0
 864 0014 0B46     		mov	r3, r1
 865 0016 0948     		ldr	r0, .L57+8
 866 0018 FFF7FEFF 		bl	printf
 867              	.LVL78:
 621:../../applications/murata-dualstack-example-ns/src/murata-dualstack-example-ns.c ****   printf("Humidity: %.2f %% \r\n", SHTData[1]);
 868              		.loc 1 621 3 is_stmt 1 view .LVU215
 869 001c 6868     		ldr	r0, [r5, #4]	@ float
 870 001e FFF7FEFF 		bl	__aeabi_f2d
 871              	.LVL79:
 872 0022 0246     		mov	r2, r0
 873 0024 0B46     		mov	r3, r1
 874 0026 0648     		ldr	r0, .L57+12
 875 0028 FFF7FEFF 		bl	printf
 876              	.LVL80:
 622:../../applications/murata-dualstack-example-ns/src/murata-dualstack-example-ns.c ****   printf("\r\n");
 877              		.loc 1 622 3 view .LVU216
 878 002c 2046     		mov	r0, r4
 879 002e FFF7FEFF 		bl	puts
 880              	.LVL81:
 623:../../applications/murata-dualstack-example-ns/src/murata-dualstack-example-ns.c **** }
 881              		.loc 1 623 1 is_stmt 0 view .LVU217
 882 0032 38BD     		pop	{r3, r4, r5, pc}
 883              	.L58:
 884              		.align	2
 885              	.L57:
 886 0034 00000000 		.word	.LC7
 887 0038 00000000 		.word	SHTData
 888 003c 04000000 		.word	.LC8
 889 0040 20000000 		.word	.LC9
 890              		.cfi_endproc
 891              	.LFE141:
 893              		.section	.text.temp_hum_measurement,"ax",%progbits
ARM GAS  C:\Users\yvesk\AppData\Local\Temp\ccsBUdhh.s 			page 28


 894              		.align	1
 895              		.global	temp_hum_measurement
 896              		.syntax unified
 897              		.thumb
 898              		.thumb_func
 899              		.fpu fpv4-sp-d16
 901              	temp_hum_measurement:
 902              	.LFB142:
 624:../../applications/murata-dualstack-example-ns/src/murata-dualstack-example-ns.c **** 
 625:../../applications/murata-dualstack-example-ns/src/murata-dualstack-example-ns.c **** void temp_hum_measurement(void){
 903              		.loc 1 625 32 is_stmt 1 view -0
 904              		.cfi_startproc
 905              		@ args = 0, pretend = 0, frame = 0
 906              		@ frame_needed = 0, uses_anonymous_args = 0
 907 0000 08B5     		push	{r3, lr}
 908              	.LCFI23:
 909              		.cfi_def_cfa_offset 8
 910              		.cfi_offset 3, -8
 911              		.cfi_offset 14, -4
 626:../../applications/murata-dualstack-example-ns/src/murata-dualstack-example-ns.c **** 
 627:../../applications/murata-dualstack-example-ns/src/murata-dualstack-example-ns.c ****   SHT31_get_temp_hum(SHTData);
 912              		.loc 1 627 3 view .LVU219
 913 0002 0348     		ldr	r0, .L61
 914 0004 FFF7FEFF 		bl	SHT31_get_temp_hum
 915              	.LVL82:
 628:../../applications/murata-dualstack-example-ns/src/murata-dualstack-example-ns.c ****   print_temp_hum();
 916              		.loc 1 628 3 view .LVU220
 917 0008 FFF7FEFF 		bl	print_temp_hum
 918              	.LVL83:
 629:../../applications/murata-dualstack-example-ns/src/murata-dualstack-example-ns.c **** }
 919              		.loc 1 629 1 is_stmt 0 view .LVU221
 920 000c 08BD     		pop	{r3, pc}
 921              	.L62:
 922 000e 00BF     		.align	2
 923              	.L61:
 924 0010 00000000 		.word	SHTData
 925              		.cfi_endproc
 926              	.LFE142:
 928              		.section	.text.HAL_UART_RxCpltCallback,"ax",%progbits
 929              		.align	1
 930              		.global	HAL_UART_RxCpltCallback
 931              		.syntax unified
 932              		.thumb
 933              		.thumb_func
 934              		.fpu fpv4-sp-d16
 936              	HAL_UART_RxCpltCallback:
 937              	.LVL84:
 938              	.LFB143:
 630:../../applications/murata-dualstack-example-ns/src/murata-dualstack-example-ns.c **** 
 631:../../applications/murata-dualstack-example-ns/src/murata-dualstack-example-ns.c **** // UART RX CALLBACK
 632:../../applications/murata-dualstack-example-ns/src/murata-dualstack-example-ns.c **** void HAL_UART_RxCpltCallback(UART_HandleTypeDef *huart)
 633:../../applications/murata-dualstack-example-ns/src/murata-dualstack-example-ns.c **** {
 939              		.loc 1 633 1 is_stmt 1 view -0
 940              		.cfi_startproc
 941              		@ args = 0, pretend = 0, frame = 0
 942              		@ frame_needed = 0, uses_anonymous_args = 0
 943              		.loc 1 633 1 is_stmt 0 view .LVU223
ARM GAS  C:\Users\yvesk\AppData\Local\Temp\ccsBUdhh.s 			page 29


 944 0000 08B5     		push	{r3, lr}
 945              	.LCFI24:
 946              		.cfi_def_cfa_offset 8
 947              		.cfi_offset 3, -8
 948              		.cfi_offset 14, -4
 634:../../applications/murata-dualstack-example-ns/src/murata-dualstack-example-ns.c ****   if (huart == &P1_UART)
 949              		.loc 1 634 3 is_stmt 1 view .LVU224
 950              		.loc 1 634 6 is_stmt 0 view .LVU225
 951 0002 054B     		ldr	r3, .L67
 952 0004 8342     		cmp	r3, r0
 953 0006 00D0     		beq	.L66
 954              	.LVL85:
 955              	.L63:
 635:../../applications/murata-dualstack-example-ns/src/murata-dualstack-example-ns.c ****   {
 636:../../applications/murata-dualstack-example-ns/src/murata-dualstack-example-ns.c ****     Murata_rxCallback();
 637:../../applications/murata-dualstack-example-ns/src/murata-dualstack-example-ns.c ****     murata_data_ready = 1;
 638:../../applications/murata-dualstack-example-ns/src/murata-dualstack-example-ns.c ****   }
 639:../../applications/murata-dualstack-example-ns/src/murata-dualstack-example-ns.c **** }
 956              		.loc 1 639 1 view .LVU226
 957 0008 08BD     		pop	{r3, pc}
 958              	.LVL86:
 959              	.L66:
 636:../../applications/murata-dualstack-example-ns/src/murata-dualstack-example-ns.c ****     murata_data_ready = 1;
 960              		.loc 1 636 5 is_stmt 1 view .LVU227
 961 000a FFF7FEFF 		bl	Murata_rxCallback
 962              	.LVL87:
 637:../../applications/murata-dualstack-example-ns/src/murata-dualstack-example-ns.c ****   }
 963              		.loc 1 637 5 view .LVU228
 637:../../applications/murata-dualstack-example-ns/src/murata-dualstack-example-ns.c ****   }
 964              		.loc 1 637 23 is_stmt 0 view .LVU229
 965 000e 034B     		ldr	r3, .L67+4
 966 0010 0122     		movs	r2, #1
 967 0012 1A70     		strb	r2, [r3]
 968              		.loc 1 639 1 view .LVU230
 969 0014 F8E7     		b	.L63
 970              	.L68:
 971 0016 00BF     		.align	2
 972              	.L67:
 973 0018 00000000 		.word	P1_UART
 974 001c 00000000 		.word	.LANCHOR8
 975              		.cfi_endproc
 976              	.LFE143:
 978              		.section	.text.vApplicationIdleHook,"ax",%progbits
 979              		.align	1
 980              		.global	vApplicationIdleHook
 981              		.syntax unified
 982              		.thumb
 983              		.thumb_func
 984              		.fpu fpv4-sp-d16
 986              	vApplicationIdleHook:
 987              	.LFB144:
 640:../../applications/murata-dualstack-example-ns/src/murata-dualstack-example-ns.c **** 
 641:../../applications/murata-dualstack-example-ns/src/murata-dualstack-example-ns.c **** void vApplicationIdleHook(){
 988              		.loc 1 641 28 is_stmt 1 view -0
 989              		.cfi_startproc
 990              		@ args = 0, pretend = 0, frame = 0
 991              		@ frame_needed = 0, uses_anonymous_args = 0
ARM GAS  C:\Users\yvesk\AppData\Local\Temp\ccsBUdhh.s 			page 30


 992              		@ link register save eliminated.
 642:../../applications/murata-dualstack-example-ns/src/murata-dualstack-example-ns.c ****   #if LOW_POWER
 643:../../applications/murata-dualstack-example-ns/src/murata-dualstack-example-ns.c ****     HAL_PWR_EnterSLEEPMode(PWR_MAINREGULATOR_ON, PWR_SLEEPENTRY_WFE);
 644:../../applications/murata-dualstack-example-ns/src/murata-dualstack-example-ns.c ****   #endif
 645:../../applications/murata-dualstack-example-ns/src/murata-dualstack-example-ns.c **** }
 993              		.loc 1 645 1 view .LVU232
 994 0000 7047     		bx	lr
 995              		.cfi_endproc
 996              	.LFE144:
 998              		.section	.text.printWelcome,"ax",%progbits
 999              		.align	1
 1000              		.global	printWelcome
 1001              		.syntax unified
 1002              		.thumb
 1003              		.thumb_func
 1004              		.fpu fpv4-sp-d16
 1006              	printWelcome:
 1007              	.LFB145:
 646:../../applications/murata-dualstack-example-ns/src/murata-dualstack-example-ns.c **** 
 647:../../applications/murata-dualstack-example-ns/src/murata-dualstack-example-ns.c **** void printWelcome(void)
 648:../../applications/murata-dualstack-example-ns/src/murata-dualstack-example-ns.c **** {
 1008              		.loc 1 648 1 view -0
 1009              		.cfi_startproc
 1010              		@ args = 0, pretend = 0, frame = 8
 1011              		@ frame_needed = 0, uses_anonymous_args = 0
 1012 0000 30B5     		push	{r4, r5, lr}
 1013              	.LCFI25:
 1014              		.cfi_def_cfa_offset 12
 1015              		.cfi_offset 4, -12
 1016              		.cfi_offset 5, -8
 1017              		.cfi_offset 14, -4
 1018 0002 83B0     		sub	sp, sp, #12
 1019              	.LCFI26:
 1020              		.cfi_def_cfa_offset 24
 649:../../applications/murata-dualstack-example-ns/src/murata-dualstack-example-ns.c ****   printf("\r\n");
 1021              		.loc 1 649 3 view .LVU234
 1022 0004 1A4C     		ldr	r4, .L75
 1023 0006 2046     		mov	r0, r4
 1024 0008 FFF7FEFF 		bl	puts
 1025              	.LVL88:
 650:../../applications/murata-dualstack-example-ns/src/murata-dualstack-example-ns.c ****   printf("*****************************************\r\n");
 1026              		.loc 1 650 3 view .LVU235
 1027 000c 194D     		ldr	r5, .L75+4
 1028 000e 2846     		mov	r0, r5
 1029 0010 FFF7FEFF 		bl	puts
 1030              	.LVL89:
 651:../../applications/murata-dualstack-example-ns/src/murata-dualstack-example-ns.c ****   printf("Murata Dual Stack example without scheduler\r\n");
 1031              		.loc 1 651 3 view .LVU236
 1032 0014 1848     		ldr	r0, .L75+8
 1033 0016 FFF7FEFF 		bl	puts
 1034              	.LVL90:
 652:../../applications/murata-dualstack-example-ns/src/murata-dualstack-example-ns.c ****   printf("*****************************************\r\n");
 1035              		.loc 1 652 3 view .LVU237
 1036 001a 2846     		mov	r0, r5
 1037 001c FFF7FEFF 		bl	puts
 1038              	.LVL91:
 653:../../applications/murata-dualstack-example-ns/src/murata-dualstack-example-ns.c ****   printf("\r\n");
ARM GAS  C:\Users\yvesk\AppData\Local\Temp\ccsBUdhh.s 			page 31


 1039              		.loc 1 653 3 view .LVU238
 1040 0020 2046     		mov	r0, r4
 1041 0022 FFF7FEFF 		bl	puts
 1042              	.LVL92:
 654:../../applications/murata-dualstack-example-ns/src/murata-dualstack-example-ns.c ****   char UIDString[sizeof(short_UID)];
 1043              		.loc 1 654 3 view .LVU239
 655:../../applications/murata-dualstack-example-ns/src/murata-dualstack-example-ns.c ****   memcpy(UIDString, &short_UID, sizeof(short_UID));
 1044              		.loc 1 655 3 view .LVU240
 1045 0026 154B     		ldr	r3, .L75+12
 1046 0028 6C46     		mov	r4, sp
 1047 002a 93E80300 		ldm	r3, {r0, r1}
 1048 002e 84E80300 		stm	r4, {r0, r1}
 656:../../applications/murata-dualstack-example-ns/src/murata-dualstack-example-ns.c ****   printf("octa ID: ");
 1049              		.loc 1 656 3 view .LVU241
 1050 0032 1348     		ldr	r0, .L75+16
 1051 0034 FFF7FEFF 		bl	printf
 1052              	.LVL93:
 657:../../applications/murata-dualstack-example-ns/src/murata-dualstack-example-ns.c ****   for (const char* p = UIDString; *p; ++p)
 1053              		.loc 1 657 3 view .LVU242
 1054              	.LBB14:
 1055              		.loc 1 657 8 view .LVU243
 1056              	.L71:
 1057              		.loc 1 657 35 is_stmt 0 discriminator 1 view .LVU244
 1058 0038 2178     		ldrb	r1, [r4]	@ zero_extendqisi2
 1059              		.loc 1 657 3 discriminator 1 view .LVU245
 1060 003a 21B1     		cbz	r1, .L74
 658:../../applications/murata-dualstack-example-ns/src/murata-dualstack-example-ns.c ****     {
 659:../../applications/murata-dualstack-example-ns/src/murata-dualstack-example-ns.c ****         printf("%02x", *p);
 1061              		.loc 1 659 9 is_stmt 1 discriminator 3 view .LVU246
 1062 003c 1148     		ldr	r0, .L75+20
 1063 003e FFF7FEFF 		bl	printf
 1064              	.LVL94:
 657:../../applications/murata-dualstack-example-ns/src/murata-dualstack-example-ns.c ****   for (const char* p = UIDString; *p; ++p)
 1065              		.loc 1 657 39 is_stmt 0 discriminator 3 view .LVU247
 1066 0042 0134     		adds	r4, r4, #1
 1067              	.LVL95:
 657:../../applications/murata-dualstack-example-ns/src/murata-dualstack-example-ns.c ****   for (const char* p = UIDString; *p; ++p)
 1068              		.loc 1 657 39 discriminator 3 view .LVU248
 1069 0044 F8E7     		b	.L71
 1070              	.L74:
 657:../../applications/murata-dualstack-example-ns/src/murata-dualstack-example-ns.c ****   for (const char* p = UIDString; *p; ++p)
 1071              		.loc 1 657 39 discriminator 3 view .LVU249
 1072              	.LBE14:
 660:../../applications/murata-dualstack-example-ns/src/murata-dualstack-example-ns.c ****     }
 661:../../applications/murata-dualstack-example-ns/src/murata-dualstack-example-ns.c ****   printf("\r\n\r\n");
 1073              		.loc 1 661 3 is_stmt 1 view .LVU250
 1074 0046 1048     		ldr	r0, .L75+24
 1075 0048 FFF7FEFF 		bl	puts
 1076              	.LVL96:
 662:../../applications/murata-dualstack-example-ns/src/murata-dualstack-example-ns.c ****   HAL_GPIO_TogglePin(OCTA_BLED_GPIO_Port, OCTA_BLED_Pin);
 1077              		.loc 1 662 3 view .LVU251
 1078 004c 0F4C     		ldr	r4, .L75+28
 1079              	.LVL97:
 1080              		.loc 1 662 3 is_stmt 0 view .LVU252
 1081 004e 4FF40041 		mov	r1, #32768
 1082 0052 2046     		mov	r0, r4
 1083 0054 FFF7FEFF 		bl	HAL_GPIO_TogglePin
ARM GAS  C:\Users\yvesk\AppData\Local\Temp\ccsBUdhh.s 			page 32


 1084              	.LVL98:
 663:../../applications/murata-dualstack-example-ns/src/murata-dualstack-example-ns.c ****   HAL_Delay(2000);
 1085              		.loc 1 663 3 is_stmt 1 view .LVU253
 1086 0058 4FF4FA60 		mov	r0, #2000
 1087 005c FFF7FEFF 		bl	HAL_Delay
 1088              	.LVL99:
 664:../../applications/murata-dualstack-example-ns/src/murata-dualstack-example-ns.c ****   HAL_GPIO_TogglePin(OCTA_BLED_GPIO_Port, OCTA_BLED_Pin);
 1089              		.loc 1 664 3 view .LVU254
 1090 0060 4FF40041 		mov	r1, #32768
 1091 0064 2046     		mov	r0, r4
 1092 0066 FFF7FEFF 		bl	HAL_GPIO_TogglePin
 1093              	.LVL100:
 665:../../applications/murata-dualstack-example-ns/src/murata-dualstack-example-ns.c **** }
 1094              		.loc 1 665 1 is_stmt 0 view .LVU255
 1095 006a 03B0     		add	sp, sp, #12
 1096              	.LCFI27:
 1097              		.cfi_def_cfa_offset 12
 1098              		@ sp needed
 1099 006c 30BD     		pop	{r4, r5, pc}
 1100              	.L76:
 1101 006e 00BF     		.align	2
 1102              	.L75:
 1103 0070 00000000 		.word	.LC7
 1104 0074 00000000 		.word	.LC10
 1105 0078 2C000000 		.word	.LC11
 1106 007c 00000000 		.word	short_UID
 1107 0080 5C000000 		.word	.LC12
 1108 0084 68000000 		.word	.LC13
 1109 0088 70000000 		.word	.LC14
 1110 008c 000C0048 		.word	1207962624
 1111              		.cfi_endproc
 1112              	.LFE145:
 1114              		.section	.text.main,"ax",%progbits
 1115              		.align	1
 1116              		.global	main
 1117              		.syntax unified
 1118              		.thumb
 1119              		.thumb_func
 1120              		.fpu fpv4-sp-d16
 1122              	main:
 1123              	.LFB134:
 156:../../applications/murata-dualstack-example-ns/src/murata-dualstack-example-ns.c ****   /* USER CODE BEGIN 1 */
 1124              		.loc 1 156 1 is_stmt 1 view -0
 1125              		.cfi_startproc
 1126              		@ args = 0, pretend = 0, frame = 0
 1127              		@ frame_needed = 0, uses_anonymous_args = 0
 1128 0000 38B5     		push	{r3, r4, r5, lr}
 1129              	.LCFI28:
 1130              		.cfi_def_cfa_offset 16
 1131              		.cfi_offset 3, -16
 1132              		.cfi_offset 4, -12
 1133              		.cfi_offset 5, -8
 1134              		.cfi_offset 14, -4
 164:../../applications/murata-dualstack-example-ns/src/murata-dualstack-example-ns.c **** 
 1135              		.loc 1 164 3 view .LVU257
 1136 0002 FFF7FEFF 		bl	HAL_Init
 1137              	.LVL101:
ARM GAS  C:\Users\yvesk\AppData\Local\Temp\ccsBUdhh.s 			page 33


 171:../../applications/murata-dualstack-example-ns/src/murata-dualstack-example-ns.c **** 
 1138              		.loc 1 171 3 view .LVU258
 1139 0006 FFF7FEFF 		bl	SystemClock_Config
 1140              	.LVL102:
 178:../../applications/murata-dualstack-example-ns/src/murata-dualstack-example-ns.c **** 
 1141              		.loc 1 178 3 view .LVU259
 1142 000a FFF7FEFF 		bl	Initialize_Platform
 1143              	.LVL103:
 181:../../applications/murata-dualstack-example-ns/src/murata-dualstack-example-ns.c ****   InitializeTimer3(); 
 1144              		.loc 1 181 3 view .LVU260
 1145 000e FFF7FEFF 		bl	InitializeTimer2
 1146              	.LVL104:
 182:../../applications/murata-dualstack-example-ns/src/murata-dualstack-example-ns.c **** 
 1147              		.loc 1 182 3 view .LVU261
 1148 0012 FFF7FEFF 		bl	InitializeTimer3
 1149              	.LVL105:
 187:../../applications/murata-dualstack-example-ns/src/murata-dualstack-example-ns.c **** 
 1150              		.loc 1 187 3 view .LVU262
 187:../../applications/murata-dualstack-example-ns/src/murata-dualstack-example-ns.c **** 
 1151              		.loc 1 187 15 is_stmt 0 view .LVU263
 1152 0016 FFF7FEFF 		bl	get_UID
 1153              	.LVL106:
 187:../../applications/murata-dualstack-example-ns/src/murata-dualstack-example-ns.c **** 
 1154              		.loc 1 187 13 view .LVU264
 1155 001a 6A4C     		ldr	r4, .L101
 1156 001c C4E90001 		strd	r0, [r4]
 190:../../applications/murata-dualstack-example-ns/src/murata-dualstack-example-ns.c ****   setI2CInterface_SHT31(&common_I2C);
 1157              		.loc 1 190 3 is_stmt 1 view .LVU265
 1158 0020 694D     		ldr	r5, .L101+4
 1159 0022 2846     		mov	r0, r5
 1160 0024 FFF7FEFF 		bl	LSM303AGR_setI2CInterface
 1161              	.LVL107:
 191:../../applications/murata-dualstack-example-ns/src/murata-dualstack-example-ns.c ****   SHT31_begin(); 
 1162              		.loc 1 191 3 view .LVU266
 1163 0028 2846     		mov	r0, r5
 1164 002a FFF7FEFF 		bl	setI2CInterface_SHT31
 1165              	.LVL108:
 192:../../applications/murata-dualstack-example-ns/src/murata-dualstack-example-ns.c ****   LSM303AGR_initDefault();
 1166              		.loc 1 192 3 view .LVU267
 1167 002e FFF7FEFF 		bl	SHT31_begin
 1168              	.LVL109:
 193:../../applications/murata-dualstack-example-ns/src/murata-dualstack-example-ns.c **** 
 1169              		.loc 1 193 3 view .LVU268
 1170 0032 FFF7FEFF 		bl	LSM303AGR_initDefault
 1171              	.LVL110:
 197:../../applications/murata-dualstack-example-ns/src/murata-dualstack-example-ns.c ****   HAL_NVIC_EnableIRQ(EXTI1_IRQn);
 1172              		.loc 1 197 3 view .LVU269
 1173 0036 0022     		movs	r2, #0
 1174 0038 1146     		mov	r1, r2
 1175 003a 0720     		movs	r0, #7
 1176 003c FFF7FEFF 		bl	HAL_NVIC_SetPriority
 1177              	.LVL111:
 198:../../applications/murata-dualstack-example-ns/src/murata-dualstack-example-ns.c **** 
 1178              		.loc 1 198 3 view .LVU270
 1179 0040 0720     		movs	r0, #7
 1180 0042 FFF7FEFF 		bl	HAL_NVIC_EnableIRQ
 1181              	.LVL112:
ARM GAS  C:\Users\yvesk\AppData\Local\Temp\ccsBUdhh.s 			page 34


 201:../../applications/murata-dualstack-example-ns/src/murata-dualstack-example-ns.c ****   
 1182              		.loc 1 201 3 view .LVU271
 1183 0046 FFF7FEFF 		bl	printWelcome
 1184              	.LVL113:
 204:../../applications/murata-dualstack-example-ns/src/murata-dualstack-example-ns.c **** 
 1185              		.loc 1 204 3 view .LVU272
 204:../../applications/murata-dualstack-example-ns/src/murata-dualstack-example-ns.c **** 
 1186              		.loc 1 204 17 is_stmt 0 view .LVU273
 1187 004a 0022     		movs	r2, #0
 1188 004c D4E90001 		ldrd	r0, [r4]
 1189 0050 FFF7FEFF 		bl	Murata_Initialize
 1190              	.LVL114:
 204:../../applications/murata-dualstack-example-ns/src/murata-dualstack-example-ns.c **** 
 1191              		.loc 1 204 15 view .LVU274
 1192 0054 5D4B     		ldr	r3, .L101+8
 1193 0056 1870     		strb	r0, [r3]
 206:../../applications/murata-dualstack-example-ns/src/murata-dualstack-example-ns.c ****   {
 1194              		.loc 1 206 3 is_stmt 1 view .LVU275
 206:../../applications/murata-dualstack-example-ns/src/murata-dualstack-example-ns.c ****   {
 1195              		.loc 1 206 6 is_stmt 0 view .LVU276
 1196 0058 0028     		cmp	r0, #0
 1197 005a 45D0     		beq	.L91
 208:../../applications/murata-dualstack-example-ns/src/murata-dualstack-example-ns.c ****   }
 1198              		.loc 1 208 5 is_stmt 1 view .LVU277
 1199 005c 5C48     		ldr	r0, .L101+12
 1200 005e FFF7FEFF 		bl	puts
 1201              	.LVL115:
 1202 0062 41E0     		b	.L91
 1203              	.L100:
 259:../../applications/murata-dualstack-example-ns/src/murata-dualstack-example-ns.c ****       murata_data_ready = !Murata_process_fifo();
 1204              		.loc 1 259 7 view .LVU278
 1205 0064 5B48     		ldr	r0, .L101+16
 1206 0066 FFF7FEFF 		bl	puts
 1207              	.LVL116:
 260:../../applications/murata-dualstack-example-ns/src/murata-dualstack-example-ns.c ****     }
 1208              		.loc 1 260 7 view .LVU279
 260:../../applications/murata-dualstack-example-ns/src/murata-dualstack-example-ns.c ****     }
 1209              		.loc 1 260 28 is_stmt 0 view .LVU280
 1210 006a FFF7FEFF 		bl	Murata_process_fifo
 1211              	.LVL117:
 260:../../applications/murata-dualstack-example-ns/src/murata-dualstack-example-ns.c ****     }
 1212              		.loc 1 260 27 view .LVU281
 1213 006e B0FA80F0 		clz	r0, r0
 1214 0072 4009     		lsrs	r0, r0, #5
 260:../../applications/murata-dualstack-example-ns/src/murata-dualstack-example-ns.c ****     }
 1215              		.loc 1 260 25 view .LVU282
 1216 0074 584B     		ldr	r3, .L101+20
 1217 0076 1870     		strb	r0, [r3]
 1218 0078 3DE0     		b	.L79
 1219              	.L81:
 285:../../applications/murata-dualstack-example-ns/src/murata-dualstack-example-ns.c ****         printf("Stopped Repping\nLSM in default mode \r\n\n");
 1220              		.loc 1 285 9 is_stmt 1 view .LVU283
 1221 007a FFF7FEFF 		bl	LSM303AGR_initDefault
 1222              	.LVL118:
 286:../../applications/murata-dualstack-example-ns/src/murata-dualstack-example-ns.c ****         if (murata_init) {
 1223              		.loc 1 286 9 view .LVU284
 1224 007e 5748     		ldr	r0, .L101+24
ARM GAS  C:\Users\yvesk\AppData\Local\Temp\ccsBUdhh.s 			page 35


 1225 0080 FFF7FEFF 		bl	puts
 1226              	.LVL119:
 287:../../applications/murata-dualstack-example-ns/src/murata-dualstack-example-ns.c ****           printf("Sending D7 Message with BLE info + temp + hum + amount of reps\r\n");
 1227              		.loc 1 287 9 view .LVU285
 287:../../applications/murata-dualstack-example-ns/src/murata-dualstack-example-ns.c ****           printf("Sending D7 Message with BLE info + temp + hum + amount of reps\r\n");
 1228              		.loc 1 287 13 is_stmt 0 view .LVU286
 1229 0084 514B     		ldr	r3, .L101+8
 1230 0086 1B78     		ldrb	r3, [r3]	@ zero_extendqisi2
 287:../../applications/murata-dualstack-example-ns/src/murata-dualstack-example-ns.c ****           printf("Sending D7 Message with BLE info + temp + hum + amount of reps\r\n");
 1231              		.loc 1 287 12 view .LVU287
 1232 0088 002B     		cmp	r3, #0
 1233 008a 59D1     		bne	.L94
 1234              	.L83:
 297:../../applications/murata-dualstack-example-ns/src/murata-dualstack-example-ns.c ****       }
 1235              		.loc 1 297 9 is_stmt 1 view .LVU288
 297:../../applications/murata-dualstack-example-ns/src/murata-dualstack-example-ns.c ****       }
 1236              		.loc 1 297 20 is_stmt 0 view .LVU289
 1237 008c 544B     		ldr	r3, .L101+28
 1238 008e 0022     		movs	r2, #0
 1239 0090 1A70     		strb	r2, [r3]
 1240              	.L82:
 299:../../applications/murata-dualstack-example-ns/src/murata-dualstack-example-ns.c **** 
 1241              		.loc 1 299 7 is_stmt 1 view .LVU290
 299:../../applications/murata-dualstack-example-ns/src/murata-dualstack-example-ns.c **** 
 1242              		.loc 1 299 25 is_stmt 0 view .LVU291
 1243 0092 544B     		ldr	r3, .L101+32
 1244 0094 0022     		movs	r2, #0
 1245 0096 1A70     		strb	r2, [r3]
 1246              	.L80:
 304:../../applications/murata-dualstack-example-ns/src/murata-dualstack-example-ns.c ****       if (repMode==1) {
 1247              		.loc 1 304 5 is_stmt 1 view .LVU292
 304:../../applications/murata-dualstack-example-ns/src/murata-dualstack-example-ns.c ****       if (repMode==1) {
 1248              		.loc 1 304 16 is_stmt 0 view .LVU293
 1249 0098 534B     		ldr	r3, .L101+36
 1250 009a 1B78     		ldrb	r3, [r3]	@ zero_extendqisi2
 304:../../applications/murata-dualstack-example-ns/src/murata-dualstack-example-ns.c ****       if (repMode==1) {
 1251              		.loc 1 304 8 view .LVU294
 1252 009c 33B1     		cbz	r3, .L84
 305:../../applications/murata-dualstack-example-ns/src/murata-dualstack-example-ns.c ****       // Request to enter SLEEP mode
 1253              		.loc 1 305 7 is_stmt 1 view .LVU295
 305:../../applications/murata-dualstack-example-ns/src/murata-dualstack-example-ns.c ****       // Request to enter SLEEP mode
 1254              		.loc 1 305 18 is_stmt 0 view .LVU296
 1255 009e 534B     		ldr	r3, .L101+40
 1256 00a0 1B78     		ldrb	r3, [r3]	@ zero_extendqisi2
 305:../../applications/murata-dualstack-example-ns/src/murata-dualstack-example-ns.c ****       // Request to enter SLEEP mode
 1257              		.loc 1 305 10 view .LVU297
 1258 00a2 002B     		cmp	r3, #0
 1259 00a4 55D1     		bne	.L95
 1260              	.L85:
 324:../../applications/murata-dualstack-example-ns/src/murata-dualstack-example-ns.c ****     }  
 1261              		.loc 1 324 11 is_stmt 1 view .LVU298
 324:../../applications/murata-dualstack-example-ns/src/murata-dualstack-example-ns.c ****     }  
 1262              		.loc 1 324 18 is_stmt 0 view .LVU299
 1263 00a6 504B     		ldr	r3, .L101+36
 1264 00a8 0022     		movs	r2, #0
 1265 00aa 1A70     		strb	r2, [r3]
 1266              	.L84:
ARM GAS  C:\Users\yvesk\AppData\Local\Temp\ccsBUdhh.s 			page 36


 329:../../applications/murata-dualstack-example-ns/src/murata-dualstack-example-ns.c ****        
 1267              		.loc 1 329 5 is_stmt 1 view .LVU300
 329:../../applications/murata-dualstack-example-ns/src/murata-dualstack-example-ns.c ****        
 1268              		.loc 1 329 18 is_stmt 0 view .LVU301
 1269 00ac 504B     		ldr	r3, .L101+44
 1270 00ae 1B78     		ldrb	r3, [r3]	@ zero_extendqisi2
 329:../../applications/murata-dualstack-example-ns/src/murata-dualstack-example-ns.c ****        
 1271              		.loc 1 329 7 view .LVU302
 1272 00b0 33B1     		cbz	r3, .L86
 331:../../applications/murata-dualstack-example-ns/src/murata-dualstack-example-ns.c ****         printf("Sending dash7 localisation message (once per minute)\r\n\r\n");
 1273              		.loc 1 331 7 is_stmt 1 view .LVU303
 331:../../applications/murata-dualstack-example-ns/src/murata-dualstack-example-ns.c ****         printf("Sending dash7 localisation message (once per minute)\r\n\r\n");
 1274              		.loc 1 331 11 is_stmt 0 view .LVU304
 1275 00b2 464B     		ldr	r3, .L101+8
 1276 00b4 1B78     		ldrb	r3, [r3]	@ zero_extendqisi2
 331:../../applications/murata-dualstack-example-ns/src/murata-dualstack-example-ns.c ****         printf("Sending dash7 localisation message (once per minute)\r\n\r\n");
 1277              		.loc 1 331 10 view .LVU305
 1278 00b6 002B     		cmp	r3, #0
 1279 00b8 5BD1     		bne	.L96
 1280              	.L87:
 337:../../applications/murata-dualstack-example-ns/src/murata-dualstack-example-ns.c ****     }
 1281              		.loc 1 337 6 is_stmt 1 view .LVU306
 337:../../applications/murata-dualstack-example-ns/src/murata-dualstack-example-ns.c ****     }
 1282              		.loc 1 337 16 is_stmt 0 view .LVU307
 1283 00ba 4D4B     		ldr	r3, .L101+44
 1284 00bc 0022     		movs	r2, #0
 1285 00be 1A70     		strb	r2, [r3]
 1286              	.L86:
 340:../../applications/murata-dualstack-example-ns/src/murata-dualstack-example-ns.c ****       
 1287              		.loc 1 340 6 is_stmt 1 view .LVU308
 340:../../applications/murata-dualstack-example-ns/src/murata-dualstack-example-ns.c ****       
 1288              		.loc 1 340 19 is_stmt 0 view .LVU309
 1289 00c0 4C4B     		ldr	r3, .L101+48
 1290 00c2 1B78     		ldrb	r3, [r3]	@ zero_extendqisi2
 340:../../applications/murata-dualstack-example-ns/src/murata-dualstack-example-ns.c ****       
 1291              		.loc 1 340 8 view .LVU310
 1292 00c4 33B1     		cbz	r3, .L88
 342:../../applications/murata-dualstack-example-ns/src/murata-dualstack-example-ns.c ****         
 1293              		.loc 1 342 7 is_stmt 1 view .LVU311
 342:../../applications/murata-dualstack-example-ns/src/murata-dualstack-example-ns.c ****         
 1294              		.loc 1 342 11 is_stmt 0 view .LVU312
 1295 00c6 414B     		ldr	r3, .L101+8
 1296 00c8 1B78     		ldrb	r3, [r3]	@ zero_extendqisi2
 342:../../applications/murata-dualstack-example-ns/src/murata-dualstack-example-ns.c ****         
 1297              		.loc 1 342 10 view .LVU313
 1298 00ca 002B     		cmp	r3, #0
 1299 00cc 5AD1     		bne	.L97
 1300              	.L89:
 349:../../applications/murata-dualstack-example-ns/src/murata-dualstack-example-ns.c ****     } 
 1301              		.loc 1 349 6 is_stmt 1 view .LVU314
 349:../../applications/murata-dualstack-example-ns/src/murata-dualstack-example-ns.c ****     } 
 1302              		.loc 1 349 16 is_stmt 0 view .LVU315
 1303 00ce 494B     		ldr	r3, .L101+48
 1304 00d0 0022     		movs	r2, #0
 1305 00d2 1A70     		strb	r2, [r3]
 1306              	.L88:
 352:../../applications/murata-dualstack-example-ns/src/murata-dualstack-example-ns.c ****       printf("Going to LoRaWAN mode\r\n\r\n");
ARM GAS  C:\Users\yvesk\AppData\Local\Temp\ccsBUdhh.s 			page 37


 1307              		.loc 1 352 5 is_stmt 1 view .LVU316
 352:../../applications/murata-dualstack-example-ns/src/murata-dualstack-example-ns.c ****       printf("Going to LoRaWAN mode\r\n\r\n");
 1308              		.loc 1 352 23 is_stmt 0 view .LVU317
 1309 00d4 484B     		ldr	r3, .L101+52
 1310 00d6 1B78     		ldrb	r3, [r3]	@ zero_extendqisi2
 1311 00d8 DBB2     		uxtb	r3, r3
 352:../../applications/murata-dualstack-example-ns/src/murata-dualstack-example-ns.c ****       printf("Going to LoRaWAN mode\r\n\r\n");
 1312              		.loc 1 352 8 view .LVU318
 1313 00da 032B     		cmp	r3, #3
 1314 00dc 5BD0     		beq	.L98
 1315              	.L90:
 359:../../applications/murata-dualstack-example-ns/src/murata-dualstack-example-ns.c ****       printf("Going to dash7 mode\r\n\r\n");
 1316              		.loc 1 359 6 is_stmt 1 view .LVU319
 359:../../applications/murata-dualstack-example-ns/src/murata-dualstack-example-ns.c ****       printf("Going to dash7 mode\r\n\r\n");
 1317              		.loc 1 359 24 is_stmt 0 view .LVU320
 1318 00de 474B     		ldr	r3, .L101+56
 1319 00e0 1B78     		ldrb	r3, [r3]	@ zero_extendqisi2
 1320 00e2 DBB2     		uxtb	r3, r3
 359:../../applications/murata-dualstack-example-ns/src/murata-dualstack-example-ns.c ****       printf("Going to dash7 mode\r\n\r\n");
 1321              		.loc 1 359 9 view .LVU321
 1322 00e4 012B     		cmp	r3, #1
 1323 00e6 63D0     		beq	.L99
 1324              	.L91:
 253:../../applications/murata-dualstack-example-ns/src/murata-dualstack-example-ns.c ****   { 
 1325              		.loc 1 253 3 is_stmt 1 view .LVU322
 255:../../applications/murata-dualstack-example-ns/src/murata-dualstack-example-ns.c ****     //HAL_Delay(5000);
 1326              		.loc 1 255 6 view .LVU323
 1327 00e8 0020     		movs	r0, #0
 1328 00ea FFF7FEFF 		bl	IWDG_feed
 1329              	.LVL120:
 257:../../applications/murata-dualstack-example-ns/src/murata-dualstack-example-ns.c ****     {
 1330              		.loc 1 257 5 view .LVU324
 257:../../applications/murata-dualstack-example-ns/src/murata-dualstack-example-ns.c ****     {
 1331              		.loc 1 257 8 is_stmt 0 view .LVU325
 1332 00ee 3A4B     		ldr	r3, .L101+20
 1333 00f0 1B78     		ldrb	r3, [r3]	@ zero_extendqisi2
 257:../../applications/murata-dualstack-example-ns/src/murata-dualstack-example-ns.c ****     {
 1334              		.loc 1 257 7 view .LVU326
 1335 00f2 002B     		cmp	r3, #0
 1336 00f4 B6D1     		bne	.L100
 1337              	.L79:
 265:../../applications/murata-dualstack-example-ns/src/murata-dualstack-example-ns.c ****     
 1338              		.loc 1 265 6 is_stmt 1 view .LVU327
 1339 00f6 0020     		movs	r0, #0
 1340 00f8 FFF7FEFF 		bl	IWDG_feed
 1341              	.LVL121:
 269:../../applications/murata-dualstack-example-ns/src/murata-dualstack-example-ns.c **** 
 1342              		.loc 1 269 5 view .LVU328
 269:../../applications/murata-dualstack-example-ns/src/murata-dualstack-example-ns.c **** 
 1343              		.loc 1 269 26 is_stmt 0 view .LVU329
 1344 00fc 394B     		ldr	r3, .L101+32
 1345 00fe 1B78     		ldrb	r3, [r3]	@ zero_extendqisi2
 269:../../applications/murata-dualstack-example-ns/src/murata-dualstack-example-ns.c **** 
 1346              		.loc 1 269 7 view .LVU330
 1347 0100 002B     		cmp	r3, #0
 1348 0102 C9D0     		beq	.L80
 271:../../applications/murata-dualstack-example-ns/src/murata-dualstack-example-ns.c ****         LSM303AGR_initDouble();
ARM GAS  C:\Users\yvesk\AppData\Local\Temp\ccsBUdhh.s 			page 38


 1349              		.loc 1 271 7 is_stmt 1 view .LVU331
 271:../../applications/murata-dualstack-example-ns/src/murata-dualstack-example-ns.c ****         LSM303AGR_initDouble();
 1350              		.loc 1 271 17 is_stmt 0 view .LVU332
 1351 0104 394B     		ldr	r3, .L101+40
 1352 0106 1B78     		ldrb	r3, [r3]	@ zero_extendqisi2
 271:../../applications/murata-dualstack-example-ns/src/murata-dualstack-example-ns.c ****         LSM303AGR_initDouble();
 1353              		.loc 1 271 9 view .LVU333
 1354 0108 002B     		cmp	r3, #0
 1355 010a B6D0     		beq	.L81
 272:../../applications/murata-dualstack-example-ns/src/murata-dualstack-example-ns.c ****         printf("Started Repping\r\n");
 1356              		.loc 1 272 9 is_stmt 1 view .LVU334
 1357 010c FFF7FEFF 		bl	LSM303AGR_initDouble
 1358              	.LVL122:
 273:../../applications/murata-dualstack-example-ns/src/murata-dualstack-example-ns.c ****         printf("LSM in double click mode \r\n");
 1359              		.loc 1 273 9 view .LVU335
 1360 0110 3B48     		ldr	r0, .L101+60
 1361 0112 FFF7FEFF 		bl	puts
 1362              	.LVL123:
 274:../../applications/murata-dualstack-example-ns/src/murata-dualstack-example-ns.c ****         if (murata_init) {
 1363              		.loc 1 274 9 view .LVU336
 1364 0116 3B48     		ldr	r0, .L101+64
 1365 0118 FFF7FEFF 		bl	puts
 1366              	.LVL124:
 275:../../applications/murata-dualstack-example-ns/src/murata-dualstack-example-ns.c ****           printf("Sending D7 Message with BLE info + temp + hum\r\n");
 1367              		.loc 1 275 9 view .LVU337
 275:../../applications/murata-dualstack-example-ns/src/murata-dualstack-example-ns.c ****           printf("Sending D7 Message with BLE info + temp + hum\r\n");
 1368              		.loc 1 275 13 is_stmt 0 view .LVU338
 1369 011c 2B4B     		ldr	r3, .L101+8
 1370 011e 1B78     		ldrb	r3, [r3]	@ zero_extendqisi2
 275:../../applications/murata-dualstack-example-ns/src/murata-dualstack-example-ns.c ****           printf("Sending D7 Message with BLE info + temp + hum\r\n");
 1371              		.loc 1 275 12 view .LVU339
 1372 0120 002B     		cmp	r3, #0
 1373 0122 B6D0     		beq	.L82
 1374              	.LBB15:
 276:../../applications/murata-dualstack-example-ns/src/murata-dualstack-example-ns.c ****           temp_hum_measurement();
 1375              		.loc 1 276 11 is_stmt 1 view .LVU340
 1376 0124 3848     		ldr	r0, .L101+68
 1377 0126 FFF7FEFF 		bl	puts
 1378              	.LVL125:
 277:../../applications/murata-dualstack-example-ns/src/murata-dualstack-example-ns.c ****           send_message(1);
 1379              		.loc 1 277 11 view .LVU341
 1380 012a FFF7FEFF 		bl	temp_hum_measurement
 1381              	.LVL126:
 278:../../applications/murata-dualstack-example-ns/src/murata-dualstack-example-ns.c ****           printf("Failure counter = %d\r\n",failureCounter);
 1382              		.loc 1 278 11 view .LVU342
 1383 012e 0120     		movs	r0, #1
 1384 0130 FFF7FEFF 		bl	send_message
 1385              	.LVL127:
 279:../../applications/murata-dualstack-example-ns/src/murata-dualstack-example-ns.c **** 
 1386              		.loc 1 279 11 view .LVU343
 1387 0134 304B     		ldr	r3, .L101+52
 1388 0136 1978     		ldrb	r1, [r3]	@ zero_extendqisi2
 1389 0138 3448     		ldr	r0, .L101+72
 1390 013a FFF7FEFF 		bl	printf
 1391              	.LVL128:
 1392 013e A8E7     		b	.L82
 1393              	.L94:
ARM GAS  C:\Users\yvesk\AppData\Local\Temp\ccsBUdhh.s 			page 39


 1394              	.LBE15:
 1395              	.LBB16:
 288:../../applications/murata-dualstack-example-ns/src/murata-dualstack-example-ns.c ****           temp_hum_measurement();
 1396              		.loc 1 288 11 view .LVU344
 1397 0140 3348     		ldr	r0, .L101+76
 1398 0142 FFF7FEFF 		bl	puts
 1399              	.LVL129:
 289:../../applications/murata-dualstack-example-ns/src/murata-dualstack-example-ns.c ****         //Dash7_send_temphum();
 1400              		.loc 1 289 11 view .LVU345
 1401 0146 FFF7FEFF 		bl	temp_hum_measurement
 1402              	.LVL130:
 291:../../applications/murata-dualstack-example-ns/src/murata-dualstack-example-ns.c **** 
 1403              		.loc 1 291 11 view .LVU346
 1404 014a 0220     		movs	r0, #2
 1405 014c FFF7FEFF 		bl	send_message
 1406              	.LVL131:
 1407 0150 9CE7     		b	.L83
 1408              	.L95:
 1409              	.LBE16:
 307:../../applications/murata-dualstack-example-ns/src/murata-dualstack-example-ns.c ****       printf("Timer value: %d,\r\n\r\n",timerValue);
 1410              		.loc 1 307 7 view .LVU347
 307:../../applications/murata-dualstack-example-ns/src/murata-dualstack-example-ns.c ****       printf("Timer value: %d,\r\n\r\n",timerValue);
 1411              		.loc 1 307 20 is_stmt 0 view .LVU348
 1412 0152 304B     		ldr	r3, .L101+80
 1413 0154 1B68     		ldr	r3, [r3]
 1414 0156 596A     		ldr	r1, [r3, #36]
 1415              	.LVL132:
 308:../../applications/murata-dualstack-example-ns/src/murata-dualstack-example-ns.c ****       rep_counter++; 
 1416              		.loc 1 308 7 is_stmt 1 view .LVU349
 1417 0158 C9B2     		uxtb	r1, r1
 308:../../applications/murata-dualstack-example-ns/src/murata-dualstack-example-ns.c ****       rep_counter++; 
 1418              		.loc 1 308 7 is_stmt 0 view .LVU350
 1419 015a 2F48     		ldr	r0, .L101+84
 1420 015c FFF7FEFF 		bl	printf
 1421              	.LVL133:
 309:../../applications/murata-dualstack-example-ns/src/murata-dualstack-example-ns.c ****       printf("Rep counter: %d,\r\n\r\n",rep_counter);
 1422              		.loc 1 309 7 is_stmt 1 view .LVU351
 309:../../applications/murata-dualstack-example-ns/src/murata-dualstack-example-ns.c ****       printf("Rep counter: %d,\r\n\r\n",rep_counter);
 1423              		.loc 1 309 18 is_stmt 0 view .LVU352
 1424 0160 1F4B     		ldr	r3, .L101+28
 1425 0162 1978     		ldrb	r1, [r3]	@ zero_extendqisi2
 1426 0164 0131     		adds	r1, r1, #1
 1427 0166 C9B2     		uxtb	r1, r1
 1428 0168 1970     		strb	r1, [r3]
 310:../../applications/murata-dualstack-example-ns/src/murata-dualstack-example-ns.c **** 
 1429              		.loc 1 310 7 is_stmt 1 view .LVU353
 1430 016a 2C48     		ldr	r0, .L101+88
 1431 016c FFF7FEFF 		bl	printf
 1432              	.LVL134:
 1433 0170 99E7     		b	.L85
 1434              	.L96:
 1435              	.LBB17:
 332:../../applications/murata-dualstack-example-ns/src/murata-dualstack-example-ns.c ****           temp_hum_measurement();
 1436              		.loc 1 332 9 view .LVU354
 1437 0172 2B48     		ldr	r0, .L101+92
 1438 0174 FFF7FEFF 		bl	puts
 1439              	.LVL135:
ARM GAS  C:\Users\yvesk\AppData\Local\Temp\ccsBUdhh.s 			page 40


 333:../../applications/murata-dualstack-example-ns/src/murata-dualstack-example-ns.c ****         send_message(1);
 1440              		.loc 1 333 11 view .LVU355
 1441 0178 FFF7FEFF 		bl	temp_hum_measurement
 1442              	.LVL136:
 334:../../applications/murata-dualstack-example-ns/src/murata-dualstack-example-ns.c ****          
 1443              		.loc 1 334 9 view .LVU356
 1444 017c 0120     		movs	r0, #1
 1445 017e FFF7FEFF 		bl	send_message
 1446              	.LVL137:
 1447 0182 9AE7     		b	.L87
 1448              	.L97:
 1449              	.LBE17:
 1450              	.LBB18:
 344:../../applications/murata-dualstack-example-ns/src/murata-dualstack-example-ns.c ****         temp_hum_measurement();
 1451              		.loc 1 344 9 view .LVU357
 1452 0184 2748     		ldr	r0, .L101+96
 1453 0186 FFF7FEFF 		bl	puts
 1454              	.LVL138:
 345:../../applications/murata-dualstack-example-ns/src/murata-dualstack-example-ns.c ****         send_message(1); 
 1455              		.loc 1 345 9 view .LVU358
 1456 018a FFF7FEFF 		bl	temp_hum_measurement
 1457              	.LVL139:
 346:../../applications/murata-dualstack-example-ns/src/murata-dualstack-example-ns.c ****         //goToSleep(); 
 1458              		.loc 1 346 9 view .LVU359
 1459 018e 0120     		movs	r0, #1
 1460 0190 FFF7FEFF 		bl	send_message
 1461              	.LVL140:
 1462 0194 9BE7     		b	.L89
 1463              	.L98:
 1464              	.LBE18:
 353:../../applications/murata-dualstack-example-ns/src/murata-dualstack-example-ns.c ****       messageMode=1;      //go to lorawanmode
 1465              		.loc 1 353 7 view .LVU360
 1466 0196 2448     		ldr	r0, .L101+100
 1467 0198 FFF7FEFF 		bl	puts
 1468              	.LVL141:
 354:../../applications/murata-dualstack-example-ns/src/murata-dualstack-example-ns.c ****       successCounter=0;
 1469              		.loc 1 354 7 view .LVU361
 354:../../applications/murata-dualstack-example-ns/src/murata-dualstack-example-ns.c ****       successCounter=0;
 1470              		.loc 1 354 18 is_stmt 0 view .LVU362
 1471 019c 234B     		ldr	r3, .L101+104
 1472 019e 0122     		movs	r2, #1
 1473 01a0 1A70     		strb	r2, [r3]
 355:../../applications/murata-dualstack-example-ns/src/murata-dualstack-example-ns.c ****       failureCounter=4; 
 1474              		.loc 1 355 7 is_stmt 1 view .LVU363
 355:../../applications/murata-dualstack-example-ns/src/murata-dualstack-example-ns.c ****       failureCounter=4; 
 1475              		.loc 1 355 21 is_stmt 0 view .LVU364
 1476 01a2 164B     		ldr	r3, .L101+56
 1477 01a4 0022     		movs	r2, #0
 1478 01a6 1A70     		strb	r2, [r3]
 356:../../applications/murata-dualstack-example-ns/src/murata-dualstack-example-ns.c ****     }
 1479              		.loc 1 356 7 is_stmt 1 view .LVU365
 356:../../applications/murata-dualstack-example-ns/src/murata-dualstack-example-ns.c ****     }
 1480              		.loc 1 356 21 is_stmt 0 view .LVU366
 1481 01a8 134B     		ldr	r3, .L101+52
 1482 01aa 0422     		movs	r2, #4
 1483 01ac 1A70     		strb	r2, [r3]
 1484 01ae 96E7     		b	.L90
ARM GAS  C:\Users\yvesk\AppData\Local\Temp\ccsBUdhh.s 			page 41


 1485              	.L99:
 360:../../applications/murata-dualstack-example-ns/src/murata-dualstack-example-ns.c ****       messageMode=0;    //go to dash7mode
 1486              		.loc 1 360 7 is_stmt 1 view .LVU367
 1487 01b0 1F48     		ldr	r0, .L101+108
 1488 01b2 FFF7FEFF 		bl	puts
 1489              	.LVL142:
 361:../../applications/murata-dualstack-example-ns/src/murata-dualstack-example-ns.c ****       successCounter=2;     //step over the 1 value so that between messages this if isn't accessed
 1490              		.loc 1 361 7 view .LVU368
 361:../../applications/murata-dualstack-example-ns/src/murata-dualstack-example-ns.c ****       successCounter=2;     //step over the 1 value so that between messages this if isn't accessed
 1491              		.loc 1 361 18 is_stmt 0 view .LVU369
 1492 01b6 1D4B     		ldr	r3, .L101+104
 1493 01b8 0022     		movs	r2, #0
 1494 01ba 1A70     		strb	r2, [r3]
 362:../../applications/murata-dualstack-example-ns/src/murata-dualstack-example-ns.c ****     }
 1495              		.loc 1 362 7 is_stmt 1 view .LVU370
 362:../../applications/murata-dualstack-example-ns/src/murata-dualstack-example-ns.c ****     }
 1496              		.loc 1 362 21 is_stmt 0 view .LVU371
 1497 01bc 0F4B     		ldr	r3, .L101+56
 1498 01be 0222     		movs	r2, #2
 1499 01c0 1A70     		strb	r2, [r3]
 1500 01c2 91E7     		b	.L91
 1501              	.L102:
 1502              		.align	2
 1503              	.L101:
 1504 01c4 00000000 		.word	short_UID
 1505 01c8 00000000 		.word	common_I2C
 1506 01cc 00000000 		.word	.LANCHOR3
 1507 01d0 00000000 		.word	.LC15
 1508 01d4 24000000 		.word	.LC16
 1509 01d8 00000000 		.word	.LANCHOR8
 1510 01dc B4000000 		.word	.LC21
 1511 01e0 00000000 		.word	.LANCHOR6
 1512 01e4 00000000 		.word	.LANCHOR9
 1513 01e8 00000000 		.word	.LANCHOR12
 1514 01ec 00000000 		.word	.LANCHOR10
 1515 01f0 00000000 		.word	.LANCHOR13
 1516 01f4 00000000 		.word	.LANCHOR14
 1517 01f8 00000000 		.word	.LANCHOR11
 1518 01fc 00000000 		.word	.LANCHOR15
 1519 0200 3C000000 		.word	.LC17
 1520 0204 50000000 		.word	.LC18
 1521 0208 6C000000 		.word	.LC19
 1522 020c 9C000000 		.word	.LC20
 1523 0210 DC000000 		.word	.LC22
 1524 0214 00000000 		.word	.LANCHOR0
 1525 0218 1C010000 		.word	.LC23
 1526 021c 34010000 		.word	.LC24
 1527 0220 4C010000 		.word	.LC25
 1528 0224 84010000 		.word	.LC26
 1529 0228 BC010000 		.word	.LC27
 1530 022c 00000000 		.word	.LANCHOR7
 1531 0230 D8010000 		.word	.LC28
 1532              		.cfi_endproc
 1533              	.LFE134:
 1535              		.section	.text.LoRaWAN_send_self,"ax",%progbits
 1536              		.align	1
 1537              		.global	LoRaWAN_send_self
ARM GAS  C:\Users\yvesk\AppData\Local\Temp\ccsBUdhh.s 			page 42


 1538              		.syntax unified
 1539              		.thumb
 1540              		.thumb_func
 1541              		.fpu fpv4-sp-d16
 1543              	LoRaWAN_send_self:
 1544              	.LFB146:
 666:../../applications/murata-dualstack-example-ns/src/murata-dualstack-example-ns.c **** 
 667:../../applications/murata-dualstack-example-ns/src/murata-dualstack-example-ns.c **** /* USER CODE END 4 */
 668:../../applications/murata-dualstack-example-ns/src/murata-dualstack-example-ns.c **** 
 669:../../applications/murata-dualstack-example-ns/src/murata-dualstack-example-ns.c **** 
 670:../../applications/murata-dualstack-example-ns/src/murata-dualstack-example-ns.c **** void LoRaWAN_send_self()
 671:../../applications/murata-dualstack-example-ns/src/murata-dualstack-example-ns.c **** {
 1545              		.loc 1 671 1 is_stmt 1 view -0
 1546              		.cfi_startproc
 1547              		@ args = 0, pretend = 0, frame = 8
 1548              		@ frame_needed = 0, uses_anonymous_args = 0
 1549 0000 00B5     		push	{lr}
 1550              	.LCFI29:
 1551              		.cfi_def_cfa_offset 4
 1552              		.cfi_offset 14, -4
 1553 0002 83B0     		sub	sp, sp, #12
 1554              	.LCFI30:
 1555              		.cfi_def_cfa_offset 16
 672:../../applications/murata-dualstack-example-ns/src/murata-dualstack-example-ns.c ****   if (murata_init)
 1556              		.loc 1 672 3 view .LVU373
 1557              		.loc 1 672 7 is_stmt 0 view .LVU374
 1558 0004 194B     		ldr	r3, .L110
 1559 0006 1B78     		ldrb	r3, [r3]	@ zero_extendqisi2
 1560              		.loc 1 672 6 view .LVU375
 1561 0008 63B3     		cbz	r3, .L104
 1562              	.LBB19:
 673:../../applications/murata-dualstack-example-ns/src/murata-dualstack-example-ns.c ****   {
 674:../../applications/murata-dualstack-example-ns/src/murata-dualstack-example-ns.c ****     uint8_t loraMessage[5];
 1563              		.loc 1 674 5 is_stmt 1 view .LVU376
 675:../../applications/murata-dualstack-example-ns/src/murata-dualstack-example-ns.c ****     uint8_t i = 0;
 1564              		.loc 1 675 5 view .LVU377
 1565              	.LVL143:
 676:../../applications/murata-dualstack-example-ns/src/murata-dualstack-example-ns.c ****     //uint16 counter to uint8 array (little endian)
 677:../../applications/murata-dualstack-example-ns/src/murata-dualstack-example-ns.c ****     //counter (large) type byte
 678:../../applications/murata-dualstack-example-ns/src/murata-dualstack-example-ns.c **** 
 679:../../applications/murata-dualstack-example-ns/src/murata-dualstack-example-ns.c ****     //first data transfer works, but afterwards it stays in a kind of 'transmitted' loop. Find wher
 680:../../applications/murata-dualstack-example-ns/src/murata-dualstack-example-ns.c ****     loraMessage[i++] = SHTData[0];
 1566              		.loc 1 680 5 view .LVU378
 1567              		.loc 1 680 31 is_stmt 0 view .LVU379
 1568 000a 194A     		ldr	r2, .L110+4
 1569 000c D2ED007A 		vldr.32	s15, [r2]
 1570              	.LVL144:
 1571              		.loc 1 680 22 view .LVU380
 1572 0010 FCEEE77A 		vcvt.u32.f32	s15, s15
 1573 0014 17EE903A 		vmov	r3, s15	@ int
 1574 0018 8DF80030 		strb	r3, [sp]
 681:../../applications/murata-dualstack-example-ns/src/murata-dualstack-example-ns.c ****     loraMessage[i++] = SHTData[1];
 1575              		.loc 1 681 5 is_stmt 1 view .LVU381
 1576              		.loc 1 681 31 is_stmt 0 view .LVU382
 1577 001c D2ED017A 		vldr.32	s15, [r2, #4]
 1578              	.LVL145:
 1579              		.loc 1 681 22 view .LVU383
ARM GAS  C:\Users\yvesk\AppData\Local\Temp\ccsBUdhh.s 			page 43


 1580 0020 FCEEE77A 		vcvt.u32.f32	s15, s15
 1581 0024 17EE903A 		vmov	r3, s15	@ int
 1582 0028 8DF80130 		strb	r3, [sp, #1]
 682:../../applications/murata-dualstack-example-ns/src/murata-dualstack-example-ns.c ****     loraMessage[i++] = LoRaWAN_Counter >> 8;
 1583              		.loc 1 682 5 is_stmt 1 view .LVU384
 1584              	.LVL146:
 1585              		.loc 1 682 22 is_stmt 0 view .LVU385
 1586 002c 114B     		ldr	r3, .L110+8
 1587 002e 1B88     		ldrh	r3, [r3]
 1588 0030 1B0A     		lsrs	r3, r3, #8
 1589 0032 8DF80230 		strb	r3, [sp, #2]
 683:../../applications/murata-dualstack-example-ns/src/murata-dualstack-example-ns.c ****    // osMutexWait(txMutexId, osWaitForever);
 684:../../applications/murata-dualstack-example-ns/src/murata-dualstack-example-ns.c ****     if(!Murata_LoRaWAN_Send((uint8_t *)loraMessage, i))
 1590              		.loc 1 684 5 is_stmt 1 view .LVU386
 1591              		.loc 1 684 9 is_stmt 0 view .LVU387
 1592 0036 0321     		movs	r1, #3
 1593 0038 6846     		mov	r0, sp
 1594 003a FFF7FEFF 		bl	Murata_LoRaWAN_Send
 1595              	.LVL147:
 1596              		.loc 1 684 7 view .LVU388
 1597 003e 48B1     		cbz	r0, .L109
 685:../../applications/murata-dualstack-example-ns/src/murata-dualstack-example-ns.c ****     {
 686:../../applications/murata-dualstack-example-ns/src/murata-dualstack-example-ns.c ****       printf("tis ni gelukt :( ");
 687:../../applications/murata-dualstack-example-ns/src/murata-dualstack-example-ns.c ****       murata_init++;
 688:../../applications/murata-dualstack-example-ns/src/murata-dualstack-example-ns.c ****       if(murata_init == 10)
 689:../../applications/murata-dualstack-example-ns/src/murata-dualstack-example-ns.c ****         murata_init == 0;
 690:../../applications/murata-dualstack-example-ns/src/murata-dualstack-example-ns.c ****     }
 691:../../applications/murata-dualstack-example-ns/src/murata-dualstack-example-ns.c ****     else
 692:../../applications/murata-dualstack-example-ns/src/murata-dualstack-example-ns.c ****     {
 693:../../applications/murata-dualstack-example-ns/src/murata-dualstack-example-ns.c ****       murata_init = 1;
 1598              		.loc 1 693 7 is_stmt 1 view .LVU389
 1599              		.loc 1 693 19 is_stmt 0 view .LVU390
 1600 0040 0A4B     		ldr	r3, .L110
 1601 0042 0122     		movs	r2, #1
 1602 0044 1A70     		strb	r2, [r3]
 1603              	.L106:
 694:../../applications/murata-dualstack-example-ns/src/murata-dualstack-example-ns.c ****     }
 695:../../applications/murata-dualstack-example-ns/src/murata-dualstack-example-ns.c ****     //BLOCK TX MUTEX FOR 3s
 696:../../applications/murata-dualstack-example-ns/src/murata-dualstack-example-ns.c ****     // osDelay(3000);
 697:../../applications/murata-dualstack-example-ns/src/murata-dualstack-example-ns.c ****     // osMutexRelease(txMutexId);
 698:../../applications/murata-dualstack-example-ns/src/murata-dualstack-example-ns.c ****     LoRaWAN_Counter++;
 1604              		.loc 1 698 5 is_stmt 1 discriminator 1 view .LVU391
 1605              		.loc 1 698 20 is_stmt 0 discriminator 1 view .LVU392
 1606 0046 0B4A     		ldr	r2, .L110+8
 1607 0048 1388     		ldrh	r3, [r2]
 1608 004a 0133     		adds	r3, r3, #1
 1609 004c 1380     		strh	r3, [r2]	@ movhi
 1610              	.LVL148:
 1611              	.L103:
 1612              		.loc 1 698 20 discriminator 1 view .LVU393
 1613              	.LBE19:
 699:../../applications/murata-dualstack-example-ns/src/murata-dualstack-example-ns.c ****   }
 700:../../applications/murata-dualstack-example-ns/src/murata-dualstack-example-ns.c ****   else{
 701:../../applications/murata-dualstack-example-ns/src/murata-dualstack-example-ns.c ****     printf("murata not initialized, not sending\r\n");
 702:../../applications/murata-dualstack-example-ns/src/murata-dualstack-example-ns.c ****   }
 703:../../applications/murata-dualstack-example-ns/src/murata-dualstack-example-ns.c **** }
 1614              		.loc 1 703 1 view .LVU394
ARM GAS  C:\Users\yvesk\AppData\Local\Temp\ccsBUdhh.s 			page 44


 1615 004e 03B0     		add	sp, sp, #12
 1616              	.LCFI31:
 1617              		.cfi_remember_state
 1618              		.cfi_def_cfa_offset 4
 1619              		@ sp needed
 1620 0050 5DF804FB 		ldr	pc, [sp], #4
 1621              	.LVL149:
 1622              	.L109:
 1623              	.LCFI32:
 1624              		.cfi_restore_state
 1625              	.LBB20:
 686:../../applications/murata-dualstack-example-ns/src/murata-dualstack-example-ns.c ****       murata_init++;
 1626              		.loc 1 686 7 is_stmt 1 view .LVU395
 1627 0054 0848     		ldr	r0, .L110+12
 1628 0056 FFF7FEFF 		bl	printf
 1629              	.LVL150:
 687:../../applications/murata-dualstack-example-ns/src/murata-dualstack-example-ns.c ****       if(murata_init == 10)
 1630              		.loc 1 687 7 view .LVU396
 687:../../applications/murata-dualstack-example-ns/src/murata-dualstack-example-ns.c ****       if(murata_init == 10)
 1631              		.loc 1 687 18 is_stmt 0 view .LVU397
 1632 005a 044A     		ldr	r2, .L110
 1633 005c 1378     		ldrb	r3, [r2]	@ zero_extendqisi2
 1634 005e 0133     		adds	r3, r3, #1
 1635 0060 1370     		strb	r3, [r2]
 688:../../applications/murata-dualstack-example-ns/src/murata-dualstack-example-ns.c ****         murata_init == 0;
 1636              		.loc 1 688 7 is_stmt 1 view .LVU398
 1637 0062 F0E7     		b	.L106
 1638              	.LVL151:
 1639              	.L104:
 688:../../applications/murata-dualstack-example-ns/src/murata-dualstack-example-ns.c ****         murata_init == 0;
 1640              		.loc 1 688 7 is_stmt 0 view .LVU399
 1641              	.LBE20:
 701:../../applications/murata-dualstack-example-ns/src/murata-dualstack-example-ns.c ****   }
 1642              		.loc 1 701 5 is_stmt 1 view .LVU400
 1643 0064 0548     		ldr	r0, .L110+16
 1644 0066 FFF7FEFF 		bl	puts
 1645              	.LVL152:
 1646              		.loc 1 703 1 is_stmt 0 view .LVU401
 1647 006a F0E7     		b	.L103
 1648              	.L111:
 1649              		.align	2
 1650              	.L110:
 1651 006c 00000000 		.word	.LANCHOR3
 1652 0070 00000000 		.word	SHTData
 1653 0074 00000000 		.word	.LANCHOR4
 1654 0078 00000000 		.word	.LC29
 1655 007c 00000000 		.word	.LC2
 1656              		.cfi_endproc
 1657              	.LFE146:
 1659              		.section	.text.HAL_GPIO_EXTI_Callback,"ax",%progbits
 1660              		.align	1
 1661              		.global	HAL_GPIO_EXTI_Callback
 1662              		.syntax unified
 1663              		.thumb
 1664              		.thumb_func
 1665              		.fpu fpv4-sp-d16
 1667              	HAL_GPIO_EXTI_Callback:
ARM GAS  C:\Users\yvesk\AppData\Local\Temp\ccsBUdhh.s 			page 45


 1668              	.LVL153:
 1669              	.LFB147:
 704:../../applications/murata-dualstack-example-ns/src/murata-dualstack-example-ns.c **** 
 705:../../applications/murata-dualstack-example-ns/src/murata-dualstack-example-ns.c **** //See platform>octa>stm32l4xx_it.c there we placed exti15_10 function to capture interrupts on one 
 706:../../applications/murata-dualstack-example-ns/src/murata-dualstack-example-ns.c **** // (see slides of Mr weyn for the exact function name). In this function we call the "HAL_GPIO_EXTI
 707:../../applications/murata-dualstack-example-ns/src/murata-dualstack-example-ns.c **** // file. In this function the "HAL_GPIO_EXTI_Callback" is called, which we define below 
 708:../../applications/murata-dualstack-example-ns/src/murata-dualstack-example-ns.c **** void HAL_GPIO_EXTI_Callback(uint16_t GPIO_Pin) {
 1670              		.loc 1 708 48 is_stmt 1 view -0
 1671              		.cfi_startproc
 1672              		@ args = 0, pretend = 0, frame = 0
 1673              		@ frame_needed = 0, uses_anonymous_args = 0
 709:../../applications/murata-dualstack-example-ns/src/murata-dualstack-example-ns.c ****   if (GPIO_Pin==GPIO_Pin_13) {
 1674              		.loc 1 709 3 view .LVU403
 1675              		.loc 1 709 6 is_stmt 0 view .LVU404
 1676 0000 B0F5005F 		cmp	r0, #8192
 1677 0004 00D0     		beq	.L118
 1678 0006 7047     		bx	lr
 1679              	.L118:
 708:../../applications/murata-dualstack-example-ns/src/murata-dualstack-example-ns.c ****   if (GPIO_Pin==GPIO_Pin_13) {
 1680              		.loc 1 708 48 view .LVU405
 1681 0008 08B5     		push	{r3, lr}
 1682              	.LCFI33:
 1683              		.cfi_def_cfa_offset 8
 1684              		.cfi_offset 3, -8
 1685              		.cfi_offset 14, -4
 710:../../applications/murata-dualstack-example-ns/src/murata-dualstack-example-ns.c ****   repFlag = 1; 
 1686              		.loc 1 710 3 is_stmt 1 view .LVU406
 1687              		.loc 1 710 11 is_stmt 0 view .LVU407
 1688 000a 034B     		ldr	r3, .L119
 1689 000c 0122     		movs	r2, #1
 1690 000e 1A70     		strb	r2, [r3]
 711:../../applications/murata-dualstack-example-ns/src/murata-dualstack-example-ns.c ****   printf("interrupt accelerometer! \r\n");
 1691              		.loc 1 711 3 is_stmt 1 view .LVU408
 1692 0010 0248     		ldr	r0, .L119+4
 1693              	.LVL154:
 1694              		.loc 1 711 3 is_stmt 0 view .LVU409
 1695 0012 FFF7FEFF 		bl	puts
 1696              	.LVL155:
 712:../../applications/murata-dualstack-example-ns/src/murata-dualstack-example-ns.c ****   // we work with a flag so as to make sure that we don't stay in the callback for too long. This w
 713:../../applications/murata-dualstack-example-ns/src/murata-dualstack-example-ns.c ****   // the flag will call the measurement function in de while loop
 714:../../applications/murata-dualstack-example-ns/src/murata-dualstack-example-ns.c ****   } 
 715:../../applications/murata-dualstack-example-ns/src/murata-dualstack-example-ns.c **** }
 1697              		.loc 1 715 1 view .LVU410
 1698 0016 08BD     		pop	{r3, pc}
 1699              	.L120:
 1700              		.align	2
 1701              	.L119:
 1702 0018 00000000 		.word	.LANCHOR12
 1703 001c 00000000 		.word	.LC30
 1704              		.cfi_endproc
 1705              	.LFE147:
 1707              		.section	.text.EXTI1_IRQHandler,"ax",%progbits
 1708              		.align	1
 1709              		.global	EXTI1_IRQHandler
 1710              		.syntax unified
 1711              		.thumb
 1712              		.thumb_func
ARM GAS  C:\Users\yvesk\AppData\Local\Temp\ccsBUdhh.s 			page 46


 1713              		.fpu fpv4-sp-d16
 1715              	EXTI1_IRQHandler:
 1716              	.LFB148:
 716:../../applications/murata-dualstack-example-ns/src/murata-dualstack-example-ns.c **** 
 717:../../applications/murata-dualstack-example-ns/src/murata-dualstack-example-ns.c **** void EXTI1_IRQHandler(void){
 1717              		.loc 1 717 28 is_stmt 1 view -0
 1718              		.cfi_startproc
 1719              		@ args = 0, pretend = 0, frame = 0
 1720              		@ frame_needed = 0, uses_anonymous_args = 0
 1721 0000 08B5     		push	{r3, lr}
 1722              	.LCFI34:
 1723              		.cfi_def_cfa_offset 8
 1724              		.cfi_offset 3, -8
 1725              		.cfi_offset 14, -4
 718:../../applications/murata-dualstack-example-ns/src/murata-dualstack-example-ns.c ****     //Start reps
 719:../../applications/murata-dualstack-example-ns/src/murata-dualstack-example-ns.c ****     __HAL_GPIO_EXTI_CLEAR_IT(GPIO_PIN_1);
 1726              		.loc 1 719 5 view .LVU412
 1727 0002 074B     		ldr	r3, .L123
 1728 0004 0222     		movs	r2, #2
 1729 0006 5A61     		str	r2, [r3, #20]
 720:../../applications/murata-dualstack-example-ns/src/murata-dualstack-example-ns.c ****     printf("INTERRUPT BUTTON! \r\n");
 1730              		.loc 1 720 5 view .LVU413
 1731 0008 0648     		ldr	r0, .L123+4
 1732 000a FFF7FEFF 		bl	puts
 1733              	.LVL156:
 721:../../applications/murata-dualstack-example-ns/src/murata-dualstack-example-ns.c ****     repMode= !repMode;
 1734              		.loc 1 721 5 view .LVU414
 1735 000e 064A     		ldr	r2, .L123+8
 1736 0010 1378     		ldrb	r3, [r2]	@ zero_extendqisi2
 1737 0012 83F00103 		eor	r3, r3, #1
 1738              		.loc 1 721 12 is_stmt 0 view .LVU415
 1739 0016 1370     		strb	r3, [r2]
 722:../../applications/murata-dualstack-example-ns/src/murata-dualstack-example-ns.c ****     changeAcceleroMode=1;
 1740              		.loc 1 722 5 is_stmt 1 view .LVU416
 1741              		.loc 1 722 23 is_stmt 0 view .LVU417
 1742 0018 044B     		ldr	r3, .L123+12
 1743 001a 0122     		movs	r2, #1
 1744 001c 1A70     		strb	r2, [r3]
 723:../../applications/murata-dualstack-example-ns/src/murata-dualstack-example-ns.c ****     //Change registers of accelero
 724:../../applications/murata-dualstack-example-ns/src/murata-dualstack-example-ns.c **** }
 1745              		.loc 1 724 1 view .LVU418
 1746 001e 08BD     		pop	{r3, pc}
 1747              	.L124:
 1748              		.align	2
 1749              	.L123:
 1750 0020 00040140 		.word	1073808384
 1751 0024 00000000 		.word	.LC31
 1752 0028 00000000 		.word	.LANCHOR10
 1753 002c 00000000 		.word	.LANCHOR9
 1754              		.cfi_endproc
 1755              	.LFE148:
 1757              		.section	.text.TIM2_IRQHandler,"ax",%progbits
 1758              		.align	1
 1759              		.global	TIM2_IRQHandler
 1760              		.syntax unified
 1761              		.thumb
 1762              		.thumb_func
ARM GAS  C:\Users\yvesk\AppData\Local\Temp\ccsBUdhh.s 			page 47


 1763              		.fpu fpv4-sp-d16
 1765              	TIM2_IRQHandler:
 1766              	.LFB149:
 725:../../applications/murata-dualstack-example-ns/src/murata-dualstack-example-ns.c **** 
 726:../../applications/murata-dualstack-example-ns/src/murata-dualstack-example-ns.c **** void TIM2_IRQHandler( void ) {
 1767              		.loc 1 726 30 is_stmt 1 view -0
 1768              		.cfi_startproc
 1769              		@ args = 0, pretend = 0, frame = 0
 1770              		@ frame_needed = 0, uses_anonymous_args = 0
 1771 0000 08B5     		push	{r3, lr}
 1772              	.LCFI35:
 1773              		.cfi_def_cfa_offset 8
 1774              		.cfi_offset 3, -8
 1775              		.cfi_offset 14, -4
 727:../../applications/murata-dualstack-example-ns/src/murata-dualstack-example-ns.c **** 
 728:../../applications/murata-dualstack-example-ns/src/murata-dualstack-example-ns.c ****   //printf("elapsed period \r\n");
 729:../../applications/murata-dualstack-example-ns/src/murata-dualstack-example-ns.c ****  
 730:../../applications/murata-dualstack-example-ns/src/murata-dualstack-example-ns.c ****   if (__HAL_TIM_GET_FLAG(&localisation_timer, TIM_IT_UPDATE) != RESET) 
 1776              		.loc 1 730 3 view .LVU420
 1777              		.loc 1 730 7 is_stmt 0 view .LVU421
 1778 0002 0A4B     		ldr	r3, .L129
 1779 0004 1B68     		ldr	r3, [r3]
 1780 0006 1A69     		ldr	r2, [r3, #16]
 1781              		.loc 1 730 6 view .LVU422
 1782 0008 12F0010F 		tst	r2, #1
 1783 000c 03D0     		beq	.L125
 731:../../applications/murata-dualstack-example-ns/src/murata-dualstack-example-ns.c ****   //In case other interrupts are also running
 732:../../applications/murata-dualstack-example-ns/src/murata-dualstack-example-ns.c ****   {
 733:../../applications/murata-dualstack-example-ns/src/murata-dualstack-example-ns.c ****   
 734:../../applications/murata-dualstack-example-ns/src/murata-dualstack-example-ns.c ****     if (__HAL_TIM_GET_IT_SOURCE(&localisation_timer, TIM_IT_UPDATE) != RESET) {
 1784              		.loc 1 734 5 is_stmt 1 view .LVU423
 1785              		.loc 1 734 9 is_stmt 0 view .LVU424
 1786 000e DA68     		ldr	r2, [r3, #12]
 1787              		.loc 1 734 8 view .LVU425
 1788 0010 12F0010F 		tst	r2, #1
 1789 0014 00D1     		bne	.L128
 1790              	.L125:
 735:../../applications/murata-dualstack-example-ns/src/murata-dualstack-example-ns.c ****     
 736:../../applications/murata-dualstack-example-ns/src/murata-dualstack-example-ns.c ****     __HAL_TIM_CLEAR_IT(&localisation_timer, TIM_IT_UPDATE);
 737:../../applications/murata-dualstack-example-ns/src/murata-dualstack-example-ns.c ****     
 738:../../applications/murata-dualstack-example-ns/src/murata-dualstack-example-ns.c ****     
 739:../../applications/murata-dualstack-example-ns/src/murata-dualstack-example-ns.c ****     printf("elapsed period \r\n");
 740:../../applications/murata-dualstack-example-ns/src/murata-dualstack-example-ns.c ****     timer2flag = 1; 
 741:../../applications/murata-dualstack-example-ns/src/murata-dualstack-example-ns.c ****     
 742:../../applications/murata-dualstack-example-ns/src/murata-dualstack-example-ns.c ****     
 743:../../applications/murata-dualstack-example-ns/src/murata-dualstack-example-ns.c ****     }
 744:../../applications/murata-dualstack-example-ns/src/murata-dualstack-example-ns.c ****   
 745:../../applications/murata-dualstack-example-ns/src/murata-dualstack-example-ns.c ****   }
 746:../../applications/murata-dualstack-example-ns/src/murata-dualstack-example-ns.c ****  
 747:../../applications/murata-dualstack-example-ns/src/murata-dualstack-example-ns.c **** }
 1791              		.loc 1 747 1 view .LVU426
 1792 0016 08BD     		pop	{r3, pc}
 1793              	.L128:
 736:../../applications/murata-dualstack-example-ns/src/murata-dualstack-example-ns.c ****     
 1794              		.loc 1 736 5 is_stmt 1 view .LVU427
 1795 0018 6FF00102 		mvn	r2, #1
 1796 001c 1A61     		str	r2, [r3, #16]
ARM GAS  C:\Users\yvesk\AppData\Local\Temp\ccsBUdhh.s 			page 48


 739:../../applications/murata-dualstack-example-ns/src/murata-dualstack-example-ns.c ****     timer2flag = 1; 
 1797              		.loc 1 739 5 view .LVU428
 1798 001e 0448     		ldr	r0, .L129+4
 1799 0020 FFF7FEFF 		bl	puts
 1800              	.LVL157:
 740:../../applications/murata-dualstack-example-ns/src/murata-dualstack-example-ns.c ****     
 1801              		.loc 1 740 5 view .LVU429
 740:../../applications/murata-dualstack-example-ns/src/murata-dualstack-example-ns.c ****     
 1802              		.loc 1 740 16 is_stmt 0 view .LVU430
 1803 0024 034B     		ldr	r3, .L129+8
 1804 0026 0122     		movs	r2, #1
 1805 0028 1A70     		strb	r2, [r3]
 1806              		.loc 1 747 1 view .LVU431
 1807 002a F4E7     		b	.L125
 1808              	.L130:
 1809              		.align	2
 1810              	.L129:
 1811 002c 00000000 		.word	.LANCHOR0
 1812 0030 00000000 		.word	.LC32
 1813 0034 00000000 		.word	.LANCHOR13
 1814              		.cfi_endproc
 1815              	.LFE149:
 1817              		.section	.text.TIM3_IRQHandler,"ax",%progbits
 1818              		.align	1
 1819              		.global	TIM3_IRQHandler
 1820              		.syntax unified
 1821              		.thumb
 1822              		.thumb_func
 1823              		.fpu fpv4-sp-d16
 1825              	TIM3_IRQHandler:
 1826              	.LFB150:
 748:../../applications/murata-dualstack-example-ns/src/murata-dualstack-example-ns.c **** 
 749:../../applications/murata-dualstack-example-ns/src/murata-dualstack-example-ns.c **** void TIM3_IRQHandler( void ) {
 1827              		.loc 1 749 30 is_stmt 1 view -0
 1828              		.cfi_startproc
 1829              		@ args = 0, pretend = 0, frame = 0
 1830              		@ frame_needed = 0, uses_anonymous_args = 0
 1831 0000 08B5     		push	{r3, lr}
 1832              	.LCFI36:
 1833              		.cfi_def_cfa_offset 8
 1834              		.cfi_offset 3, -8
 1835              		.cfi_offset 14, -4
 750:../../applications/murata-dualstack-example-ns/src/murata-dualstack-example-ns.c **** 
 751:../../applications/murata-dualstack-example-ns/src/murata-dualstack-example-ns.c ****   //printf("elapsed period \r\n");
 752:../../applications/murata-dualstack-example-ns/src/murata-dualstack-example-ns.c ****  
 753:../../applications/murata-dualstack-example-ns/src/murata-dualstack-example-ns.c ****   if (__HAL_TIM_GET_FLAG(&inactive_timer, TIM_IT_UPDATE) != RESET) 
 1836              		.loc 1 753 3 view .LVU433
 1837              		.loc 1 753 7 is_stmt 0 view .LVU434
 1838 0002 0D4B     		ldr	r3, .L136
 1839 0004 1B68     		ldr	r3, [r3]
 1840 0006 1A69     		ldr	r2, [r3, #16]
 1841              		.loc 1 753 6 view .LVU435
 1842 0008 12F0010F 		tst	r2, #1
 1843 000c 0CD0     		beq	.L131
 754:../../applications/murata-dualstack-example-ns/src/murata-dualstack-example-ns.c ****   //In case other interrupts are also running
 755:../../applications/murata-dualstack-example-ns/src/murata-dualstack-example-ns.c ****   {
 756:../../applications/murata-dualstack-example-ns/src/murata-dualstack-example-ns.c ****   
ARM GAS  C:\Users\yvesk\AppData\Local\Temp\ccsBUdhh.s 			page 49


 757:../../applications/murata-dualstack-example-ns/src/murata-dualstack-example-ns.c ****     if (__HAL_TIM_GET_IT_SOURCE(&inactive_timer, TIM_IT_UPDATE) != RESET) {
 1844              		.loc 1 757 5 is_stmt 1 view .LVU436
 1845              		.loc 1 757 9 is_stmt 0 view .LVU437
 1846 000e DA68     		ldr	r2, [r3, #12]
 1847              		.loc 1 757 8 view .LVU438
 1848 0010 12F0010F 		tst	r2, #1
 1849 0014 08D0     		beq	.L131
 758:../../applications/murata-dualstack-example-ns/src/murata-dualstack-example-ns.c ****     
 759:../../applications/murata-dualstack-example-ns/src/murata-dualstack-example-ns.c ****     __HAL_TIM_CLEAR_IT(&inactive_timer, TIM_IT_UPDATE);
 1850              		.loc 1 759 5 is_stmt 1 view .LVU439
 1851 0016 6FF00102 		mvn	r2, #1
 1852 001a 1A61     		str	r2, [r3, #16]
 760:../../applications/murata-dualstack-example-ns/src/murata-dualstack-example-ns.c ****     
 761:../../applications/murata-dualstack-example-ns/src/murata-dualstack-example-ns.c ****     if (timer3_first>0) {
 1853              		.loc 1 761 5 view .LVU440
 1854              		.loc 1 761 21 is_stmt 0 view .LVU441
 1855 001c 074B     		ldr	r3, .L136+4
 1856 001e 1B78     		ldrb	r3, [r3]	@ zero_extendqisi2
 1857              		.loc 1 761 8 view .LVU442
 1858 0020 1BB9     		cbnz	r3, .L135
 1859              	.L133:
 762:../../applications/murata-dualstack-example-ns/src/murata-dualstack-example-ns.c ****     printf("elapsed period \r\n");
 763:../../applications/murata-dualstack-example-ns/src/murata-dualstack-example-ns.c ****     timer3flag = 1; 
 764:../../applications/murata-dualstack-example-ns/src/murata-dualstack-example-ns.c ****     
 765:../../applications/murata-dualstack-example-ns/src/murata-dualstack-example-ns.c ****     }
 766:../../applications/murata-dualstack-example-ns/src/murata-dualstack-example-ns.c ****     timer3_first=1; 
 1860              		.loc 1 766 5 is_stmt 1 view .LVU443
 1861              		.loc 1 766 17 is_stmt 0 view .LVU444
 1862 0022 064B     		ldr	r3, .L136+4
 1863 0024 0122     		movs	r2, #1
 1864 0026 1A70     		strb	r2, [r3]
 1865              	.L131:
 767:../../applications/murata-dualstack-example-ns/src/murata-dualstack-example-ns.c ****     }
 768:../../applications/murata-dualstack-example-ns/src/murata-dualstack-example-ns.c ****   
 769:../../applications/murata-dualstack-example-ns/src/murata-dualstack-example-ns.c ****   }
 770:../../applications/murata-dualstack-example-ns/src/murata-dualstack-example-ns.c ****  
 771:../../applications/murata-dualstack-example-ns/src/murata-dualstack-example-ns.c **** }
 1866              		.loc 1 771 1 view .LVU445
 1867 0028 08BD     		pop	{r3, pc}
 1868              	.L135:
 762:../../applications/murata-dualstack-example-ns/src/murata-dualstack-example-ns.c ****     printf("elapsed period \r\n");
 1869              		.loc 1 762 5 is_stmt 1 view .LVU446
 1870 002a 0548     		ldr	r0, .L136+8
 1871 002c FFF7FEFF 		bl	puts
 1872              	.LVL158:
 763:../../applications/murata-dualstack-example-ns/src/murata-dualstack-example-ns.c ****     
 1873              		.loc 1 763 5 view .LVU447
 763:../../applications/murata-dualstack-example-ns/src/murata-dualstack-example-ns.c ****     
 1874              		.loc 1 763 16 is_stmt 0 view .LVU448
 1875 0030 044B     		ldr	r3, .L136+12
 1876 0032 0122     		movs	r2, #1
 1877 0034 1A70     		strb	r2, [r3]
 1878 0036 F4E7     		b	.L133
 1879              	.L137:
 1880              		.align	2
 1881              	.L136:
 1882 0038 00000000 		.word	.LANCHOR1
ARM GAS  C:\Users\yvesk\AppData\Local\Temp\ccsBUdhh.s 			page 50


 1883 003c 00000000 		.word	.LANCHOR2
 1884 0040 00000000 		.word	.LC32
 1885 0044 00000000 		.word	.LANCHOR14
 1886              		.cfi_endproc
 1887              	.LFE150:
 1889              		.section	.text.HAL_TIM_PeriodElapsedCallback,"ax",%progbits
 1890              		.align	1
 1891              		.global	HAL_TIM_PeriodElapsedCallback
 1892              		.syntax unified
 1893              		.thumb
 1894              		.thumb_func
 1895              		.fpu fpv4-sp-d16
 1897              	HAL_TIM_PeriodElapsedCallback:
 1898              	.LVL159:
 1899              	.LFB151:
 772:../../applications/murata-dualstack-example-ns/src/murata-dualstack-example-ns.c **** 
 773:../../applications/murata-dualstack-example-ns/src/murata-dualstack-example-ns.c **** 
 774:../../applications/murata-dualstack-example-ns/src/murata-dualstack-example-ns.c **** /**
 775:../../applications/murata-dualstack-example-ns/src/murata-dualstack-example-ns.c ****   * @brief  Period elapsed callback in non blocking mode
 776:../../applications/murata-dualstack-example-ns/src/murata-dualstack-example-ns.c ****   * @note   This function is called  when TIM1 interrupt took place, inside
 777:../../applications/murata-dualstack-example-ns/src/murata-dualstack-example-ns.c ****   * HAL_TIM_IRQHandler(). It makes a direct call to HAL_IncTick() to increment
 778:../../applications/murata-dualstack-example-ns/src/murata-dualstack-example-ns.c ****   * a global variable "uwTick" used as application time base.
 779:../../applications/murata-dualstack-example-ns/src/murata-dualstack-example-ns.c ****   * @param  htim : TIM handle
 780:../../applications/murata-dualstack-example-ns/src/murata-dualstack-example-ns.c ****   * @retval None
 781:../../applications/murata-dualstack-example-ns/src/murata-dualstack-example-ns.c ****   */
 782:../../applications/murata-dualstack-example-ns/src/murata-dualstack-example-ns.c **** void HAL_TIM_PeriodElapsedCallback(TIM_HandleTypeDef *htim)
 783:../../applications/murata-dualstack-example-ns/src/murata-dualstack-example-ns.c **** {
 1900              		.loc 1 783 1 is_stmt 1 view -0
 1901              		.cfi_startproc
 1902              		@ args = 0, pretend = 0, frame = 0
 1903              		@ frame_needed = 0, uses_anonymous_args = 0
 1904              		.loc 1 783 1 is_stmt 0 view .LVU450
 1905 0000 08B5     		push	{r3, lr}
 1906              	.LCFI37:
 1907              		.cfi_def_cfa_offset 8
 1908              		.cfi_offset 3, -8
 1909              		.cfi_offset 14, -4
 784:../../applications/murata-dualstack-example-ns/src/murata-dualstack-example-ns.c ****   /* USER CODE BEGIN Callback 0 */
 785:../../applications/murata-dualstack-example-ns/src/murata-dualstack-example-ns.c **** 
 786:../../applications/murata-dualstack-example-ns/src/murata-dualstack-example-ns.c ****   /* USER CODE END Callback 0 */
 787:../../applications/murata-dualstack-example-ns/src/murata-dualstack-example-ns.c ****   if (htim->Instance == TIM1)
 1910              		.loc 1 787 3 is_stmt 1 view .LVU451
 1911              		.loc 1 787 11 is_stmt 0 view .LVU452
 1912 0002 0268     		ldr	r2, [r0]
 1913              		.loc 1 787 6 view .LVU453
 1914 0004 034B     		ldr	r3, .L142
 1915 0006 9A42     		cmp	r2, r3
 1916 0008 00D0     		beq	.L141
 1917              	.LVL160:
 1918              	.L138:
 788:../../applications/murata-dualstack-example-ns/src/murata-dualstack-example-ns.c ****   {
 789:../../applications/murata-dualstack-example-ns/src/murata-dualstack-example-ns.c ****     HAL_IncTick();
 790:../../applications/murata-dualstack-example-ns/src/murata-dualstack-example-ns.c ****   }
 791:../../applications/murata-dualstack-example-ns/src/murata-dualstack-example-ns.c ****   /* USER CODE BEGIN Callback 1 */
 792:../../applications/murata-dualstack-example-ns/src/murata-dualstack-example-ns.c **** 
 793:../../applications/murata-dualstack-example-ns/src/murata-dualstack-example-ns.c ****   /* USER CODE END Callback 1 */
 794:../../applications/murata-dualstack-example-ns/src/murata-dualstack-example-ns.c **** }
ARM GAS  C:\Users\yvesk\AppData\Local\Temp\ccsBUdhh.s 			page 51


 1919              		.loc 1 794 1 view .LVU454
 1920 000a 08BD     		pop	{r3, pc}
 1921              	.LVL161:
 1922              	.L141:
 789:../../applications/murata-dualstack-example-ns/src/murata-dualstack-example-ns.c ****   }
 1923              		.loc 1 789 5 is_stmt 1 view .LVU455
 1924 000c FFF7FEFF 		bl	HAL_IncTick
 1925              	.LVL162:
 1926              		.loc 1 794 1 is_stmt 0 view .LVU456
 1927 0010 FBE7     		b	.L138
 1928              	.L143:
 1929 0012 00BF     		.align	2
 1930              	.L142:
 1931 0014 002C0140 		.word	1073818624
 1932              		.cfi_endproc
 1933              	.LFE151:
 1935              		.section	.text.Error_Handler,"ax",%progbits
 1936              		.align	1
 1937              		.global	Error_Handler
 1938              		.syntax unified
 1939              		.thumb
 1940              		.thumb_func
 1941              		.fpu fpv4-sp-d16
 1943              	Error_Handler:
 1944              	.LFB152:
 795:../../applications/murata-dualstack-example-ns/src/murata-dualstack-example-ns.c **** 
 796:../../applications/murata-dualstack-example-ns/src/murata-dualstack-example-ns.c **** /**
 797:../../applications/murata-dualstack-example-ns/src/murata-dualstack-example-ns.c ****   * @brief  This function is executed in case of error occurrence.
 798:../../applications/murata-dualstack-example-ns/src/murata-dualstack-example-ns.c ****   * @retval None
 799:../../applications/murata-dualstack-example-ns/src/murata-dualstack-example-ns.c ****   */
 800:../../applications/murata-dualstack-example-ns/src/murata-dualstack-example-ns.c **** void Error_Handler(void)
 801:../../applications/murata-dualstack-example-ns/src/murata-dualstack-example-ns.c **** {
 1945              		.loc 1 801 1 is_stmt 1 view -0
 1946              		.cfi_startproc
 1947              		@ args = 0, pretend = 0, frame = 0
 1948              		@ frame_needed = 0, uses_anonymous_args = 0
 1949              		@ link register save eliminated.
 802:../../applications/murata-dualstack-example-ns/src/murata-dualstack-example-ns.c ****   /* USER CODE BEGIN Error_Handler_Debug */
 803:../../applications/murata-dualstack-example-ns/src/murata-dualstack-example-ns.c ****   /* User can add his own implementation to report the HAL error return state */
 804:../../applications/murata-dualstack-example-ns/src/murata-dualstack-example-ns.c **** 
 805:../../applications/murata-dualstack-example-ns/src/murata-dualstack-example-ns.c ****   /* USER CODE END Error_Handler_Debug */
 806:../../applications/murata-dualstack-example-ns/src/murata-dualstack-example-ns.c **** }
 1950              		.loc 1 806 1 view .LVU458
 1951 0000 7047     		bx	lr
 1952              		.cfi_endproc
 1953              	.LFE152:
 1955              		.global	timer3_first
 1956              		.global	messageMode
 1957              		.global	changeAcceleroMode
 1958              		.global	repMode
 1959              		.global	repFlag
 1960              		.global	timer3flag
 1961              		.global	timer2flag
 1962              		.global	temperatureflag
 1963              		.comm	data,1,1
 1964              		.comm	SHTData,8,4
 1965              		.global	successCounter
ARM GAS  C:\Users\yvesk\AppData\Local\Temp\ccsBUdhh.s 			page 52


 1966              		.global	failureCounter
 1967              		.global	rep_counter
 1968              		.global	murata_data_ready
 1969              		.comm	short_UID,8,8
 1970              		.global	murata_init
 1971              		.global	DASH7_Counter
 1972              		.global	LoRaWAN_Counter
 1973              		.comm	threadToNotify,4,4
 1974              		.comm	murata_reset_pin,4,4
 1975              		.comm	murata_wakeup_pin,4,4
 1976              		.comm	magRawData,6,4
 1977              		.comm	magRegisterData,6,4
 1978              		.comm	accRawData,6,4
 1979              		.comm	accRegisterData,6,4
 1980              		.comm	LSM303AGR_hi2c,4,4
 1981              		.comm	LSM303AGR_setting,1,1
 1982              		.comm	murata_rx_process_mutex_id,4,4
 1983              		.comm	txMutexId,4,4
 1984              		.comm	moduleCheckTimId,4,4
 1985              		.comm	dash7TimId,4,4
 1986              		.comm	loraWANTimId,4,4
 1987              		.comm	iwdgTimId,4,4
 1988              		.comm	murata_rx_processing_handle,4,4
 1989              		.comm	defaultTaskHandle,4,4
 1990              		.comm	P3_header,44,4
 1991              		.comm	P2_header,44,4
 1992              		.comm	P1_header,44,4
 1993              		.comm	FLASH_SPI,100,4
 1994              		.comm	P3_SPI,100,4
 1995              		.comm	P2_SPI,100,4
 1996              		.comm	P1_SPI,100,4
 1997              		.comm	P3_I2C,76,4
 1998              		.comm	P2_I2C,76,4
 1999              		.comm	P1_I2C,76,4
 2000              		.comm	common_I2C,76,4
 2001              		.comm	P3_UART,120,4
 2002              		.comm	P2_UART,120,4
 2003              		.comm	P1_UART,120,4
 2004              		.comm	BLE_UART,120,4
 2005              		.comm	USB_UART,120,4
 2006              		.comm	hiwdg,16,4
 2007              		.comm	P3_DIO6,8,4
 2008              		.comm	P3_DIO5,8,4
 2009              		.comm	P3_DIO4,8,4
 2010              		.comm	P3_DIO3,8,4
 2011              		.comm	P3_DIO2,8,4
 2012              		.comm	P3_DIO1,8,4
 2013              		.comm	P2_DIO6,8,4
 2014              		.comm	P2_DIO5,8,4
 2015              		.comm	P2_DIO4,8,4
 2016              		.comm	P2_DIO3,8,4
 2017              		.comm	P2_DIO2,8,4
 2018              		.comm	P2_DIO1,8,4
 2019              		.comm	P1_DIO6,8,4
 2020              		.comm	P1_DIO5,8,4
 2021              		.comm	P1_DIO4,8,4
 2022              		.comm	P1_DIO3,8,4
ARM GAS  C:\Users\yvesk\AppData\Local\Temp\ccsBUdhh.s 			page 53


 2023              		.comm	P1_DIO2,8,4
 2024              		.comm	P1_DIO1,8,4
 2025              		.section	.bss.DASH7_Counter,"aw",%nobits
 2026              		.align	1
 2027              		.set	.LANCHOR5,. + 0
 2030              	DASH7_Counter:
 2031 0000 0000     		.space	2
 2032              		.section	.bss.LoRaWAN_Counter,"aw",%nobits
 2033              		.align	1
 2034              		.set	.LANCHOR4,. + 0
 2037              	LoRaWAN_Counter:
 2038 0000 0000     		.space	2
 2039              		.section	.bss.changeAcceleroMode,"aw",%nobits
 2040              		.set	.LANCHOR9,. + 0
 2043              	changeAcceleroMode:
 2044 0000 00       		.space	1
 2045              		.section	.bss.failureCounter,"aw",%nobits
 2046              		.set	.LANCHOR11,. + 0
 2049              	failureCounter:
 2050 0000 00       		.space	1
 2051              		.section	.bss.messageMode,"aw",%nobits
 2052              		.set	.LANCHOR7,. + 0
 2055              	messageMode:
 2056 0000 00       		.space	1
 2057              		.section	.bss.murata_data_ready,"aw",%nobits
 2058              		.set	.LANCHOR8,. + 0
 2061              	murata_data_ready:
 2062 0000 00       		.space	1
 2063              		.section	.bss.murata_init,"aw",%nobits
 2064              		.set	.LANCHOR3,. + 0
 2067              	murata_init:
 2068 0000 00       		.space	1
 2069              		.section	.bss.repFlag,"aw",%nobits
 2070              		.set	.LANCHOR12,. + 0
 2073              	repFlag:
 2074 0000 00       		.space	1
 2075              		.section	.bss.repMode,"aw",%nobits
 2076              		.set	.LANCHOR10,. + 0
 2079              	repMode:
 2080 0000 00       		.space	1
 2081              		.section	.bss.rep_counter,"aw",%nobits
 2082              		.set	.LANCHOR6,. + 0
 2085              	rep_counter:
 2086 0000 00       		.space	1
 2087              		.section	.bss.successCounter,"aw",%nobits
 2088              		.set	.LANCHOR15,. + 0
 2091              	successCounter:
 2092 0000 00       		.space	1
 2093              		.section	.bss.temperatureflag,"aw",%nobits
 2096              	temperatureflag:
 2097 0000 00       		.space	1
 2098              		.section	.bss.timer2flag,"aw",%nobits
 2099              		.set	.LANCHOR13,. + 0
 2102              	timer2flag:
 2103 0000 00       		.space	1
 2104              		.section	.bss.timer3_first,"aw",%nobits
 2105              		.set	.LANCHOR2,. + 0
ARM GAS  C:\Users\yvesk\AppData\Local\Temp\ccsBUdhh.s 			page 54


 2108              	timer3_first:
 2109 0000 00       		.space	1
 2110              		.section	.bss.timer3flag,"aw",%nobits
 2111              		.set	.LANCHOR14,. + 0
 2114              	timer3flag:
 2115 0000 00       		.space	1
 2116              		.section	.data.inactive_timer,"aw"
 2117              		.align	2
 2118              		.set	.LANCHOR1,. + 0
 2121              	inactive_timer:
 2122 0000 00040040 		.word	1073742848
 2123 0004 00000000 		.space	60
 2123      00000000 
 2123      00000000 
 2123      00000000 
 2123      00000000 
 2124              		.section	.data.localisation_timer,"aw"
 2125              		.align	2
 2126              		.set	.LANCHOR0,. + 0
 2129              	localisation_timer:
 2130 0000 00000040 		.word	1073741824
 2131 0004 00000000 		.space	60
 2131      00000000 
 2131      00000000 
 2131      00000000 
 2131      00000000 
 2132              		.section	.rodata.EXTI1_IRQHandler.str1.4,"aMS",%progbits,1
 2133              		.align	2
 2134              	.LC31:
 2135 0000 494E5445 		.ascii	"INTERRUPT BUTTON! \015\000"
 2135      52525550 
 2135      54204255 
 2135      54544F4E 
 2135      21200D00 
 2136              		.section	.rodata.HAL_GPIO_EXTI_Callback.str1.4,"aMS",%progbits,1
 2137              		.align	2
 2138              	.LC30:
 2139 0000 696E7465 		.ascii	"interrupt accelerometer! \015\000"
 2139      72727570 
 2139      74206163 
 2139      63656C65 
 2139      726F6D65 
 2140              		.section	.rodata.LoRaWAN_send.str1.4,"aMS",%progbits,1
 2141              		.align	2
 2142              	.LC2:
 2143 0000 6D757261 		.ascii	"murata not initialized, not sending\015\000"
 2143      7461206E 
 2143      6F742069 
 2143      6E697469 
 2143      616C697A 
 2144              		.section	.rodata.LoRaWAN_send_self.str1.4,"aMS",%progbits,1
 2145              		.align	2
 2146              	.LC29:
 2147 0000 74697320 		.ascii	"tis ni gelukt :( \000"
 2147      6E692067 
 2147      656C756B 
 2147      74203A28 
ARM GAS  C:\Users\yvesk\AppData\Local\Temp\ccsBUdhh.s 			page 55


 2147      2000
 2148              		.section	.rodata.TIM2_IRQHandler.str1.4,"aMS",%progbits,1
 2149              		.align	2
 2150              	.LC32:
 2151 0000 656C6170 		.ascii	"elapsed period \015\000"
 2151      73656420 
 2151      70657269 
 2151      6F64200D 
 2151      00
 2152              		.section	.rodata.goToSleep.str1.4,"aMS",%progbits,1
 2153              		.align	2
 2154              	.LC0:
 2155 0000 676F696E 		.ascii	"going into sleepmode\015\000"
 2155      6720696E 
 2155      746F2073 
 2155      6C656570 
 2155      6D6F6465 
 2156 0016 0000     		.space	2
 2157              	.LC1:
 2158 0018 2063616D 		.ascii	" came out of sleepmode \015\000"
 2158      65206F75 
 2158      74206F66 
 2158      20736C65 
 2158      65706D6F 
 2159              		.section	.rodata.main.str1.4,"aMS",%progbits,1
 2160              		.align	2
 2161              	.LC15:
 2162 0000 4D757261 		.ascii	"Murata dualstack module init OK\015\012\015\000"
 2162      74612064 
 2162      75616C73 
 2162      7461636B 
 2162      206D6F64 
 2163 0023 00       		.space	1
 2164              	.LC16:
 2165 0024 70726F63 		.ascii	"processing murata fifo\015\000"
 2165      65737369 
 2165      6E67206D 
 2165      75726174 
 2165      61206669 
 2166              	.LC17:
 2167 003c 53746172 		.ascii	"Started Repping\015\000"
 2167      74656420 
 2167      52657070 
 2167      696E670D 
 2167      00
 2168 004d 000000   		.space	3
 2169              	.LC18:
 2170 0050 4C534D20 		.ascii	"LSM in double click mode \015\000"
 2170      696E2064 
 2170      6F75626C 
 2170      6520636C 
 2170      69636B20 
 2171 006b 00       		.space	1
 2172              	.LC19:
 2173 006c 53656E64 		.ascii	"Sending D7 Message with BLE info + temp + hum\015\000"
 2173      696E6720 
 2173      4437204D 
ARM GAS  C:\Users\yvesk\AppData\Local\Temp\ccsBUdhh.s 			page 56


 2173      65737361 
 2173      67652077 
 2174 009b 00       		.space	1
 2175              	.LC20:
 2176 009c 4661696C 		.ascii	"Failure counter = %d\015\012\000"
 2176      75726520 
 2176      636F756E 
 2176      74657220 
 2176      3D202564 
 2177 00b3 00       		.space	1
 2178              	.LC21:
 2179 00b4 53746F70 		.ascii	"Stopped Repping\012LSM in default mode \015\012\000"
 2179      70656420 
 2179      52657070 
 2179      696E670A 
 2179      4C534D20 
 2180 00db 00       		.space	1
 2181              	.LC22:
 2182 00dc 53656E64 		.ascii	"Sending D7 Message with BLE info + temp + hum + amo"
 2182      696E6720 
 2182      4437204D 
 2182      65737361 
 2182      67652077 
 2183 010f 756E7420 		.ascii	"unt of reps\015\000"
 2183      6F662072 
 2183      6570730D 
 2183      00
 2184              	.LC23:
 2185 011c 54696D65 		.ascii	"Timer value: %d,\015\012\015\012\000"
 2185      72207661 
 2185      6C75653A 
 2185      2025642C 
 2185      0D0A0D0A 
 2186 0131 000000   		.space	3
 2187              	.LC24:
 2188 0134 52657020 		.ascii	"Rep counter: %d,\015\012\015\012\000"
 2188      636F756E 
 2188      7465723A 
 2188      2025642C 
 2188      0D0A0D0A 
 2189 0149 000000   		.space	3
 2190              	.LC25:
 2191 014c 53656E64 		.ascii	"Sending dash7 localisation message (once per minute"
 2191      696E6720 
 2191      64617368 
 2191      37206C6F 
 2191      63616C69 
 2192 017f 290D0A0D 		.ascii	")\015\012\015\000"
 2192      00
 2193              	.LC26:
 2194 0184 53656E64 		.ascii	"Sending dash7 go to sleep message (once per minute)"
 2194      696E6720 
 2194      64617368 
 2194      3720676F 
 2194      20746F20 
 2195 01b7 0D0A0D00 		.ascii	"\015\012\015\000"
 2196 01bb 00       		.space	1
ARM GAS  C:\Users\yvesk\AppData\Local\Temp\ccsBUdhh.s 			page 57


 2197              	.LC27:
 2198 01bc 476F696E 		.ascii	"Going to LoRaWAN mode\015\012\015\000"
 2198      6720746F 
 2198      204C6F52 
 2198      6157414E 
 2198      206D6F64 
 2199 01d5 000000   		.space	3
 2200              	.LC28:
 2201 01d8 476F696E 		.ascii	"Going to dash7 mode\015\012\015\000"
 2201      6720746F 
 2201      20646173 
 2201      6837206D 
 2201      6F64650D 
 2202              		.section	.rodata.printWelcome.str1.4,"aMS",%progbits,1
 2203              		.align	2
 2204              	.LC10:
 2205 0000 2A2A2A2A 		.ascii	"*****************************************\015\000"
 2205      2A2A2A2A 
 2205      2A2A2A2A 
 2205      2A2A2A2A 
 2205      2A2A2A2A 
 2206 002b 00       		.space	1
 2207              	.LC11:
 2208 002c 4D757261 		.ascii	"Murata Dual Stack example without scheduler\015\000"
 2208      74612044 
 2208      75616C20 
 2208      53746163 
 2208      6B206578 
 2209 0059 000000   		.space	3
 2210              	.LC12:
 2211 005c 6F637461 		.ascii	"octa ID: \000"
 2211      2049443A 
 2211      2000
 2212 0066 0000     		.space	2
 2213              	.LC13:
 2214 0068 25303278 		.ascii	"%02x\000"
 2214      00
 2215 006d 000000   		.space	3
 2216              	.LC14:
 2217 0070 0D0A0D00 		.ascii	"\015\012\015\000"
 2218              		.section	.rodata.print_temp_hum.str1.4,"aMS",%progbits,1
 2219              		.align	2
 2220              	.LC7:
 2221 0000 0D00     		.ascii	"\015\000"
 2222 0002 0000     		.space	2
 2223              	.LC8:
 2224 0004 54656D70 		.ascii	"Temperature: %.2f \302\260C  \015\012\000"
 2224      65726174 
 2224      7572653A 
 2224      20252E32 
 2224      6620C2B0 
 2225 001e 0000     		.space	2
 2226              	.LC9:
 2227 0020 48756D69 		.ascii	"Humidity: %.2f %% \015\012\000"
 2227      64697479 
 2227      3A20252E 
 2227      32662025 
ARM GAS  C:\Users\yvesk\AppData\Local\Temp\ccsBUdhh.s 			page 58


 2227      25200D0A 
 2228              		.section	.rodata.send_message.str1.4,"aMS",%progbits,1
 2229              		.align	2
 2230              	.LC3:
 2231 0000 73656E64 		.ascii	"sending temphum message\015\000"
 2231      696E6720 
 2231      74656D70 
 2231      68756D20 
 2231      6D657373 
 2232 0019 000000   		.space	3
 2233              	.LC4:
 2234 001c 73656E64 		.ascii	"sending allinfo message\015\000"
 2234      696E6720 
 2234      616C6C69 
 2234      6E666F20 
 2234      6D657373 
 2235 0035 000000   		.space	3
 2236              	.LC5:
 2237 0038 4E6F2063 		.ascii	"No case was matched\015\000"
 2237      61736520 
 2237      77617320 
 2237      6D617463 
 2237      6865640D 
 2238 004d 000000   		.space	3
 2239              	.LC6:
 2240 0050 73656E64 		.ascii	"sending out of reach lorawan message\015\000"
 2240      696E6720 
 2240      6F757420 
 2240      6F662072 
 2240      65616368 
 2241              		.weak	SystemClock_Config
 2242              		.text
 2243              	.Letext0:
 2244              		.file 2 "c:\\program files (x86)\\gnu tools arm embedded\\8 2019-q3-update\\arm-none-eabi\\include
 2245              		.file 3 "c:\\program files (x86)\\gnu tools arm embedded\\8 2019-q3-update\\arm-none-eabi\\include
 2246              		.file 4 "../../core/ST/CMSIS/Include/core_cm4.h"
 2247              		.file 5 "../../core/ST/CMSIS/Device/ST/STM32L4xx/Include/system_stm32l4xx.h"
 2248              		.file 6 "../../core/ST/CMSIS/Device/ST/STM32L4xx/Include/stm32l496xx.h"
 2249              		.file 7 "../../core/ST/CMSIS/Device/ST/STM32L4xx/Include/stm32l4xx.h"
 2250              		.file 8 "../../core/ST/STM32L4xx_HAL_Driver/Inc/stm32l4xx_hal_def.h"
 2251              		.file 9 "../../core/ST/STM32L4xx_HAL_Driver/Inc/stm32l4xx_hal_dma.h"
 2252              		.file 10 "../../core/ST/STM32L4xx_HAL_Driver/Inc/stm32l4xx_hal_i2c.h"
 2253              		.file 11 "../../core/ST/STM32L4xx_HAL_Driver/Inc/stm32l4xx_hal_iwdg.h"
 2254              		.file 12 "../../core/ST/STM32L4xx_HAL_Driver/Inc/stm32l4xx_hal_spi.h"
 2255              		.file 13 "../../core/ST/STM32L4xx_HAL_Driver/Inc/stm32l4xx_hal_tim.h"
 2256              		.file 14 "../../core/ST/STM32L4xx_HAL_Driver/Inc/stm32l4xx_hal_uart.h"
 2257              		.file 15 "../../core/ST/STM32L4xx_HAL_Driver/Inc/stm32l4xx_hal.h"
 2258              		.file 16 "../../core/ST/Middlewares/Third_Party/FreeRTOS/Source/include/task.h"
 2259              		.file 17 "../../core/ST/Middlewares/Third_Party/FreeRTOS/Source/include/timers.h"
 2260              		.file 18 "../../core/ST/Middlewares/Third_Party/FreeRTOS/Source/include/queue.h"
 2261              		.file 19 "../../core/ST/Middlewares/Third_Party/FreeRTOS/Source/include/semphr.h"
 2262              		.file 20 "../../core/ST/Middlewares/Third_Party/FreeRTOS/Source/CMSIS_RTOS/cmsis_os.h"
 2263              		.file 21 "../../core/platform/octa/inc/gpio.h"
 2264              		.file 22 "../../core/platform/octa/inc/iwdg.h"
 2265              		.file 23 "../../core/platform/octa/inc/uart.h"
 2266              		.file 24 "../../core/platform/octa/inc/i2c.h"
 2267              		.file 25 "../../core/platform/octa/inc/spi.h"
ARM GAS  C:\Users\yvesk\AppData\Local\Temp\ccsBUdhh.s 			page 59


 2268              		.file 26 "../../core/platform/octa/inc/octa.h"
 2269              		.file 27 "../../applications/murata-dualstack-example-ns/inc/murata-dualstack-example-ns.h"
 2270              		.file 28 "../../core/drivers/LSM303AGR/inc/LSM303AGRSensor.h"
 2271              		.file 29 "c:\\program files (x86)\\gnu tools arm embedded\\8 2019-q3-update\\lib\\gcc\\arm-none-ea
 2272              		.file 30 "c:\\program files (x86)\\gnu tools arm embedded\\8 2019-q3-update\\arm-none-eabi\\includ
 2273              		.file 31 "c:\\program files (x86)\\gnu tools arm embedded\\8 2019-q3-update\\arm-none-eabi\\includ
 2274              		.file 32 "c:\\program files (x86)\\gnu tools arm embedded\\8 2019-q3-update\\arm-none-eabi\\includ
 2275              		.file 33 "../../shields/Murata-dualstack/inc/murata.h"
 2276              		.file 34 "<built-in>"
 2277              		.file 35 "c:\\program files (x86)\\gnu tools arm embedded\\8 2019-q3-update\\arm-none-eabi\\includ
 2278              		.file 36 "../../core/ST/STM32L4xx_HAL_Driver/Inc/stm32l4xx_hal_gpio.h"
 2279              		.file 37 "../../core/ST/STM32L4xx_HAL_Driver/Inc/stm32l4xx_hal_pwr.h"
 2280              		.file 38 "../../core/platform/octa/inc/sysclock.h"
 2281              		.file 39 "../../core/platform/common/inc/platform.h"
 2282              		.file 40 "../../core/ST/STM32L4xx_HAL_Driver/Inc/stm32l4xx_hal_cortex.h"
ARM GAS  C:\Users\yvesk\AppData\Local\Temp\ccsBUdhh.s 			page 60


DEFINED SYMBOLS
                            *ABS*:00000000 murata-dualstack-example-ns.c
C:\Users\yvesk\AppData\Local\Temp\ccsBUdhh.s:18     .text.InitializeTimer2:00000000 $t
C:\Users\yvesk\AppData\Local\Temp\ccsBUdhh.s:26     .text.InitializeTimer2:00000000 InitializeTimer2
C:\Users\yvesk\AppData\Local\Temp\ccsBUdhh.s:80     .text.InitializeTimer2:00000030 $d
C:\Users\yvesk\AppData\Local\Temp\ccsBUdhh.s:86     .text.InitializeTimer3:00000000 $t
C:\Users\yvesk\AppData\Local\Temp\ccsBUdhh.s:93     .text.InitializeTimer3:00000000 InitializeTimer3
C:\Users\yvesk\AppData\Local\Temp\ccsBUdhh.s:146    .text.InitializeTimer3:00000030 $d
C:\Users\yvesk\AppData\Local\Temp\ccsBUdhh.s:152    .text.goToSleep:00000000 $t
C:\Users\yvesk\AppData\Local\Temp\ccsBUdhh.s:159    .text.goToSleep:00000000 goToSleep
C:\Users\yvesk\AppData\Local\Temp\ccsBUdhh.s:202    .text.goToSleep:0000002c $d
C:\Users\yvesk\AppData\Local\Temp\ccsBUdhh.s:209    .text.LoRaWAN_send:00000000 $t
C:\Users\yvesk\AppData\Local\Temp\ccsBUdhh.s:216    .text.LoRaWAN_send:00000000 LoRaWAN_send
C:\Users\yvesk\AppData\Local\Temp\ccsBUdhh.s:324    .text.LoRaWAN_send:00000064 $d
                            *COM*:00000008 SHTData
C:\Users\yvesk\AppData\Local\Temp\ccsBUdhh.s:332    .text.Dash7_send:00000000 $t
C:\Users\yvesk\AppData\Local\Temp\ccsBUdhh.s:339    .text.Dash7_send:00000000 Dash7_send
C:\Users\yvesk\AppData\Local\Temp\ccsBUdhh.s:454    .text.Dash7_send:0000005c $d
C:\Users\yvesk\AppData\Local\Temp\ccsBUdhh.s:461    .text.Dash7_send_temphum:00000000 $t
C:\Users\yvesk\AppData\Local\Temp\ccsBUdhh.s:468    .text.Dash7_send_temphum:00000000 Dash7_send_temphum
C:\Users\yvesk\AppData\Local\Temp\ccsBUdhh.s:588    .text.Dash7_send_temphum:00000070 $d
C:\Users\yvesk\AppData\Local\Temp\ccsBUdhh.s:596    .text.Dash7_send_allInfo:00000000 $t
C:\Users\yvesk\AppData\Local\Temp\ccsBUdhh.s:603    .text.Dash7_send_allInfo:00000000 Dash7_send_allInfo
C:\Users\yvesk\AppData\Local\Temp\ccsBUdhh.s:725    .text.Dash7_send_allInfo:00000074 $d
C:\Users\yvesk\AppData\Local\Temp\ccsBUdhh.s:734    .text.send_message:00000000 $t
C:\Users\yvesk\AppData\Local\Temp\ccsBUdhh.s:741    .text.send_message:00000000 send_message
C:\Users\yvesk\AppData\Local\Temp\ccsBUdhh.s:821    .text.send_message:00000044 $d
C:\Users\yvesk\AppData\Local\Temp\ccsBUdhh.s:831    .text.print_temp_hum:00000000 $t
C:\Users\yvesk\AppData\Local\Temp\ccsBUdhh.s:838    .text.print_temp_hum:00000000 print_temp_hum
C:\Users\yvesk\AppData\Local\Temp\ccsBUdhh.s:886    .text.print_temp_hum:00000034 $d
C:\Users\yvesk\AppData\Local\Temp\ccsBUdhh.s:894    .text.temp_hum_measurement:00000000 $t
C:\Users\yvesk\AppData\Local\Temp\ccsBUdhh.s:901    .text.temp_hum_measurement:00000000 temp_hum_measurement
C:\Users\yvesk\AppData\Local\Temp\ccsBUdhh.s:924    .text.temp_hum_measurement:00000010 $d
C:\Users\yvesk\AppData\Local\Temp\ccsBUdhh.s:929    .text.HAL_UART_RxCpltCallback:00000000 $t
C:\Users\yvesk\AppData\Local\Temp\ccsBUdhh.s:936    .text.HAL_UART_RxCpltCallback:00000000 HAL_UART_RxCpltCallback
C:\Users\yvesk\AppData\Local\Temp\ccsBUdhh.s:973    .text.HAL_UART_RxCpltCallback:00000018 $d
                            *COM*:00000078 P1_UART
C:\Users\yvesk\AppData\Local\Temp\ccsBUdhh.s:979    .text.vApplicationIdleHook:00000000 $t
C:\Users\yvesk\AppData\Local\Temp\ccsBUdhh.s:986    .text.vApplicationIdleHook:00000000 vApplicationIdleHook
C:\Users\yvesk\AppData\Local\Temp\ccsBUdhh.s:999    .text.printWelcome:00000000 $t
C:\Users\yvesk\AppData\Local\Temp\ccsBUdhh.s:1006   .text.printWelcome:00000000 printWelcome
C:\Users\yvesk\AppData\Local\Temp\ccsBUdhh.s:1103   .text.printWelcome:00000070 $d
                            *COM*:00000008 short_UID
C:\Users\yvesk\AppData\Local\Temp\ccsBUdhh.s:1115   .text.main:00000000 $t
C:\Users\yvesk\AppData\Local\Temp\ccsBUdhh.s:1122   .text.main:00000000 main
C:\Users\yvesk\AppData\Local\Temp\ccsBUdhh.s:1504   .text.main:000001c4 $d
                            *COM*:0000004c common_I2C
C:\Users\yvesk\AppData\Local\Temp\ccsBUdhh.s:1536   .text.LoRaWAN_send_self:00000000 $t
C:\Users\yvesk\AppData\Local\Temp\ccsBUdhh.s:1543   .text.LoRaWAN_send_self:00000000 LoRaWAN_send_self
C:\Users\yvesk\AppData\Local\Temp\ccsBUdhh.s:1651   .text.LoRaWAN_send_self:0000006c $d
C:\Users\yvesk\AppData\Local\Temp\ccsBUdhh.s:1660   .text.HAL_GPIO_EXTI_Callback:00000000 $t
C:\Users\yvesk\AppData\Local\Temp\ccsBUdhh.s:1667   .text.HAL_GPIO_EXTI_Callback:00000000 HAL_GPIO_EXTI_Callback
C:\Users\yvesk\AppData\Local\Temp\ccsBUdhh.s:1702   .text.HAL_GPIO_EXTI_Callback:00000018 $d
C:\Users\yvesk\AppData\Local\Temp\ccsBUdhh.s:1708   .text.EXTI1_IRQHandler:00000000 $t
C:\Users\yvesk\AppData\Local\Temp\ccsBUdhh.s:1715   .text.EXTI1_IRQHandler:00000000 EXTI1_IRQHandler
C:\Users\yvesk\AppData\Local\Temp\ccsBUdhh.s:1750   .text.EXTI1_IRQHandler:00000020 $d
C:\Users\yvesk\AppData\Local\Temp\ccsBUdhh.s:1758   .text.TIM2_IRQHandler:00000000 $t
ARM GAS  C:\Users\yvesk\AppData\Local\Temp\ccsBUdhh.s 			page 61


C:\Users\yvesk\AppData\Local\Temp\ccsBUdhh.s:1765   .text.TIM2_IRQHandler:00000000 TIM2_IRQHandler
C:\Users\yvesk\AppData\Local\Temp\ccsBUdhh.s:1811   .text.TIM2_IRQHandler:0000002c $d
C:\Users\yvesk\AppData\Local\Temp\ccsBUdhh.s:1818   .text.TIM3_IRQHandler:00000000 $t
C:\Users\yvesk\AppData\Local\Temp\ccsBUdhh.s:1825   .text.TIM3_IRQHandler:00000000 TIM3_IRQHandler
C:\Users\yvesk\AppData\Local\Temp\ccsBUdhh.s:1882   .text.TIM3_IRQHandler:00000038 $d
C:\Users\yvesk\AppData\Local\Temp\ccsBUdhh.s:1890   .text.HAL_TIM_PeriodElapsedCallback:00000000 $t
C:\Users\yvesk\AppData\Local\Temp\ccsBUdhh.s:1897   .text.HAL_TIM_PeriodElapsedCallback:00000000 HAL_TIM_PeriodElapsedCallback
C:\Users\yvesk\AppData\Local\Temp\ccsBUdhh.s:1931   .text.HAL_TIM_PeriodElapsedCallback:00000014 $d
C:\Users\yvesk\AppData\Local\Temp\ccsBUdhh.s:1936   .text.Error_Handler:00000000 $t
C:\Users\yvesk\AppData\Local\Temp\ccsBUdhh.s:1943   .text.Error_Handler:00000000 Error_Handler
C:\Users\yvesk\AppData\Local\Temp\ccsBUdhh.s:2108   .bss.timer3_first:00000000 timer3_first
C:\Users\yvesk\AppData\Local\Temp\ccsBUdhh.s:2055   .bss.messageMode:00000000 messageMode
C:\Users\yvesk\AppData\Local\Temp\ccsBUdhh.s:2043   .bss.changeAcceleroMode:00000000 changeAcceleroMode
C:\Users\yvesk\AppData\Local\Temp\ccsBUdhh.s:2079   .bss.repMode:00000000 repMode
C:\Users\yvesk\AppData\Local\Temp\ccsBUdhh.s:2073   .bss.repFlag:00000000 repFlag
C:\Users\yvesk\AppData\Local\Temp\ccsBUdhh.s:2114   .bss.timer3flag:00000000 timer3flag
C:\Users\yvesk\AppData\Local\Temp\ccsBUdhh.s:2102   .bss.timer2flag:00000000 timer2flag
C:\Users\yvesk\AppData\Local\Temp\ccsBUdhh.s:2096   .bss.temperatureflag:00000000 temperatureflag
                            *COM*:00000001 data
C:\Users\yvesk\AppData\Local\Temp\ccsBUdhh.s:2091   .bss.successCounter:00000000 successCounter
C:\Users\yvesk\AppData\Local\Temp\ccsBUdhh.s:2049   .bss.failureCounter:00000000 failureCounter
C:\Users\yvesk\AppData\Local\Temp\ccsBUdhh.s:2085   .bss.rep_counter:00000000 rep_counter
C:\Users\yvesk\AppData\Local\Temp\ccsBUdhh.s:2061   .bss.murata_data_ready:00000000 murata_data_ready
C:\Users\yvesk\AppData\Local\Temp\ccsBUdhh.s:2067   .bss.murata_init:00000000 murata_init
C:\Users\yvesk\AppData\Local\Temp\ccsBUdhh.s:2030   .bss.DASH7_Counter:00000000 DASH7_Counter
C:\Users\yvesk\AppData\Local\Temp\ccsBUdhh.s:2037   .bss.LoRaWAN_Counter:00000000 LoRaWAN_Counter
                            *COM*:00000004 threadToNotify
                            *COM*:00000004 murata_reset_pin
                            *COM*:00000004 murata_wakeup_pin
                            *COM*:00000006 magRawData
                            *COM*:00000006 magRegisterData
                            *COM*:00000006 accRawData
                            *COM*:00000006 accRegisterData
                            *COM*:00000004 LSM303AGR_hi2c
                            *COM*:00000001 LSM303AGR_setting
                            *COM*:00000004 murata_rx_process_mutex_id
                            *COM*:00000004 txMutexId
                            *COM*:00000004 moduleCheckTimId
                            *COM*:00000004 dash7TimId
                            *COM*:00000004 loraWANTimId
                            *COM*:00000004 iwdgTimId
                            *COM*:00000004 murata_rx_processing_handle
                            *COM*:00000004 defaultTaskHandle
                            *COM*:0000002c P3_header
                            *COM*:0000002c P2_header
                            *COM*:0000002c P1_header
                            *COM*:00000064 FLASH_SPI
                            *COM*:00000064 P3_SPI
                            *COM*:00000064 P2_SPI
                            *COM*:00000064 P1_SPI
                            *COM*:0000004c P3_I2C
                            *COM*:0000004c P2_I2C
                            *COM*:0000004c P1_I2C
                            *COM*:00000078 P3_UART
                            *COM*:00000078 P2_UART
                            *COM*:00000078 BLE_UART
                            *COM*:00000078 USB_UART
ARM GAS  C:\Users\yvesk\AppData\Local\Temp\ccsBUdhh.s 			page 62


                            *COM*:00000010 hiwdg
                            *COM*:00000008 P3_DIO6
                            *COM*:00000008 P3_DIO5
                            *COM*:00000008 P3_DIO4
                            *COM*:00000008 P3_DIO3
                            *COM*:00000008 P3_DIO2
                            *COM*:00000008 P3_DIO1
                            *COM*:00000008 P2_DIO6
                            *COM*:00000008 P2_DIO5
                            *COM*:00000008 P2_DIO4
                            *COM*:00000008 P2_DIO3
                            *COM*:00000008 P2_DIO2
                            *COM*:00000008 P2_DIO1
                            *COM*:00000008 P1_DIO6
                            *COM*:00000008 P1_DIO5
                            *COM*:00000008 P1_DIO4
                            *COM*:00000008 P1_DIO3
                            *COM*:00000008 P1_DIO2
                            *COM*:00000008 P1_DIO1
C:\Users\yvesk\AppData\Local\Temp\ccsBUdhh.s:2026   .bss.DASH7_Counter:00000000 $d
C:\Users\yvesk\AppData\Local\Temp\ccsBUdhh.s:2033   .bss.LoRaWAN_Counter:00000000 $d
C:\Users\yvesk\AppData\Local\Temp\ccsBUdhh.s:2044   .bss.changeAcceleroMode:00000000 $d
C:\Users\yvesk\AppData\Local\Temp\ccsBUdhh.s:2050   .bss.failureCounter:00000000 $d
C:\Users\yvesk\AppData\Local\Temp\ccsBUdhh.s:2056   .bss.messageMode:00000000 $d
C:\Users\yvesk\AppData\Local\Temp\ccsBUdhh.s:2062   .bss.murata_data_ready:00000000 $d
C:\Users\yvesk\AppData\Local\Temp\ccsBUdhh.s:2068   .bss.murata_init:00000000 $d
C:\Users\yvesk\AppData\Local\Temp\ccsBUdhh.s:2074   .bss.repFlag:00000000 $d
C:\Users\yvesk\AppData\Local\Temp\ccsBUdhh.s:2080   .bss.repMode:00000000 $d
C:\Users\yvesk\AppData\Local\Temp\ccsBUdhh.s:2086   .bss.rep_counter:00000000 $d
C:\Users\yvesk\AppData\Local\Temp\ccsBUdhh.s:2092   .bss.successCounter:00000000 $d
C:\Users\yvesk\AppData\Local\Temp\ccsBUdhh.s:2097   .bss.temperatureflag:00000000 $d
C:\Users\yvesk\AppData\Local\Temp\ccsBUdhh.s:2103   .bss.timer2flag:00000000 $d
C:\Users\yvesk\AppData\Local\Temp\ccsBUdhh.s:2109   .bss.timer3_first:00000000 $d
C:\Users\yvesk\AppData\Local\Temp\ccsBUdhh.s:2115   .bss.timer3flag:00000000 $d
C:\Users\yvesk\AppData\Local\Temp\ccsBUdhh.s:2117   .data.inactive_timer:00000000 $d
C:\Users\yvesk\AppData\Local\Temp\ccsBUdhh.s:2121   .data.inactive_timer:00000000 inactive_timer
C:\Users\yvesk\AppData\Local\Temp\ccsBUdhh.s:2125   .data.localisation_timer:00000000 $d
C:\Users\yvesk\AppData\Local\Temp\ccsBUdhh.s:2129   .data.localisation_timer:00000000 localisation_timer
C:\Users\yvesk\AppData\Local\Temp\ccsBUdhh.s:2133   .rodata.EXTI1_IRQHandler.str1.4:00000000 $d
C:\Users\yvesk\AppData\Local\Temp\ccsBUdhh.s:2137   .rodata.HAL_GPIO_EXTI_Callback.str1.4:00000000 $d
C:\Users\yvesk\AppData\Local\Temp\ccsBUdhh.s:2141   .rodata.LoRaWAN_send.str1.4:00000000 $d
C:\Users\yvesk\AppData\Local\Temp\ccsBUdhh.s:2145   .rodata.LoRaWAN_send_self.str1.4:00000000 $d
C:\Users\yvesk\AppData\Local\Temp\ccsBUdhh.s:2149   .rodata.TIM2_IRQHandler.str1.4:00000000 $d
C:\Users\yvesk\AppData\Local\Temp\ccsBUdhh.s:2153   .rodata.goToSleep.str1.4:00000000 $d
C:\Users\yvesk\AppData\Local\Temp\ccsBUdhh.s:2160   .rodata.main.str1.4:00000000 $d
C:\Users\yvesk\AppData\Local\Temp\ccsBUdhh.s:2203   .rodata.printWelcome.str1.4:00000000 $d
C:\Users\yvesk\AppData\Local\Temp\ccsBUdhh.s:2219   .rodata.print_temp_hum.str1.4:00000000 $d
C:\Users\yvesk\AppData\Local\Temp\ccsBUdhh.s:2229   .rodata.send_message.str1.4:00000000 $d

UNDEFINED SYMBOLS
puts
HAL_SuspendTick
HAL_PWR_EnterSTOPMode
HAL_ResumeTick
SystemClock_Config
Murata_LoRaWAN_Send
Murata_Dash7_Send
ARM GAS  C:\Users\yvesk\AppData\Local\Temp\ccsBUdhh.s 			page 63


__aeabi_f2d
printf
SHT31_get_temp_hum
Murata_rxCallback
HAL_GPIO_TogglePin
HAL_Delay
HAL_Init
Initialize_Platform
get_UID
LSM303AGR_setI2CInterface
setI2CInterface_SHT31
SHT31_begin
LSM303AGR_initDefault
HAL_NVIC_SetPriority
HAL_NVIC_EnableIRQ
Murata_Initialize
Murata_process_fifo
IWDG_feed
LSM303AGR_initDouble
HAL_IncTick
