ARM GAS  C:\Users\yvesk\AppData\Local\Temp\cc6ysVum.s 			page 1


   1              		.cpu cortex-m4
   2              		.eabi_attribute 27, 1
   3              		.eabi_attribute 28, 1
   4              		.eabi_attribute 20, 1
   5              		.eabi_attribute 21, 1
   6              		.eabi_attribute 23, 3
   7              		.eabi_attribute 24, 1
   8              		.eabi_attribute 25, 1
   9              		.eabi_attribute 26, 1
  10              		.eabi_attribute 30, 1
  11              		.eabi_attribute 34, 1
  12              		.eabi_attribute 18, 4
  13              		.file	"murata-dualstack-example-ns.c"
  14              		.text
  15              	.Ltext0:
  16              		.cfi_sections	.debug_frame
  17              		.section	.text.InitializeTimer2,"ax",%progbits
  18              		.align	1
  19              		.global	InitializeTimer2
  20              		.arch armv7e-m
  21              		.syntax unified
  22              		.thumb
  23              		.thumb_func
  24              		.fpu fpv4-sp-d16
  26              	InitializeTimer2:
  27              	.LFB132:
  28              		.file 1 "../../applications/murata-dualstack-example-ns/src/murata-dualstack-example-ns.c"
   1:../../applications/murata-dualstack-example-ns/src/murata-dualstack-example-ns.c **** /* USER CODE BEGIN Header */
   2:../../applications/murata-dualstack-example-ns/src/murata-dualstack-example-ns.c **** /**
   3:../../applications/murata-dualstack-example-ns/src/murata-dualstack-example-ns.c ****   ******************************************************************************
   4:../../applications/murata-dualstack-example-ns/src/murata-dualstack-example-ns.c ****   * @file           : main.c
   5:../../applications/murata-dualstack-example-ns/src/murata-dualstack-example-ns.c ****   * @brief          : Main program body
   6:../../applications/murata-dualstack-example-ns/src/murata-dualstack-example-ns.c ****   ******************************************************************************
   7:../../applications/murata-dualstack-example-ns/src/murata-dualstack-example-ns.c ****   * This notice applies to any and all portions of this file
   8:../../applications/murata-dualstack-example-ns/src/murata-dualstack-example-ns.c ****   * that are not between comment pairs USER CODE BEGIN and
   9:../../applications/murata-dualstack-example-ns/src/murata-dualstack-example-ns.c ****   * USER CODE END. Other portions of this file, whether 
  10:../../applications/murata-dualstack-example-ns/src/murata-dualstack-example-ns.c ****   * inserted by the user or by software development tools
  11:../../applications/murata-dualstack-example-ns/src/murata-dualstack-example-ns.c ****   * are owned by their respective copyright owners.
  12:../../applications/murata-dualstack-example-ns/src/murata-dualstack-example-ns.c ****   *
  13:../../applications/murata-dualstack-example-ns/src/murata-dualstack-example-ns.c ****   * Copyright (c) 2019 STMicroelectronics International N.V. 
  14:../../applications/murata-dualstack-example-ns/src/murata-dualstack-example-ns.c ****   * All rights reserved.
  15:../../applications/murata-dualstack-example-ns/src/murata-dualstack-example-ns.c ****   *
  16:../../applications/murata-dualstack-example-ns/src/murata-dualstack-example-ns.c ****   * Redistribution and use in source and binary forms, with or without 
  17:../../applications/murata-dualstack-example-ns/src/murata-dualstack-example-ns.c ****   * modification, are permitted, provided that the following conditions are met:
  18:../../applications/murata-dualstack-example-ns/src/murata-dualstack-example-ns.c ****   *
  19:../../applications/murata-dualstack-example-ns/src/murata-dualstack-example-ns.c ****   * 1. Redistribution of source code must retain the above copyright notice, 
  20:../../applications/murata-dualstack-example-ns/src/murata-dualstack-example-ns.c ****   *    this list of conditions and the following disclaimer.
  21:../../applications/murata-dualstack-example-ns/src/murata-dualstack-example-ns.c ****   * 2. Redistributions in binary form must reproduce the above copyright notice,
  22:../../applications/murata-dualstack-example-ns/src/murata-dualstack-example-ns.c ****   *    this list of conditions and the following disclaimer in the documentation
  23:../../applications/murata-dualstack-example-ns/src/murata-dualstack-example-ns.c ****   *    and/or other materials provided with the distribution.
  24:../../applications/murata-dualstack-example-ns/src/murata-dualstack-example-ns.c ****   * 3. Neither the name of STMicroelectronics nor the names of other 
  25:../../applications/murata-dualstack-example-ns/src/murata-dualstack-example-ns.c ****   *    contributors to this software may be used to endorse or promote products 
  26:../../applications/murata-dualstack-example-ns/src/murata-dualstack-example-ns.c ****   *    derived from this software without specific written permission.
  27:../../applications/murata-dualstack-example-ns/src/murata-dualstack-example-ns.c ****   * 4. This software, including modifications and/or derivative works of this 
  28:../../applications/murata-dualstack-example-ns/src/murata-dualstack-example-ns.c ****   *    software, must execute solely and exclusively on microcontroller or
  29:../../applications/murata-dualstack-example-ns/src/murata-dualstack-example-ns.c ****   *    microprocessor devices manufactured by or for STMicroelectronics.
  30:../../applications/murata-dualstack-example-ns/src/murata-dualstack-example-ns.c ****   * 5. Redistribution and use of this software other than as permitted under 
ARM GAS  C:\Users\yvesk\AppData\Local\Temp\cc6ysVum.s 			page 2


  31:../../applications/murata-dualstack-example-ns/src/murata-dualstack-example-ns.c ****   *    this license is void and will automatically terminate your rights under 
  32:../../applications/murata-dualstack-example-ns/src/murata-dualstack-example-ns.c ****   *    this license. 
  33:../../applications/murata-dualstack-example-ns/src/murata-dualstack-example-ns.c ****   *
  34:../../applications/murata-dualstack-example-ns/src/murata-dualstack-example-ns.c ****   * THIS SOFTWARE IS PROVIDED BY STMICROELECTRONICS AND CONTRIBUTORS "AS IS" 
  35:../../applications/murata-dualstack-example-ns/src/murata-dualstack-example-ns.c ****   * AND ANY EXPRESS, IMPLIED OR STATUTORY WARRANTIES, INCLUDING, BUT NOT 
  36:../../applications/murata-dualstack-example-ns/src/murata-dualstack-example-ns.c ****   * LIMITED TO, THE IMPLIED WARRANTIES OF MERCHANTABILITY, FITNESS FOR A 
  37:../../applications/murata-dualstack-example-ns/src/murata-dualstack-example-ns.c ****   * PARTICULAR PURPOSE AND NON-INFRINGEMENT OF THIRD PARTY INTELLECTUAL PROPERTY
  38:../../applications/murata-dualstack-example-ns/src/murata-dualstack-example-ns.c ****   * RIGHTS ARE DISCLAIMED TO THE FULLEST EXTENT PERMITTED BY LAW. IN NO EVENT 
  39:../../applications/murata-dualstack-example-ns/src/murata-dualstack-example-ns.c ****   * SHALL STMICROELECTRONICS OR CONTRIBUTORS BE LIABLE FOR ANY DIRECT, INDIRECT,
  40:../../applications/murata-dualstack-example-ns/src/murata-dualstack-example-ns.c ****   * INCIDENTAL, SPECIAL, EXEMPLARY, OR CONSEQUENTIAL DAMAGES (INCLUDING, BUT NOT
  41:../../applications/murata-dualstack-example-ns/src/murata-dualstack-example-ns.c ****   * LIMITED TO, PROCUREMENT OF SUBSTITUTE GOODS OR SERVICES; LOSS OF USE, DATA, 
  42:../../applications/murata-dualstack-example-ns/src/murata-dualstack-example-ns.c ****   * OR PROFITS; OR BUSINESS INTERRUPTION) HOWEVER CAUSED AND ON ANY THEORY OF 
  43:../../applications/murata-dualstack-example-ns/src/murata-dualstack-example-ns.c ****   * LIABILITY, WHETHER IN CONTRACT, STRICT LIABILITY, OR TORT (INCLUDING 
  44:../../applications/murata-dualstack-example-ns/src/murata-dualstack-example-ns.c ****   * NEGLIGENCE OR OTHERWISE) ARISING IN ANY WAY OUT OF THE USE OF THIS SOFTWARE,
  45:../../applications/murata-dualstack-example-ns/src/murata-dualstack-example-ns.c ****   * EVEN IF ADVISED OF THE POSSIBILITY OF SUCH DAMAGE.
  46:../../applications/murata-dualstack-example-ns/src/murata-dualstack-example-ns.c ****   *
  47:../../applications/murata-dualstack-example-ns/src/murata-dualstack-example-ns.c ****   ******************************************************************************
  48:../../applications/murata-dualstack-example-ns/src/murata-dualstack-example-ns.c ****   */
  49:../../applications/murata-dualstack-example-ns/src/murata-dualstack-example-ns.c **** /* USER CODE END Header */
  50:../../applications/murata-dualstack-example-ns/src/murata-dualstack-example-ns.c **** 
  51:../../applications/murata-dualstack-example-ns/src/murata-dualstack-example-ns.c **** 
  52:../../applications/murata-dualstack-example-ns/src/murata-dualstack-example-ns.c **** /* ---------------------------------------------------------------------------*/
  53:../../applications/murata-dualstack-example-ns/src/murata-dualstack-example-ns.c **** /* -----------------------------Includes and defines--------------------------------------*/
  54:../../applications/murata-dualstack-example-ns/src/murata-dualstack-example-ns.c **** /* ---------------------------------------------------------------------------*/
  55:../../applications/murata-dualstack-example-ns/src/murata-dualstack-example-ns.c **** #include "murata-dualstack-example-ns.h"
  56:../../applications/murata-dualstack-example-ns/src/murata-dualstack-example-ns.c **** 
  57:../../applications/murata-dualstack-example-ns/src/murata-dualstack-example-ns.c **** /* Private includes ----------------------------------------------------------*/
  58:../../applications/murata-dualstack-example-ns/src/murata-dualstack-example-ns.c **** /* USER CODE BEGIN Includes */
  59:../../applications/murata-dualstack-example-ns/src/murata-dualstack-example-ns.c **** //#include "murata.h"
  60:../../applications/murata-dualstack-example-ns/src/murata-dualstack-example-ns.c **** #include <LSM303AGRSensor.h>
  61:../../applications/murata-dualstack-example-ns/src/murata-dualstack-example-ns.c **** #include <stdio.h>
  62:../../applications/murata-dualstack-example-ns/src/murata-dualstack-example-ns.c **** #include <murata.h>
  63:../../applications/murata-dualstack-example-ns/src/murata-dualstack-example-ns.c **** //#include "murata.h"
  64:../../applications/murata-dualstack-example-ns/src/murata-dualstack-example-ns.c **** 
  65:../../applications/murata-dualstack-example-ns/src/murata-dualstack-example-ns.c **** /* USER CODE END Includes */
  66:../../applications/murata-dualstack-example-ns/src/murata-dualstack-example-ns.c **** 
  67:../../applications/murata-dualstack-example-ns/src/murata-dualstack-example-ns.c **** /* Private typedef -----------------------------------------------------------*/
  68:../../applications/murata-dualstack-example-ns/src/murata-dualstack-example-ns.c **** /* USER CODE BEGIN PTD */
  69:../../applications/murata-dualstack-example-ns/src/murata-dualstack-example-ns.c **** 
  70:../../applications/murata-dualstack-example-ns/src/murata-dualstack-example-ns.c **** /* USER CODE END PTD */
  71:../../applications/murata-dualstack-example-ns/src/murata-dualstack-example-ns.c **** 
  72:../../applications/murata-dualstack-example-ns/src/murata-dualstack-example-ns.c **** /* Private define ------------------------------------------------------------*/
  73:../../applications/murata-dualstack-example-ns/src/murata-dualstack-example-ns.c **** /* USER CODE BEGIN PD */
  74:../../applications/murata-dualstack-example-ns/src/murata-dualstack-example-ns.c **** #define IWDG_INTERVAL           5    //seconds
  75:../../applications/murata-dualstack-example-ns/src/murata-dualstack-example-ns.c **** #define LORAWAN_INTERVAL        60   //seconds
  76:../../applications/murata-dualstack-example-ns/src/murata-dualstack-example-ns.c **** #define DASH7_INTERVAL          20  //seconds
  77:../../applications/murata-dualstack-example-ns/src/murata-dualstack-example-ns.c **** #define MODULE_CHECK_INTERVAL   3600 //seconds
  78:../../applications/murata-dualstack-example-ns/src/murata-dualstack-example-ns.c **** 
  79:../../applications/murata-dualstack-example-ns/src/murata-dualstack-example-ns.c **** #define HAL_EXTI_MODULE_ENABLED
  80:../../applications/murata-dualstack-example-ns/src/murata-dualstack-example-ns.c **** #define temp_hum_timer    3
  81:../../applications/murata-dualstack-example-ns/src/murata-dualstack-example-ns.c **** 
  82:../../applications/murata-dualstack-example-ns/src/murata-dualstack-example-ns.c **** /* USER CODE END PD */
  83:../../applications/murata-dualstack-example-ns/src/murata-dualstack-example-ns.c **** 
  84:../../applications/murata-dualstack-example-ns/src/murata-dualstack-example-ns.c **** /* Private macro -------------------------------------------------------------*/
  85:../../applications/murata-dualstack-example-ns/src/murata-dualstack-example-ns.c **** /* USER CODE BEGIN PM */
  86:../../applications/murata-dualstack-example-ns/src/murata-dualstack-example-ns.c **** 
  87:../../applications/murata-dualstack-example-ns/src/murata-dualstack-example-ns.c **** /* USER CODE END PM */
ARM GAS  C:\Users\yvesk\AppData\Local\Temp\cc6ysVum.s 			page 3


  88:../../applications/murata-dualstack-example-ns/src/murata-dualstack-example-ns.c **** 
  89:../../applications/murata-dualstack-example-ns/src/murata-dualstack-example-ns.c **** /* ---------------------------------------------------------------------------*/
  90:../../applications/murata-dualstack-example-ns/src/murata-dualstack-example-ns.c **** /* ----------------------------- Variables-----------------------------------------------*/
  91:../../applications/murata-dualstack-example-ns/src/murata-dualstack-example-ns.c **** /* ---------------------------------------------------------------------------*/
  92:../../applications/murata-dualstack-example-ns/src/murata-dualstack-example-ns.c **** 
  93:../../applications/murata-dualstack-example-ns/src/murata-dualstack-example-ns.c **** /* Private user code ---------------------------------------------------------*/
  94:../../applications/murata-dualstack-example-ns/src/murata-dualstack-example-ns.c **** /* USER CODE BEGIN 0 */
  95:../../applications/murata-dualstack-example-ns/src/murata-dualstack-example-ns.c **** uint16_t LoRaWAN_Counter = 0;
  96:../../applications/murata-dualstack-example-ns/src/murata-dualstack-example-ns.c **** uint16_t DASH7_Counter = 0;
  97:../../applications/murata-dualstack-example-ns/src/murata-dualstack-example-ns.c **** uint8_t murata_init = 0;
  98:../../applications/murata-dualstack-example-ns/src/murata-dualstack-example-ns.c **** uint64_t short_UID;
  99:../../applications/murata-dualstack-example-ns/src/murata-dualstack-example-ns.c **** uint8_t murata_data_ready = 0;
 100:../../applications/murata-dualstack-example-ns/src/murata-dualstack-example-ns.c **** 
 101:../../applications/murata-dualstack-example-ns/src/murata-dualstack-example-ns.c **** //Zelf
 102:../../applications/murata-dualstack-example-ns/src/murata-dualstack-example-ns.c **** uint8_t rep_counter = 0; 
 103:../../applications/murata-dualstack-example-ns/src/murata-dualstack-example-ns.c **** extern volatile uint8_t failureCounter=0; 
 104:../../applications/murata-dualstack-example-ns/src/murata-dualstack-example-ns.c **** extern volatile uint8_t successCounter=0;
 105:../../applications/murata-dualstack-example-ns/src/murata-dualstack-example-ns.c **** extern volatile uint8_t messageCounter=0; 
 106:../../applications/murata-dualstack-example-ns/src/murata-dualstack-example-ns.c **** extern volatile _Bool isActiveSending=0; 
 107:../../applications/murata-dualstack-example-ns/src/murata-dualstack-example-ns.c **** extern volatile _Bool succes=0;
 108:../../applications/murata-dualstack-example-ns/src/murata-dualstack-example-ns.c **** volatile _Bool about_to_sleep= 0; 
 109:../../applications/murata-dualstack-example-ns/src/murata-dualstack-example-ns.c **** 
 110:../../applications/murata-dualstack-example-ns/src/murata-dualstack-example-ns.c **** float SHTData[2];
 111:../../applications/murata-dualstack-example-ns/src/murata-dualstack-example-ns.c **** volatile uint8_t tmpbuf_ble[2];
 112:../../applications/murata-dualstack-example-ns/src/murata-dualstack-example-ns.c **** uint8_t gewicht=0;
 113:../../applications/murata-dualstack-example-ns/src/murata-dualstack-example-ns.c **** uint8_t data; 
 114:../../applications/murata-dualstack-example-ns/src/murata-dualstack-example-ns.c **** uint8_t val =0;
 115:../../applications/murata-dualstack-example-ns/src/murata-dualstack-example-ns.c **** uint8_t loracounter=0; 
 116:../../applications/murata-dualstack-example-ns/src/murata-dualstack-example-ns.c **** volatile _Bool temperatureflag=0; 
 117:../../applications/murata-dualstack-example-ns/src/murata-dualstack-example-ns.c **** volatile _Bool timer2flag=0; 
 118:../../applications/murata-dualstack-example-ns/src/murata-dualstack-example-ns.c **** volatile _Bool timer3flag=0; 
 119:../../applications/murata-dualstack-example-ns/src/murata-dualstack-example-ns.c **** volatile _Bool timer4flag=0;
 120:../../applications/murata-dualstack-example-ns/src/murata-dualstack-example-ns.c **** volatile _Bool repFlag=0;
 121:../../applications/murata-dualstack-example-ns/src/murata-dualstack-example-ns.c **** volatile _Bool repMode=0; 
 122:../../applications/murata-dualstack-example-ns/src/murata-dualstack-example-ns.c **** _Bool changeAcceleroMode=0; 
 123:../../applications/murata-dualstack-example-ns/src/murata-dualstack-example-ns.c **** _Bool volatile messageMode=0; 
 124:../../applications/murata-dualstack-example-ns/src/murata-dualstack-example-ns.c **** volatile _Bool timer3_first=0; 
 125:../../applications/murata-dualstack-example-ns/src/murata-dualstack-example-ns.c **** volatile _Bool timer4_first=0;
 126:../../applications/murata-dualstack-example-ns/src/murata-dualstack-example-ns.c **** volatile _Bool BLE_flag=0;
 127:../../applications/murata-dualstack-example-ns/src/murata-dualstack-example-ns.c **** volatile _Bool lorawanflag=0;
 128:../../applications/murata-dualstack-example-ns/src/murata-dualstack-example-ns.c **** extern volatile _Bool rebooted=0;
 129:../../applications/murata-dualstack-example-ns/src/murata-dualstack-example-ns.c **** 
 130:../../applications/murata-dualstack-example-ns/src/murata-dualstack-example-ns.c **** 
 131:../../applications/murata-dualstack-example-ns/src/murata-dualstack-example-ns.c **** /* USER CODE END 0 */
 132:../../applications/murata-dualstack-example-ns/src/murata-dualstack-example-ns.c **** 
 133:../../applications/murata-dualstack-example-ns/src/murata-dualstack-example-ns.c **** 
 134:../../applications/murata-dualstack-example-ns/src/murata-dualstack-example-ns.c ****  
 135:../../applications/murata-dualstack-example-ns/src/murata-dualstack-example-ns.c **** static TIM_HandleTypeDef localisation_timer = { 
 136:../../applications/murata-dualstack-example-ns/src/murata-dualstack-example-ns.c ****     .Instance = TIM2
 137:../../applications/murata-dualstack-example-ns/src/murata-dualstack-example-ns.c **** };
 138:../../applications/murata-dualstack-example-ns/src/murata-dualstack-example-ns.c **** 
 139:../../applications/murata-dualstack-example-ns/src/murata-dualstack-example-ns.c **** static TIM_HandleTypeDef inactive_timer = { 
 140:../../applications/murata-dualstack-example-ns/src/murata-dualstack-example-ns.c ****     .Instance = TIM3
 141:../../applications/murata-dualstack-example-ns/src/murata-dualstack-example-ns.c **** };
 142:../../applications/murata-dualstack-example-ns/src/murata-dualstack-example-ns.c **** 
 143:../../applications/murata-dualstack-example-ns/src/murata-dualstack-example-ns.c **** /* static TIM_HandleTypeDef send_sleepmessage_timer = { 
 144:../../applications/murata-dualstack-example-ns/src/murata-dualstack-example-ns.c ****     .Instance = TIM4
ARM GAS  C:\Users\yvesk\AppData\Local\Temp\cc6ysVum.s 			page 4


 145:../../applications/murata-dualstack-example-ns/src/murata-dualstack-example-ns.c **** }; */
 146:../../applications/murata-dualstack-example-ns/src/murata-dualstack-example-ns.c ****  
 147:../../applications/murata-dualstack-example-ns/src/murata-dualstack-example-ns.c **** void InitializeTimer2()
 148:../../applications/murata-dualstack-example-ns/src/murata-dualstack-example-ns.c **** {
  29              		.loc 1 148 1 view -0
  30              		.cfi_startproc
  31              		@ args = 0, pretend = 0, frame = 8
  32              		@ frame_needed = 0, uses_anonymous_args = 0
  33 0000 30B5     		push	{r4, r5, lr}
  34              	.LCFI0:
  35              		.cfi_def_cfa_offset 12
  36              		.cfi_offset 4, -12
  37              		.cfi_offset 5, -8
  38              		.cfi_offset 14, -4
  39 0002 83B0     		sub	sp, sp, #12
  40              	.LCFI1:
  41              		.cfi_def_cfa_offset 24
 149:../../applications/murata-dualstack-example-ns/src/murata-dualstack-example-ns.c ****     __TIM2_CLK_ENABLE();
  42              		.loc 1 149 5 view .LVU1
  43              	.LBB2:
  44              		.loc 1 149 5 view .LVU2
  45              		.loc 1 149 5 view .LVU3
  46 0004 124B     		ldr	r3, .L3
  47 0006 9A6D     		ldr	r2, [r3, #88]
  48 0008 42F00102 		orr	r2, r2, #1
  49 000c 9A65     		str	r2, [r3, #88]
  50              		.loc 1 149 5 view .LVU4
  51 000e 9B6D     		ldr	r3, [r3, #88]
  52 0010 03F00103 		and	r3, r3, #1
  53 0014 0193     		str	r3, [sp, #4]
  54              		.loc 1 149 5 view .LVU5
  55 0016 019B     		ldr	r3, [sp, #4]
  56              	.LBE2:
 150:../../applications/murata-dualstack-example-ns/src/murata-dualstack-example-ns.c ****     localisation_timer.Init.Prescaler = 16000;                            //1 step = clockperiod x 
  57              		.loc 1 150 5 view .LVU6
  58              		.loc 1 150 39 is_stmt 0 view .LVU7
  59 0018 0E4C     		ldr	r4, .L3+4
  60 001a 4FF47A53 		mov	r3, #16000
  61 001e 6360     		str	r3, [r4, #4]
 151:../../applications/murata-dualstack-example-ns/src/murata-dualstack-example-ns.c ****     localisation_timer.Init.CounterMode = TIM_COUNTERMODE_UP;             //timer will count up
  62              		.loc 1 151 5 is_stmt 1 view .LVU8
  63              		.loc 1 151 41 is_stmt 0 view .LVU9
  64 0020 0025     		movs	r5, #0
  65 0022 A560     		str	r5, [r4, #8]
 152:../../applications/murata-dualstack-example-ns/src/murata-dualstack-example-ns.c ****     localisation_timer.Init.Period = 60000;                                 //60000 steps of clockp
  66              		.loc 1 152 5 is_stmt 1 view .LVU10
  67              		.loc 1 152 36 is_stmt 0 view .LVU11
  68 0024 4EF66023 		movw	r3, #60000
  69 0028 E360     		str	r3, [r4, #12]
 153:../../applications/murata-dualstack-example-ns/src/murata-dualstack-example-ns.c ****     localisation_timer.Init.ClockDivision = TIM_CLOCKDIVISION_DIV1;
  70              		.loc 1 153 5 is_stmt 1 view .LVU12
  71              		.loc 1 153 43 is_stmt 0 view .LVU13
  72 002a 2561     		str	r5, [r4, #16]
 154:../../applications/murata-dualstack-example-ns/src/murata-dualstack-example-ns.c ****     localisation_timer.Init.RepetitionCounter = 0;
  73              		.loc 1 154 5 is_stmt 1 view .LVU14
  74              		.loc 1 154 47 is_stmt 0 view .LVU15
  75 002c 6561     		str	r5, [r4, #20]
ARM GAS  C:\Users\yvesk\AppData\Local\Temp\cc6ysVum.s 			page 5


 155:../../applications/murata-dualstack-example-ns/src/murata-dualstack-example-ns.c ****     HAL_TIM_Base_Init(&localisation_timer);
  76              		.loc 1 155 5 is_stmt 1 view .LVU16
  77 002e 2046     		mov	r0, r4
  78 0030 FFF7FEFF 		bl	HAL_TIM_Base_Init
  79              	.LVL0:
 156:../../applications/murata-dualstack-example-ns/src/murata-dualstack-example-ns.c ****     HAL_TIM_Base_Start_IT(&localisation_timer);
  80              		.loc 1 156 5 view .LVU17
  81 0034 2046     		mov	r0, r4
  82 0036 FFF7FEFF 		bl	HAL_TIM_Base_Start_IT
  83              	.LVL1:
 157:../../applications/murata-dualstack-example-ns/src/murata-dualstack-example-ns.c ****     HAL_NVIC_SetPriority(TIM2_IRQn, 0, 0);                              //set de priority of the in
  84              		.loc 1 157 5 view .LVU18
  85 003a 2A46     		mov	r2, r5
  86 003c 2946     		mov	r1, r5
  87 003e 1C20     		movs	r0, #28
  88 0040 FFF7FEFF 		bl	HAL_NVIC_SetPriority
  89              	.LVL2:
 158:../../applications/murata-dualstack-example-ns/src/murata-dualstack-example-ns.c ****     HAL_NVIC_EnableIRQ(TIM2_IRQn);                                     //enable de interrupt van ti
  90              		.loc 1 158 5 view .LVU19
  91 0044 1C20     		movs	r0, #28
  92 0046 FFF7FEFF 		bl	HAL_NVIC_EnableIRQ
  93              	.LVL3:
 159:../../applications/murata-dualstack-example-ns/src/murata-dualstack-example-ns.c **** } 
  94              		.loc 1 159 1 is_stmt 0 view .LVU20
  95 004a 03B0     		add	sp, sp, #12
  96              	.LCFI2:
  97              		.cfi_def_cfa_offset 12
  98              		@ sp needed
  99 004c 30BD     		pop	{r4, r5, pc}
 100              	.L4:
 101 004e 00BF     		.align	2
 102              	.L3:
 103 0050 00100240 		.word	1073876992
 104 0054 00000000 		.word	.LANCHOR0
 105              		.cfi_endproc
 106              	.LFE132:
 108              		.section	.text.InitializeTimer3,"ax",%progbits
 109              		.align	1
 110              		.global	InitializeTimer3
 111              		.syntax unified
 112              		.thumb
 113              		.thumb_func
 114              		.fpu fpv4-sp-d16
 116              	InitializeTimer3:
 117              	.LFB133:
 160:../../applications/murata-dualstack-example-ns/src/murata-dualstack-example-ns.c **** 
 161:../../applications/murata-dualstack-example-ns/src/murata-dualstack-example-ns.c **** void InitializeTimer3()
 162:../../applications/murata-dualstack-example-ns/src/murata-dualstack-example-ns.c **** {
 118              		.loc 1 162 1 is_stmt 1 view -0
 119              		.cfi_startproc
 120              		@ args = 0, pretend = 0, frame = 8
 121              		@ frame_needed = 0, uses_anonymous_args = 0
 122 0000 30B5     		push	{r4, r5, lr}
 123              	.LCFI3:
 124              		.cfi_def_cfa_offset 12
 125              		.cfi_offset 4, -12
 126              		.cfi_offset 5, -8
ARM GAS  C:\Users\yvesk\AppData\Local\Temp\cc6ysVum.s 			page 6


 127              		.cfi_offset 14, -4
 128 0002 83B0     		sub	sp, sp, #12
 129              	.LCFI4:
 130              		.cfi_def_cfa_offset 24
 163:../../applications/murata-dualstack-example-ns/src/murata-dualstack-example-ns.c ****     __TIM3_CLK_ENABLE();
 131              		.loc 1 163 5 view .LVU22
 132              	.LBB3:
 133              		.loc 1 163 5 view .LVU23
 134              		.loc 1 163 5 view .LVU24
 135 0004 124B     		ldr	r3, .L7
 136 0006 9A6D     		ldr	r2, [r3, #88]
 137 0008 42F00202 		orr	r2, r2, #2
 138 000c 9A65     		str	r2, [r3, #88]
 139              		.loc 1 163 5 view .LVU25
 140 000e 9B6D     		ldr	r3, [r3, #88]
 141 0010 03F00203 		and	r3, r3, #2
 142 0014 0193     		str	r3, [sp, #4]
 143              		.loc 1 163 5 view .LVU26
 144 0016 019B     		ldr	r3, [sp, #4]
 145              	.LBE3:
 164:../../applications/murata-dualstack-example-ns/src/murata-dualstack-example-ns.c ****     inactive_timer.Init.Prescaler = 16000;                            //1 step = clockperiod x pres
 146              		.loc 1 164 5 view .LVU27
 147              		.loc 1 164 35 is_stmt 0 view .LVU28
 148 0018 0E4C     		ldr	r4, .L7+4
 149 001a 4FF47A53 		mov	r3, #16000
 150 001e 6360     		str	r3, [r4, #4]
 165:../../applications/murata-dualstack-example-ns/src/murata-dualstack-example-ns.c ****     inactive_timer.Init.CounterMode = TIM_COUNTERMODE_UP;             //timer will count up
 151              		.loc 1 165 5 is_stmt 1 view .LVU29
 152              		.loc 1 165 37 is_stmt 0 view .LVU30
 153 0020 0025     		movs	r5, #0
 154 0022 A560     		str	r5, [r4, #8]
 166:../../applications/murata-dualstack-example-ns/src/murata-dualstack-example-ns.c ****     inactive_timer.Init.Period = 30000;                                 //60000 steps of clockperio
 155              		.loc 1 166 5 is_stmt 1 view .LVU31
 156              		.loc 1 166 32 is_stmt 0 view .LVU32
 157 0024 47F23053 		movw	r3, #30000
 158 0028 E360     		str	r3, [r4, #12]
 167:../../applications/murata-dualstack-example-ns/src/murata-dualstack-example-ns.c ****     inactive_timer.Init.ClockDivision = TIM_CLOCKDIVISION_DIV1;
 159              		.loc 1 167 5 is_stmt 1 view .LVU33
 160              		.loc 1 167 39 is_stmt 0 view .LVU34
 161 002a 2561     		str	r5, [r4, #16]
 168:../../applications/murata-dualstack-example-ns/src/murata-dualstack-example-ns.c ****     inactive_timer.Init.RepetitionCounter = 0;
 162              		.loc 1 168 5 is_stmt 1 view .LVU35
 163              		.loc 1 168 43 is_stmt 0 view .LVU36
 164 002c 6561     		str	r5, [r4, #20]
 169:../../applications/murata-dualstack-example-ns/src/murata-dualstack-example-ns.c ****     HAL_TIM_Base_Init(&inactive_timer);
 165              		.loc 1 169 5 is_stmt 1 view .LVU37
 166 002e 2046     		mov	r0, r4
 167 0030 FFF7FEFF 		bl	HAL_TIM_Base_Init
 168              	.LVL4:
 170:../../applications/murata-dualstack-example-ns/src/murata-dualstack-example-ns.c ****     HAL_TIM_Base_Start_IT(&inactive_timer);
 169              		.loc 1 170 5 view .LVU38
 170 0034 2046     		mov	r0, r4
 171 0036 FFF7FEFF 		bl	HAL_TIM_Base_Start_IT
 172              	.LVL5:
 171:../../applications/murata-dualstack-example-ns/src/murata-dualstack-example-ns.c ****     HAL_NVIC_SetPriority(TIM3_IRQn, 0, 0); 
 173              		.loc 1 171 5 view .LVU39
 174 003a 2A46     		mov	r2, r5
ARM GAS  C:\Users\yvesk\AppData\Local\Temp\cc6ysVum.s 			page 7


 175 003c 2946     		mov	r1, r5
 176 003e 1D20     		movs	r0, #29
 177 0040 FFF7FEFF 		bl	HAL_NVIC_SetPriority
 178              	.LVL6:
 172:../../applications/murata-dualstack-example-ns/src/murata-dualstack-example-ns.c ****     HAL_NVIC_EnableIRQ(TIM3_IRQn); 
 179              		.loc 1 172 5 view .LVU40
 180 0044 1D20     		movs	r0, #29
 181 0046 FFF7FEFF 		bl	HAL_NVIC_EnableIRQ
 182              	.LVL7:
 173:../../applications/murata-dualstack-example-ns/src/murata-dualstack-example-ns.c **** }
 183              		.loc 1 173 1 is_stmt 0 view .LVU41
 184 004a 03B0     		add	sp, sp, #12
 185              	.LCFI5:
 186              		.cfi_def_cfa_offset 12
 187              		@ sp needed
 188 004c 30BD     		pop	{r4, r5, pc}
 189              	.L8:
 190 004e 00BF     		.align	2
 191              	.L7:
 192 0050 00100240 		.word	1073876992
 193 0054 00000000 		.word	.LANCHOR1
 194              		.cfi_endproc
 195              	.LFE133:
 197              		.section	.text.goToSleep,"ax",%progbits
 198              		.align	1
 199              		.global	goToSleep
 200              		.syntax unified
 201              		.thumb
 202              		.thumb_func
 203              		.fpu fpv4-sp-d16
 205              	goToSleep:
 206              	.LFB135:
 174:../../applications/murata-dualstack-example-ns/src/murata-dualstack-example-ns.c **** 
 175:../../applications/murata-dualstack-example-ns/src/murata-dualstack-example-ns.c **** /* void InitializeTimer4()
 176:../../applications/murata-dualstack-example-ns/src/murata-dualstack-example-ns.c **** {
 177:../../applications/murata-dualstack-example-ns/src/murata-dualstack-example-ns.c ****     __TIM4_CLK_ENABLE();
 178:../../applications/murata-dualstack-example-ns/src/murata-dualstack-example-ns.c ****     inactive_timer.Init.Prescaler = 16000;                            //1 step = clockperiod x pres
 179:../../applications/murata-dualstack-example-ns/src/murata-dualstack-example-ns.c ****     inactive_timer.Init.CounterMode = TIM_COUNTERMODE_UP;             //timer will count up
 180:../../applications/murata-dualstack-example-ns/src/murata-dualstack-example-ns.c ****     inactive_timer.Init.Period = 6000;                                 //6000 steps of clockperiodx
 181:../../applications/murata-dualstack-example-ns/src/murata-dualstack-example-ns.c ****     inactive_timer.Init.ClockDivision = TIM_CLOCKDIVISION_DIV1;
 182:../../applications/murata-dualstack-example-ns/src/murata-dualstack-example-ns.c ****     inactive_timer.Init.RepetitionCounter = 0;
 183:../../applications/murata-dualstack-example-ns/src/murata-dualstack-example-ns.c ****     HAL_TIM_Base_Init(&send_sleepmessage_timer);
 184:../../applications/murata-dualstack-example-ns/src/murata-dualstack-example-ns.c ****     HAL_TIM_Base_Start_IT(&send_sleepmessage_timer);
 185:../../applications/murata-dualstack-example-ns/src/murata-dualstack-example-ns.c ****     HAL_NVIC_SetPriority(TIM4_IRQn, 0, 0); 
 186:../../applications/murata-dualstack-example-ns/src/murata-dualstack-example-ns.c ****     HAL_NVIC_EnableIRQ(TIM4_IRQn); 
 187:../../applications/murata-dualstack-example-ns/src/murata-dualstack-example-ns.c **** }
 188:../../applications/murata-dualstack-example-ns/src/murata-dualstack-example-ns.c **** 
 189:../../applications/murata-dualstack-example-ns/src/murata-dualstack-example-ns.c **** 
 190:../../applications/murata-dualstack-example-ns/src/murata-dualstack-example-ns.c **** 
 191:../../applications/murata-dualstack-example-ns/src/murata-dualstack-example-ns.c **** /* ---------------------------------------------------------------------------*/
 192:../../applications/murata-dualstack-example-ns/src/murata-dualstack-example-ns.c **** /* ----------------------------- Main -----------------------------------------------*/
 193:../../applications/murata-dualstack-example-ns/src/murata-dualstack-example-ns.c **** /* ---------------------------------------------------------------------------*/
 194:../../applications/murata-dualstack-example-ns/src/murata-dualstack-example-ns.c **** 
 195:../../applications/murata-dualstack-example-ns/src/murata-dualstack-example-ns.c **** /**
 196:../../applications/murata-dualstack-example-ns/src/murata-dualstack-example-ns.c ****   * @brief  The application entry point.
 197:../../applications/murata-dualstack-example-ns/src/murata-dualstack-example-ns.c ****   * @retval int
 198:../../applications/murata-dualstack-example-ns/src/murata-dualstack-example-ns.c ****   */
ARM GAS  C:\Users\yvesk\AppData\Local\Temp\cc6ysVum.s 			page 8


 199:../../applications/murata-dualstack-example-ns/src/murata-dualstack-example-ns.c **** int main(void)
 200:../../applications/murata-dualstack-example-ns/src/murata-dualstack-example-ns.c **** {
 201:../../applications/murata-dualstack-example-ns/src/murata-dualstack-example-ns.c ****   /* USER CODE BEGIN 1 */
 202:../../applications/murata-dualstack-example-ns/src/murata-dualstack-example-ns.c **** 
 203:../../applications/murata-dualstack-example-ns/src/murata-dualstack-example-ns.c ****   /* USER CODE END 1 */
 204:../../applications/murata-dualstack-example-ns/src/murata-dualstack-example-ns.c **** 
 205:../../applications/murata-dualstack-example-ns/src/murata-dualstack-example-ns.c ****   /* MCU Configuration--------------------------------------------------------*/
 206:../../applications/murata-dualstack-example-ns/src/murata-dualstack-example-ns.c **** 
 207:../../applications/murata-dualstack-example-ns/src/murata-dualstack-example-ns.c ****   /* Reset of all peripherals, Initializes the Flash interface and the Systick. */
 208:../../applications/murata-dualstack-example-ns/src/murata-dualstack-example-ns.c ****   HAL_Init();
 209:../../applications/murata-dualstack-example-ns/src/murata-dualstack-example-ns.c **** 
 210:../../applications/murata-dualstack-example-ns/src/murata-dualstack-example-ns.c ****   /* USER CODE BEGIN Init */
 211:../../applications/murata-dualstack-example-ns/src/murata-dualstack-example-ns.c **** 
 212:../../applications/murata-dualstack-example-ns/src/murata-dualstack-example-ns.c ****   /* USER CODE END Init */
 213:../../applications/murata-dualstack-example-ns/src/murata-dualstack-example-ns.c **** 
 214:../../applications/murata-dualstack-example-ns/src/murata-dualstack-example-ns.c ****   /* Configure the system clock */
 215:../../applications/murata-dualstack-example-ns/src/murata-dualstack-example-ns.c ****   SystemClock_Config();
 216:../../applications/murata-dualstack-example-ns/src/murata-dualstack-example-ns.c **** 
 217:../../applications/murata-dualstack-example-ns/src/murata-dualstack-example-ns.c ****   /* USER CODE BEGIN SysInit */
 218:../../applications/murata-dualstack-example-ns/src/murata-dualstack-example-ns.c **** 
 219:../../applications/murata-dualstack-example-ns/src/murata-dualstack-example-ns.c ****   /* USER CODE END SysInit */
 220:../../applications/murata-dualstack-example-ns/src/murata-dualstack-example-ns.c **** 
 221:../../applications/murata-dualstack-example-ns/src/murata-dualstack-example-ns.c ****   /* Initialize the platform, OCTA in this case */
 222:../../applications/murata-dualstack-example-ns/src/murata-dualstack-example-ns.c ****   Initialize_Platform();
 223:../../applications/murata-dualstack-example-ns/src/murata-dualstack-example-ns.c **** 
 224:../../applications/murata-dualstack-example-ns/src/murata-dualstack-example-ns.c ****   /* Initialize the the timer */
 225:../../applications/murata-dualstack-example-ns/src/murata-dualstack-example-ns.c ****   InitializeTimer2();
 226:../../applications/murata-dualstack-example-ns/src/murata-dualstack-example-ns.c ****   InitializeTimer3(); 
 227:../../applications/murata-dualstack-example-ns/src/murata-dualstack-example-ns.c **** 
 228:../../applications/murata-dualstack-example-ns/src/murata-dualstack-example-ns.c ****   /* USER CODE BEGIN 2 */
 229:../../applications/murata-dualstack-example-ns/src/murata-dualstack-example-ns.c **** 
 230:../../applications/murata-dualstack-example-ns/src/murata-dualstack-example-ns.c ****   // Get Unique ID of octa
 231:../../applications/murata-dualstack-example-ns/src/murata-dualstack-example-ns.c ****   short_UID = get_UID();
 232:../../applications/murata-dualstack-example-ns/src/murata-dualstack-example-ns.c **** 
 233:../../applications/murata-dualstack-example-ns/src/murata-dualstack-example-ns.c ****   //LSM30AGR (accelerometer)
 234:../../applications/murata-dualstack-example-ns/src/murata-dualstack-example-ns.c ****   LSM303AGR_setI2CInterface(&common_I2C);
 235:../../applications/murata-dualstack-example-ns/src/murata-dualstack-example-ns.c ****   setI2CInterface_SHT31(&common_I2C);
 236:../../applications/murata-dualstack-example-ns/src/murata-dualstack-example-ns.c ****   SHT31_begin(); 
 237:../../applications/murata-dualstack-example-ns/src/murata-dualstack-example-ns.c ****   LSM303AGR_initDefault();
 238:../../applications/murata-dualstack-example-ns/src/murata-dualstack-example-ns.c **** 
 239:../../applications/murata-dualstack-example-ns/src/murata-dualstack-example-ns.c ****   //initialize BLE
 240:../../applications/murata-dualstack-example-ns/src/murata-dualstack-example-ns.c ****   HAL_UART_Receive_IT(&BLE_UART, (uint8_t *)tmpbuf_ble,sizeof(tmpbuf_ble)); 
 241:../../applications/murata-dualstack-example-ns/src/murata-dualstack-example-ns.c **** 
 242:../../applications/murata-dualstack-example-ns/src/murata-dualstack-example-ns.c ****   /* EXTI interrupt init*/
 243:../../applications/murata-dualstack-example-ns/src/murata-dualstack-example-ns.c ****   HAL_NVIC_SetPriority(EXTI1_IRQn, 0, 0);
 244:../../applications/murata-dualstack-example-ns/src/murata-dualstack-example-ns.c ****   HAL_NVIC_EnableIRQ(EXTI1_IRQn);
 245:../../applications/murata-dualstack-example-ns/src/murata-dualstack-example-ns.c **** 
 246:../../applications/murata-dualstack-example-ns/src/murata-dualstack-example-ns.c ****   /* HAL_NVIC_SetPriority(EXTI0_IRQn, 0, 0);
 247:../../applications/murata-dualstack-example-ns/src/murata-dualstack-example-ns.c ****   HAL_NVIC_EnableIRQ(EXTI0_IRQn); */
 248:../../applications/murata-dualstack-example-ns/src/murata-dualstack-example-ns.c **** 
 249:../../applications/murata-dualstack-example-ns/src/murata-dualstack-example-ns.c **** 
 250:../../applications/murata-dualstack-example-ns/src/murata-dualstack-example-ns.c **** 
 251:../../applications/murata-dualstack-example-ns/src/murata-dualstack-example-ns.c ****   // Print Welcome Message
 252:../../applications/murata-dualstack-example-ns/src/murata-dualstack-example-ns.c ****   printWelcome();
 253:../../applications/murata-dualstack-example-ns/src/murata-dualstack-example-ns.c ****   
 254:../../applications/murata-dualstack-example-ns/src/murata-dualstack-example-ns.c ****   // LORAWAN
 255:../../applications/murata-dualstack-example-ns/src/murata-dualstack-example-ns.c ****   murata_init = Murata_Initialize(short_UID, 0);
ARM GAS  C:\Users\yvesk\AppData\Local\Temp\cc6ysVum.s 			page 9


 256:../../applications/murata-dualstack-example-ns/src/murata-dualstack-example-ns.c **** 
 257:../../applications/murata-dualstack-example-ns/src/murata-dualstack-example-ns.c ****   if (murata_init)
 258:../../applications/murata-dualstack-example-ns/src/murata-dualstack-example-ns.c ****   {
 259:../../applications/murata-dualstack-example-ns/src/murata-dualstack-example-ns.c ****     printf("Murata dualstack module init OK\r\n\r\n");
 260:../../applications/murata-dualstack-example-ns/src/murata-dualstack-example-ns.c ****   }
 261:../../applications/murata-dualstack-example-ns/src/murata-dualstack-example-ns.c **** 
 262:../../applications/murata-dualstack-example-ns/src/murata-dualstack-example-ns.c **** 
 263:../../applications/murata-dualstack-example-ns/src/murata-dualstack-example-ns.c ****   /* USER CODE END 2 */
 264:../../applications/murata-dualstack-example-ns/src/murata-dualstack-example-ns.c **** HAL_Delay(2000);
 265:../../applications/murata-dualstack-example-ns/src/murata-dualstack-example-ns.c **** quickBlink(); 
 266:../../applications/murata-dualstack-example-ns/src/murata-dualstack-example-ns.c **** 
 267:../../applications/murata-dualstack-example-ns/src/murata-dualstack-example-ns.c ****  
 268:../../applications/murata-dualstack-example-ns/src/murata-dualstack-example-ns.c ****   uint8_t counter = 0;
 269:../../applications/murata-dualstack-example-ns/src/murata-dualstack-example-ns.c ****   uint8_t use_lora = 1;
 270:../../applications/murata-dualstack-example-ns/src/murata-dualstack-example-ns.c ****   uint8_t timerValue = 0; 
 271:../../applications/murata-dualstack-example-ns/src/murata-dualstack-example-ns.c ****   /* USER CODE BEGIN WHILE */
 272:../../applications/murata-dualstack-example-ns/src/murata-dualstack-example-ns.c **** 
 273:../../applications/murata-dualstack-example-ns/src/murata-dualstack-example-ns.c ****   /* while(1) {
 274:../../applications/murata-dualstack-example-ns/src/murata-dualstack-example-ns.c ****     LoRaWAN_send(NULL); 
 275:../../applications/murata-dualstack-example-ns/src/murata-dualstack-example-ns.c ****     HAL_Delay(5000);
 276:../../applications/murata-dualstack-example-ns/src/murata-dualstack-example-ns.c ****     IWDG_feed(NULL);
 277:../../applications/murata-dualstack-example-ns/src/murata-dualstack-example-ns.c ****   } */
 278:../../applications/murata-dualstack-example-ns/src/murata-dualstack-example-ns.c **** 
 279:../../applications/murata-dualstack-example-ns/src/murata-dualstack-example-ns.c ****   while (1)
 280:../../applications/murata-dualstack-example-ns/src/murata-dualstack-example-ns.c ****   { 
 281:../../applications/murata-dualstack-example-ns/src/murata-dualstack-example-ns.c ****     while(isActiveSending) {
 282:../../applications/murata-dualstack-example-ns/src/murata-dualstack-example-ns.c ****     IWDG_feed(NULL);
 283:../../applications/murata-dualstack-example-ns/src/murata-dualstack-example-ns.c ****     
 284:../../applications/murata-dualstack-example-ns/src/murata-dualstack-example-ns.c ****       if(murata_data_ready)
 285:../../applications/murata-dualstack-example-ns/src/murata-dualstack-example-ns.c ****         {
 286:../../applications/murata-dualstack-example-ns/src/murata-dualstack-example-ns.c ****           //printf("processing murata fifo\r\n");
 287:../../applications/murata-dualstack-example-ns/src/murata-dualstack-example-ns.c ****           murata_data_ready = !Murata_process_fifo();
 288:../../applications/murata-dualstack-example-ns/src/murata-dualstack-example-ns.c ****         }
 289:../../applications/murata-dualstack-example-ns/src/murata-dualstack-example-ns.c ****         //HAL_Delay(5000);
 290:../../applications/murata-dualstack-example-ns/src/murata-dualstack-example-ns.c ****         if (rebooted)
 291:../../applications/murata-dualstack-example-ns/src/murata-dualstack-example-ns.c ****         {
 292:../../applications/murata-dualstack-example-ns/src/murata-dualstack-example-ns.c ****           rebooted=0;  
 293:../../applications/murata-dualstack-example-ns/src/murata-dualstack-example-ns.c ****           messageMode = 0; 
 294:../../applications/murata-dualstack-example-ns/src/murata-dualstack-example-ns.c ****           send_message(0);  
 295:../../applications/murata-dualstack-example-ns/src/murata-dualstack-example-ns.c ****         } 
 296:../../applications/murata-dualstack-example-ns/src/murata-dualstack-example-ns.c ****     }
 297:../../applications/murata-dualstack-example-ns/src/murata-dualstack-example-ns.c **** 
 298:../../applications/murata-dualstack-example-ns/src/murata-dualstack-example-ns.c **** 
 299:../../applications/murata-dualstack-example-ns/src/murata-dualstack-example-ns.c ****      IWDG_feed(NULL); 
 300:../../applications/murata-dualstack-example-ns/src/murata-dualstack-example-ns.c ****     
 301:../../applications/murata-dualstack-example-ns/src/murata-dualstack-example-ns.c ****     //In standaard modus staat de changeAcceleroMode op 0, dit zorgt ervoor dat voor de minste bewe
 302:../../applications/murata-dualstack-example-ns/src/murata-dualstack-example-ns.c ****     //het toestel wakker wordt en het zijn locatie begint te verzenden.
 303:../../applications/murata-dualstack-example-ns/src/murata-dualstack-example-ns.c ****     //als op de button wordt gedrukt door de gebruiker zal in de interrupthandler de changeAccelero
 304:../../applications/murata-dualstack-example-ns/src/murata-dualstack-example-ns.c ****     // op 1 worden gezet. Ook wordt de repMode vlag getoggled. Elke keer als er op de knop wordt ge
 305:../../applications/murata-dualstack-example-ns/src/murata-dualstack-example-ns.c ****     //zijn er dus twee mogelijkheden: 
 306:../../applications/murata-dualstack-example-ns/src/murata-dualstack-example-ns.c ****     //1) changeAcceleroMode=1 + repMode=1 : gebruiker wil starten met reppen, de acc zal nu enkel r
 307:../../applications/murata-dualstack-example-ns/src/murata-dualstack-example-ns.c ****     //2) changeAcceleroMode=1 + repMode=0 : gebruiker wil stoppen met reppen, de default changeAcce
 308:../../applications/murata-dualstack-example-ns/src/murata-dualstack-example-ns.c ****     if(changeAcceleroMode==1){
 309:../../applications/murata-dualstack-example-ns/src/murata-dualstack-example-ns.c ****     
 310:../../applications/murata-dualstack-example-ns/src/murata-dualstack-example-ns.c ****       if(repMode==1){
 311:../../applications/murata-dualstack-example-ns/src/murata-dualstack-example-ns.c ****         // send dash7 message with all info when user starts repping
 312:../../applications/murata-dualstack-example-ns/src/murata-dualstack-example-ns.c ****         LSM303AGR_initDouble();         //vanaf nu laten we de accelorometer enkel interrupten bij 
ARM GAS  C:\Users\yvesk\AppData\Local\Temp\cc6ysVum.s 			page 10


 313:../../applications/murata-dualstack-example-ns/src/murata-dualstack-example-ns.c ****         printf("Started Repping\r\n");
 314:../../applications/murata-dualstack-example-ns/src/murata-dualstack-example-ns.c ****         printf("LSM in double click mode \r\n");
 315:../../applications/murata-dualstack-example-ns/src/murata-dualstack-example-ns.c ****         if (murata_init) {
 316:../../applications/murata-dualstack-example-ns/src/murata-dualstack-example-ns.c ****           printf("Sending D7 Message with BLE info + temp + hum\r\n");
 317:../../applications/murata-dualstack-example-ns/src/murata-dualstack-example-ns.c ****           temp_hum_measurement();
 318:../../applications/murata-dualstack-example-ns/src/murata-dualstack-example-ns.c ****           send_message(1);
 319:../../applications/murata-dualstack-example-ns/src/murata-dualstack-example-ns.c ****           //LoRaWAN_send(NULL);
 320:../../applications/murata-dualstack-example-ns/src/murata-dualstack-example-ns.c ****          
 321:../../applications/murata-dualstack-example-ns/src/murata-dualstack-example-ns.c ****         //TODO: Send BLE info
 322:../../applications/murata-dualstack-example-ns/src/murata-dualstack-example-ns.c ****         }
 323:../../applications/murata-dualstack-example-ns/src/murata-dualstack-example-ns.c ****         
 324:../../applications/murata-dualstack-example-ns/src/murata-dualstack-example-ns.c ****       }else{
 325:../../applications/murata-dualstack-example-ns/src/murata-dualstack-example-ns.c ****         // send dash7 message with all info when user stopped repping
 326:../../applications/murata-dualstack-example-ns/src/murata-dualstack-example-ns.c ****         LSM303AGR_initDefault();    //vanaf nu laten we de accelerometer interrupten bij elke beweg
 327:../../applications/murata-dualstack-example-ns/src/murata-dualstack-example-ns.c ****         printf("Stopped Repping\nLSM in default mode \r\n\n");
 328:../../applications/murata-dualstack-example-ns/src/murata-dualstack-example-ns.c ****         if (murata_init) {
 329:../../applications/murata-dualstack-example-ns/src/murata-dualstack-example-ns.c ****           printf("Sending D7 Message with BLE info + temp + hum + amount of reps\r\n");
 330:../../applications/murata-dualstack-example-ns/src/murata-dualstack-example-ns.c ****           temp_hum_measurement();
 331:../../applications/murata-dualstack-example-ns/src/murata-dualstack-example-ns.c ****         //Dash7_send_temphum();
 332:../../applications/murata-dualstack-example-ns/src/murata-dualstack-example-ns.c ****           send_message(2); 
 333:../../applications/murata-dualstack-example-ns/src/murata-dualstack-example-ns.c ****           //LoRaWAN_send(NULL);
 334:../../applications/murata-dualstack-example-ns/src/murata-dualstack-example-ns.c **** 
 335:../../applications/murata-dualstack-example-ns/src/murata-dualstack-example-ns.c ****         //TODO: Also send BLE info and reps
 336:../../applications/murata-dualstack-example-ns/src/murata-dualstack-example-ns.c **** 
 337:../../applications/murata-dualstack-example-ns/src/murata-dualstack-example-ns.c ****         //Set reps to zero again, for the next user
 338:../../applications/murata-dualstack-example-ns/src/murata-dualstack-example-ns.c ****         }
 339:../../applications/murata-dualstack-example-ns/src/murata-dualstack-example-ns.c ****         rep_counter=0;  //reset the rep counter
 340:../../applications/murata-dualstack-example-ns/src/murata-dualstack-example-ns.c ****       }
 341:../../applications/murata-dualstack-example-ns/src/murata-dualstack-example-ns.c ****       changeAcceleroMode=0; //set acceleromode flag back to zero
 342:../../applications/murata-dualstack-example-ns/src/murata-dualstack-example-ns.c **** 
 343:../../applications/murata-dualstack-example-ns/src/murata-dualstack-example-ns.c ****     }
 344:../../applications/murata-dualstack-example-ns/src/murata-dualstack-example-ns.c **** 
 345:../../applications/murata-dualstack-example-ns/src/murata-dualstack-example-ns.c ****     //als er een rep wordt geregistreerd zal dit een double interrupt genereren en in de handler wo
 346:../../applications/murata-dualstack-example-ns/src/murata-dualstack-example-ns.c ****     //we sturen dan ff de localisationtimer value  en de rep counter naar putty maar we checken eer
 347:../../applications/murata-dualstack-example-ns/src/murata-dualstack-example-ns.c ****     //en de repflag dus niet per ongeluk op 1 werd gezet door een random beweging van de dumbbel in
 348:../../applications/murata-dualstack-example-ns/src/murata-dualstack-example-ns.c ****     //we resetten dan ook de inactive timer zodat het device niet in sleep gaat (want er wordt nog 
 349:../../applications/murata-dualstack-example-ns/src/murata-dualstack-example-ns.c ****     //
 350:../../applications/murata-dualstack-example-ns/src/murata-dualstack-example-ns.c ****     if (repFlag==1) {
 351:../../applications/murata-dualstack-example-ns/src/murata-dualstack-example-ns.c ****       if (repMode==1) {
 352:../../applications/murata-dualstack-example-ns/src/murata-dualstack-example-ns.c ****       // Request to enter SLEEP mode
 353:../../applications/murata-dualstack-example-ns/src/murata-dualstack-example-ns.c ****       //timerValue = __HAL_TIM_GET_COUNTER(&localisation_timer);
 354:../../applications/murata-dualstack-example-ns/src/murata-dualstack-example-ns.c ****       //printf("Timer value: %d,\r\n\r\n",timerValue);
 355:../../applications/murata-dualstack-example-ns/src/murata-dualstack-example-ns.c ****       rep_counter++; 
 356:../../applications/murata-dualstack-example-ns/src/murata-dualstack-example-ns.c ****       printf("Rep counter: %d,\r\n\r\n",rep_counter);
 357:../../applications/murata-dualstack-example-ns/src/murata-dualstack-example-ns.c ****       } 
 358:../../applications/murata-dualstack-example-ns/src/murata-dualstack-example-ns.c **** 
 359:../../applications/murata-dualstack-example-ns/src/murata-dualstack-example-ns.c ****         //reset de inactive timer want accelerometer interrupt
 360:../../applications/murata-dualstack-example-ns/src/murata-dualstack-example-ns.c ****         HAL_TIM_Base_Stop_IT(&inactive_timer);    
 361:../../applications/murata-dualstack-example-ns/src/murata-dualstack-example-ns.c ****  
 362:../../applications/murata-dualstack-example-ns/src/murata-dualstack-example-ns.c **** 
 363:../../applications/murata-dualstack-example-ns/src/murata-dualstack-example-ns.c ****         __HAL_TIM_SET_COUNTER(&inactive_timer, 0);
 364:../../applications/murata-dualstack-example-ns/src/murata-dualstack-example-ns.c ****  
 365:../../applications/murata-dualstack-example-ns/src/murata-dualstack-example-ns.c **** 
 366:../../applications/murata-dualstack-example-ns/src/murata-dualstack-example-ns.c ****         HAL_TIM_Base_Start_IT(&inactive_timer);         
 367:../../applications/murata-dualstack-example-ns/src/murata-dualstack-example-ns.c **** 
 368:../../applications/murata-dualstack-example-ns/src/murata-dualstack-example-ns.c ****           repFlag=0; 
 369:../../applications/murata-dualstack-example-ns/src/murata-dualstack-example-ns.c ****     }  
ARM GAS  C:\Users\yvesk\AppData\Local\Temp\cc6ysVum.s 			page 11


 370:../../applications/murata-dualstack-example-ns/src/murata-dualstack-example-ns.c **** 
 371:../../applications/murata-dualstack-example-ns/src/murata-dualstack-example-ns.c **** 
 372:../../applications/murata-dualstack-example-ns/src/murata-dualstack-example-ns.c ****     //Als een periode van onze localisationtimer is verlopen genereert dit een interrupt en wordt d
 373:../../applications/murata-dualstack-example-ns/src/murata-dualstack-example-ns.c ****     //Dit wil zeggen dat we wakker moeten worden en een message moeten zenden. 
 374:../../applications/murata-dualstack-example-ns/src/murata-dualstack-example-ns.c ****     if(timer2flag==1) {
 375:../../applications/murata-dualstack-example-ns/src/murata-dualstack-example-ns.c ****       printf("Localisation timer elapsed\r\n");
 376:../../applications/murata-dualstack-example-ns/src/murata-dualstack-example-ns.c ****        //send dash7 localisation message
 377:../../applications/murata-dualstack-example-ns/src/murata-dualstack-example-ns.c ****       if (!repMode) {
 378:../../applications/murata-dualstack-example-ns/src/murata-dualstack-example-ns.c ****         if (murata_init) {
 379:../../applications/murata-dualstack-example-ns/src/murata-dualstack-example-ns.c ****           printf("Sending dash7 localisation message (once per minute)\r\n\r\n");
 380:../../applications/murata-dualstack-example-ns/src/murata-dualstack-example-ns.c ****             temp_hum_measurement();
 381:../../applications/murata-dualstack-example-ns/src/murata-dualstack-example-ns.c ****           send_message(1);
 382:../../applications/murata-dualstack-example-ns/src/murata-dualstack-example-ns.c ****           
 383:../../applications/murata-dualstack-example-ns/src/murata-dualstack-example-ns.c ****         }
 384:../../applications/murata-dualstack-example-ns/src/murata-dualstack-example-ns.c ****       }
 385:../../applications/murata-dualstack-example-ns/src/murata-dualstack-example-ns.c ****      timer2flag=0;
 386:../../applications/murata-dualstack-example-ns/src/murata-dualstack-example-ns.c ****     }
 387:../../applications/murata-dualstack-example-ns/src/murata-dualstack-example-ns.c **** 
 388:../../applications/murata-dualstack-example-ns/src/murata-dualstack-example-ns.c ****     // Als het device een bepaalde periode inactief is (er wordt geen beweging gedetecteerd), maakt
 389:../../applications/murata-dualstack-example-ns/src/murata-dualstack-example-ns.c ****     // om naar slaapstand te gaan. Hij stuurt nog eerst een laatste localisatie bericht.    
 390:../../applications/murata-dualstack-example-ns/src/murata-dualstack-example-ns.c ****     if(timer3flag==1) {
 391:../../applications/murata-dualstack-example-ns/src/murata-dualstack-example-ns.c ****       if (murata_init) {
 392:../../applications/murata-dualstack-example-ns/src/murata-dualstack-example-ns.c ****         printf("Inactive timer expired, sending last message\r\n\r\n");
 393:../../applications/murata-dualstack-example-ns/src/murata-dualstack-example-ns.c ****         temp_hum_measurement();
 394:../../applications/murata-dualstack-example-ns/src/murata-dualstack-example-ns.c ****         send_message(1); 
 395:../../applications/murata-dualstack-example-ns/src/murata-dualstack-example-ns.c ****         about_to_sleep = 1; 
 396:../../applications/murata-dualstack-example-ns/src/murata-dualstack-example-ns.c ****         //__HAL_TIM_SET_COUNTER(&send_sleepmessage_timer, 0);
 397:../../applications/murata-dualstack-example-ns/src/murata-dualstack-example-ns.c ****         //HAL_TIM_Base_Start_IT(&send_sleepmessage_timer);  
 398:../../applications/murata-dualstack-example-ns/src/murata-dualstack-example-ns.c ****         //timerValue = __HAL_TIM_GET_COUNTER(&localisation_timer);
 399:../../applications/murata-dualstack-example-ns/src/murata-dualstack-example-ns.c ****         //printf("Timer value: %d,\r\n\r\n",timerValue);
 400:../../applications/murata-dualstack-example-ns/src/murata-dualstack-example-ns.c ****       }
 401:../../applications/murata-dualstack-example-ns/src/murata-dualstack-example-ns.c ****      timer3flag=0;
 402:../../applications/murata-dualstack-example-ns/src/murata-dualstack-example-ns.c ****     } 
 403:../../applications/murata-dualstack-example-ns/src/murata-dualstack-example-ns.c **** 
 404:../../applications/murata-dualstack-example-ns/src/murata-dualstack-example-ns.c ****     // Bij het verzenden van het dash7 bericht wordt gecheckt of het versturen een succes was, indi
 405:../../applications/murata-dualstack-example-ns/src/murata-dualstack-example-ns.c ****     // maar het toestel is niet van plan naar slaapstand te gaan, wordt de succes vlag gewoon terug
 406:../../applications/murata-dualstack-example-ns/src/murata-dualstack-example-ns.c ****     if (succes && !about_to_sleep) {
 407:../../applications/murata-dualstack-example-ns/src/murata-dualstack-example-ns.c ****       if (failureCounter > 0) {
 408:../../applications/murata-dualstack-example-ns/src/murata-dualstack-example-ns.c ****         printf("Failure counter = %d\r\n",failureCounter);
 409:../../applications/murata-dualstack-example-ns/src/murata-dualstack-example-ns.c ****       }
 410:../../applications/murata-dualstack-example-ns/src/murata-dualstack-example-ns.c ****       succes = 0; 
 411:../../applications/murata-dualstack-example-ns/src/murata-dualstack-example-ns.c ****     }
 412:../../applications/murata-dualstack-example-ns/src/murata-dualstack-example-ns.c **** 
 413:../../applications/murata-dualstack-example-ns/src/murata-dualstack-example-ns.c **** 
 414:../../applications/murata-dualstack-example-ns/src/murata-dualstack-example-ns.c ****     // Als het verzenden van een bericht een succes was n dit was het laatste bericht dat de aank
 415:../../applications/murata-dualstack-example-ns/src/murata-dualstack-example-ns.c ****     // dan gaan we effectief naar slaapstand. Op vergewissen we ons dat ook het laatste bericht nog
 416:../../applications/murata-dualstack-example-ns/src/murata-dualstack-example-ns.c **** 
 417:../../applications/murata-dualstack-example-ns/src/murata-dualstack-example-ns.c ****     if (  about_to_sleep) { //succes && weggedaan
 418:../../applications/murata-dualstack-example-ns/src/murata-dualstack-example-ns.c ****     //HAL_TIM_Base_Stop_IT(&inactive_timer);    
 419:../../applications/murata-dualstack-example-ns/src/murata-dualstack-example-ns.c ****     //__HAL_TIM_SET_COUNTER(&inactive_timer, 0);
 420:../../applications/murata-dualstack-example-ns/src/murata-dualstack-example-ns.c ****     repMode = 0;
 421:../../applications/murata-dualstack-example-ns/src/murata-dualstack-example-ns.c ****     rep_counter = 0; 
 422:../../applications/murata-dualstack-example-ns/src/murata-dualstack-example-ns.c ****     goToSleep(); 
 423:../../applications/murata-dualstack-example-ns/src/murata-dualstack-example-ns.c ****     send_message(1);
 424:../../applications/murata-dualstack-example-ns/src/murata-dualstack-example-ns.c ****     about_to_sleep = 0;
 425:../../applications/murata-dualstack-example-ns/src/murata-dualstack-example-ns.c ****     }
 426:../../applications/murata-dualstack-example-ns/src/murata-dualstack-example-ns.c **** 
ARM GAS  C:\Users\yvesk\AppData\Local\Temp\cc6ysVum.s 			page 12


 427:../../applications/murata-dualstack-example-ns/src/murata-dualstack-example-ns.c ****     //als drie keer geen gateways konden bereikt worden, zetten we de messagemode die in sendmessag
 428:../../applications/murata-dualstack-example-ns/src/murata-dualstack-example-ns.c ****     //vanaf dan beginnen we het aantal succesvolle verzendingen via lorawan te zenden
 429:../../applications/murata-dualstack-example-ns/src/murata-dualstack-example-ns.c ****     if (failureCounter==3) {
 430:../../applications/murata-dualstack-example-ns/src/murata-dualstack-example-ns.c ****       printf("Going to LoRaWAN mode\r\n\r\n");
 431:../../applications/murata-dualstack-example-ns/src/murata-dualstack-example-ns.c ****       messageMode=1;      //go to lorawanmode
 432:../../applications/murata-dualstack-example-ns/src/murata-dualstack-example-ns.c ****       successCounter=0;   //we zetten de dash7 succescounter terug op 0
 433:../../applications/murata-dualstack-example-ns/src/murata-dualstack-example-ns.c ****       failureCounter=4;   //we zetten de failure counter op een andere waarde dan 3 zodat dit blok 
 434:../../applications/murata-dualstack-example-ns/src/murata-dualstack-example-ns.c ****                           
 435:../../applications/murata-dualstack-example-ns/src/murata-dualstack-example-ns.c ****     }
 436:../../applications/murata-dualstack-example-ns/src/murata-dualstack-example-ns.c **** 
 437:../../applications/murata-dualstack-example-ns/src/murata-dualstack-example-ns.c ****       
 438:../../applications/murata-dualstack-example-ns/src/murata-dualstack-example-ns.c ****     // als we drie lorawan messages hebben verzonden checken we nogmaals of de dash7 gateways niet 
 439:../../applications/murata-dualstack-example-ns/src/murata-dualstack-example-ns.c ****     // terug naar dash7 mode te gaan. 
 440:../../applications/murata-dualstack-example-ns/src/murata-dualstack-example-ns.c ****     if (loracounter==3) {
 441:../../applications/murata-dualstack-example-ns/src/murata-dualstack-example-ns.c ****       printf("Check again for dash7 \r\n\r\n");
 442:../../applications/murata-dualstack-example-ns/src/murata-dualstack-example-ns.c ****       messageMode=0;      //ga naar dash7 mode
 443:../../applications/murata-dualstack-example-ns/src/murata-dualstack-example-ns.c ****       loracounter=0;      //zet de lorawan message counter terug op 0
 444:../../applications/murata-dualstack-example-ns/src/murata-dualstack-example-ns.c ****       failureCounter=0;   // NOG TOEGEVOEGD
 445:../../applications/murata-dualstack-example-ns/src/murata-dualstack-example-ns.c ****     }
 446:../../applications/murata-dualstack-example-ns/src/murata-dualstack-example-ns.c **** 
 447:../../applications/murata-dualstack-example-ns/src/murata-dualstack-example-ns.c ****     //vanaf opnieuw 1 succesvolle dash7 verzendingen zijn gebeurd (?)  gaan we terug swichten naar 
 448:../../applications/murata-dualstack-example-ns/src/murata-dualstack-example-ns.c ****      if (successCounter==1) {
 449:../../applications/murata-dualstack-example-ns/src/murata-dualstack-example-ns.c ****       printf("\nGoing to dash7 mode\r\n\r\n");
 450:../../applications/murata-dualstack-example-ns/src/murata-dualstack-example-ns.c ****       messageMode=0;        //go to dash7mode
 451:../../applications/murata-dualstack-example-ns/src/murata-dualstack-example-ns.c ****       successCounter=2;     //step over the 1 value so that between messages this if isn't accessed
 452:../../applications/murata-dualstack-example-ns/src/murata-dualstack-example-ns.c ****                             // deze counter wordt terug op 0 gezet vanaf er terug 3 keer gefailed w
 453:../../applications/murata-dualstack-example-ns/src/murata-dualstack-example-ns.c ****     }
 454:../../applications/murata-dualstack-example-ns/src/murata-dualstack-example-ns.c **** 
 455:../../applications/murata-dualstack-example-ns/src/murata-dualstack-example-ns.c **** 
 456:../../applications/murata-dualstack-example-ns/src/murata-dualstack-example-ns.c ****     // als de bluetooth module iets aankrijgt wordt een interrupt gegenereerd die de BLE_flag zet, 
 457:../../applications/murata-dualstack-example-ns/src/murata-dualstack-example-ns.c ****     // de data ontvangen worden via de receive functie en wordt de data in de tmpbuf_ble geplaatst 
 458:../../applications/murata-dualstack-example-ns/src/murata-dualstack-example-ns.c ****     if (BLE_flag) {
 459:../../applications/murata-dualstack-example-ns/src/murata-dualstack-example-ns.c ****       ble_callback(); 
 460:../../applications/murata-dualstack-example-ns/src/murata-dualstack-example-ns.c ****       HAL_UART_Receive_IT(&BLE_UART, (uint8_t *)tmpbuf_ble, sizeof(tmpbuf_ble)); 
 461:../../applications/murata-dualstack-example-ns/src/murata-dualstack-example-ns.c ****       BLE_flag = 0; 
 462:../../applications/murata-dualstack-example-ns/src/murata-dualstack-example-ns.c ****     }
 463:../../applications/murata-dualstack-example-ns/src/murata-dualstack-example-ns.c **** 
 464:../../applications/murata-dualstack-example-ns/src/murata-dualstack-example-ns.c ****     
 465:../../applications/murata-dualstack-example-ns/src/murata-dualstack-example-ns.c ****     /* if (lorawanflag) {
 466:../../applications/murata-dualstack-example-ns/src/murata-dualstack-example-ns.c ****       LoRaWAN_send(NULL);
 467:../../applications/murata-dualstack-example-ns/src/murata-dualstack-example-ns.c ****       lorawanflag=0; 
 468:../../applications/murata-dualstack-example-ns/src/murata-dualstack-example-ns.c ****     } */
 469:../../applications/murata-dualstack-example-ns/src/murata-dualstack-example-ns.c **** 
 470:../../applications/murata-dualstack-example-ns/src/murata-dualstack-example-ns.c ****     /* USER CODE END WHILE */
 471:../../applications/murata-dualstack-example-ns/src/murata-dualstack-example-ns.c ****     
 472:../../applications/murata-dualstack-example-ns/src/murata-dualstack-example-ns.c ****     /* USER CODE BEGIN 3 */
 473:../../applications/murata-dualstack-example-ns/src/murata-dualstack-example-ns.c ****   }
 474:../../applications/murata-dualstack-example-ns/src/murata-dualstack-example-ns.c ****   /* USER CODE END 3 */
 475:../../applications/murata-dualstack-example-ns/src/murata-dualstack-example-ns.c **** }
 476:../../applications/murata-dualstack-example-ns/src/murata-dualstack-example-ns.c **** 
 477:../../applications/murata-dualstack-example-ns/src/murata-dualstack-example-ns.c **** void goToSleep(void) {
 207              		.loc 1 477 22 is_stmt 1 view -0
 208              		.cfi_startproc
 209              		@ args = 0, pretend = 0, frame = 0
 210              		@ frame_needed = 0, uses_anonymous_args = 0
 211 0000 08B5     		push	{r3, lr}
 212              	.LCFI6:
ARM GAS  C:\Users\yvesk\AppData\Local\Temp\cc6ysVum.s 			page 13


 213              		.cfi_def_cfa_offset 8
 214              		.cfi_offset 3, -8
 215              		.cfi_offset 14, -4
 478:../../applications/murata-dualstack-example-ns/src/murata-dualstack-example-ns.c ****   
 479:../../applications/murata-dualstack-example-ns/src/murata-dualstack-example-ns.c ****       printf("going into sleepmode\r\n"); 
 216              		.loc 1 479 7 view .LVU43
 217 0002 0A48     		ldr	r0, .L11
 218 0004 FFF7FEFF 		bl	puts
 219              	.LVL8:
 480:../../applications/murata-dualstack-example-ns/src/murata-dualstack-example-ns.c ****        HAL_SuspendTick(); 
 220              		.loc 1 480 8 view .LVU44
 221 0008 FFF7FEFF 		bl	HAL_SuspendTick
 222              	.LVL9:
 481:../../applications/murata-dualstack-example-ns/src/murata-dualstack-example-ns.c **** 
 482:../../applications/murata-dualstack-example-ns/src/murata-dualstack-example-ns.c ****       HAL_PWR_EnterSTOPMode(PWR_MAINREGULATOR_ON, PWR_SLEEPENTRY_WFI);
 223              		.loc 1 482 7 view .LVU45
 224 000c 0121     		movs	r1, #1
 225 000e 0020     		movs	r0, #0
 226 0010 FFF7FEFF 		bl	HAL_PWR_EnterSTOPMode
 227              	.LVL10:
 483:../../applications/murata-dualstack-example-ns/src/murata-dualstack-example-ns.c **** 
 484:../../applications/murata-dualstack-example-ns/src/murata-dualstack-example-ns.c ****       HAL_ResumeTick(); 
 228              		.loc 1 484 7 view .LVU46
 229 0014 FFF7FEFF 		bl	HAL_ResumeTick
 230              	.LVL11:
 485:../../applications/murata-dualstack-example-ns/src/murata-dualstack-example-ns.c ****       SystemClock_Config(); 
 231              		.loc 1 485 7 view .LVU47
 232 0018 FFF7FEFF 		bl	SystemClock_Config
 233              	.LVL12:
 486:../../applications/murata-dualstack-example-ns/src/murata-dualstack-example-ns.c ****       printf(" came out of sleepmode \r\n");  
 234              		.loc 1 486 7 view .LVU48
 235 001c 0448     		ldr	r0, .L11+4
 236 001e FFF7FEFF 		bl	puts
 237              	.LVL13:
 487:../../applications/murata-dualstack-example-ns/src/murata-dualstack-example-ns.c ****       timer3_first=0;  
 238              		.loc 1 487 7 view .LVU49
 239              		.loc 1 487 19 is_stmt 0 view .LVU50
 240 0022 044B     		ldr	r3, .L11+8
 241 0024 0022     		movs	r2, #0
 242 0026 1A70     		strb	r2, [r3]
 488:../../applications/murata-dualstack-example-ns/src/murata-dualstack-example-ns.c **** }
 243              		.loc 1 488 1 view .LVU51
 244 0028 08BD     		pop	{r3, pc}
 245              	.L12:
 246 002a 00BF     		.align	2
 247              	.L11:
 248 002c 00000000 		.word	.LC0
 249 0030 18000000 		.word	.LC1
 250 0034 00000000 		.word	.LANCHOR2
 251              		.cfi_endproc
 252              	.LFE135:
 254              		.section	.text.LoRaWAN_send,"ax",%progbits
 255              		.align	1
 256              		.global	LoRaWAN_send
 257              		.syntax unified
 258              		.thumb
 259              		.thumb_func
ARM GAS  C:\Users\yvesk\AppData\Local\Temp\cc6ysVum.s 			page 14


 260              		.fpu fpv4-sp-d16
 262              	LoRaWAN_send:
 263              	.LVL14:
 264              	.LFB137:
 489:../../applications/murata-dualstack-example-ns/src/murata-dualstack-example-ns.c **** 
 490:../../applications/murata-dualstack-example-ns/src/murata-dualstack-example-ns.c **** //----------------------------------------------------------start send message methods-------------
 491:../../applications/murata-dualstack-example-ns/src/murata-dualstack-example-ns.c **** 
 492:../../applications/murata-dualstack-example-ns/src/murata-dualstack-example-ns.c **** void send_message(uint8_t type) {
 493:../../applications/murata-dualstack-example-ns/src/murata-dualstack-example-ns.c **** 
 494:../../applications/murata-dualstack-example-ns/src/murata-dualstack-example-ns.c ****    quickBlink();
 495:../../applications/murata-dualstack-example-ns/src/murata-dualstack-example-ns.c ****   /*  //messageMode = 1 ; 
 496:../../applications/murata-dualstack-example-ns/src/murata-dualstack-example-ns.c ****    isActiveSending = 1;
 497:../../applications/murata-dualstack-example-ns/src/murata-dualstack-example-ns.c ****    if (messageMode==0) {  //dash7mode    
 498:../../applications/murata-dualstack-example-ns/src/murata-dualstack-example-ns.c ****    //printf("dlskfjmdfms");
 499:../../applications/murata-dualstack-example-ns/src/murata-dualstack-example-ns.c ****     switch (type) {
 500:../../applications/murata-dualstack-example-ns/src/murata-dualstack-example-ns.c ****       case 1:
 501:../../applications/murata-dualstack-example-ns/src/murata-dualstack-example-ns.c ****       messageCounter++;
 502:../../applications/murata-dualstack-example-ns/src/murata-dualstack-example-ns.c ****       Dash7_send_temphum();  
 503:../../applications/murata-dualstack-example-ns/src/murata-dualstack-example-ns.c ****       //printf("sending temphum message\r\n");
 504:../../applications/murata-dualstack-example-ns/src/murata-dualstack-example-ns.c ****       break; 
 505:../../applications/murata-dualstack-example-ns/src/murata-dualstack-example-ns.c ****       case 2:
 506:../../applications/murata-dualstack-example-ns/src/murata-dualstack-example-ns.c ****       messageCounter++;
 507:../../applications/murata-dualstack-example-ns/src/murata-dualstack-example-ns.c ****       Dash7_send_allInfo();
 508:../../applications/murata-dualstack-example-ns/src/murata-dualstack-example-ns.c ****      //printf("sending allinfo message\r\n");
 509:../../applications/murata-dualstack-example-ns/src/murata-dualstack-example-ns.c ****       break; 
 510:../../applications/murata-dualstack-example-ns/src/murata-dualstack-example-ns.c ****       default:
 511:../../applications/murata-dualstack-example-ns/src/murata-dualstack-example-ns.c ****       printf("No case was matched\r\n"); 
 512:../../applications/murata-dualstack-example-ns/src/murata-dualstack-example-ns.c ****       break;  
 513:../../applications/murata-dualstack-example-ns/src/murata-dualstack-example-ns.c ****     }
 514:../../applications/murata-dualstack-example-ns/src/murata-dualstack-example-ns.c ****   } else {                               //lorawanmode
 515:../../applications/murata-dualstack-example-ns/src/murata-dualstack-example-ns.c ****       LoRaWAN_send(NULL); 
 516:../../applications/murata-dualstack-example-ns/src/murata-dualstack-example-ns.c ****       //HAL_Delay(10000); 
 517:../../applications/murata-dualstack-example-ns/src/murata-dualstack-example-ns.c ****       loracounter++;
 518:../../applications/murata-dualstack-example-ns/src/murata-dualstack-example-ns.c ****       //Dash7_send_temphum(); 
 519:../../applications/murata-dualstack-example-ns/src/murata-dualstack-example-ns.c ****       //printf("sending lorawan message\r\n");
 520:../../applications/murata-dualstack-example-ns/src/murata-dualstack-example-ns.c ****   }    */
 521:../../applications/murata-dualstack-example-ns/src/murata-dualstack-example-ns.c **** }
 522:../../applications/murata-dualstack-example-ns/src/murata-dualstack-example-ns.c **** 
 523:../../applications/murata-dualstack-example-ns/src/murata-dualstack-example-ns.c **** 
 524:../../applications/murata-dualstack-example-ns/src/murata-dualstack-example-ns.c **** 
 525:../../applications/murata-dualstack-example-ns/src/murata-dualstack-example-ns.c **** void LoRaWAN_send(void const *argument)
 526:../../applications/murata-dualstack-example-ns/src/murata-dualstack-example-ns.c **** {
 265              		.loc 1 526 1 is_stmt 1 view -0
 266              		.cfi_startproc
 267              		@ args = 0, pretend = 0, frame = 8
 268              		@ frame_needed = 0, uses_anonymous_args = 0
 269              		.loc 1 526 1 is_stmt 0 view .LVU53
 270 0000 00B5     		push	{lr}
 271              	.LCFI7:
 272              		.cfi_def_cfa_offset 4
 273              		.cfi_offset 14, -4
 274 0002 83B0     		sub	sp, sp, #12
 275              	.LCFI8:
 276              		.cfi_def_cfa_offset 16
 527:../../applications/murata-dualstack-example-ns/src/murata-dualstack-example-ns.c ****   if (murata_init)
 277              		.loc 1 527 3 is_stmt 1 view .LVU54
 278              		.loc 1 527 7 is_stmt 0 view .LVU55
ARM GAS  C:\Users\yvesk\AppData\Local\Temp\cc6ysVum.s 			page 15


 279 0004 174B     		ldr	r3, .L19
 280 0006 1B78     		ldrb	r3, [r3]	@ zero_extendqisi2
 281              		.loc 1 527 6 view .LVU56
 282 0008 3BB3     		cbz	r3, .L14
 283              	.LBB4:
 528:../../applications/murata-dualstack-example-ns/src/murata-dualstack-example-ns.c ****   {
 529:../../applications/murata-dualstack-example-ns/src/murata-dualstack-example-ns.c ****     uint8_t loraMessage[5];
 284              		.loc 1 529 5 is_stmt 1 view .LVU57
 530:../../applications/murata-dualstack-example-ns/src/murata-dualstack-example-ns.c ****     uint8_t i = 0;
 285              		.loc 1 530 5 view .LVU58
 286              	.LVL15:
 531:../../applications/murata-dualstack-example-ns/src/murata-dualstack-example-ns.c ****     //uint16 counter to uint8 array (little endian)
 532:../../applications/murata-dualstack-example-ns/src/murata-dualstack-example-ns.c ****     //counter (large) type byte
 533:../../applications/murata-dualstack-example-ns/src/murata-dualstack-example-ns.c ****     loraMessage[i++] = SHTData[0];
 287              		.loc 1 533 5 view .LVU59
 288              		.loc 1 533 31 is_stmt 0 view .LVU60
 289 000a 174A     		ldr	r2, .L19+4
 290 000c D2ED007A 		vldr.32	s15, [r2]
 291              	.LVL16:
 292              		.loc 1 533 22 view .LVU61
 293 0010 FCEEE77A 		vcvt.u32.f32	s15, s15
 294 0014 17EE903A 		vmov	r3, s15	@ int
 295 0018 8DF80030 		strb	r3, [sp]
 534:../../applications/murata-dualstack-example-ns/src/murata-dualstack-example-ns.c ****     loraMessage[i++] = SHTData[1];
 296              		.loc 1 534 5 is_stmt 1 view .LVU62
 297              		.loc 1 534 31 is_stmt 0 view .LVU63
 298 001c D2ED017A 		vldr.32	s15, [r2, #4]
 299              	.LVL17:
 300              		.loc 1 534 22 view .LVU64
 301 0020 FCEEE77A 		vcvt.u32.f32	s15, s15
 302 0024 17EE903A 		vmov	r3, s15	@ int
 303 0028 8DF80130 		strb	r3, [sp, #1]
 535:../../applications/murata-dualstack-example-ns/src/murata-dualstack-example-ns.c ****     loraMessage[i++] = 0x00;
 304              		.loc 1 535 5 is_stmt 1 view .LVU65
 305              	.LVL18:
 306              		.loc 1 535 22 is_stmt 0 view .LVU66
 307 002c 0023     		movs	r3, #0
 308 002e 8DF80230 		strb	r3, [sp, #2]
 536:../../applications/murata-dualstack-example-ns/src/murata-dualstack-example-ns.c ****     
 537:../../applications/murata-dualstack-example-ns/src/murata-dualstack-example-ns.c ****     //osMutexWait(txMutexId, osWaitForever);
 538:../../applications/murata-dualstack-example-ns/src/murata-dualstack-example-ns.c ****     if(!Murata_LoRaWAN_Send((uint8_t *)loraMessage, i))
 309              		.loc 1 538 5 is_stmt 1 view .LVU67
 310              		.loc 1 538 9 is_stmt 0 view .LVU68
 311 0032 0321     		movs	r1, #3
 312 0034 6846     		mov	r0, sp
 313              	.LVL19:
 314              		.loc 1 538 9 view .LVU69
 315 0036 FFF7FEFF 		bl	Murata_LoRaWAN_Send
 316              	.LVL20:
 317              		.loc 1 538 7 view .LVU70
 318 003a 50B9     		cbnz	r0, .L15
 539:../../applications/murata-dualstack-example-ns/src/murata-dualstack-example-ns.c ****     {
 540:../../applications/murata-dualstack-example-ns/src/murata-dualstack-example-ns.c ****       murata_init++;
 319              		.loc 1 540 7 is_stmt 1 view .LVU71
 320              		.loc 1 540 18 is_stmt 0 view .LVU72
 321 003c 094A     		ldr	r2, .L19
 322 003e 1378     		ldrb	r3, [r2]	@ zero_extendqisi2
ARM GAS  C:\Users\yvesk\AppData\Local\Temp\cc6ysVum.s 			page 16


 323 0040 0133     		adds	r3, r3, #1
 324 0042 1370     		strb	r3, [r2]
 541:../../applications/murata-dualstack-example-ns/src/murata-dualstack-example-ns.c ****       if(murata_init == 10)
 325              		.loc 1 541 7 is_stmt 1 view .LVU73
 326              	.L16:
 542:../../applications/murata-dualstack-example-ns/src/murata-dualstack-example-ns.c ****         murata_init == 0;
 543:../../applications/murata-dualstack-example-ns/src/murata-dualstack-example-ns.c ****     }
 544:../../applications/murata-dualstack-example-ns/src/murata-dualstack-example-ns.c ****     else
 545:../../applications/murata-dualstack-example-ns/src/murata-dualstack-example-ns.c ****     {
 546:../../applications/murata-dualstack-example-ns/src/murata-dualstack-example-ns.c ****       murata_init = 1;
 547:../../applications/murata-dualstack-example-ns/src/murata-dualstack-example-ns.c ****     }
 548:../../applications/murata-dualstack-example-ns/src/murata-dualstack-example-ns.c ****     //BLOCK TX MUTEX FOR 3s
 549:../../applications/murata-dualstack-example-ns/src/murata-dualstack-example-ns.c ****     //osDelay(3000);
 550:../../applications/murata-dualstack-example-ns/src/murata-dualstack-example-ns.c ****     //osMutexRelease(txMutexId);
 551:../../applications/murata-dualstack-example-ns/src/murata-dualstack-example-ns.c ****     LoRaWAN_Counter++;
 327              		.loc 1 551 5 discriminator 1 view .LVU74
 328              		.loc 1 551 20 is_stmt 0 discriminator 1 view .LVU75
 329 0044 094A     		ldr	r2, .L19+8
 330 0046 1388     		ldrh	r3, [r2]
 331 0048 0133     		adds	r3, r3, #1
 332 004a 1380     		strh	r3, [r2]	@ movhi
 333              	.LVL21:
 334              	.L13:
 335              		.loc 1 551 20 discriminator 1 view .LVU76
 336              	.LBE4:
 552:../../applications/murata-dualstack-example-ns/src/murata-dualstack-example-ns.c ****   }
 553:../../applications/murata-dualstack-example-ns/src/murata-dualstack-example-ns.c ****   else{
 554:../../applications/murata-dualstack-example-ns/src/murata-dualstack-example-ns.c ****     printf("murata not initialized, not sending\r\n");
 555:../../applications/murata-dualstack-example-ns/src/murata-dualstack-example-ns.c ****   }
 556:../../applications/murata-dualstack-example-ns/src/murata-dualstack-example-ns.c **** }
 337              		.loc 1 556 1 view .LVU77
 338 004c 03B0     		add	sp, sp, #12
 339              	.LCFI9:
 340              		.cfi_remember_state
 341              		.cfi_def_cfa_offset 4
 342              		@ sp needed
 343 004e 5DF804FB 		ldr	pc, [sp], #4
 344              	.LVL22:
 345              	.L15:
 346              	.LCFI10:
 347              		.cfi_restore_state
 348              	.LBB5:
 546:../../applications/murata-dualstack-example-ns/src/murata-dualstack-example-ns.c ****     }
 349              		.loc 1 546 7 is_stmt 1 view .LVU78
 546:../../applications/murata-dualstack-example-ns/src/murata-dualstack-example-ns.c ****     }
 350              		.loc 1 546 19 is_stmt 0 view .LVU79
 351 0052 044B     		ldr	r3, .L19
 352 0054 0122     		movs	r2, #1
 353 0056 1A70     		strb	r2, [r3]
 354 0058 F4E7     		b	.L16
 355              	.LVL23:
 356              	.L14:
 546:../../applications/murata-dualstack-example-ns/src/murata-dualstack-example-ns.c ****     }
 357              		.loc 1 546 19 view .LVU80
 358              	.LBE5:
 554:../../applications/murata-dualstack-example-ns/src/murata-dualstack-example-ns.c ****   }
 359              		.loc 1 554 5 is_stmt 1 view .LVU81
ARM GAS  C:\Users\yvesk\AppData\Local\Temp\cc6ysVum.s 			page 17


 360 005a 0548     		ldr	r0, .L19+12
 361              	.LVL24:
 554:../../applications/murata-dualstack-example-ns/src/murata-dualstack-example-ns.c ****   }
 362              		.loc 1 554 5 is_stmt 0 view .LVU82
 363 005c FFF7FEFF 		bl	puts
 364              	.LVL25:
 365              		.loc 1 556 1 view .LVU83
 366 0060 F4E7     		b	.L13
 367              	.L20:
 368 0062 00BF     		.align	2
 369              	.L19:
 370 0064 00000000 		.word	.LANCHOR3
 371 0068 00000000 		.word	SHTData
 372 006c 00000000 		.word	.LANCHOR4
 373 0070 00000000 		.word	.LC2
 374              		.cfi_endproc
 375              	.LFE137:
 377              		.section	.text.Dash7_send_temphum,"ax",%progbits
 378              		.align	1
 379              		.global	Dash7_send_temphum
 380              		.syntax unified
 381              		.thumb
 382              		.thumb_func
 383              		.fpu fpv4-sp-d16
 385              	Dash7_send_temphum:
 386              	.LVL26:
 387              	.LFB138:
 557:../../applications/murata-dualstack-example-ns/src/murata-dualstack-example-ns.c **** 
 558:../../applications/murata-dualstack-example-ns/src/murata-dualstack-example-ns.c **** void Dash7_send_temphum(void const *argument)
 559:../../applications/murata-dualstack-example-ns/src/murata-dualstack-example-ns.c **** {
 388              		.loc 1 559 1 is_stmt 1 view -0
 389              		.cfi_startproc
 390              		@ args = 0, pretend = 0, frame = 8
 391              		@ frame_needed = 0, uses_anonymous_args = 0
 392              		.loc 1 559 1 is_stmt 0 view .LVU85
 393 0000 00B5     		push	{lr}
 394              	.LCFI11:
 395              		.cfi_def_cfa_offset 4
 396              		.cfi_offset 14, -4
 397 0002 83B0     		sub	sp, sp, #12
 398              	.LCFI12:
 399              		.cfi_def_cfa_offset 16
 560:../../applications/murata-dualstack-example-ns/src/murata-dualstack-example-ns.c **** 
 561:../../applications/murata-dualstack-example-ns/src/murata-dualstack-example-ns.c ****   if (murata_init)
 400              		.loc 1 561 3 is_stmt 1 view .LVU86
 401              		.loc 1 561 7 is_stmt 0 view .LVU87
 402 0004 1C4B     		ldr	r3, .L27
 403 0006 1B78     		ldrb	r3, [r3]	@ zero_extendqisi2
 404              		.loc 1 561 6 view .LVU88
 405 0008 8BB3     		cbz	r3, .L22
 406              	.LBB6:
 562:../../applications/murata-dualstack-example-ns/src/murata-dualstack-example-ns.c ****   {
 563:../../applications/murata-dualstack-example-ns/src/murata-dualstack-example-ns.c ****     uint8_t dash7Message[5];
 407              		.loc 1 563 5 is_stmt 1 view .LVU89
 564:../../applications/murata-dualstack-example-ns/src/murata-dualstack-example-ns.c ****     uint8_t i = 0;
 408              		.loc 1 564 5 view .LVU90
 409              	.LVL27:
ARM GAS  C:\Users\yvesk\AppData\Local\Temp\cc6ysVum.s 			page 18


 565:../../applications/murata-dualstack-example-ns/src/murata-dualstack-example-ns.c ****     //uint16 counter to uint8 array (little endian)
 566:../../applications/murata-dualstack-example-ns/src/murata-dualstack-example-ns.c ****     //counter (large) type byte
 567:../../applications/murata-dualstack-example-ns/src/murata-dualstack-example-ns.c ****     dash7Message[i++] = SHTData[0];
 410              		.loc 1 567 5 view .LVU91
 411              		.loc 1 567 32 is_stmt 0 view .LVU92
 412 000a 1C4A     		ldr	r2, .L27+4
 413 000c D2ED007A 		vldr.32	s15, [r2]
 414              	.LVL28:
 415              		.loc 1 567 23 view .LVU93
 416 0010 FCEEE77A 		vcvt.u32.f32	s15, s15
 417 0014 17EE903A 		vmov	r3, s15	@ int
 418 0018 8DF80030 		strb	r3, [sp]
 568:../../applications/murata-dualstack-example-ns/src/murata-dualstack-example-ns.c ****     dash7Message[i++] = SHTData[1];
 419              		.loc 1 568 5 is_stmt 1 view .LVU94
 420              		.loc 1 568 32 is_stmt 0 view .LVU95
 421 001c D2ED017A 		vldr.32	s15, [r2, #4]
 422              	.LVL29:
 423              		.loc 1 568 23 view .LVU96
 424 0020 FCEEE77A 		vcvt.u32.f32	s15, s15
 425 0024 17EE903A 		vmov	r3, s15	@ int
 426 0028 8DF80130 		strb	r3, [sp, #1]
 569:../../applications/murata-dualstack-example-ns/src/murata-dualstack-example-ns.c ****     dash7Message[i++] = 0x00;
 427              		.loc 1 569 5 is_stmt 1 view .LVU97
 428              	.LVL30:
 429              		.loc 1 569 23 is_stmt 0 view .LVU98
 430 002c 0023     		movs	r3, #0
 431 002e 8DF80230 		strb	r3, [sp, #2]
 570:../../applications/murata-dualstack-example-ns/src/murata-dualstack-example-ns.c ****     dash7Message[i++] = messageCounter;
 432              		.loc 1 570 5 is_stmt 1 view .LVU99
 433              	.LVL31:
 434              		.loc 1 570 23 is_stmt 0 view .LVU100
 435 0032 134A     		ldr	r2, .L27+8
 436 0034 1278     		ldrb	r2, [r2]	@ zero_extendqisi2
 437 0036 8DF80320 		strb	r2, [sp, #3]
 571:../../applications/murata-dualstack-example-ns/src/murata-dualstack-example-ns.c ****     dash7Message[i++] = val;
 438              		.loc 1 571 5 is_stmt 1 view .LVU101
 439              	.LVL32:
 440              		.loc 1 571 23 is_stmt 0 view .LVU102
 441 003a 124A     		ldr	r2, .L27+12
 442 003c 1278     		ldrb	r2, [r2]	@ zero_extendqisi2
 443 003e 8DF80420 		strb	r2, [sp, #4]
 572:../../applications/murata-dualstack-example-ns/src/murata-dualstack-example-ns.c ****     dash7Message[i++] = 0x00;
 444              		.loc 1 572 5 is_stmt 1 view .LVU103
 445              	.LVL33:
 446              		.loc 1 572 23 is_stmt 0 view .LVU104
 447 0042 8DF80530 		strb	r3, [sp, #5]
 573:../../applications/murata-dualstack-example-ns/src/murata-dualstack-example-ns.c ****     //osMutexWait(txMutexId, osWaitForever);
 574:../../applications/murata-dualstack-example-ns/src/murata-dualstack-example-ns.c ****     if(!Murata_Dash7_Send((uint8_t *)dash7Message, i))
 448              		.loc 1 574 5 is_stmt 1 view .LVU105
 449              		.loc 1 574 9 is_stmt 0 view .LVU106
 450 0046 0621     		movs	r1, #6
 451 0048 6846     		mov	r0, sp
 452              	.LVL34:
 453              		.loc 1 574 9 view .LVU107
 454 004a FFF7FEFF 		bl	Murata_Dash7_Send
 455              	.LVL35:
 456              		.loc 1 574 7 view .LVU108
ARM GAS  C:\Users\yvesk\AppData\Local\Temp\cc6ysVum.s 			page 19


 457 004e 50B9     		cbnz	r0, .L23
 575:../../applications/murata-dualstack-example-ns/src/murata-dualstack-example-ns.c ****     {
 576:../../applications/murata-dualstack-example-ns/src/murata-dualstack-example-ns.c ****       murata_init++;
 458              		.loc 1 576 7 is_stmt 1 view .LVU109
 459              		.loc 1 576 18 is_stmt 0 view .LVU110
 460 0050 094A     		ldr	r2, .L27
 461 0052 1378     		ldrb	r3, [r2]	@ zero_extendqisi2
 462 0054 0133     		adds	r3, r3, #1
 463 0056 1370     		strb	r3, [r2]
 577:../../applications/murata-dualstack-example-ns/src/murata-dualstack-example-ns.c ****       if(murata_init == 10)
 464              		.loc 1 577 7 is_stmt 1 view .LVU111
 465              	.L24:
 578:../../applications/murata-dualstack-example-ns/src/murata-dualstack-example-ns.c ****         murata_init == 0;
 579:../../applications/murata-dualstack-example-ns/src/murata-dualstack-example-ns.c ****     }
 580:../../applications/murata-dualstack-example-ns/src/murata-dualstack-example-ns.c ****     else
 581:../../applications/murata-dualstack-example-ns/src/murata-dualstack-example-ns.c ****     {
 582:../../applications/murata-dualstack-example-ns/src/murata-dualstack-example-ns.c ****       murata_init = 1;
 583:../../applications/murata-dualstack-example-ns/src/murata-dualstack-example-ns.c ****     }
 584:../../applications/murata-dualstack-example-ns/src/murata-dualstack-example-ns.c ****     //BLOCK TX MUTEX FOR 3s
 585:../../applications/murata-dualstack-example-ns/src/murata-dualstack-example-ns.c ****     //osDelay(3000);
 586:../../applications/murata-dualstack-example-ns/src/murata-dualstack-example-ns.c ****     //osMutexRelease(txMutexId);
 587:../../applications/murata-dualstack-example-ns/src/murata-dualstack-example-ns.c ****     DASH7_Counter++;
 466              		.loc 1 587 5 discriminator 1 view .LVU112
 467              		.loc 1 587 18 is_stmt 0 discriminator 1 view .LVU113
 468 0058 0B4A     		ldr	r2, .L27+16
 469 005a 1388     		ldrh	r3, [r2]
 470 005c 0133     		adds	r3, r3, #1
 471 005e 1380     		strh	r3, [r2]	@ movhi
 472              	.LVL36:
 473              	.L21:
 474              		.loc 1 587 18 discriminator 1 view .LVU114
 475              	.LBE6:
 588:../../applications/murata-dualstack-example-ns/src/murata-dualstack-example-ns.c ****   }
 589:../../applications/murata-dualstack-example-ns/src/murata-dualstack-example-ns.c ****   else{
 590:../../applications/murata-dualstack-example-ns/src/murata-dualstack-example-ns.c ****     printf("murata not initialized, not sending\r\n");
 591:../../applications/murata-dualstack-example-ns/src/murata-dualstack-example-ns.c ****   }
 592:../../applications/murata-dualstack-example-ns/src/murata-dualstack-example-ns.c **** }
 476              		.loc 1 592 1 view .LVU115
 477 0060 03B0     		add	sp, sp, #12
 478              	.LCFI13:
 479              		.cfi_remember_state
 480              		.cfi_def_cfa_offset 4
 481              		@ sp needed
 482 0062 5DF804FB 		ldr	pc, [sp], #4
 483              	.LVL37:
 484              	.L23:
 485              	.LCFI14:
 486              		.cfi_restore_state
 487              	.LBB7:
 582:../../applications/murata-dualstack-example-ns/src/murata-dualstack-example-ns.c ****     }
 488              		.loc 1 582 7 is_stmt 1 view .LVU116
 582:../../applications/murata-dualstack-example-ns/src/murata-dualstack-example-ns.c ****     }
 489              		.loc 1 582 19 is_stmt 0 view .LVU117
 490 0066 044B     		ldr	r3, .L27
 491 0068 0122     		movs	r2, #1
 492 006a 1A70     		strb	r2, [r3]
 493 006c F4E7     		b	.L24
ARM GAS  C:\Users\yvesk\AppData\Local\Temp\cc6ysVum.s 			page 20


 494              	.LVL38:
 495              	.L22:
 582:../../applications/murata-dualstack-example-ns/src/murata-dualstack-example-ns.c ****     }
 496              		.loc 1 582 19 view .LVU118
 497              	.LBE7:
 590:../../applications/murata-dualstack-example-ns/src/murata-dualstack-example-ns.c ****   }
 498              		.loc 1 590 5 is_stmt 1 view .LVU119
 499 006e 0748     		ldr	r0, .L27+20
 500              	.LVL39:
 590:../../applications/murata-dualstack-example-ns/src/murata-dualstack-example-ns.c ****   }
 501              		.loc 1 590 5 is_stmt 0 view .LVU120
 502 0070 FFF7FEFF 		bl	puts
 503              	.LVL40:
 504              		.loc 1 592 1 view .LVU121
 505 0074 F4E7     		b	.L21
 506              	.L28:
 507 0076 00BF     		.align	2
 508              	.L27:
 509 0078 00000000 		.word	.LANCHOR3
 510 007c 00000000 		.word	SHTData
 511 0080 00000000 		.word	.LANCHOR5
 512 0084 00000000 		.word	.LANCHOR6
 513 0088 00000000 		.word	.LANCHOR7
 514 008c 00000000 		.word	.LC2
 515              		.cfi_endproc
 516              	.LFE138:
 518              		.section	.text.Dash7_send_allInfo,"ax",%progbits
 519              		.align	1
 520              		.global	Dash7_send_allInfo
 521              		.syntax unified
 522              		.thumb
 523              		.thumb_func
 524              		.fpu fpv4-sp-d16
 526              	Dash7_send_allInfo:
 527              	.LVL41:
 528              	.LFB139:
 593:../../applications/murata-dualstack-example-ns/src/murata-dualstack-example-ns.c **** 
 594:../../applications/murata-dualstack-example-ns/src/murata-dualstack-example-ns.c **** 
 595:../../applications/murata-dualstack-example-ns/src/murata-dualstack-example-ns.c **** void Dash7_send_allInfo(void const *argument)
 596:../../applications/murata-dualstack-example-ns/src/murata-dualstack-example-ns.c **** {
 529              		.loc 1 596 1 is_stmt 1 view -0
 530              		.cfi_startproc
 531              		@ args = 0, pretend = 0, frame = 8
 532              		@ frame_needed = 0, uses_anonymous_args = 0
 533              		.loc 1 596 1 is_stmt 0 view .LVU123
 534 0000 00B5     		push	{lr}
 535              	.LCFI15:
 536              		.cfi_def_cfa_offset 4
 537              		.cfi_offset 14, -4
 538 0002 83B0     		sub	sp, sp, #12
 539              	.LCFI16:
 540              		.cfi_def_cfa_offset 16
 597:../../applications/murata-dualstack-example-ns/src/murata-dualstack-example-ns.c ****   if (murata_init)
 541              		.loc 1 597 3 is_stmt 1 view .LVU124
 542              		.loc 1 597 7 is_stmt 0 view .LVU125
 543 0004 1D4B     		ldr	r3, .L35
 544 0006 1B78     		ldrb	r3, [r3]	@ zero_extendqisi2
ARM GAS  C:\Users\yvesk\AppData\Local\Temp\cc6ysVum.s 			page 21


 545              		.loc 1 597 6 view .LVU126
 546 0008 002B     		cmp	r3, #0
 547 000a 33D0     		beq	.L30
 548              	.LBB8:
 598:../../applications/murata-dualstack-example-ns/src/murata-dualstack-example-ns.c ****   {
 599:../../applications/murata-dualstack-example-ns/src/murata-dualstack-example-ns.c ****     uint8_t dash7Message[5];
 549              		.loc 1 599 5 is_stmt 1 view .LVU127
 600:../../applications/murata-dualstack-example-ns/src/murata-dualstack-example-ns.c ****     uint8_t i = 0;
 550              		.loc 1 600 5 view .LVU128
 551              	.LVL42:
 601:../../applications/murata-dualstack-example-ns/src/murata-dualstack-example-ns.c ****     //uint16 counter to uint8 array (little endian)
 602:../../applications/murata-dualstack-example-ns/src/murata-dualstack-example-ns.c ****     //counter (large) type byte
 603:../../applications/murata-dualstack-example-ns/src/murata-dualstack-example-ns.c ****     dash7Message[i++] = SHTData[0];
 552              		.loc 1 603 5 view .LVU129
 553              		.loc 1 603 32 is_stmt 0 view .LVU130
 554 000c 1C4A     		ldr	r2, .L35+4
 555 000e D2ED007A 		vldr.32	s15, [r2]
 556              	.LVL43:
 557              		.loc 1 603 23 view .LVU131
 558 0012 FCEEE77A 		vcvt.u32.f32	s15, s15
 559 0016 17EE903A 		vmov	r3, s15	@ int
 560 001a 8DF80030 		strb	r3, [sp]
 604:../../applications/murata-dualstack-example-ns/src/murata-dualstack-example-ns.c ****     dash7Message[i++] = SHTData[1];
 561              		.loc 1 604 5 is_stmt 1 view .LVU132
 562              		.loc 1 604 32 is_stmt 0 view .LVU133
 563 001e D2ED017A 		vldr.32	s15, [r2, #4]
 564              	.LVL44:
 565              		.loc 1 604 23 view .LVU134
 566 0022 FCEEE77A 		vcvt.u32.f32	s15, s15
 567 0026 17EE903A 		vmov	r3, s15	@ int
 568 002a 8DF80130 		strb	r3, [sp, #1]
 605:../../applications/murata-dualstack-example-ns/src/murata-dualstack-example-ns.c ****     dash7Message[i++] = rep_counter;
 569              		.loc 1 605 5 is_stmt 1 view .LVU135
 570              	.LVL45:
 571              		.loc 1 605 23 is_stmt 0 view .LVU136
 572 002e 154B     		ldr	r3, .L35+8
 573 0030 1B78     		ldrb	r3, [r3]	@ zero_extendqisi2
 574 0032 8DF80230 		strb	r3, [sp, #2]
 606:../../applications/murata-dualstack-example-ns/src/murata-dualstack-example-ns.c ****     dash7Message[i++] = messageCounter;
 575              		.loc 1 606 5 is_stmt 1 view .LVU137
 576              	.LVL46:
 577              		.loc 1 606 23 is_stmt 0 view .LVU138
 578 0036 144B     		ldr	r3, .L35+12
 579 0038 1B78     		ldrb	r3, [r3]	@ zero_extendqisi2
 580 003a 8DF80330 		strb	r3, [sp, #3]
 607:../../applications/murata-dualstack-example-ns/src/murata-dualstack-example-ns.c ****     dash7Message[i++] = val;
 581              		.loc 1 607 5 is_stmt 1 view .LVU139
 582              	.LVL47:
 583              		.loc 1 607 23 is_stmt 0 view .LVU140
 584 003e 134B     		ldr	r3, .L35+16
 585 0040 1B78     		ldrb	r3, [r3]	@ zero_extendqisi2
 586 0042 8DF80430 		strb	r3, [sp, #4]
 608:../../applications/murata-dualstack-example-ns/src/murata-dualstack-example-ns.c ****     dash7Message[i++] = 0x00;
 587              		.loc 1 608 5 is_stmt 1 view .LVU141
 588              	.LVL48:
 589              		.loc 1 608 23 is_stmt 0 view .LVU142
 590 0046 0023     		movs	r3, #0
ARM GAS  C:\Users\yvesk\AppData\Local\Temp\cc6ysVum.s 			page 22


 591 0048 8DF80530 		strb	r3, [sp, #5]
 609:../../applications/murata-dualstack-example-ns/src/murata-dualstack-example-ns.c **** 
 610:../../applications/murata-dualstack-example-ns/src/murata-dualstack-example-ns.c ****     //osMutexWait(txMutexId, osWaitForever);
 611:../../applications/murata-dualstack-example-ns/src/murata-dualstack-example-ns.c ****     if(!Murata_Dash7_Send((uint8_t *)dash7Message, i))
 592              		.loc 1 611 5 is_stmt 1 view .LVU143
 593              		.loc 1 611 9 is_stmt 0 view .LVU144
 594 004c 0621     		movs	r1, #6
 595 004e 6846     		mov	r0, sp
 596              	.LVL49:
 597              		.loc 1 611 9 view .LVU145
 598 0050 FFF7FEFF 		bl	Murata_Dash7_Send
 599              	.LVL50:
 600              		.loc 1 611 7 view .LVU146
 601 0054 50B9     		cbnz	r0, .L31
 612:../../applications/murata-dualstack-example-ns/src/murata-dualstack-example-ns.c ****     {
 613:../../applications/murata-dualstack-example-ns/src/murata-dualstack-example-ns.c ****       murata_init++;
 602              		.loc 1 613 7 is_stmt 1 view .LVU147
 603              		.loc 1 613 18 is_stmt 0 view .LVU148
 604 0056 094A     		ldr	r2, .L35
 605 0058 1378     		ldrb	r3, [r2]	@ zero_extendqisi2
 606 005a 0133     		adds	r3, r3, #1
 607 005c 1370     		strb	r3, [r2]
 614:../../applications/murata-dualstack-example-ns/src/murata-dualstack-example-ns.c ****       if(murata_init == 10)
 608              		.loc 1 614 7 is_stmt 1 view .LVU149
 609              	.L32:
 615:../../applications/murata-dualstack-example-ns/src/murata-dualstack-example-ns.c ****         murata_init == 0;
 616:../../applications/murata-dualstack-example-ns/src/murata-dualstack-example-ns.c ****     }
 617:../../applications/murata-dualstack-example-ns/src/murata-dualstack-example-ns.c ****     else
 618:../../applications/murata-dualstack-example-ns/src/murata-dualstack-example-ns.c ****     {
 619:../../applications/murata-dualstack-example-ns/src/murata-dualstack-example-ns.c ****       murata_init = 1;
 620:../../applications/murata-dualstack-example-ns/src/murata-dualstack-example-ns.c ****     }
 621:../../applications/murata-dualstack-example-ns/src/murata-dualstack-example-ns.c ****     //BLOCK TX MUTEX FOR 3s
 622:../../applications/murata-dualstack-example-ns/src/murata-dualstack-example-ns.c ****     //osDelay(3000);
 623:../../applications/murata-dualstack-example-ns/src/murata-dualstack-example-ns.c ****     //osMutexRelease(txMutexId);
 624:../../applications/murata-dualstack-example-ns/src/murata-dualstack-example-ns.c ****     DASH7_Counter++;
 610              		.loc 1 624 5 discriminator 1 view .LVU150
 611              		.loc 1 624 18 is_stmt 0 discriminator 1 view .LVU151
 612 005e 0C4A     		ldr	r2, .L35+20
 613 0060 1388     		ldrh	r3, [r2]
 614 0062 0133     		adds	r3, r3, #1
 615 0064 1380     		strh	r3, [r2]	@ movhi
 616              	.LVL51:
 617              	.L29:
 618              		.loc 1 624 18 discriminator 1 view .LVU152
 619              	.LBE8:
 625:../../applications/murata-dualstack-example-ns/src/murata-dualstack-example-ns.c ****   }
 626:../../applications/murata-dualstack-example-ns/src/murata-dualstack-example-ns.c ****   else{
 627:../../applications/murata-dualstack-example-ns/src/murata-dualstack-example-ns.c ****     printf("murata not initialized, not sending\r\n");
 628:../../applications/murata-dualstack-example-ns/src/murata-dualstack-example-ns.c ****   }
 629:../../applications/murata-dualstack-example-ns/src/murata-dualstack-example-ns.c **** }
 620              		.loc 1 629 1 view .LVU153
 621 0066 03B0     		add	sp, sp, #12
 622              	.LCFI17:
 623              		.cfi_remember_state
 624              		.cfi_def_cfa_offset 4
 625              		@ sp needed
 626 0068 5DF804FB 		ldr	pc, [sp], #4
ARM GAS  C:\Users\yvesk\AppData\Local\Temp\cc6ysVum.s 			page 23


 627              	.LVL52:
 628              	.L31:
 629              	.LCFI18:
 630              		.cfi_restore_state
 631              	.LBB9:
 619:../../applications/murata-dualstack-example-ns/src/murata-dualstack-example-ns.c ****     }
 632              		.loc 1 619 7 is_stmt 1 view .LVU154
 619:../../applications/murata-dualstack-example-ns/src/murata-dualstack-example-ns.c ****     }
 633              		.loc 1 619 19 is_stmt 0 view .LVU155
 634 006c 034B     		ldr	r3, .L35
 635 006e 0122     		movs	r2, #1
 636 0070 1A70     		strb	r2, [r3]
 637 0072 F4E7     		b	.L32
 638              	.LVL53:
 639              	.L30:
 619:../../applications/murata-dualstack-example-ns/src/murata-dualstack-example-ns.c ****     }
 640              		.loc 1 619 19 view .LVU156
 641              	.LBE9:
 627:../../applications/murata-dualstack-example-ns/src/murata-dualstack-example-ns.c ****   }
 642              		.loc 1 627 5 is_stmt 1 view .LVU157
 643 0074 0748     		ldr	r0, .L35+24
 644              	.LVL54:
 627:../../applications/murata-dualstack-example-ns/src/murata-dualstack-example-ns.c ****   }
 645              		.loc 1 627 5 is_stmt 0 view .LVU158
 646 0076 FFF7FEFF 		bl	puts
 647              	.LVL55:
 648              		.loc 1 629 1 view .LVU159
 649 007a F4E7     		b	.L29
 650              	.L36:
 651              		.align	2
 652              	.L35:
 653 007c 00000000 		.word	.LANCHOR3
 654 0080 00000000 		.word	SHTData
 655 0084 00000000 		.word	.LANCHOR8
 656 0088 00000000 		.word	.LANCHOR5
 657 008c 00000000 		.word	.LANCHOR6
 658 0090 00000000 		.word	.LANCHOR7
 659 0094 00000000 		.word	.LC2
 660              		.cfi_endproc
 661              	.LFE139:
 663              		.global	__aeabi_f2d
 664              		.section	.text.print_temp_hum,"ax",%progbits
 665              		.align	1
 666              		.global	print_temp_hum
 667              		.syntax unified
 668              		.thumb
 669              		.thumb_func
 670              		.fpu fpv4-sp-d16
 672              	print_temp_hum:
 673              	.LFB140:
 630:../../applications/murata-dualstack-example-ns/src/murata-dualstack-example-ns.c **** 
 631:../../applications/murata-dualstack-example-ns/src/murata-dualstack-example-ns.c **** 
 632:../../applications/murata-dualstack-example-ns/src/murata-dualstack-example-ns.c **** //----------------------------------------------------------------------end send message methods---
 633:../../applications/murata-dualstack-example-ns/src/murata-dualstack-example-ns.c **** 
 634:../../applications/murata-dualstack-example-ns/src/murata-dualstack-example-ns.c **** //----------------------------------------------------------------------  start extra methods   ---
 635:../../applications/murata-dualstack-example-ns/src/murata-dualstack-example-ns.c **** 
 636:../../applications/murata-dualstack-example-ns/src/murata-dualstack-example-ns.c **** void print_temp_hum(void){
ARM GAS  C:\Users\yvesk\AppData\Local\Temp\cc6ysVum.s 			page 24


 674              		.loc 1 636 26 is_stmt 1 view -0
 675              		.cfi_startproc
 676              		@ args = 0, pretend = 0, frame = 0
 677              		@ frame_needed = 0, uses_anonymous_args = 0
 678 0000 38B5     		push	{r3, r4, r5, lr}
 679              	.LCFI19:
 680              		.cfi_def_cfa_offset 16
 681              		.cfi_offset 3, -16
 682              		.cfi_offset 4, -12
 683              		.cfi_offset 5, -8
 684              		.cfi_offset 14, -4
 637:../../applications/murata-dualstack-example-ns/src/murata-dualstack-example-ns.c ****   printf("\r\n");
 685              		.loc 1 637 3 view .LVU161
 686 0002 0C4C     		ldr	r4, .L39
 687 0004 2046     		mov	r0, r4
 688 0006 FFF7FEFF 		bl	puts
 689              	.LVL56:
 638:../../applications/murata-dualstack-example-ns/src/murata-dualstack-example-ns.c ****   printf("Temperature: %.2f C  \r\n", SHTData[0]);
 690              		.loc 1 638 3 view .LVU162
 691              		.loc 1 638 48 is_stmt 0 view .LVU163
 692 000a 0B4D     		ldr	r5, .L39+4
 693              		.loc 1 638 3 view .LVU164
 694 000c 2868     		ldr	r0, [r5]	@ float
 695 000e FFF7FEFF 		bl	__aeabi_f2d
 696              	.LVL57:
 697 0012 0246     		mov	r2, r0
 698 0014 0B46     		mov	r3, r1
 699 0016 0948     		ldr	r0, .L39+8
 700 0018 FFF7FEFF 		bl	printf
 701              	.LVL58:
 639:../../applications/murata-dualstack-example-ns/src/murata-dualstack-example-ns.c ****   printf("Humidity: %.2f %% \r\n", SHTData[1]);
 702              		.loc 1 639 3 is_stmt 1 view .LVU165
 703 001c 6868     		ldr	r0, [r5, #4]	@ float
 704 001e FFF7FEFF 		bl	__aeabi_f2d
 705              	.LVL59:
 706 0022 0246     		mov	r2, r0
 707 0024 0B46     		mov	r3, r1
 708 0026 0648     		ldr	r0, .L39+12
 709 0028 FFF7FEFF 		bl	printf
 710              	.LVL60:
 640:../../applications/murata-dualstack-example-ns/src/murata-dualstack-example-ns.c ****   printf("\r\n");
 711              		.loc 1 640 3 view .LVU166
 712 002c 2046     		mov	r0, r4
 713 002e FFF7FEFF 		bl	puts
 714              	.LVL61:
 641:../../applications/murata-dualstack-example-ns/src/murata-dualstack-example-ns.c **** }
 715              		.loc 1 641 1 is_stmt 0 view .LVU167
 716 0032 38BD     		pop	{r3, r4, r5, pc}
 717              	.L40:
 718              		.align	2
 719              	.L39:
 720 0034 00000000 		.word	.LC3
 721 0038 00000000 		.word	SHTData
 722 003c 04000000 		.word	.LC4
 723 0040 20000000 		.word	.LC5
 724              		.cfi_endproc
 725              	.LFE140:
ARM GAS  C:\Users\yvesk\AppData\Local\Temp\cc6ysVum.s 			page 25


 727              		.section	.text.temp_hum_measurement,"ax",%progbits
 728              		.align	1
 729              		.global	temp_hum_measurement
 730              		.syntax unified
 731              		.thumb
 732              		.thumb_func
 733              		.fpu fpv4-sp-d16
 735              	temp_hum_measurement:
 736              	.LFB141:
 642:../../applications/murata-dualstack-example-ns/src/murata-dualstack-example-ns.c **** 
 643:../../applications/murata-dualstack-example-ns/src/murata-dualstack-example-ns.c **** void temp_hum_measurement(void){
 737              		.loc 1 643 32 is_stmt 1 view -0
 738              		.cfi_startproc
 739              		@ args = 0, pretend = 0, frame = 0
 740              		@ frame_needed = 0, uses_anonymous_args = 0
 741 0000 08B5     		push	{r3, lr}
 742              	.LCFI20:
 743              		.cfi_def_cfa_offset 8
 744              		.cfi_offset 3, -8
 745              		.cfi_offset 14, -4
 644:../../applications/murata-dualstack-example-ns/src/murata-dualstack-example-ns.c **** 
 645:../../applications/murata-dualstack-example-ns/src/murata-dualstack-example-ns.c ****   SHT31_get_temp_hum(SHTData);
 746              		.loc 1 645 3 view .LVU169
 747 0002 0348     		ldr	r0, .L43
 748 0004 FFF7FEFF 		bl	SHT31_get_temp_hum
 749              	.LVL62:
 646:../../applications/murata-dualstack-example-ns/src/murata-dualstack-example-ns.c ****   print_temp_hum();
 750              		.loc 1 646 3 view .LVU170
 751 0008 FFF7FEFF 		bl	print_temp_hum
 752              	.LVL63:
 647:../../applications/murata-dualstack-example-ns/src/murata-dualstack-example-ns.c **** }
 753              		.loc 1 647 1 is_stmt 0 view .LVU171
 754 000c 08BD     		pop	{r3, pc}
 755              	.L44:
 756 000e 00BF     		.align	2
 757              	.L43:
 758 0010 00000000 		.word	SHTData
 759              		.cfi_endproc
 760              	.LFE141:
 762              		.section	.text.ble_callback,"ax",%progbits
 763              		.align	1
 764              		.global	ble_callback
 765              		.syntax unified
 766              		.thumb
 767              		.thumb_func
 768              		.fpu fpv4-sp-d16
 770              	ble_callback:
 771              	.LFB142:
 648:../../applications/murata-dualstack-example-ns/src/murata-dualstack-example-ns.c **** 
 649:../../applications/murata-dualstack-example-ns/src/murata-dualstack-example-ns.c **** void ble_callback() {
 772              		.loc 1 649 21 is_stmt 1 view -0
 773              		.cfi_startproc
 774              		@ args = 0, pretend = 0, frame = 0
 775              		@ frame_needed = 0, uses_anonymous_args = 0
 776 0000 10B5     		push	{r4, lr}
 777              	.LCFI21:
 778              		.cfi_def_cfa_offset 8
ARM GAS  C:\Users\yvesk\AppData\Local\Temp\cc6ysVum.s 			page 26


 779              		.cfi_offset 4, -8
 780              		.cfi_offset 14, -4
 650:../../applications/murata-dualstack-example-ns/src/murata-dualstack-example-ns.c **** //tmpbuf_ble[0] = tmpbuf_ble[0] - 48;
 651:../../applications/murata-dualstack-example-ns/src/murata-dualstack-example-ns.c **** //tmpbuf_ble[1] = tmpbuf_ble[1] - 48;
 652:../../applications/murata-dualstack-example-ns/src/murata-dualstack-example-ns.c **** val = ( 10 * (tmpbuf_ble[0] - '0')) + tmpbuf_ble[1] - '0'; 
 781              		.loc 1 652 1 view .LVU173
 782              		.loc 1 652 25 is_stmt 0 view .LVU174
 783 0002 0D4A     		ldr	r2, .L49
 784 0004 1378     		ldrb	r3, [r2]	@ zero_extendqisi2
 785              		.loc 1 652 49 view .LVU175
 786 0006 5178     		ldrb	r1, [r2, #1]	@ zero_extendqisi2
 787              		.loc 1 652 37 view .LVU176
 788 0008 03EB8303 		add	r3, r3, r3, lsl #2
 789 000c 5A00     		lsls	r2, r3, #1
 790 000e 1144     		add	r1, r1, r2
 791 0010 C9B2     		uxtb	r1, r1
 792              		.loc 1 652 53 view .LVU177
 793 0012 1039     		subs	r1, r1, #16
 794 0014 C9B2     		uxtb	r1, r1
 795              		.loc 1 652 5 view .LVU178
 796 0016 094C     		ldr	r4, .L49+4
 797 0018 2170     		strb	r1, [r4]
 653:../../applications/murata-dualstack-example-ns/src/murata-dualstack-example-ns.c **** printf("%d\r\n",val); 
 798              		.loc 1 653 1 is_stmt 1 view .LVU179
 799 001a 0948     		ldr	r0, .L49+8
 800 001c FFF7FEFF 		bl	printf
 801              	.LVL64:
 654:../../applications/murata-dualstack-example-ns/src/murata-dualstack-example-ns.c **** printf("bluetooth callback");
 802              		.loc 1 654 1 view .LVU180
 803 0020 0848     		ldr	r0, .L49+12
 804 0022 FFF7FEFF 		bl	printf
 805              	.LVL65:
 655:../../applications/murata-dualstack-example-ns/src/murata-dualstack-example-ns.c **** if (val == 1) {
 806              		.loc 1 655 1 view .LVU181
 807              		.loc 1 655 9 is_stmt 0 view .LVU182
 808 0026 2378     		ldrb	r3, [r4]	@ zero_extendqisi2
 809              		.loc 1 655 4 view .LVU183
 810 0028 012B     		cmp	r3, #1
 811 002a 00D0     		beq	.L48
 812              	.L45:
 656:../../applications/murata-dualstack-example-ns/src/murata-dualstack-example-ns.c ****   LoRaWAN_send(NULL); 
 657:../../applications/murata-dualstack-example-ns/src/murata-dualstack-example-ns.c **** }
 658:../../applications/murata-dualstack-example-ns/src/murata-dualstack-example-ns.c **** //printf("callback 2 \r\n");
 659:../../applications/murata-dualstack-example-ns/src/murata-dualstack-example-ns.c **** }
 813              		.loc 1 659 1 view .LVU184
 814 002c 10BD     		pop	{r4, pc}
 815              	.L48:
 656:../../applications/murata-dualstack-example-ns/src/murata-dualstack-example-ns.c ****   LoRaWAN_send(NULL); 
 816              		.loc 1 656 3 is_stmt 1 view .LVU185
 817 002e 0020     		movs	r0, #0
 818 0030 FFF7FEFF 		bl	LoRaWAN_send
 819              	.LVL66:
 820              		.loc 1 659 1 is_stmt 0 view .LVU186
 821 0034 FAE7     		b	.L45
 822              	.L50:
 823 0036 00BF     		.align	2
 824              	.L49:
ARM GAS  C:\Users\yvesk\AppData\Local\Temp\cc6ysVum.s 			page 27


 825 0038 00000000 		.word	tmpbuf_ble
 826 003c 00000000 		.word	.LANCHOR6
 827 0040 00000000 		.word	.LC6
 828 0044 08000000 		.word	.LC7
 829              		.cfi_endproc
 830              	.LFE142:
 832              		.section	.text.vApplicationIdleHook,"ax",%progbits
 833              		.align	1
 834              		.global	vApplicationIdleHook
 835              		.syntax unified
 836              		.thumb
 837              		.thumb_func
 838              		.fpu fpv4-sp-d16
 840              	vApplicationIdleHook:
 841              	.LFB143:
 660:../../applications/murata-dualstack-example-ns/src/murata-dualstack-example-ns.c **** 
 661:../../applications/murata-dualstack-example-ns/src/murata-dualstack-example-ns.c **** 
 662:../../applications/murata-dualstack-example-ns/src/murata-dualstack-example-ns.c **** void vApplicationIdleHook(){
 842              		.loc 1 662 28 is_stmt 1 view -0
 843              		.cfi_startproc
 844              		@ args = 0, pretend = 0, frame = 0
 845              		@ frame_needed = 0, uses_anonymous_args = 0
 846              		@ link register save eliminated.
 663:../../applications/murata-dualstack-example-ns/src/murata-dualstack-example-ns.c ****   #if LOW_POWER
 664:../../applications/murata-dualstack-example-ns/src/murata-dualstack-example-ns.c ****     HAL_PWR_EnterSLEEPMode(PWR_MAINREGULATOR_ON, PWR_SLEEPENTRY_WFE);
 665:../../applications/murata-dualstack-example-ns/src/murata-dualstack-example-ns.c ****   #endif
 666:../../applications/murata-dualstack-example-ns/src/murata-dualstack-example-ns.c **** }
 847              		.loc 1 666 1 view .LVU188
 848 0000 7047     		bx	lr
 849              		.cfi_endproc
 850              	.LFE143:
 852              		.section	.text.printWelcome,"ax",%progbits
 853              		.align	1
 854              		.global	printWelcome
 855              		.syntax unified
 856              		.thumb
 857              		.thumb_func
 858              		.fpu fpv4-sp-d16
 860              	printWelcome:
 861              	.LFB144:
 667:../../applications/murata-dualstack-example-ns/src/murata-dualstack-example-ns.c **** 
 668:../../applications/murata-dualstack-example-ns/src/murata-dualstack-example-ns.c **** void printWelcome(void)
 669:../../applications/murata-dualstack-example-ns/src/murata-dualstack-example-ns.c **** {
 862              		.loc 1 669 1 view -0
 863              		.cfi_startproc
 864              		@ args = 0, pretend = 0, frame = 8
 865              		@ frame_needed = 0, uses_anonymous_args = 0
 866 0000 30B5     		push	{r4, r5, lr}
 867              	.LCFI22:
 868              		.cfi_def_cfa_offset 12
 869              		.cfi_offset 4, -12
 870              		.cfi_offset 5, -8
 871              		.cfi_offset 14, -4
 872 0002 83B0     		sub	sp, sp, #12
 873              	.LCFI23:
 874              		.cfi_def_cfa_offset 24
 670:../../applications/murata-dualstack-example-ns/src/murata-dualstack-example-ns.c ****   printf("\r\n");
ARM GAS  C:\Users\yvesk\AppData\Local\Temp\cc6ysVum.s 			page 28


 875              		.loc 1 670 3 view .LVU190
 876 0004 1A4C     		ldr	r4, .L57
 877 0006 2046     		mov	r0, r4
 878 0008 FFF7FEFF 		bl	puts
 879              	.LVL67:
 671:../../applications/murata-dualstack-example-ns/src/murata-dualstack-example-ns.c ****   printf("*****************************************\r\n");
 880              		.loc 1 671 3 view .LVU191
 881 000c 194D     		ldr	r5, .L57+4
 882 000e 2846     		mov	r0, r5
 883 0010 FFF7FEFF 		bl	puts
 884              	.LVL68:
 672:../../applications/murata-dualstack-example-ns/src/murata-dualstack-example-ns.c ****   printf("DE SMARTHALTER DELUXE\r\n");
 885              		.loc 1 672 3 view .LVU192
 886 0014 1848     		ldr	r0, .L57+8
 887 0016 FFF7FEFF 		bl	puts
 888              	.LVL69:
 673:../../applications/murata-dualstack-example-ns/src/murata-dualstack-example-ns.c ****   printf("*****************************************\r\n");
 889              		.loc 1 673 3 view .LVU193
 890 001a 2846     		mov	r0, r5
 891 001c FFF7FEFF 		bl	puts
 892              	.LVL70:
 674:../../applications/murata-dualstack-example-ns/src/murata-dualstack-example-ns.c ****   printf("\r\n");
 893              		.loc 1 674 3 view .LVU194
 894 0020 2046     		mov	r0, r4
 895 0022 FFF7FEFF 		bl	puts
 896              	.LVL71:
 675:../../applications/murata-dualstack-example-ns/src/murata-dualstack-example-ns.c ****   char UIDString[sizeof(short_UID)];
 897              		.loc 1 675 3 view .LVU195
 676:../../applications/murata-dualstack-example-ns/src/murata-dualstack-example-ns.c ****   memcpy(UIDString, &short_UID, sizeof(short_UID));
 898              		.loc 1 676 3 view .LVU196
 899 0026 154B     		ldr	r3, .L57+12
 900 0028 6C46     		mov	r4, sp
 901 002a 93E80300 		ldm	r3, {r0, r1}
 902 002e 84E80300 		stm	r4, {r0, r1}
 677:../../applications/murata-dualstack-example-ns/src/murata-dualstack-example-ns.c ****   printf("octa ID: ");
 903              		.loc 1 677 3 view .LVU197
 904 0032 1348     		ldr	r0, .L57+16
 905 0034 FFF7FEFF 		bl	printf
 906              	.LVL72:
 678:../../applications/murata-dualstack-example-ns/src/murata-dualstack-example-ns.c ****   for (const char* p = UIDString; *p; ++p)
 907              		.loc 1 678 3 view .LVU198
 908              	.LBB10:
 909              		.loc 1 678 8 view .LVU199
 910              	.L53:
 911              		.loc 1 678 35 is_stmt 0 discriminator 1 view .LVU200
 912 0038 2178     		ldrb	r1, [r4]	@ zero_extendqisi2
 913              		.loc 1 678 3 discriminator 1 view .LVU201
 914 003a 21B1     		cbz	r1, .L56
 679:../../applications/murata-dualstack-example-ns/src/murata-dualstack-example-ns.c ****     {
 680:../../applications/murata-dualstack-example-ns/src/murata-dualstack-example-ns.c ****         printf("%02x", *p);
 915              		.loc 1 680 9 is_stmt 1 discriminator 3 view .LVU202
 916 003c 1148     		ldr	r0, .L57+20
 917 003e FFF7FEFF 		bl	printf
 918              	.LVL73:
 678:../../applications/murata-dualstack-example-ns/src/murata-dualstack-example-ns.c ****   for (const char* p = UIDString; *p; ++p)
 919              		.loc 1 678 39 is_stmt 0 discriminator 3 view .LVU203
 920 0042 0134     		adds	r4, r4, #1
ARM GAS  C:\Users\yvesk\AppData\Local\Temp\cc6ysVum.s 			page 29


 921              	.LVL74:
 678:../../applications/murata-dualstack-example-ns/src/murata-dualstack-example-ns.c ****   for (const char* p = UIDString; *p; ++p)
 922              		.loc 1 678 39 discriminator 3 view .LVU204
 923 0044 F8E7     		b	.L53
 924              	.L56:
 678:../../applications/murata-dualstack-example-ns/src/murata-dualstack-example-ns.c ****   for (const char* p = UIDString; *p; ++p)
 925              		.loc 1 678 39 discriminator 3 view .LVU205
 926              	.LBE10:
 681:../../applications/murata-dualstack-example-ns/src/murata-dualstack-example-ns.c ****     }
 682:../../applications/murata-dualstack-example-ns/src/murata-dualstack-example-ns.c ****   printf("\r\n\r\n");
 927              		.loc 1 682 3 is_stmt 1 view .LVU206
 928 0046 1048     		ldr	r0, .L57+24
 929 0048 FFF7FEFF 		bl	puts
 930              	.LVL75:
 683:../../applications/murata-dualstack-example-ns/src/murata-dualstack-example-ns.c ****   HAL_GPIO_TogglePin(OCTA_BLED_GPIO_Port, OCTA_BLED_Pin);
 931              		.loc 1 683 3 view .LVU207
 932 004c 0F4C     		ldr	r4, .L57+28
 933              	.LVL76:
 934              		.loc 1 683 3 is_stmt 0 view .LVU208
 935 004e 4FF40041 		mov	r1, #32768
 936 0052 2046     		mov	r0, r4
 937 0054 FFF7FEFF 		bl	HAL_GPIO_TogglePin
 938              	.LVL77:
 684:../../applications/murata-dualstack-example-ns/src/murata-dualstack-example-ns.c ****   HAL_Delay(2000);
 939              		.loc 1 684 3 is_stmt 1 view .LVU209
 940 0058 4FF4FA60 		mov	r0, #2000
 941 005c FFF7FEFF 		bl	HAL_Delay
 942              	.LVL78:
 685:../../applications/murata-dualstack-example-ns/src/murata-dualstack-example-ns.c ****   HAL_GPIO_TogglePin(OCTA_BLED_GPIO_Port, OCTA_BLED_Pin);
 943              		.loc 1 685 3 view .LVU210
 944 0060 4FF40041 		mov	r1, #32768
 945 0064 2046     		mov	r0, r4
 946 0066 FFF7FEFF 		bl	HAL_GPIO_TogglePin
 947              	.LVL79:
 686:../../applications/murata-dualstack-example-ns/src/murata-dualstack-example-ns.c **** }
 948              		.loc 1 686 1 is_stmt 0 view .LVU211
 949 006a 03B0     		add	sp, sp, #12
 950              	.LCFI24:
 951              		.cfi_def_cfa_offset 12
 952              		@ sp needed
 953 006c 30BD     		pop	{r4, r5, pc}
 954              	.L58:
 955 006e 00BF     		.align	2
 956              	.L57:
 957 0070 00000000 		.word	.LC3
 958 0074 00000000 		.word	.LC8
 959 0078 2C000000 		.word	.LC9
 960 007c 00000000 		.word	short_UID
 961 0080 44000000 		.word	.LC10
 962 0084 50000000 		.word	.LC11
 963 0088 58000000 		.word	.LC12
 964 008c 000C0048 		.word	1207962624
 965              		.cfi_endproc
 966              	.LFE144:
 968              		.section	.text.quickBlink,"ax",%progbits
 969              		.align	1
 970              		.global	quickBlink
ARM GAS  C:\Users\yvesk\AppData\Local\Temp\cc6ysVum.s 			page 30


 971              		.syntax unified
 972              		.thumb
 973              		.thumb_func
 974              		.fpu fpv4-sp-d16
 976              	quickBlink:
 977              	.LFB145:
 687:../../applications/murata-dualstack-example-ns/src/murata-dualstack-example-ns.c **** 
 688:../../applications/murata-dualstack-example-ns/src/murata-dualstack-example-ns.c **** void quickBlink(void){
 978              		.loc 1 688 22 is_stmt 1 view -0
 979              		.cfi_startproc
 980              		@ args = 0, pretend = 0, frame = 0
 981              		@ frame_needed = 0, uses_anonymous_args = 0
 982 0000 10B5     		push	{r4, lr}
 983              	.LCFI25:
 984              		.cfi_def_cfa_offset 8
 985              		.cfi_offset 4, -8
 986              		.cfi_offset 14, -4
 689:../../applications/murata-dualstack-example-ns/src/murata-dualstack-example-ns.c ****   HAL_GPIO_TogglePin(OCTA_RLED_GPIO_Port, OCTA_RLED_Pin);
 987              		.loc 1 689 3 view .LVU213
 988 0002 084C     		ldr	r4, .L61
 989 0004 4FF48041 		mov	r1, #16384
 990 0008 2046     		mov	r0, r4
 991 000a FFF7FEFF 		bl	HAL_GPIO_TogglePin
 992              	.LVL80:
 690:../../applications/murata-dualstack-example-ns/src/murata-dualstack-example-ns.c ****     HAL_Delay(500);
 993              		.loc 1 690 5 view .LVU214
 994 000e 4FF4FA70 		mov	r0, #500
 995 0012 FFF7FEFF 		bl	HAL_Delay
 996              	.LVL81:
 691:../../applications/murata-dualstack-example-ns/src/murata-dualstack-example-ns.c ****     HAL_GPIO_TogglePin(OCTA_RLED_GPIO_Port, OCTA_RLED_Pin);
 997              		.loc 1 691 5 view .LVU215
 998 0016 4FF48041 		mov	r1, #16384
 999 001a 2046     		mov	r0, r4
 1000 001c FFF7FEFF 		bl	HAL_GPIO_TogglePin
 1001              	.LVL82:
 692:../../applications/murata-dualstack-example-ns/src/murata-dualstack-example-ns.c **** }
 1002              		.loc 1 692 1 is_stmt 0 view .LVU216
 1003 0020 10BD     		pop	{r4, pc}
 1004              	.L62:
 1005 0022 00BF     		.align	2
 1006              	.L61:
 1007 0024 000C0048 		.word	1207962624
 1008              		.cfi_endproc
 1009              	.LFE145:
 1011              		.section	.text.send_message,"ax",%progbits
 1012              		.align	1
 1013              		.global	send_message
 1014              		.syntax unified
 1015              		.thumb
 1016              		.thumb_func
 1017              		.fpu fpv4-sp-d16
 1019              	send_message:
 1020              	.LVL83:
 1021              	.LFB136:
 492:../../applications/murata-dualstack-example-ns/src/murata-dualstack-example-ns.c **** 
 1022              		.loc 1 492 33 is_stmt 1 view -0
 1023              		.cfi_startproc
ARM GAS  C:\Users\yvesk\AppData\Local\Temp\cc6ysVum.s 			page 31


 1024              		@ args = 0, pretend = 0, frame = 0
 1025              		@ frame_needed = 0, uses_anonymous_args = 0
 492:../../applications/murata-dualstack-example-ns/src/murata-dualstack-example-ns.c **** 
 1026              		.loc 1 492 33 is_stmt 0 view .LVU218
 1027 0000 08B5     		push	{r3, lr}
 1028              	.LCFI26:
 1029              		.cfi_def_cfa_offset 8
 1030              		.cfi_offset 3, -8
 1031              		.cfi_offset 14, -4
 494:../../applications/murata-dualstack-example-ns/src/murata-dualstack-example-ns.c ****   /*  //messageMode = 1 ; 
 1032              		.loc 1 494 4 is_stmt 1 view .LVU219
 1033 0002 FFF7FEFF 		bl	quickBlink
 1034              	.LVL84:
 521:../../applications/murata-dualstack-example-ns/src/murata-dualstack-example-ns.c **** 
 1035              		.loc 1 521 1 is_stmt 0 view .LVU220
 1036 0006 08BD     		pop	{r3, pc}
 1037              		.cfi_endproc
 1038              	.LFE136:
 1040              		.section	.text.main,"ax",%progbits
 1041              		.align	1
 1042              		.global	main
 1043              		.syntax unified
 1044              		.thumb
 1045              		.thumb_func
 1046              		.fpu fpv4-sp-d16
 1048              	main:
 1049              	.LFB134:
 200:../../applications/murata-dualstack-example-ns/src/murata-dualstack-example-ns.c ****   /* USER CODE BEGIN 1 */
 1050              		.loc 1 200 1 is_stmt 1 view -0
 1051              		.cfi_startproc
 1052              		@ args = 0, pretend = 0, frame = 0
 1053              		@ frame_needed = 0, uses_anonymous_args = 0
 1054 0000 38B5     		push	{r3, r4, r5, lr}
 1055              	.LCFI27:
 1056              		.cfi_def_cfa_offset 16
 1057              		.cfi_offset 3, -16
 1058              		.cfi_offset 4, -12
 1059              		.cfi_offset 5, -8
 1060              		.cfi_offset 14, -4
 208:../../applications/murata-dualstack-example-ns/src/murata-dualstack-example-ns.c **** 
 1061              		.loc 1 208 3 view .LVU222
 1062 0002 FFF7FEFF 		bl	HAL_Init
 1063              	.LVL85:
 215:../../applications/murata-dualstack-example-ns/src/murata-dualstack-example-ns.c **** 
 1064              		.loc 1 215 3 view .LVU223
 1065 0006 FFF7FEFF 		bl	SystemClock_Config
 1066              	.LVL86:
 222:../../applications/murata-dualstack-example-ns/src/murata-dualstack-example-ns.c **** 
 1067              		.loc 1 222 3 view .LVU224
 1068 000a FFF7FEFF 		bl	Initialize_Platform
 1069              	.LVL87:
 225:../../applications/murata-dualstack-example-ns/src/murata-dualstack-example-ns.c ****   InitializeTimer3(); 
 1070              		.loc 1 225 3 view .LVU225
 1071 000e FFF7FEFF 		bl	InitializeTimer2
 1072              	.LVL88:
 226:../../applications/murata-dualstack-example-ns/src/murata-dualstack-example-ns.c **** 
 1073              		.loc 1 226 3 view .LVU226
ARM GAS  C:\Users\yvesk\AppData\Local\Temp\cc6ysVum.s 			page 32


 1074 0012 FFF7FEFF 		bl	InitializeTimer3
 1075              	.LVL89:
 231:../../applications/murata-dualstack-example-ns/src/murata-dualstack-example-ns.c **** 
 1076              		.loc 1 231 3 view .LVU227
 231:../../applications/murata-dualstack-example-ns/src/murata-dualstack-example-ns.c **** 
 1077              		.loc 1 231 15 is_stmt 0 view .LVU228
 1078 0016 FFF7FEFF 		bl	get_UID
 1079              	.LVL90:
 231:../../applications/murata-dualstack-example-ns/src/murata-dualstack-example-ns.c **** 
 1080              		.loc 1 231 13 view .LVU229
 1081 001a 9A4C     		ldr	r4, .L102
 1082 001c C4E90001 		strd	r0, [r4]
 234:../../applications/murata-dualstack-example-ns/src/murata-dualstack-example-ns.c ****   setI2CInterface_SHT31(&common_I2C);
 1083              		.loc 1 234 3 is_stmt 1 view .LVU230
 1084 0020 994D     		ldr	r5, .L102+4
 1085 0022 2846     		mov	r0, r5
 1086 0024 FFF7FEFF 		bl	LSM303AGR_setI2CInterface
 1087              	.LVL91:
 235:../../applications/murata-dualstack-example-ns/src/murata-dualstack-example-ns.c ****   SHT31_begin(); 
 1088              		.loc 1 235 3 view .LVU231
 1089 0028 2846     		mov	r0, r5
 1090 002a FFF7FEFF 		bl	setI2CInterface_SHT31
 1091              	.LVL92:
 236:../../applications/murata-dualstack-example-ns/src/murata-dualstack-example-ns.c ****   LSM303AGR_initDefault();
 1092              		.loc 1 236 3 view .LVU232
 1093 002e FFF7FEFF 		bl	SHT31_begin
 1094              	.LVL93:
 237:../../applications/murata-dualstack-example-ns/src/murata-dualstack-example-ns.c **** 
 1095              		.loc 1 237 3 view .LVU233
 1096 0032 FFF7FEFF 		bl	LSM303AGR_initDefault
 1097              	.LVL94:
 240:../../applications/murata-dualstack-example-ns/src/murata-dualstack-example-ns.c **** 
 1098              		.loc 1 240 3 view .LVU234
 1099 0036 0222     		movs	r2, #2
 1100 0038 9449     		ldr	r1, .L102+8
 1101 003a 9548     		ldr	r0, .L102+12
 1102 003c FFF7FEFF 		bl	HAL_UART_Receive_IT
 1103              	.LVL95:
 243:../../applications/murata-dualstack-example-ns/src/murata-dualstack-example-ns.c ****   HAL_NVIC_EnableIRQ(EXTI1_IRQn);
 1104              		.loc 1 243 3 view .LVU235
 1105 0040 0022     		movs	r2, #0
 1106 0042 1146     		mov	r1, r2
 1107 0044 0720     		movs	r0, #7
 1108 0046 FFF7FEFF 		bl	HAL_NVIC_SetPriority
 1109              	.LVL96:
 244:../../applications/murata-dualstack-example-ns/src/murata-dualstack-example-ns.c **** 
 1110              		.loc 1 244 3 view .LVU236
 1111 004a 0720     		movs	r0, #7
 1112 004c FFF7FEFF 		bl	HAL_NVIC_EnableIRQ
 1113              	.LVL97:
 252:../../applications/murata-dualstack-example-ns/src/murata-dualstack-example-ns.c ****   
 1114              		.loc 1 252 3 view .LVU237
 1115 0050 FFF7FEFF 		bl	printWelcome
 1116              	.LVL98:
 255:../../applications/murata-dualstack-example-ns/src/murata-dualstack-example-ns.c **** 
 1117              		.loc 1 255 3 view .LVU238
 255:../../applications/murata-dualstack-example-ns/src/murata-dualstack-example-ns.c **** 
ARM GAS  C:\Users\yvesk\AppData\Local\Temp\cc6ysVum.s 			page 33


 1118              		.loc 1 255 17 is_stmt 0 view .LVU239
 1119 0054 0022     		movs	r2, #0
 1120 0056 D4E90001 		ldrd	r0, [r4]
 1121 005a FFF7FEFF 		bl	Murata_Initialize
 1122              	.LVL99:
 255:../../applications/murata-dualstack-example-ns/src/murata-dualstack-example-ns.c **** 
 1123              		.loc 1 255 15 view .LVU240
 1124 005e 8D4B     		ldr	r3, .L102+16
 1125 0060 1870     		strb	r0, [r3]
 257:../../applications/murata-dualstack-example-ns/src/murata-dualstack-example-ns.c ****   {
 1126              		.loc 1 257 3 is_stmt 1 view .LVU241
 257:../../applications/murata-dualstack-example-ns/src/murata-dualstack-example-ns.c ****   {
 1127              		.loc 1 257 6 is_stmt 0 view .LVU242
 1128 0062 30B9     		cbnz	r0, .L88
 1129              	.L66:
 264:../../applications/murata-dualstack-example-ns/src/murata-dualstack-example-ns.c **** quickBlink(); 
 1130              		.loc 1 264 1 is_stmt 1 view .LVU243
 1131 0064 4FF4FA60 		mov	r0, #2000
 1132 0068 FFF7FEFF 		bl	HAL_Delay
 1133              	.LVL100:
 265:../../applications/murata-dualstack-example-ns/src/murata-dualstack-example-ns.c **** 
 1134              		.loc 1 265 1 view .LVU244
 1135 006c FFF7FEFF 		bl	quickBlink
 1136              	.LVL101:
 268:../../applications/murata-dualstack-example-ns/src/murata-dualstack-example-ns.c ****   uint8_t use_lora = 1;
 1137              		.loc 1 268 3 view .LVU245
 269:../../applications/murata-dualstack-example-ns/src/murata-dualstack-example-ns.c ****   uint8_t timerValue = 0; 
 1138              		.loc 1 269 3 view .LVU246
 270:../../applications/murata-dualstack-example-ns/src/murata-dualstack-example-ns.c ****   /* USER CODE BEGIN WHILE */
 1139              		.loc 1 270 3 view .LVU247
 270:../../applications/murata-dualstack-example-ns/src/murata-dualstack-example-ns.c ****   /* USER CODE BEGIN WHILE */
 1140              		.loc 1 270 3 is_stmt 0 view .LVU248
 1141 0070 7CE0     		b	.L67
 1142              	.LVL102:
 1143              	.L88:
 259:../../applications/murata-dualstack-example-ns/src/murata-dualstack-example-ns.c ****   }
 1144              		.loc 1 259 5 is_stmt 1 view .LVU249
 1145 0072 8948     		ldr	r0, .L102+20
 1146 0074 FFF7FEFF 		bl	puts
 1147              	.LVL103:
 1148 0078 F4E7     		b	.L66
 1149              	.LVL104:
 1150              	.L100:
 287:../../applications/murata-dualstack-example-ns/src/murata-dualstack-example-ns.c ****         }
 1151              		.loc 1 287 11 view .LVU250
 287:../../applications/murata-dualstack-example-ns/src/murata-dualstack-example-ns.c ****         }
 1152              		.loc 1 287 32 is_stmt 0 view .LVU251
 1153 007a FFF7FEFF 		bl	Murata_process_fifo
 1154              	.LVL105:
 287:../../applications/murata-dualstack-example-ns/src/murata-dualstack-example-ns.c ****         }
 1155              		.loc 1 287 31 view .LVU252
 1156 007e B0FA80F0 		clz	r0, r0
 1157 0082 4009     		lsrs	r0, r0, #5
 287:../../applications/murata-dualstack-example-ns/src/murata-dualstack-example-ns.c ****         }
 1158              		.loc 1 287 29 view .LVU253
 1159 0084 854B     		ldr	r3, .L102+24
 1160 0086 1870     		strb	r0, [r3]
ARM GAS  C:\Users\yvesk\AppData\Local\Temp\cc6ysVum.s 			page 34


 1161 0088 7CE0     		b	.L68
 1162              	.L99:
 299:../../applications/murata-dualstack-example-ns/src/murata-dualstack-example-ns.c ****     
 1163              		.loc 1 299 6 is_stmt 1 view .LVU254
 1164 008a 0020     		movs	r0, #0
 1165 008c FFF7FEFF 		bl	IWDG_feed
 1166              	.LVL106:
 308:../../applications/murata-dualstack-example-ns/src/murata-dualstack-example-ns.c ****     
 1167              		.loc 1 308 5 view .LVU255
 308:../../applications/murata-dualstack-example-ns/src/murata-dualstack-example-ns.c ****     
 1168              		.loc 1 308 26 is_stmt 0 view .LVU256
 1169 0090 834B     		ldr	r3, .L102+28
 1170 0092 1B78     		ldrb	r3, [r3]	@ zero_extendqisi2
 308:../../applications/murata-dualstack-example-ns/src/murata-dualstack-example-ns.c ****     
 1171              		.loc 1 308 7 view .LVU257
 1172 0094 2BB3     		cbz	r3, .L71
 310:../../applications/murata-dualstack-example-ns/src/murata-dualstack-example-ns.c ****         // send dash7 message with all info when user starts repping
 1173              		.loc 1 310 7 is_stmt 1 view .LVU258
 310:../../applications/murata-dualstack-example-ns/src/murata-dualstack-example-ns.c ****         // send dash7 message with all info when user starts repping
 1174              		.loc 1 310 17 is_stmt 0 view .LVU259
 1175 0096 834B     		ldr	r3, .L102+32
 1176 0098 1B78     		ldrb	r3, [r3]	@ zero_extendqisi2
 310:../../applications/murata-dualstack-example-ns/src/murata-dualstack-example-ns.c ****         // send dash7 message with all info when user starts repping
 1177              		.loc 1 310 9 view .LVU260
 1178 009a 9BB1     		cbz	r3, .L72
 312:../../applications/murata-dualstack-example-ns/src/murata-dualstack-example-ns.c ****         printf("Started Repping\r\n");
 1179              		.loc 1 312 9 is_stmt 1 view .LVU261
 1180 009c FFF7FEFF 		bl	LSM303AGR_initDouble
 1181              	.LVL107:
 313:../../applications/murata-dualstack-example-ns/src/murata-dualstack-example-ns.c ****         printf("LSM in double click mode \r\n");
 1182              		.loc 1 313 9 view .LVU262
 1183 00a0 8148     		ldr	r0, .L102+36
 1184 00a2 FFF7FEFF 		bl	puts
 1185              	.LVL108:
 314:../../applications/murata-dualstack-example-ns/src/murata-dualstack-example-ns.c ****         if (murata_init) {
 1186              		.loc 1 314 9 view .LVU263
 1187 00a6 8148     		ldr	r0, .L102+40
 1188 00a8 FFF7FEFF 		bl	puts
 1189              	.LVL109:
 315:../../applications/murata-dualstack-example-ns/src/murata-dualstack-example-ns.c ****           printf("Sending D7 Message with BLE info + temp + hum\r\n");
 1190              		.loc 1 315 9 view .LVU264
 315:../../applications/murata-dualstack-example-ns/src/murata-dualstack-example-ns.c ****           printf("Sending D7 Message with BLE info + temp + hum\r\n");
 1191              		.loc 1 315 13 is_stmt 0 view .LVU265
 1192 00ac 794B     		ldr	r3, .L102+16
 1193 00ae 1B78     		ldrb	r3, [r3]	@ zero_extendqisi2
 315:../../applications/murata-dualstack-example-ns/src/murata-dualstack-example-ns.c ****           printf("Sending D7 Message with BLE info + temp + hum\r\n");
 1194              		.loc 1 315 12 view .LVU266
 1195 00b0 A3B1     		cbz	r3, .L73
 1196              	.LBB11:
 316:../../applications/murata-dualstack-example-ns/src/murata-dualstack-example-ns.c ****           temp_hum_measurement();
 1197              		.loc 1 316 11 is_stmt 1 view .LVU267
 1198 00b2 7F48     		ldr	r0, .L102+44
 1199 00b4 FFF7FEFF 		bl	puts
 1200              	.LVL110:
 317:../../applications/murata-dualstack-example-ns/src/murata-dualstack-example-ns.c ****           send_message(1);
 1201              		.loc 1 317 11 view .LVU268
 1202 00b8 FFF7FEFF 		bl	temp_hum_measurement
ARM GAS  C:\Users\yvesk\AppData\Local\Temp\cc6ysVum.s 			page 35


 1203              	.LVL111:
 318:../../applications/murata-dualstack-example-ns/src/murata-dualstack-example-ns.c ****           //LoRaWAN_send(NULL);
 1204              		.loc 1 318 11 view .LVU269
 1205 00bc 0120     		movs	r0, #1
 1206 00be FFF7FEFF 		bl	send_message
 1207              	.LVL112:
 1208 00c2 0BE0     		b	.L73
 1209              	.L72:
 1210              	.LBE11:
 326:../../applications/murata-dualstack-example-ns/src/murata-dualstack-example-ns.c ****         printf("Stopped Repping\nLSM in default mode \r\n\n");
 1211              		.loc 1 326 9 view .LVU270
 1212 00c4 FFF7FEFF 		bl	LSM303AGR_initDefault
 1213              	.LVL113:
 327:../../applications/murata-dualstack-example-ns/src/murata-dualstack-example-ns.c ****         if (murata_init) {
 1214              		.loc 1 327 9 view .LVU271
 1215 00c8 7A48     		ldr	r0, .L102+48
 1216 00ca FFF7FEFF 		bl	puts
 1217              	.LVL114:
 328:../../applications/murata-dualstack-example-ns/src/murata-dualstack-example-ns.c ****           printf("Sending D7 Message with BLE info + temp + hum + amount of reps\r\n");
 1218              		.loc 1 328 9 view .LVU272
 328:../../applications/murata-dualstack-example-ns/src/murata-dualstack-example-ns.c ****           printf("Sending D7 Message with BLE info + temp + hum + amount of reps\r\n");
 1219              		.loc 1 328 13 is_stmt 0 view .LVU273
 1220 00ce 714B     		ldr	r3, .L102+16
 1221 00d0 1B78     		ldrb	r3, [r3]	@ zero_extendqisi2
 328:../../applications/murata-dualstack-example-ns/src/murata-dualstack-example-ns.c ****           printf("Sending D7 Message with BLE info + temp + hum + amount of reps\r\n");
 1222              		.loc 1 328 12 view .LVU274
 1223 00d2 002B     		cmp	r3, #0
 1224 00d4 62D1     		bne	.L89
 1225              	.L74:
 339:../../applications/murata-dualstack-example-ns/src/murata-dualstack-example-ns.c ****       }
 1226              		.loc 1 339 9 is_stmt 1 view .LVU275
 339:../../applications/murata-dualstack-example-ns/src/murata-dualstack-example-ns.c ****       }
 1227              		.loc 1 339 20 is_stmt 0 view .LVU276
 1228 00d6 784B     		ldr	r3, .L102+52
 1229 00d8 0022     		movs	r2, #0
 1230 00da 1A70     		strb	r2, [r3]
 1231              	.L73:
 341:../../applications/murata-dualstack-example-ns/src/murata-dualstack-example-ns.c **** 
 1232              		.loc 1 341 7 is_stmt 1 view .LVU277
 341:../../applications/murata-dualstack-example-ns/src/murata-dualstack-example-ns.c **** 
 1233              		.loc 1 341 25 is_stmt 0 view .LVU278
 1234 00dc 704B     		ldr	r3, .L102+28
 1235 00de 0022     		movs	r2, #0
 1236 00e0 1A70     		strb	r2, [r3]
 1237              	.L71:
 350:../../applications/murata-dualstack-example-ns/src/murata-dualstack-example-ns.c ****       if (repMode==1) {
 1238              		.loc 1 350 5 is_stmt 1 view .LVU279
 350:../../applications/murata-dualstack-example-ns/src/murata-dualstack-example-ns.c ****       if (repMode==1) {
 1239              		.loc 1 350 16 is_stmt 0 view .LVU280
 1240 00e2 764B     		ldr	r3, .L102+56
 1241 00e4 1B78     		ldrb	r3, [r3]	@ zero_extendqisi2
 350:../../applications/murata-dualstack-example-ns/src/murata-dualstack-example-ns.c ****       if (repMode==1) {
 1242              		.loc 1 350 8 view .LVU281
 1243 00e6 7BB1     		cbz	r3, .L75
 351:../../applications/murata-dualstack-example-ns/src/murata-dualstack-example-ns.c ****       // Request to enter SLEEP mode
 1244              		.loc 1 351 7 is_stmt 1 view .LVU282
 351:../../applications/murata-dualstack-example-ns/src/murata-dualstack-example-ns.c ****       // Request to enter SLEEP mode
ARM GAS  C:\Users\yvesk\AppData\Local\Temp\cc6ysVum.s 			page 36


 1245              		.loc 1 351 18 is_stmt 0 view .LVU283
 1246 00e8 6E4B     		ldr	r3, .L102+32
 1247 00ea 1B78     		ldrb	r3, [r3]	@ zero_extendqisi2
 351:../../applications/murata-dualstack-example-ns/src/murata-dualstack-example-ns.c ****       // Request to enter SLEEP mode
 1248              		.loc 1 351 10 view .LVU284
 1249 00ec 002B     		cmp	r3, #0
 1250 00ee 5ED1     		bne	.L90
 1251              	.L76:
 360:../../applications/murata-dualstack-example-ns/src/murata-dualstack-example-ns.c ****  
 1252              		.loc 1 360 9 is_stmt 1 view .LVU285
 1253 00f0 734C     		ldr	r4, .L102+60
 1254 00f2 2046     		mov	r0, r4
 1255 00f4 FFF7FEFF 		bl	HAL_TIM_Base_Stop_IT
 1256              	.LVL115:
 363:../../applications/murata-dualstack-example-ns/src/murata-dualstack-example-ns.c ****  
 1257              		.loc 1 363 9 view .LVU286
 1258 00f8 2368     		ldr	r3, [r4]
 1259 00fa 0025     		movs	r5, #0
 1260 00fc 5D62     		str	r5, [r3, #36]
 366:../../applications/murata-dualstack-example-ns/src/murata-dualstack-example-ns.c **** 
 1261              		.loc 1 366 9 view .LVU287
 1262 00fe 2046     		mov	r0, r4
 1263 0100 FFF7FEFF 		bl	HAL_TIM_Base_Start_IT
 1264              	.LVL116:
 368:../../applications/murata-dualstack-example-ns/src/murata-dualstack-example-ns.c ****     }  
 1265              		.loc 1 368 11 view .LVU288
 368:../../applications/murata-dualstack-example-ns/src/murata-dualstack-example-ns.c ****     }  
 1266              		.loc 1 368 18 is_stmt 0 view .LVU289
 1267 0104 6D4B     		ldr	r3, .L102+56
 1268 0106 1D70     		strb	r5, [r3]
 1269              	.L75:
 374:../../applications/murata-dualstack-example-ns/src/murata-dualstack-example-ns.c ****       printf("Localisation timer elapsed\r\n");
 1270              		.loc 1 374 5 is_stmt 1 view .LVU290
 374:../../applications/murata-dualstack-example-ns/src/murata-dualstack-example-ns.c ****       printf("Localisation timer elapsed\r\n");
 1271              		.loc 1 374 18 is_stmt 0 view .LVU291
 1272 0108 6E4B     		ldr	r3, .L102+64
 1273 010a 1B78     		ldrb	r3, [r3]	@ zero_extendqisi2
 374:../../applications/murata-dualstack-example-ns/src/murata-dualstack-example-ns.c ****       printf("Localisation timer elapsed\r\n");
 1274              		.loc 1 374 7 view .LVU292
 1275 010c 002B     		cmp	r3, #0
 1276 010e 57D1     		bne	.L91
 1277              	.L77:
 390:../../applications/murata-dualstack-example-ns/src/murata-dualstack-example-ns.c ****       if (murata_init) {
 1278              		.loc 1 390 5 is_stmt 1 view .LVU293
 390:../../applications/murata-dualstack-example-ns/src/murata-dualstack-example-ns.c ****       if (murata_init) {
 1279              		.loc 1 390 18 is_stmt 0 view .LVU294
 1280 0110 6D4B     		ldr	r3, .L102+68
 1281 0112 1B78     		ldrb	r3, [r3]	@ zero_extendqisi2
 390:../../applications/murata-dualstack-example-ns/src/murata-dualstack-example-ns.c ****       if (murata_init) {
 1282              		.loc 1 390 7 view .LVU295
 1283 0114 33B1     		cbz	r3, .L79
 391:../../applications/murata-dualstack-example-ns/src/murata-dualstack-example-ns.c ****         printf("Inactive timer expired, sending last message\r\n\r\n");
 1284              		.loc 1 391 7 is_stmt 1 view .LVU296
 391:../../applications/murata-dualstack-example-ns/src/murata-dualstack-example-ns.c ****         printf("Inactive timer expired, sending last message\r\n\r\n");
 1285              		.loc 1 391 11 is_stmt 0 view .LVU297
 1286 0116 5F4B     		ldr	r3, .L102+16
 1287 0118 1B78     		ldrb	r3, [r3]	@ zero_extendqisi2
ARM GAS  C:\Users\yvesk\AppData\Local\Temp\cc6ysVum.s 			page 37


 391:../../applications/murata-dualstack-example-ns/src/murata-dualstack-example-ns.c ****         printf("Inactive timer expired, sending last message\r\n\r\n");
 1288              		.loc 1 391 10 view .LVU298
 1289 011a 002B     		cmp	r3, #0
 1290 011c 66D1     		bne	.L92
 1291              	.L80:
 401:../../applications/murata-dualstack-example-ns/src/murata-dualstack-example-ns.c ****     } 
 1292              		.loc 1 401 6 is_stmt 1 view .LVU299
 401:../../applications/murata-dualstack-example-ns/src/murata-dualstack-example-ns.c ****     } 
 1293              		.loc 1 401 16 is_stmt 0 view .LVU300
 1294 011e 6A4B     		ldr	r3, .L102+68
 1295 0120 0022     		movs	r2, #0
 1296 0122 1A70     		strb	r2, [r3]
 1297              	.L79:
 406:../../applications/murata-dualstack-example-ns/src/murata-dualstack-example-ns.c ****       if (failureCounter > 0) {
 1298              		.loc 1 406 5 is_stmt 1 view .LVU301
 406:../../applications/murata-dualstack-example-ns/src/murata-dualstack-example-ns.c ****       if (failureCounter > 0) {
 1299              		.loc 1 406 9 is_stmt 0 view .LVU302
 1300 0124 694B     		ldr	r3, .L102+72
 1301 0126 1B78     		ldrb	r3, [r3]	@ zero_extendqisi2
 406:../../applications/murata-dualstack-example-ns/src/murata-dualstack-example-ns.c ****       if (failureCounter > 0) {
 1302              		.loc 1 406 8 view .LVU303
 1303 0128 4BB1     		cbz	r3, .L81
 406:../../applications/murata-dualstack-example-ns/src/murata-dualstack-example-ns.c ****       if (failureCounter > 0) {
 1304              		.loc 1 406 19 discriminator 1 view .LVU304
 1305 012a 694B     		ldr	r3, .L102+76
 1306 012c 1B78     		ldrb	r3, [r3]	@ zero_extendqisi2
 406:../../applications/murata-dualstack-example-ns/src/murata-dualstack-example-ns.c ****       if (failureCounter > 0) {
 1307              		.loc 1 406 16 discriminator 1 view .LVU305
 1308 012e 33B9     		cbnz	r3, .L81
 407:../../applications/murata-dualstack-example-ns/src/murata-dualstack-example-ns.c ****         printf("Failure counter = %d\r\n",failureCounter);
 1309              		.loc 1 407 7 is_stmt 1 view .LVU306
 407:../../applications/murata-dualstack-example-ns/src/murata-dualstack-example-ns.c ****         printf("Failure counter = %d\r\n",failureCounter);
 1310              		.loc 1 407 26 is_stmt 0 view .LVU307
 1311 0130 684B     		ldr	r3, .L102+80
 1312 0132 1B78     		ldrb	r3, [r3]	@ zero_extendqisi2
 407:../../applications/murata-dualstack-example-ns/src/murata-dualstack-example-ns.c ****         printf("Failure counter = %d\r\n",failureCounter);
 1313              		.loc 1 407 10 view .LVU308
 1314 0134 002B     		cmp	r3, #0
 1315 0136 65D1     		bne	.L93
 1316              	.L82:
 410:../../applications/murata-dualstack-example-ns/src/murata-dualstack-example-ns.c ****     }
 1317              		.loc 1 410 7 is_stmt 1 view .LVU309
 410:../../applications/murata-dualstack-example-ns/src/murata-dualstack-example-ns.c ****     }
 1318              		.loc 1 410 14 is_stmt 0 view .LVU310
 1319 0138 644B     		ldr	r3, .L102+72
 1320 013a 0022     		movs	r2, #0
 1321 013c 1A70     		strb	r2, [r3]
 1322              	.L81:
 417:../../applications/murata-dualstack-example-ns/src/murata-dualstack-example-ns.c ****     //HAL_TIM_Base_Stop_IT(&inactive_timer);    
 1323              		.loc 1 417 5 is_stmt 1 view .LVU311
 417:../../applications/murata-dualstack-example-ns/src/murata-dualstack-example-ns.c ****     //HAL_TIM_Base_Stop_IT(&inactive_timer);    
 1324              		.loc 1 417 11 is_stmt 0 view .LVU312
 1325 013e 644B     		ldr	r3, .L102+76
 1326 0140 1B78     		ldrb	r3, [r3]	@ zero_extendqisi2
 417:../../applications/murata-dualstack-example-ns/src/murata-dualstack-example-ns.c ****     //HAL_TIM_Base_Stop_IT(&inactive_timer);    
 1327              		.loc 1 417 8 view .LVU313
 1328 0142 002B     		cmp	r3, #0
ARM GAS  C:\Users\yvesk\AppData\Local\Temp\cc6ysVum.s 			page 38


 1329 0144 64D1     		bne	.L94
 1330              	.L83:
 429:../../applications/murata-dualstack-example-ns/src/murata-dualstack-example-ns.c ****       printf("Going to LoRaWAN mode\r\n\r\n");
 1331              		.loc 1 429 5 is_stmt 1 view .LVU314
 429:../../applications/murata-dualstack-example-ns/src/murata-dualstack-example-ns.c ****       printf("Going to LoRaWAN mode\r\n\r\n");
 1332              		.loc 1 429 23 is_stmt 0 view .LVU315
 1333 0146 634B     		ldr	r3, .L102+80
 1334 0148 1B78     		ldrb	r3, [r3]	@ zero_extendqisi2
 1335 014a DBB2     		uxtb	r3, r3
 429:../../applications/murata-dualstack-example-ns/src/murata-dualstack-example-ns.c ****       printf("Going to LoRaWAN mode\r\n\r\n");
 1336              		.loc 1 429 8 view .LVU316
 1337 014c 032B     		cmp	r3, #3
 1338 014e 6CD0     		beq	.L95
 1339              	.L84:
 440:../../applications/murata-dualstack-example-ns/src/murata-dualstack-example-ns.c ****       printf("Check again for dash7 \r\n\r\n");
 1340              		.loc 1 440 5 is_stmt 1 view .LVU317
 440:../../applications/murata-dualstack-example-ns/src/murata-dualstack-example-ns.c ****       printf("Check again for dash7 \r\n\r\n");
 1341              		.loc 1 440 20 is_stmt 0 view .LVU318
 1342 0150 614B     		ldr	r3, .L102+84
 1343 0152 1B78     		ldrb	r3, [r3]	@ zero_extendqisi2
 440:../../applications/murata-dualstack-example-ns/src/murata-dualstack-example-ns.c ****       printf("Check again for dash7 \r\n\r\n");
 1344              		.loc 1 440 8 view .LVU319
 1345 0154 032B     		cmp	r3, #3
 1346 0156 75D0     		beq	.L96
 1347              	.L85:
 448:../../applications/murata-dualstack-example-ns/src/murata-dualstack-example-ns.c ****       printf("\nGoing to dash7 mode\r\n\r\n");
 1348              		.loc 1 448 6 is_stmt 1 view .LVU320
 448:../../applications/murata-dualstack-example-ns/src/murata-dualstack-example-ns.c ****       printf("\nGoing to dash7 mode\r\n\r\n");
 1349              		.loc 1 448 24 is_stmt 0 view .LVU321
 1350 0158 604B     		ldr	r3, .L102+88
 1351 015a 1B78     		ldrb	r3, [r3]	@ zero_extendqisi2
 1352 015c DBB2     		uxtb	r3, r3
 448:../../applications/murata-dualstack-example-ns/src/murata-dualstack-example-ns.c ****       printf("\nGoing to dash7 mode\r\n\r\n");
 1353              		.loc 1 448 9 view .LVU322
 1354 015e 012B     		cmp	r3, #1
 1355 0160 7BD0     		beq	.L97
 1356              	.L86:
 458:../../applications/murata-dualstack-example-ns/src/murata-dualstack-example-ns.c ****       ble_callback(); 
 1357              		.loc 1 458 5 is_stmt 1 view .LVU323
 458:../../applications/murata-dualstack-example-ns/src/murata-dualstack-example-ns.c ****       ble_callback(); 
 1358              		.loc 1 458 9 is_stmt 0 view .LVU324
 1359 0162 5F4B     		ldr	r3, .L102+92
 1360 0164 1B78     		ldrb	r3, [r3]	@ zero_extendqisi2
 458:../../applications/murata-dualstack-example-ns/src/murata-dualstack-example-ns.c ****       ble_callback(); 
 1361              		.loc 1 458 8 view .LVU325
 1362 0166 002B     		cmp	r3, #0
 1363 0168 40F08180 		bne	.L98
 1364              	.L67:
 281:../../applications/murata-dualstack-example-ns/src/murata-dualstack-example-ns.c ****     IWDG_feed(NULL);
 1365              		.loc 1 281 11 view .LVU326
 1366 016c 5D4B     		ldr	r3, .L102+96
 1367 016e 1B78     		ldrb	r3, [r3]	@ zero_extendqisi2
 281:../../applications/murata-dualstack-example-ns/src/murata-dualstack-example-ns.c ****     IWDG_feed(NULL);
 1368              		.loc 1 281 10 view .LVU327
 1369 0170 002B     		cmp	r3, #0
 1370 0172 8AD0     		beq	.L99
 282:../../applications/murata-dualstack-example-ns/src/murata-dualstack-example-ns.c ****     
ARM GAS  C:\Users\yvesk\AppData\Local\Temp\cc6ysVum.s 			page 39


 1371              		.loc 1 282 5 is_stmt 1 view .LVU328
 1372 0174 0020     		movs	r0, #0
 1373 0176 FFF7FEFF 		bl	IWDG_feed
 1374              	.LVL117:
 284:../../applications/murata-dualstack-example-ns/src/murata-dualstack-example-ns.c ****         {
 1375              		.loc 1 284 7 view .LVU329
 284:../../applications/murata-dualstack-example-ns/src/murata-dualstack-example-ns.c ****         {
 1376              		.loc 1 284 10 is_stmt 0 view .LVU330
 1377 017a 484B     		ldr	r3, .L102+24
 1378 017c 1B78     		ldrb	r3, [r3]	@ zero_extendqisi2
 284:../../applications/murata-dualstack-example-ns/src/murata-dualstack-example-ns.c ****         {
 1379              		.loc 1 284 9 view .LVU331
 1380 017e 002B     		cmp	r3, #0
 1381 0180 7FF47BAF 		bne	.L100
 1382              	.L68:
 290:../../applications/murata-dualstack-example-ns/src/murata-dualstack-example-ns.c ****         {
 1383              		.loc 1 290 9 is_stmt 1 view .LVU332
 290:../../applications/murata-dualstack-example-ns/src/murata-dualstack-example-ns.c ****         {
 1384              		.loc 1 290 13 is_stmt 0 view .LVU333
 1385 0184 584B     		ldr	r3, .L102+100
 1386 0186 1B78     		ldrb	r3, [r3]	@ zero_extendqisi2
 290:../../applications/murata-dualstack-example-ns/src/murata-dualstack-example-ns.c ****         {
 1387              		.loc 1 290 12 view .LVU334
 1388 0188 002B     		cmp	r3, #0
 1389 018a EFD0     		beq	.L67
 1390              	.LBB12:
 292:../../applications/murata-dualstack-example-ns/src/murata-dualstack-example-ns.c ****           messageMode = 0; 
 1391              		.loc 1 292 11 is_stmt 1 view .LVU335
 292:../../applications/murata-dualstack-example-ns/src/murata-dualstack-example-ns.c ****           messageMode = 0; 
 1392              		.loc 1 292 19 is_stmt 0 view .LVU336
 1393 018c 0020     		movs	r0, #0
 1394 018e 564B     		ldr	r3, .L102+100
 1395 0190 1870     		strb	r0, [r3]
 293:../../applications/murata-dualstack-example-ns/src/murata-dualstack-example-ns.c ****           send_message(0);  
 1396              		.loc 1 293 11 is_stmt 1 view .LVU337
 293:../../applications/murata-dualstack-example-ns/src/murata-dualstack-example-ns.c ****           send_message(0);  
 1397              		.loc 1 293 23 is_stmt 0 view .LVU338
 1398 0192 564B     		ldr	r3, .L102+104
 1399 0194 1870     		strb	r0, [r3]
 294:../../applications/murata-dualstack-example-ns/src/murata-dualstack-example-ns.c ****         } 
 1400              		.loc 1 294 11 is_stmt 1 view .LVU339
 1401 0196 FFF7FEFF 		bl	send_message
 1402              	.LVL118:
 1403 019a E7E7     		b	.L67
 1404              	.L89:
 1405              	.LBE12:
 1406              	.LBB13:
 329:../../applications/murata-dualstack-example-ns/src/murata-dualstack-example-ns.c ****           temp_hum_measurement();
 1407              		.loc 1 329 11 view .LVU340
 1408 019c 5448     		ldr	r0, .L102+108
 1409 019e FFF7FEFF 		bl	puts
 1410              	.LVL119:
 330:../../applications/murata-dualstack-example-ns/src/murata-dualstack-example-ns.c ****         //Dash7_send_temphum();
 1411              		.loc 1 330 11 view .LVU341
 1412 01a2 FFF7FEFF 		bl	temp_hum_measurement
 1413              	.LVL120:
 332:../../applications/murata-dualstack-example-ns/src/murata-dualstack-example-ns.c ****           //LoRaWAN_send(NULL);
ARM GAS  C:\Users\yvesk\AppData\Local\Temp\cc6ysVum.s 			page 40


 1414              		.loc 1 332 11 view .LVU342
 1415 01a6 0220     		movs	r0, #2
 1416 01a8 FFF7FEFF 		bl	send_message
 1417              	.LVL121:
 1418 01ac 93E7     		b	.L74
 1419              	.L90:
 1420              	.LBE13:
 355:../../applications/murata-dualstack-example-ns/src/murata-dualstack-example-ns.c ****       printf("Rep counter: %d,\r\n\r\n",rep_counter);
 1421              		.loc 1 355 7 view .LVU343
 355:../../applications/murata-dualstack-example-ns/src/murata-dualstack-example-ns.c ****       printf("Rep counter: %d,\r\n\r\n",rep_counter);
 1422              		.loc 1 355 18 is_stmt 0 view .LVU344
 1423 01ae 424B     		ldr	r3, .L102+52
 1424 01b0 1978     		ldrb	r1, [r3]	@ zero_extendqisi2
 1425 01b2 0131     		adds	r1, r1, #1
 1426 01b4 C9B2     		uxtb	r1, r1
 1427 01b6 1970     		strb	r1, [r3]
 356:../../applications/murata-dualstack-example-ns/src/murata-dualstack-example-ns.c ****       } 
 1428              		.loc 1 356 7 is_stmt 1 view .LVU345
 1429 01b8 4E48     		ldr	r0, .L102+112
 1430 01ba FFF7FEFF 		bl	printf
 1431              	.LVL122:
 1432 01be 97E7     		b	.L76
 1433              	.L91:
 375:../../applications/murata-dualstack-example-ns/src/murata-dualstack-example-ns.c ****        //send dash7 localisation message
 1434              		.loc 1 375 7 view .LVU346
 1435 01c0 4D48     		ldr	r0, .L102+116
 1436 01c2 FFF7FEFF 		bl	puts
 1437              	.LVL123:
 377:../../applications/murata-dualstack-example-ns/src/murata-dualstack-example-ns.c ****         if (murata_init) {
 1438              		.loc 1 377 7 view .LVU347
 377:../../applications/murata-dualstack-example-ns/src/murata-dualstack-example-ns.c ****         if (murata_init) {
 1439              		.loc 1 377 11 is_stmt 0 view .LVU348
 1440 01c6 374B     		ldr	r3, .L102+32
 1441 01c8 1B78     		ldrb	r3, [r3]	@ zero_extendqisi2
 377:../../applications/murata-dualstack-example-ns/src/murata-dualstack-example-ns.c ****         if (murata_init) {
 1442              		.loc 1 377 10 view .LVU349
 1443 01ca 13B9     		cbnz	r3, .L78
 378:../../applications/murata-dualstack-example-ns/src/murata-dualstack-example-ns.c ****           printf("Sending dash7 localisation message (once per minute)\r\n\r\n");
 1444              		.loc 1 378 9 is_stmt 1 view .LVU350
 378:../../applications/murata-dualstack-example-ns/src/murata-dualstack-example-ns.c ****           printf("Sending dash7 localisation message (once per minute)\r\n\r\n");
 1445              		.loc 1 378 13 is_stmt 0 view .LVU351
 1446 01cc 314B     		ldr	r3, .L102+16
 1447 01ce 1B78     		ldrb	r3, [r3]	@ zero_extendqisi2
 378:../../applications/murata-dualstack-example-ns/src/murata-dualstack-example-ns.c ****           printf("Sending dash7 localisation message (once per minute)\r\n\r\n");
 1448              		.loc 1 378 12 view .LVU352
 1449 01d0 1BB9     		cbnz	r3, .L101
 1450              	.L78:
 385:../../applications/murata-dualstack-example-ns/src/murata-dualstack-example-ns.c ****     }
 1451              		.loc 1 385 6 is_stmt 1 view .LVU353
 385:../../applications/murata-dualstack-example-ns/src/murata-dualstack-example-ns.c ****     }
 1452              		.loc 1 385 16 is_stmt 0 view .LVU354
 1453 01d2 3C4B     		ldr	r3, .L102+64
 1454 01d4 0022     		movs	r2, #0
 1455 01d6 1A70     		strb	r2, [r3]
 1456 01d8 9AE7     		b	.L77
 1457              	.L101:
 1458              	.LBB14:
ARM GAS  C:\Users\yvesk\AppData\Local\Temp\cc6ysVum.s 			page 41


 379:../../applications/murata-dualstack-example-ns/src/murata-dualstack-example-ns.c ****             temp_hum_measurement();
 1459              		.loc 1 379 11 is_stmt 1 view .LVU355
 1460 01da 4848     		ldr	r0, .L102+120
 1461 01dc FFF7FEFF 		bl	puts
 1462              	.LVL124:
 380:../../applications/murata-dualstack-example-ns/src/murata-dualstack-example-ns.c ****           send_message(1);
 1463              		.loc 1 380 13 view .LVU356
 1464 01e0 FFF7FEFF 		bl	temp_hum_measurement
 1465              	.LVL125:
 381:../../applications/murata-dualstack-example-ns/src/murata-dualstack-example-ns.c ****           
 1466              		.loc 1 381 11 view .LVU357
 1467 01e4 0120     		movs	r0, #1
 1468 01e6 FFF7FEFF 		bl	send_message
 1469              	.LVL126:
 1470 01ea F2E7     		b	.L78
 1471              	.L92:
 1472              	.LBE14:
 1473              	.LBB15:
 392:../../applications/murata-dualstack-example-ns/src/murata-dualstack-example-ns.c ****         temp_hum_measurement();
 1474              		.loc 1 392 9 view .LVU358
 1475 01ec 4448     		ldr	r0, .L102+124
 1476 01ee FFF7FEFF 		bl	puts
 1477              	.LVL127:
 393:../../applications/murata-dualstack-example-ns/src/murata-dualstack-example-ns.c ****         send_message(1); 
 1478              		.loc 1 393 9 view .LVU359
 1479 01f2 FFF7FEFF 		bl	temp_hum_measurement
 1480              	.LVL128:
 394:../../applications/murata-dualstack-example-ns/src/murata-dualstack-example-ns.c ****         about_to_sleep = 1; 
 1481              		.loc 1 394 9 view .LVU360
 1482 01f6 0120     		movs	r0, #1
 1483 01f8 FFF7FEFF 		bl	send_message
 1484              	.LVL129:
 395:../../applications/murata-dualstack-example-ns/src/murata-dualstack-example-ns.c ****         //__HAL_TIM_SET_COUNTER(&send_sleepmessage_timer, 0);
 1485              		.loc 1 395 9 view .LVU361
 395:../../applications/murata-dualstack-example-ns/src/murata-dualstack-example-ns.c ****         //__HAL_TIM_SET_COUNTER(&send_sleepmessage_timer, 0);
 1486              		.loc 1 395 24 is_stmt 0 view .LVU362
 1487 01fc 344B     		ldr	r3, .L102+76
 1488 01fe 0122     		movs	r2, #1
 1489 0200 1A70     		strb	r2, [r3]
 1490 0202 8CE7     		b	.L80
 1491              	.L93:
 1492              	.LBE15:
 408:../../applications/murata-dualstack-example-ns/src/murata-dualstack-example-ns.c ****       }
 1493              		.loc 1 408 9 is_stmt 1 view .LVU363
 1494 0204 334B     		ldr	r3, .L102+80
 1495 0206 1978     		ldrb	r1, [r3]	@ zero_extendqisi2
 1496 0208 3E48     		ldr	r0, .L102+128
 1497 020a FFF7FEFF 		bl	printf
 1498              	.LVL130:
 1499 020e 93E7     		b	.L82
 1500              	.L94:
 1501              	.LBB16:
 420:../../applications/murata-dualstack-example-ns/src/murata-dualstack-example-ns.c ****     rep_counter = 0; 
 1502              		.loc 1 420 5 view .LVU364
 420:../../applications/murata-dualstack-example-ns/src/murata-dualstack-example-ns.c ****     rep_counter = 0; 
 1503              		.loc 1 420 13 is_stmt 0 view .LVU365
 1504 0210 0024     		movs	r4, #0
ARM GAS  C:\Users\yvesk\AppData\Local\Temp\cc6ysVum.s 			page 42


 1505 0212 244B     		ldr	r3, .L102+32
 1506 0214 1C70     		strb	r4, [r3]
 421:../../applications/murata-dualstack-example-ns/src/murata-dualstack-example-ns.c ****     goToSleep(); 
 1507              		.loc 1 421 5 is_stmt 1 view .LVU366
 421:../../applications/murata-dualstack-example-ns/src/murata-dualstack-example-ns.c ****     goToSleep(); 
 1508              		.loc 1 421 17 is_stmt 0 view .LVU367
 1509 0216 284B     		ldr	r3, .L102+52
 1510 0218 1C70     		strb	r4, [r3]
 422:../../applications/murata-dualstack-example-ns/src/murata-dualstack-example-ns.c ****     send_message(1);
 1511              		.loc 1 422 5 is_stmt 1 view .LVU368
 1512 021a FFF7FEFF 		bl	goToSleep
 1513              	.LVL131:
 423:../../applications/murata-dualstack-example-ns/src/murata-dualstack-example-ns.c ****     about_to_sleep = 0;
 1514              		.loc 1 423 5 view .LVU369
 1515 021e 0120     		movs	r0, #1
 1516 0220 FFF7FEFF 		bl	send_message
 1517              	.LVL132:
 424:../../applications/murata-dualstack-example-ns/src/murata-dualstack-example-ns.c ****     }
 1518              		.loc 1 424 5 view .LVU370
 424:../../applications/murata-dualstack-example-ns/src/murata-dualstack-example-ns.c ****     }
 1519              		.loc 1 424 20 is_stmt 0 view .LVU371
 1520 0224 2A4B     		ldr	r3, .L102+76
 1521 0226 1C70     		strb	r4, [r3]
 1522 0228 8DE7     		b	.L83
 1523              	.L95:
 1524              	.LBE16:
 430:../../applications/murata-dualstack-example-ns/src/murata-dualstack-example-ns.c ****       messageMode=1;      //go to lorawanmode
 1525              		.loc 1 430 7 is_stmt 1 view .LVU372
 1526 022a 3748     		ldr	r0, .L102+132
 1527 022c FFF7FEFF 		bl	puts
 1528              	.LVL133:
 431:../../applications/murata-dualstack-example-ns/src/murata-dualstack-example-ns.c ****       successCounter=0;   //we zetten de dash7 succescounter terug op 0
 1529              		.loc 1 431 7 view .LVU373
 431:../../applications/murata-dualstack-example-ns/src/murata-dualstack-example-ns.c ****       successCounter=0;   //we zetten de dash7 succescounter terug op 0
 1530              		.loc 1 431 18 is_stmt 0 view .LVU374
 1531 0230 2E4B     		ldr	r3, .L102+104
 1532 0232 0122     		movs	r2, #1
 1533 0234 1A70     		strb	r2, [r3]
 432:../../applications/murata-dualstack-example-ns/src/murata-dualstack-example-ns.c ****       failureCounter=4;   //we zetten de failure counter op een andere waarde dan 3 zodat dit blok 
 1534              		.loc 1 432 7 is_stmt 1 view .LVU375
 432:../../applications/murata-dualstack-example-ns/src/murata-dualstack-example-ns.c ****       failureCounter=4;   //we zetten de failure counter op een andere waarde dan 3 zodat dit blok 
 1535              		.loc 1 432 21 is_stmt 0 view .LVU376
 1536 0236 294B     		ldr	r3, .L102+88
 1537 0238 0022     		movs	r2, #0
 1538 023a 1A70     		strb	r2, [r3]
 433:../../applications/murata-dualstack-example-ns/src/murata-dualstack-example-ns.c ****                           
 1539              		.loc 1 433 7 is_stmt 1 view .LVU377
 433:../../applications/murata-dualstack-example-ns/src/murata-dualstack-example-ns.c ****                           
 1540              		.loc 1 433 21 is_stmt 0 view .LVU378
 1541 023c 254B     		ldr	r3, .L102+80
 1542 023e 0422     		movs	r2, #4
 1543 0240 1A70     		strb	r2, [r3]
 1544 0242 85E7     		b	.L84
 1545              	.L96:
 441:../../applications/murata-dualstack-example-ns/src/murata-dualstack-example-ns.c ****       messageMode=0;      //ga naar dash7 mode
 1546              		.loc 1 441 7 is_stmt 1 view .LVU379
 1547 0244 3148     		ldr	r0, .L102+136
ARM GAS  C:\Users\yvesk\AppData\Local\Temp\cc6ysVum.s 			page 43


 1548 0246 FFF7FEFF 		bl	puts
 1549              	.LVL134:
 442:../../applications/murata-dualstack-example-ns/src/murata-dualstack-example-ns.c ****       loracounter=0;      //zet de lorawan message counter terug op 0
 1550              		.loc 1 442 7 view .LVU380
 442:../../applications/murata-dualstack-example-ns/src/murata-dualstack-example-ns.c ****       loracounter=0;      //zet de lorawan message counter terug op 0
 1551              		.loc 1 442 18 is_stmt 0 view .LVU381
 1552 024a 0023     		movs	r3, #0
 1553 024c 274A     		ldr	r2, .L102+104
 1554 024e 1370     		strb	r3, [r2]
 443:../../applications/murata-dualstack-example-ns/src/murata-dualstack-example-ns.c ****       failureCounter=0;   // NOG TOEGEVOEGD
 1555              		.loc 1 443 7 is_stmt 1 view .LVU382
 443:../../applications/murata-dualstack-example-ns/src/murata-dualstack-example-ns.c ****       failureCounter=0;   // NOG TOEGEVOEGD
 1556              		.loc 1 443 18 is_stmt 0 view .LVU383
 1557 0250 214A     		ldr	r2, .L102+84
 1558 0252 1370     		strb	r3, [r2]
 444:../../applications/murata-dualstack-example-ns/src/murata-dualstack-example-ns.c ****     }
 1559              		.loc 1 444 7 is_stmt 1 view .LVU384
 444:../../applications/murata-dualstack-example-ns/src/murata-dualstack-example-ns.c ****     }
 1560              		.loc 1 444 21 is_stmt 0 view .LVU385
 1561 0254 1F4A     		ldr	r2, .L102+80
 1562 0256 1370     		strb	r3, [r2]
 1563 0258 7EE7     		b	.L85
 1564              	.L97:
 449:../../applications/murata-dualstack-example-ns/src/murata-dualstack-example-ns.c ****       messageMode=0;        //go to dash7mode
 1565              		.loc 1 449 7 is_stmt 1 view .LVU386
 1566 025a 2D48     		ldr	r0, .L102+140
 1567 025c FFF7FEFF 		bl	puts
 1568              	.LVL135:
 450:../../applications/murata-dualstack-example-ns/src/murata-dualstack-example-ns.c ****       successCounter=2;     //step over the 1 value so that between messages this if isn't accessed
 1569              		.loc 1 450 7 view .LVU387
 450:../../applications/murata-dualstack-example-ns/src/murata-dualstack-example-ns.c ****       successCounter=2;     //step over the 1 value so that between messages this if isn't accessed
 1570              		.loc 1 450 18 is_stmt 0 view .LVU388
 1571 0260 224B     		ldr	r3, .L102+104
 1572 0262 0022     		movs	r2, #0
 1573 0264 1A70     		strb	r2, [r3]
 451:../../applications/murata-dualstack-example-ns/src/murata-dualstack-example-ns.c ****                             // deze counter wordt terug op 0 gezet vanaf er terug 3 keer gefailed w
 1574              		.loc 1 451 7 is_stmt 1 view .LVU389
 451:../../applications/murata-dualstack-example-ns/src/murata-dualstack-example-ns.c ****                             // deze counter wordt terug op 0 gezet vanaf er terug 3 keer gefailed w
 1575              		.loc 1 451 21 is_stmt 0 view .LVU390
 1576 0266 1D4B     		ldr	r3, .L102+88
 1577 0268 0222     		movs	r2, #2
 1578 026a 1A70     		strb	r2, [r3]
 1579 026c 79E7     		b	.L86
 1580              	.L98:
 1581              	.LBB17:
 459:../../applications/murata-dualstack-example-ns/src/murata-dualstack-example-ns.c ****       HAL_UART_Receive_IT(&BLE_UART, (uint8_t *)tmpbuf_ble, sizeof(tmpbuf_ble)); 
 1582              		.loc 1 459 7 is_stmt 1 view .LVU391
 1583 026e FFF7FEFF 		bl	ble_callback
 1584              	.LVL136:
 460:../../applications/murata-dualstack-example-ns/src/murata-dualstack-example-ns.c ****       BLE_flag = 0; 
 1585              		.loc 1 460 7 view .LVU392
 1586 0272 0222     		movs	r2, #2
 1587 0274 0549     		ldr	r1, .L102+8
 1588 0276 0648     		ldr	r0, .L102+12
 1589 0278 FFF7FEFF 		bl	HAL_UART_Receive_IT
 1590              	.LVL137:
 461:../../applications/murata-dualstack-example-ns/src/murata-dualstack-example-ns.c ****     }
ARM GAS  C:\Users\yvesk\AppData\Local\Temp\cc6ysVum.s 			page 44


 1591              		.loc 1 461 7 view .LVU393
 461:../../applications/murata-dualstack-example-ns/src/murata-dualstack-example-ns.c ****     }
 1592              		.loc 1 461 16 is_stmt 0 view .LVU394
 1593 027c 184B     		ldr	r3, .L102+92
 1594 027e 0022     		movs	r2, #0
 1595 0280 1A70     		strb	r2, [r3]
 1596 0282 73E7     		b	.L67
 1597              	.L103:
 1598              		.align	2
 1599              	.L102:
 1600 0284 00000000 		.word	short_UID
 1601 0288 00000000 		.word	common_I2C
 1602 028c 00000000 		.word	tmpbuf_ble
 1603 0290 00000000 		.word	BLE_UART
 1604 0294 00000000 		.word	.LANCHOR3
 1605 0298 00000000 		.word	.LC13
 1606 029c 00000000 		.word	.LANCHOR9
 1607 02a0 00000000 		.word	.LANCHOR13
 1608 02a4 00000000 		.word	.LANCHOR14
 1609 02a8 24000000 		.word	.LC14
 1610 02ac 38000000 		.word	.LC15
 1611 02b0 54000000 		.word	.LC16
 1612 02b4 84000000 		.word	.LC17
 1613 02b8 00000000 		.word	.LANCHOR8
 1614 02bc 00000000 		.word	.LANCHOR15
 1615 02c0 00000000 		.word	.LANCHOR1
 1616 02c4 00000000 		.word	.LANCHOR16
 1617 02c8 00000000 		.word	.LANCHOR17
 1618 02cc 00000000 		.word	.LANCHOR19
 1619 02d0 00000000 		.word	.LANCHOR18
 1620 02d4 00000000 		.word	.LANCHOR20
 1621 02d8 00000000 		.word	.LANCHOR22
 1622 02dc 00000000 		.word	.LANCHOR21
 1623 02e0 00000000 		.word	.LANCHOR23
 1624 02e4 00000000 		.word	.LANCHOR12
 1625 02e8 00000000 		.word	.LANCHOR10
 1626 02ec 00000000 		.word	.LANCHOR11
 1627 02f0 AC000000 		.word	.LC18
 1628 02f4 EC000000 		.word	.LC19
 1629 02f8 04010000 		.word	.LC20
 1630 02fc 20010000 		.word	.LC21
 1631 0300 58010000 		.word	.LC22
 1632 0304 88010000 		.word	.LC23
 1633 0308 A0010000 		.word	.LC24
 1634 030c BC010000 		.word	.LC25
 1635 0310 D8010000 		.word	.LC26
 1636              	.LBE17:
 1637              		.cfi_endproc
 1638              	.LFE134:
 1640              		.section	.text.HAL_GPIO_EXTI_Callback,"ax",%progbits
 1641              		.align	1
 1642              		.global	HAL_GPIO_EXTI_Callback
 1643              		.syntax unified
 1644              		.thumb
 1645              		.thumb_func
 1646              		.fpu fpv4-sp-d16
 1648              	HAL_GPIO_EXTI_Callback:
ARM GAS  C:\Users\yvesk\AppData\Local\Temp\cc6ysVum.s 			page 45


 1649              	.LVL138:
 1650              	.LFB146:
 693:../../applications/murata-dualstack-example-ns/src/murata-dualstack-example-ns.c **** 
 694:../../applications/murata-dualstack-example-ns/src/murata-dualstack-example-ns.c **** //----------------------------------------------------------------------  end extra methods   -----
 695:../../applications/murata-dualstack-example-ns/src/murata-dualstack-example-ns.c **** 
 696:../../applications/murata-dualstack-example-ns/src/murata-dualstack-example-ns.c **** /* USER CODE END 4 */
 697:../../applications/murata-dualstack-example-ns/src/murata-dualstack-example-ns.c **** 
 698:../../applications/murata-dualstack-example-ns/src/murata-dualstack-example-ns.c **** //-------------------------------------------------------start interrupt handlers -----------------
 699:../../applications/murata-dualstack-example-ns/src/murata-dualstack-example-ns.c **** 
 700:../../applications/murata-dualstack-example-ns/src/murata-dualstack-example-ns.c **** //See platform>octa>stm32l4xx_it.c there we placed exti15_10 function to capture interrupts on one 
 701:../../applications/murata-dualstack-example-ns/src/murata-dualstack-example-ns.c **** // (see slides of Mr weyn for the exact function name). In this function we call the "HAL_GPIO_EXTI
 702:../../applications/murata-dualstack-example-ns/src/murata-dualstack-example-ns.c **** // file. In this function the "HAL_GPIO_EXTI_Callback" is called, which we define below 
 703:../../applications/murata-dualstack-example-ns/src/murata-dualstack-example-ns.c **** void HAL_GPIO_EXTI_Callback(uint16_t GPIO_Pin) {
 1651              		.loc 1 703 48 is_stmt 1 view -0
 1652              		.cfi_startproc
 1653              		@ args = 0, pretend = 0, frame = 0
 1654              		@ frame_needed = 0, uses_anonymous_args = 0
 704:../../applications/murata-dualstack-example-ns/src/murata-dualstack-example-ns.c ****   if (GPIO_Pin==GPIO_Pin_13) {
 1655              		.loc 1 704 3 view .LVU396
 1656              		.loc 1 704 6 is_stmt 0 view .LVU397
 1657 0000 B0F5005F 		cmp	r0, #8192
 1658 0004 00D0     		beq	.L110
 1659 0006 7047     		bx	lr
 1660              	.L110:
 703:../../applications/murata-dualstack-example-ns/src/murata-dualstack-example-ns.c ****   if (GPIO_Pin==GPIO_Pin_13) {
 1661              		.loc 1 703 48 view .LVU398
 1662 0008 08B5     		push	{r3, lr}
 1663              	.LCFI28:
 1664              		.cfi_def_cfa_offset 8
 1665              		.cfi_offset 3, -8
 1666              		.cfi_offset 14, -4
 705:../../applications/murata-dualstack-example-ns/src/murata-dualstack-example-ns.c ****   repFlag = 1; 
 1667              		.loc 1 705 3 is_stmt 1 view .LVU399
 1668              		.loc 1 705 11 is_stmt 0 view .LVU400
 1669 000a 034B     		ldr	r3, .L111
 1670 000c 0122     		movs	r2, #1
 1671 000e 1A70     		strb	r2, [r3]
 706:../../applications/murata-dualstack-example-ns/src/murata-dualstack-example-ns.c ****   printf("movement detected! \r\n");
 1672              		.loc 1 706 3 is_stmt 1 view .LVU401
 1673 0010 0248     		ldr	r0, .L111+4
 1674              	.LVL139:
 1675              		.loc 1 706 3 is_stmt 0 view .LVU402
 1676 0012 FFF7FEFF 		bl	puts
 1677              	.LVL140:
 707:../../applications/murata-dualstack-example-ns/src/murata-dualstack-example-ns.c ****   // we work with a flag so as to make sure that we don't stay in the callback for too long. This w
 708:../../applications/murata-dualstack-example-ns/src/murata-dualstack-example-ns.c ****   // the flag will call the measurement function in de while loop
 709:../../applications/murata-dualstack-example-ns/src/murata-dualstack-example-ns.c ****   } 
 710:../../applications/murata-dualstack-example-ns/src/murata-dualstack-example-ns.c **** }
 1678              		.loc 1 710 1 view .LVU403
 1679 0016 08BD     		pop	{r3, pc}
 1680              	.L112:
 1681              		.align	2
 1682              	.L111:
 1683 0018 00000000 		.word	.LANCHOR15
 1684 001c 00000000 		.word	.LC27
 1685              		.cfi_endproc
 1686              	.LFE146:
ARM GAS  C:\Users\yvesk\AppData\Local\Temp\cc6ysVum.s 			page 46


 1688              		.section	.text.EXTI1_IRQHandler,"ax",%progbits
 1689              		.align	1
 1690              		.global	EXTI1_IRQHandler
 1691              		.syntax unified
 1692              		.thumb
 1693              		.thumb_func
 1694              		.fpu fpv4-sp-d16
 1696              	EXTI1_IRQHandler:
 1697              	.LFB147:
 711:../../applications/murata-dualstack-example-ns/src/murata-dualstack-example-ns.c **** 
 712:../../applications/murata-dualstack-example-ns/src/murata-dualstack-example-ns.c **** void EXTI1_IRQHandler(void){
 1698              		.loc 1 712 28 is_stmt 1 view -0
 1699              		.cfi_startproc
 1700              		@ args = 0, pretend = 0, frame = 0
 1701              		@ frame_needed = 0, uses_anonymous_args = 0
 1702 0000 08B5     		push	{r3, lr}
 1703              	.LCFI29:
 1704              		.cfi_def_cfa_offset 8
 1705              		.cfi_offset 3, -8
 1706              		.cfi_offset 14, -4
 713:../../applications/murata-dualstack-example-ns/src/murata-dualstack-example-ns.c ****   printf("INTERRUPT BUTTON! \r\n");
 1707              		.loc 1 713 3 view .LVU405
 1708 0002 0748     		ldr	r0, .L115
 1709 0004 FFF7FEFF 		bl	puts
 1710              	.LVL141:
 714:../../applications/murata-dualstack-example-ns/src/murata-dualstack-example-ns.c **** 
 715:../../applications/murata-dualstack-example-ns/src/murata-dualstack-example-ns.c ****  
 716:../../applications/murata-dualstack-example-ns/src/murata-dualstack-example-ns.c ****     //Start reps
 717:../../applications/murata-dualstack-example-ns/src/murata-dualstack-example-ns.c ****     __HAL_GPIO_EXTI_CLEAR_IT(GPIO_PIN_1);
 1711              		.loc 1 717 5 view .LVU406
 1712 0008 064B     		ldr	r3, .L115+4
 1713 000a 0222     		movs	r2, #2
 1714 000c 5A61     		str	r2, [r3, #20]
 718:../../applications/murata-dualstack-example-ns/src/murata-dualstack-example-ns.c ****     //printf("INTERRUPT BUTTON! \r\n");
 719:../../applications/murata-dualstack-example-ns/src/murata-dualstack-example-ns.c ****     repMode= !repMode;
 1715              		.loc 1 719 5 view .LVU407
 1716 000e 064A     		ldr	r2, .L115+8
 1717 0010 1378     		ldrb	r3, [r2]	@ zero_extendqisi2
 1718 0012 83F00103 		eor	r3, r3, #1
 1719              		.loc 1 719 12 is_stmt 0 view .LVU408
 1720 0016 1370     		strb	r3, [r2]
 720:../../applications/murata-dualstack-example-ns/src/murata-dualstack-example-ns.c ****     changeAcceleroMode=1;
 1721              		.loc 1 720 5 is_stmt 1 view .LVU409
 1722              		.loc 1 720 23 is_stmt 0 view .LVU410
 1723 0018 044B     		ldr	r3, .L115+12
 1724 001a 0122     		movs	r2, #1
 1725 001c 1A70     		strb	r2, [r3]
 721:../../applications/murata-dualstack-example-ns/src/murata-dualstack-example-ns.c ****     //Change registers of accelero
 722:../../applications/murata-dualstack-example-ns/src/murata-dualstack-example-ns.c **** }
 1726              		.loc 1 722 1 view .LVU411
 1727 001e 08BD     		pop	{r3, pc}
 1728              	.L116:
 1729              		.align	2
 1730              	.L115:
 1731 0020 00000000 		.word	.LC28
 1732 0024 00040140 		.word	1073808384
 1733 0028 00000000 		.word	.LANCHOR14
ARM GAS  C:\Users\yvesk\AppData\Local\Temp\cc6ysVum.s 			page 47


 1734 002c 00000000 		.word	.LANCHOR13
 1735              		.cfi_endproc
 1736              	.LFE147:
 1738              		.section	.text.TIM2_IRQHandler,"ax",%progbits
 1739              		.align	1
 1740              		.global	TIM2_IRQHandler
 1741              		.syntax unified
 1742              		.thumb
 1743              		.thumb_func
 1744              		.fpu fpv4-sp-d16
 1746              	TIM2_IRQHandler:
 1747              	.LFB148:
 723:../../applications/murata-dualstack-example-ns/src/murata-dualstack-example-ns.c **** 
 724:../../applications/murata-dualstack-example-ns/src/murata-dualstack-example-ns.c **** /* void EXTI0_IRQHandler(void){
 725:../../applications/murata-dualstack-example-ns/src/murata-dualstack-example-ns.c ****     
 726:../../applications/murata-dualstack-example-ns/src/murata-dualstack-example-ns.c ****     __HAL_GPIO_EXTI_CLEAR_IT(GPIO_PIN_0);
 727:../../applications/murata-dualstack-example-ns/src/murata-dualstack-example-ns.c ****     lorawanflag = 1; 
 728:../../applications/murata-dualstack-example-ns/src/murata-dualstack-example-ns.c ****     printf("INTERRUPT BUTTON! \r\n");
 729:../../applications/murata-dualstack-example-ns/src/murata-dualstack-example-ns.c **** } */
 730:../../applications/murata-dualstack-example-ns/src/murata-dualstack-example-ns.c **** 
 731:../../applications/murata-dualstack-example-ns/src/murata-dualstack-example-ns.c **** 
 732:../../applications/murata-dualstack-example-ns/src/murata-dualstack-example-ns.c **** void TIM2_IRQHandler( void ) {
 1748              		.loc 1 732 30 is_stmt 1 view -0
 1749              		.cfi_startproc
 1750              		@ args = 0, pretend = 0, frame = 0
 1751              		@ frame_needed = 0, uses_anonymous_args = 0
 1752              		@ link register save eliminated.
 733:../../applications/murata-dualstack-example-ns/src/murata-dualstack-example-ns.c **** 
 734:../../applications/murata-dualstack-example-ns/src/murata-dualstack-example-ns.c ****   //printf("elapsed period \r\n");
 735:../../applications/murata-dualstack-example-ns/src/murata-dualstack-example-ns.c ****  
 736:../../applications/murata-dualstack-example-ns/src/murata-dualstack-example-ns.c ****   if (__HAL_TIM_GET_FLAG(&localisation_timer, TIM_IT_UPDATE) != RESET) 
 1753              		.loc 1 736 3 view .LVU413
 1754              		.loc 1 736 7 is_stmt 0 view .LVU414
 1755 0000 084B     		ldr	r3, .L119
 1756 0002 1B68     		ldr	r3, [r3]
 1757 0004 1A69     		ldr	r2, [r3, #16]
 1758              		.loc 1 736 6 view .LVU415
 1759 0006 12F0010F 		tst	r2, #1
 1760 000a 09D0     		beq	.L117
 737:../../applications/murata-dualstack-example-ns/src/murata-dualstack-example-ns.c ****   //In case other interrupts are also running
 738:../../applications/murata-dualstack-example-ns/src/murata-dualstack-example-ns.c ****   {
 739:../../applications/murata-dualstack-example-ns/src/murata-dualstack-example-ns.c ****   
 740:../../applications/murata-dualstack-example-ns/src/murata-dualstack-example-ns.c ****     if (__HAL_TIM_GET_IT_SOURCE(&localisation_timer, TIM_IT_UPDATE) != RESET) {
 1761              		.loc 1 740 5 is_stmt 1 view .LVU416
 1762              		.loc 1 740 9 is_stmt 0 view .LVU417
 1763 000c DA68     		ldr	r2, [r3, #12]
 1764              		.loc 1 740 8 view .LVU418
 1765 000e 12F0010F 		tst	r2, #1
 1766 0012 05D0     		beq	.L117
 741:../../applications/murata-dualstack-example-ns/src/murata-dualstack-example-ns.c ****     
 742:../../applications/murata-dualstack-example-ns/src/murata-dualstack-example-ns.c ****     __HAL_TIM_CLEAR_IT(&localisation_timer, TIM_IT_UPDATE);
 1767              		.loc 1 742 5 is_stmt 1 view .LVU419
 1768 0014 6FF00102 		mvn	r2, #1
 1769 0018 1A61     		str	r2, [r3, #16]
 743:../../applications/murata-dualstack-example-ns/src/murata-dualstack-example-ns.c ****     
 744:../../applications/murata-dualstack-example-ns/src/murata-dualstack-example-ns.c ****     
 745:../../applications/murata-dualstack-example-ns/src/murata-dualstack-example-ns.c ****     //printf("elapsed period \r\n");
ARM GAS  C:\Users\yvesk\AppData\Local\Temp\cc6ysVum.s 			page 48


 746:../../applications/murata-dualstack-example-ns/src/murata-dualstack-example-ns.c ****     timer2flag = 1; 
 1770              		.loc 1 746 5 view .LVU420
 1771              		.loc 1 746 16 is_stmt 0 view .LVU421
 1772 001a 034B     		ldr	r3, .L119+4
 1773 001c 0122     		movs	r2, #1
 1774 001e 1A70     		strb	r2, [r3]
 1775              	.L117:
 747:../../applications/murata-dualstack-example-ns/src/murata-dualstack-example-ns.c ****     
 748:../../applications/murata-dualstack-example-ns/src/murata-dualstack-example-ns.c ****     
 749:../../applications/murata-dualstack-example-ns/src/murata-dualstack-example-ns.c ****     }
 750:../../applications/murata-dualstack-example-ns/src/murata-dualstack-example-ns.c ****   
 751:../../applications/murata-dualstack-example-ns/src/murata-dualstack-example-ns.c ****   }
 752:../../applications/murata-dualstack-example-ns/src/murata-dualstack-example-ns.c ****  
 753:../../applications/murata-dualstack-example-ns/src/murata-dualstack-example-ns.c **** }
 1776              		.loc 1 753 1 view .LVU422
 1777 0020 7047     		bx	lr
 1778              	.L120:
 1779 0022 00BF     		.align	2
 1780              	.L119:
 1781 0024 00000000 		.word	.LANCHOR0
 1782 0028 00000000 		.word	.LANCHOR16
 1783              		.cfi_endproc
 1784              	.LFE148:
 1786              		.section	.text.TIM3_IRQHandler,"ax",%progbits
 1787              		.align	1
 1788              		.global	TIM3_IRQHandler
 1789              		.syntax unified
 1790              		.thumb
 1791              		.thumb_func
 1792              		.fpu fpv4-sp-d16
 1794              	TIM3_IRQHandler:
 1795              	.LFB149:
 754:../../applications/murata-dualstack-example-ns/src/murata-dualstack-example-ns.c **** 
 755:../../applications/murata-dualstack-example-ns/src/murata-dualstack-example-ns.c **** void TIM3_IRQHandler( void ) {
 1796              		.loc 1 755 30 is_stmt 1 view -0
 1797              		.cfi_startproc
 1798              		@ args = 0, pretend = 0, frame = 0
 1799              		@ frame_needed = 0, uses_anonymous_args = 0
 1800              		@ link register save eliminated.
 756:../../applications/murata-dualstack-example-ns/src/murata-dualstack-example-ns.c **** 
 757:../../applications/murata-dualstack-example-ns/src/murata-dualstack-example-ns.c ****   //printf("elapsed period \r\n");
 758:../../applications/murata-dualstack-example-ns/src/murata-dualstack-example-ns.c ****  
 759:../../applications/murata-dualstack-example-ns/src/murata-dualstack-example-ns.c ****   if (__HAL_TIM_GET_FLAG(&inactive_timer, TIM_IT_UPDATE) != RESET) 
 1801              		.loc 1 759 3 view .LVU424
 1802              		.loc 1 759 7 is_stmt 0 view .LVU425
 1803 0000 0B4B     		ldr	r3, .L124
 1804 0002 1B68     		ldr	r3, [r3]
 1805 0004 1A69     		ldr	r2, [r3, #16]
 1806              		.loc 1 759 6 view .LVU426
 1807 0006 12F0010F 		tst	r2, #1
 1808 000a 0FD0     		beq	.L121
 760:../../applications/murata-dualstack-example-ns/src/murata-dualstack-example-ns.c ****   //In case other interrupts are also running
 761:../../applications/murata-dualstack-example-ns/src/murata-dualstack-example-ns.c ****   {
 762:../../applications/murata-dualstack-example-ns/src/murata-dualstack-example-ns.c ****   
 763:../../applications/murata-dualstack-example-ns/src/murata-dualstack-example-ns.c ****     if (__HAL_TIM_GET_IT_SOURCE(&inactive_timer, TIM_IT_UPDATE) != RESET) {
 1809              		.loc 1 763 5 is_stmt 1 view .LVU427
 1810              		.loc 1 763 9 is_stmt 0 view .LVU428
ARM GAS  C:\Users\yvesk\AppData\Local\Temp\cc6ysVum.s 			page 49


 1811 000c DA68     		ldr	r2, [r3, #12]
 1812              		.loc 1 763 8 view .LVU429
 1813 000e 12F0010F 		tst	r2, #1
 1814 0012 0BD0     		beq	.L121
 764:../../applications/murata-dualstack-example-ns/src/murata-dualstack-example-ns.c ****     
 765:../../applications/murata-dualstack-example-ns/src/murata-dualstack-example-ns.c ****     __HAL_TIM_CLEAR_IT(&inactive_timer, TIM_IT_UPDATE);
 1815              		.loc 1 765 5 is_stmt 1 view .LVU430
 1816 0014 6FF00102 		mvn	r2, #1
 1817 0018 1A61     		str	r2, [r3, #16]
 766:../../applications/murata-dualstack-example-ns/src/murata-dualstack-example-ns.c ****     
 767:../../applications/murata-dualstack-example-ns/src/murata-dualstack-example-ns.c ****     if (timer3_first>0) {
 1818              		.loc 1 767 5 view .LVU431
 1819              		.loc 1 767 21 is_stmt 0 view .LVU432
 1820 001a 064B     		ldr	r3, .L124+4
 1821 001c 1B78     		ldrb	r3, [r3]	@ zero_extendqisi2
 1822              		.loc 1 767 8 view .LVU433
 1823 001e 13B1     		cbz	r3, .L123
 768:../../applications/murata-dualstack-example-ns/src/murata-dualstack-example-ns.c ****     //printf("elapsed period \r\n");
 769:../../applications/murata-dualstack-example-ns/src/murata-dualstack-example-ns.c ****     timer3flag = 1; 
 1824              		.loc 1 769 5 is_stmt 1 view .LVU434
 1825              		.loc 1 769 16 is_stmt 0 view .LVU435
 1826 0020 054B     		ldr	r3, .L124+8
 1827 0022 0122     		movs	r2, #1
 1828 0024 1A70     		strb	r2, [r3]
 1829              	.L123:
 770:../../applications/murata-dualstack-example-ns/src/murata-dualstack-example-ns.c ****     
 771:../../applications/murata-dualstack-example-ns/src/murata-dualstack-example-ns.c ****     }
 772:../../applications/murata-dualstack-example-ns/src/murata-dualstack-example-ns.c ****     timer3_first=1; 
 1830              		.loc 1 772 5 is_stmt 1 view .LVU436
 1831              		.loc 1 772 17 is_stmt 0 view .LVU437
 1832 0026 034B     		ldr	r3, .L124+4
 1833 0028 0122     		movs	r2, #1
 1834 002a 1A70     		strb	r2, [r3]
 1835              	.L121:
 773:../../applications/murata-dualstack-example-ns/src/murata-dualstack-example-ns.c ****     }
 774:../../applications/murata-dualstack-example-ns/src/murata-dualstack-example-ns.c ****   
 775:../../applications/murata-dualstack-example-ns/src/murata-dualstack-example-ns.c ****   }
 776:../../applications/murata-dualstack-example-ns/src/murata-dualstack-example-ns.c ****  
 777:../../applications/murata-dualstack-example-ns/src/murata-dualstack-example-ns.c **** }
 1836              		.loc 1 777 1 view .LVU438
 1837 002c 7047     		bx	lr
 1838              	.L125:
 1839 002e 00BF     		.align	2
 1840              	.L124:
 1841 0030 00000000 		.word	.LANCHOR1
 1842 0034 00000000 		.word	.LANCHOR2
 1843 0038 00000000 		.word	.LANCHOR17
 1844              		.cfi_endproc
 1845              	.LFE149:
 1847              		.section	.text.HAL_UART_RxCpltCallback,"ax",%progbits
 1848              		.align	1
 1849              		.global	HAL_UART_RxCpltCallback
 1850              		.syntax unified
 1851              		.thumb
 1852              		.thumb_func
 1853              		.fpu fpv4-sp-d16
 1855              	HAL_UART_RxCpltCallback:
ARM GAS  C:\Users\yvesk\AppData\Local\Temp\cc6ysVum.s 			page 50


 1856              	.LVL142:
 1857              	.LFB150:
 778:../../applications/murata-dualstack-example-ns/src/murata-dualstack-example-ns.c **** 
 779:../../applications/murata-dualstack-example-ns/src/murata-dualstack-example-ns.c **** 
 780:../../applications/murata-dualstack-example-ns/src/murata-dualstack-example-ns.c **** /* void TIM4_IRQHandler( void ) {
 781:../../applications/murata-dualstack-example-ns/src/murata-dualstack-example-ns.c **** 
 782:../../applications/murata-dualstack-example-ns/src/murata-dualstack-example-ns.c ****   //printf("elapsed period \r\n");
 783:../../applications/murata-dualstack-example-ns/src/murata-dualstack-example-ns.c ****  
 784:../../applications/murata-dualstack-example-ns/src/murata-dualstack-example-ns.c ****   if (__HAL_TIM_GET_FLAG(&send_sleepmessage_timer, TIM_IT_UPDATE) != RESET) 
 785:../../applications/murata-dualstack-example-ns/src/murata-dualstack-example-ns.c ****   //In case other interrupts are also running
 786:../../applications/murata-dualstack-example-ns/src/murata-dualstack-example-ns.c ****   {
 787:../../applications/murata-dualstack-example-ns/src/murata-dualstack-example-ns.c ****   
 788:../../applications/murata-dualstack-example-ns/src/murata-dualstack-example-ns.c ****     if (__HAL_TIM_GET_IT_SOURCE(&send_sleepmessage_timer, TIM_IT_UPDATE) != RESET) {
 789:../../applications/murata-dualstack-example-ns/src/murata-dualstack-example-ns.c ****     
 790:../../applications/murata-dualstack-example-ns/src/murata-dualstack-example-ns.c ****     __HAL_TIM_CLEAR_IT(&send_sleepmessage_timer, TIM_IT_UPDATE);
 791:../../applications/murata-dualstack-example-ns/src/murata-dualstack-example-ns.c ****     
 792:../../applications/murata-dualstack-example-ns/src/murata-dualstack-example-ns.c ****     //if (timer4_first>0) {
 793:../../applications/murata-dualstack-example-ns/src/murata-dualstack-example-ns.c ****     printf("elapsed sleepmessage period s \r\n");
 794:../../applications/murata-dualstack-example-ns/src/murata-dualstack-example-ns.c ****     timer4flag = 1; 
 795:../../applications/murata-dualstack-example-ns/src/murata-dualstack-example-ns.c ****     
 796:../../applications/murata-dualstack-example-ns/src/murata-dualstack-example-ns.c ****     //}
 797:../../applications/murata-dualstack-example-ns/src/murata-dualstack-example-ns.c ****     //timer4_first=1; 
 798:../../applications/murata-dualstack-example-ns/src/murata-dualstack-example-ns.c ****     }
 799:../../applications/murata-dualstack-example-ns/src/murata-dualstack-example-ns.c ****   
 800:../../applications/murata-dualstack-example-ns/src/murata-dualstack-example-ns.c ****   }
 801:../../applications/murata-dualstack-example-ns/src/murata-dualstack-example-ns.c ****  
 802:../../applications/murata-dualstack-example-ns/src/murata-dualstack-example-ns.c **** } */
 803:../../applications/murata-dualstack-example-ns/src/murata-dualstack-example-ns.c **** 
 804:../../applications/murata-dualstack-example-ns/src/murata-dualstack-example-ns.c **** 
 805:../../applications/murata-dualstack-example-ns/src/murata-dualstack-example-ns.c **** // UART RX CALLBACK
 806:../../applications/murata-dualstack-example-ns/src/murata-dualstack-example-ns.c **** void HAL_UART_RxCpltCallback(UART_HandleTypeDef *huart)
 807:../../applications/murata-dualstack-example-ns/src/murata-dualstack-example-ns.c **** {
 1858              		.loc 1 807 1 is_stmt 1 view -0
 1859              		.cfi_startproc
 1860              		@ args = 0, pretend = 0, frame = 0
 1861              		@ frame_needed = 0, uses_anonymous_args = 0
 1862              		.loc 1 807 1 is_stmt 0 view .LVU440
 1863 0000 10B5     		push	{r4, lr}
 1864              	.LCFI30:
 1865              		.cfi_def_cfa_offset 8
 1866              		.cfi_offset 4, -8
 1867              		.cfi_offset 14, -4
 1868 0002 0446     		mov	r4, r0
 808:../../applications/murata-dualstack-example-ns/src/murata-dualstack-example-ns.c ****    
 809:../../applications/murata-dualstack-example-ns/src/murata-dualstack-example-ns.c ****   //printf(" in callback maar niet in juiste \r\n ");
 810:../../applications/murata-dualstack-example-ns/src/murata-dualstack-example-ns.c ****   if (huart == &P1_UART)
 1869              		.loc 1 810 3 is_stmt 1 view .LVU441
 1870              		.loc 1 810 6 is_stmt 0 view .LVU442
 1871 0004 084B     		ldr	r3, .L132
 1872 0006 9842     		cmp	r0, r3
 1873 0008 03D0     		beq	.L130
 1874              	.LVL143:
 1875              	.L127:
 811:../../applications/murata-dualstack-example-ns/src/murata-dualstack-example-ns.c ****   {
 812:../../applications/murata-dualstack-example-ns/src/murata-dualstack-example-ns.c ****     Murata_rxCallback();
 813:../../applications/murata-dualstack-example-ns/src/murata-dualstack-example-ns.c ****     murata_data_ready = 1;
 814:../../applications/murata-dualstack-example-ns/src/murata-dualstack-example-ns.c ****   }
ARM GAS  C:\Users\yvesk\AppData\Local\Temp\cc6ysVum.s 			page 51


 815:../../applications/murata-dualstack-example-ns/src/murata-dualstack-example-ns.c **** 
 816:../../applications/murata-dualstack-example-ns/src/murata-dualstack-example-ns.c ****   if (huart == &BLE_UART) {
 1876              		.loc 1 816 3 is_stmt 1 view .LVU443
 1877              		.loc 1 816 6 is_stmt 0 view .LVU444
 1878 000a 084B     		ldr	r3, .L132+4
 1879 000c 9C42     		cmp	r4, r3
 1880 000e 06D0     		beq	.L131
 1881              	.L126:
 817:../../applications/murata-dualstack-example-ns/src/murata-dualstack-example-ns.c ****         BLE_flag = 1; 
 818:../../applications/murata-dualstack-example-ns/src/murata-dualstack-example-ns.c ****   }
 819:../../applications/murata-dualstack-example-ns/src/murata-dualstack-example-ns.c **** }
 1882              		.loc 1 819 1 view .LVU445
 1883 0010 10BD     		pop	{r4, pc}
 1884              	.LVL144:
 1885              	.L130:
 812:../../applications/murata-dualstack-example-ns/src/murata-dualstack-example-ns.c ****     murata_data_ready = 1;
 1886              		.loc 1 812 5 is_stmt 1 view .LVU446
 1887 0012 FFF7FEFF 		bl	Murata_rxCallback
 1888              	.LVL145:
 813:../../applications/murata-dualstack-example-ns/src/murata-dualstack-example-ns.c ****   }
 1889              		.loc 1 813 5 view .LVU447
 813:../../applications/murata-dualstack-example-ns/src/murata-dualstack-example-ns.c ****   }
 1890              		.loc 1 813 23 is_stmt 0 view .LVU448
 1891 0016 064B     		ldr	r3, .L132+8
 1892 0018 0122     		movs	r2, #1
 1893 001a 1A70     		strb	r2, [r3]
 1894 001c F5E7     		b	.L127
 1895              	.L131:
 817:../../applications/murata-dualstack-example-ns/src/murata-dualstack-example-ns.c ****         BLE_flag = 1; 
 1896              		.loc 1 817 9 is_stmt 1 view .LVU449
 817:../../applications/murata-dualstack-example-ns/src/murata-dualstack-example-ns.c ****         BLE_flag = 1; 
 1897              		.loc 1 817 18 is_stmt 0 view .LVU450
 1898 001e 054B     		ldr	r3, .L132+12
 1899 0020 0122     		movs	r2, #1
 1900 0022 1A70     		strb	r2, [r3]
 1901              		.loc 1 819 1 view .LVU451
 1902 0024 F4E7     		b	.L126
 1903              	.L133:
 1904 0026 00BF     		.align	2
 1905              	.L132:
 1906 0028 00000000 		.word	P1_UART
 1907 002c 00000000 		.word	BLE_UART
 1908 0030 00000000 		.word	.LANCHOR9
 1909 0034 00000000 		.word	.LANCHOR23
 1910              		.cfi_endproc
 1911              	.LFE150:
 1913              		.section	.text.HAL_TIM_PeriodElapsedCallback,"ax",%progbits
 1914              		.align	1
 1915              		.global	HAL_TIM_PeriodElapsedCallback
 1916              		.syntax unified
 1917              		.thumb
 1918              		.thumb_func
 1919              		.fpu fpv4-sp-d16
 1921              	HAL_TIM_PeriodElapsedCallback:
 1922              	.LVL146:
 1923              	.LFB151:
 820:../../applications/murata-dualstack-example-ns/src/murata-dualstack-example-ns.c **** 
ARM GAS  C:\Users\yvesk\AppData\Local\Temp\cc6ysVum.s 			page 52


 821:../../applications/murata-dualstack-example-ns/src/murata-dualstack-example-ns.c **** 
 822:../../applications/murata-dualstack-example-ns/src/murata-dualstack-example-ns.c **** //--------------------------------------------------------------------end interrupt handlers-------
 823:../../applications/murata-dualstack-example-ns/src/murata-dualstack-example-ns.c **** 
 824:../../applications/murata-dualstack-example-ns/src/murata-dualstack-example-ns.c **** 
 825:../../applications/murata-dualstack-example-ns/src/murata-dualstack-example-ns.c **** /**
 826:../../applications/murata-dualstack-example-ns/src/murata-dualstack-example-ns.c ****   * @brief  Period elapsed callback in non blocking mode
 827:../../applications/murata-dualstack-example-ns/src/murata-dualstack-example-ns.c ****   * @note   This function is called  when TIM1 interrupt took place, inside
 828:../../applications/murata-dualstack-example-ns/src/murata-dualstack-example-ns.c ****   * HAL_TIM_IRQHandler(). It makes a direct call to HAL_IncTick() to increment
 829:../../applications/murata-dualstack-example-ns/src/murata-dualstack-example-ns.c ****   * a global variable "uwTick" used as application time base.
 830:../../applications/murata-dualstack-example-ns/src/murata-dualstack-example-ns.c ****   * @param  htim : TIM handle
 831:../../applications/murata-dualstack-example-ns/src/murata-dualstack-example-ns.c ****   * @retval None
 832:../../applications/murata-dualstack-example-ns/src/murata-dualstack-example-ns.c ****   */
 833:../../applications/murata-dualstack-example-ns/src/murata-dualstack-example-ns.c **** void HAL_TIM_PeriodElapsedCallback(TIM_HandleTypeDef *htim)
 834:../../applications/murata-dualstack-example-ns/src/murata-dualstack-example-ns.c **** {
 1924              		.loc 1 834 1 is_stmt 1 view -0
 1925              		.cfi_startproc
 1926              		@ args = 0, pretend = 0, frame = 0
 1927              		@ frame_needed = 0, uses_anonymous_args = 0
 1928              		.loc 1 834 1 is_stmt 0 view .LVU453
 1929 0000 08B5     		push	{r3, lr}
 1930              	.LCFI31:
 1931              		.cfi_def_cfa_offset 8
 1932              		.cfi_offset 3, -8
 1933              		.cfi_offset 14, -4
 835:../../applications/murata-dualstack-example-ns/src/murata-dualstack-example-ns.c ****   /* USER CODE BEGIN Callback 0 */
 836:../../applications/murata-dualstack-example-ns/src/murata-dualstack-example-ns.c **** 
 837:../../applications/murata-dualstack-example-ns/src/murata-dualstack-example-ns.c ****   /* USER CODE END Callback 0 */
 838:../../applications/murata-dualstack-example-ns/src/murata-dualstack-example-ns.c ****   if (htim->Instance == TIM1)
 1934              		.loc 1 838 3 is_stmt 1 view .LVU454
 1935              		.loc 1 838 11 is_stmt 0 view .LVU455
 1936 0002 0268     		ldr	r2, [r0]
 1937              		.loc 1 838 6 view .LVU456
 1938 0004 034B     		ldr	r3, .L138
 1939 0006 9A42     		cmp	r2, r3
 1940 0008 00D0     		beq	.L137
 1941              	.LVL147:
 1942              	.L134:
 839:../../applications/murata-dualstack-example-ns/src/murata-dualstack-example-ns.c ****   {
 840:../../applications/murata-dualstack-example-ns/src/murata-dualstack-example-ns.c ****     HAL_IncTick();
 841:../../applications/murata-dualstack-example-ns/src/murata-dualstack-example-ns.c ****   }
 842:../../applications/murata-dualstack-example-ns/src/murata-dualstack-example-ns.c ****   /* USER CODE BEGIN Callback 1 */
 843:../../applications/murata-dualstack-example-ns/src/murata-dualstack-example-ns.c **** 
 844:../../applications/murata-dualstack-example-ns/src/murata-dualstack-example-ns.c ****   /* USER CODE END Callback 1 */
 845:../../applications/murata-dualstack-example-ns/src/murata-dualstack-example-ns.c **** }
 1943              		.loc 1 845 1 view .LVU457
 1944 000a 08BD     		pop	{r3, pc}
 1945              	.LVL148:
 1946              	.L137:
 840:../../applications/murata-dualstack-example-ns/src/murata-dualstack-example-ns.c ****   }
 1947              		.loc 1 840 5 is_stmt 1 view .LVU458
 1948 000c FFF7FEFF 		bl	HAL_IncTick
 1949              	.LVL149:
 1950              		.loc 1 845 1 is_stmt 0 view .LVU459
 1951 0010 FBE7     		b	.L134
 1952              	.L139:
 1953 0012 00BF     		.align	2
 1954              	.L138:
ARM GAS  C:\Users\yvesk\AppData\Local\Temp\cc6ysVum.s 			page 53


 1955 0014 002C0140 		.word	1073818624
 1956              		.cfi_endproc
 1957              	.LFE151:
 1959              		.section	.text.Error_Handler,"ax",%progbits
 1960              		.align	1
 1961              		.global	Error_Handler
 1962              		.syntax unified
 1963              		.thumb
 1964              		.thumb_func
 1965              		.fpu fpv4-sp-d16
 1967              	Error_Handler:
 1968              	.LFB152:
 846:../../applications/murata-dualstack-example-ns/src/murata-dualstack-example-ns.c **** 
 847:../../applications/murata-dualstack-example-ns/src/murata-dualstack-example-ns.c **** /**
 848:../../applications/murata-dualstack-example-ns/src/murata-dualstack-example-ns.c ****   * @brief  This function is executed in case of error occurrence.
 849:../../applications/murata-dualstack-example-ns/src/murata-dualstack-example-ns.c ****   * @retval None
 850:../../applications/murata-dualstack-example-ns/src/murata-dualstack-example-ns.c ****   */
 851:../../applications/murata-dualstack-example-ns/src/murata-dualstack-example-ns.c **** void Error_Handler(void)
 852:../../applications/murata-dualstack-example-ns/src/murata-dualstack-example-ns.c **** {
 1969              		.loc 1 852 1 is_stmt 1 view -0
 1970              		.cfi_startproc
 1971              		@ args = 0, pretend = 0, frame = 0
 1972              		@ frame_needed = 0, uses_anonymous_args = 0
 1973              		@ link register save eliminated.
 853:../../applications/murata-dualstack-example-ns/src/murata-dualstack-example-ns.c ****   /* USER CODE BEGIN Error_Handler_Debug */
 854:../../applications/murata-dualstack-example-ns/src/murata-dualstack-example-ns.c ****   /* User can add his own implementation to report the HAL error return state */
 855:../../applications/murata-dualstack-example-ns/src/murata-dualstack-example-ns.c **** 
 856:../../applications/murata-dualstack-example-ns/src/murata-dualstack-example-ns.c ****   /* USER CODE END Error_Handler_Debug */
 857:../../applications/murata-dualstack-example-ns/src/murata-dualstack-example-ns.c **** }
 1974              		.loc 1 857 1 view .LVU461
 1975 0000 7047     		bx	lr
 1976              		.cfi_endproc
 1977              	.LFE152:
 1979              		.global	rebooted
 1980              		.global	lorawanflag
 1981              		.global	BLE_flag
 1982              		.global	timer4_first
 1983              		.global	timer3_first
 1984              		.global	messageMode
 1985              		.global	changeAcceleroMode
 1986              		.global	repMode
 1987              		.global	repFlag
 1988              		.global	timer4flag
 1989              		.global	timer3flag
 1990              		.global	timer2flag
 1991              		.global	temperatureflag
 1992              		.global	loracounter
 1993              		.global	val
 1994              		.comm	data,1,1
 1995              		.global	gewicht
 1996              		.comm	tmpbuf_ble,2,4
 1997              		.comm	SHTData,8,4
 1998              		.global	about_to_sleep
 1999              		.global	succes
 2000              		.global	isActiveSending
 2001              		.global	messageCounter
 2002              		.global	successCounter
ARM GAS  C:\Users\yvesk\AppData\Local\Temp\cc6ysVum.s 			page 54


 2003              		.global	failureCounter
 2004              		.global	rep_counter
 2005              		.global	murata_data_ready
 2006              		.comm	short_UID,8,8
 2007              		.global	murata_init
 2008              		.global	DASH7_Counter
 2009              		.global	LoRaWAN_Counter
 2010              		.comm	threadToNotify,4,4
 2011              		.comm	murata_reset_pin,4,4
 2012              		.comm	murata_wakeup_pin,4,4
 2013              		.comm	magRawData,6,4
 2014              		.comm	magRegisterData,6,4
 2015              		.comm	accRawData,6,4
 2016              		.comm	accRegisterData,6,4
 2017              		.comm	LSM303AGR_hi2c,4,4
 2018              		.comm	LSM303AGR_setting,1,1
 2019              		.comm	murata_rx_process_mutex_id,4,4
 2020              		.comm	txMutexId,4,4
 2021              		.comm	moduleCheckTimId,4,4
 2022              		.comm	dash7TimId,4,4
 2023              		.comm	loraWANTimId,4,4
 2024              		.comm	iwdgTimId,4,4
 2025              		.comm	murata_rx_processing_handle,4,4
 2026              		.comm	defaultTaskHandle,4,4
 2027              		.comm	P3_header,44,4
 2028              		.comm	P2_header,44,4
 2029              		.comm	P1_header,44,4
 2030              		.comm	FLASH_SPI,100,4
 2031              		.comm	P3_SPI,100,4
 2032              		.comm	P2_SPI,100,4
 2033              		.comm	P1_SPI,100,4
 2034              		.comm	P3_I2C,76,4
 2035              		.comm	P2_I2C,76,4
 2036              		.comm	P1_I2C,76,4
 2037              		.comm	common_I2C,76,4
 2038              		.comm	P3_UART,120,4
 2039              		.comm	P2_UART,120,4
 2040              		.comm	P1_UART,120,4
 2041              		.comm	BLE_UART,120,4
 2042              		.comm	USB_UART,120,4
 2043              		.comm	hiwdg,16,4
 2044              		.comm	P3_DIO6,8,4
 2045              		.comm	P3_DIO5,8,4
 2046              		.comm	P3_DIO4,8,4
 2047              		.comm	P3_DIO3,8,4
 2048              		.comm	P3_DIO2,8,4
 2049              		.comm	P3_DIO1,8,4
 2050              		.comm	P2_DIO6,8,4
 2051              		.comm	P2_DIO5,8,4
 2052              		.comm	P2_DIO4,8,4
 2053              		.comm	P2_DIO3,8,4
 2054              		.comm	P2_DIO2,8,4
 2055              		.comm	P2_DIO1,8,4
 2056              		.comm	P1_DIO6,8,4
 2057              		.comm	P1_DIO5,8,4
 2058              		.comm	P1_DIO4,8,4
 2059              		.comm	P1_DIO3,8,4
ARM GAS  C:\Users\yvesk\AppData\Local\Temp\cc6ysVum.s 			page 55


 2060              		.comm	P1_DIO2,8,4
 2061              		.comm	P1_DIO1,8,4
 2062              		.section	.bss.BLE_flag,"aw",%nobits
 2063              		.set	.LANCHOR23,. + 0
 2066              	BLE_flag:
 2067 0000 00       		.space	1
 2068              		.section	.bss.DASH7_Counter,"aw",%nobits
 2069              		.align	1
 2070              		.set	.LANCHOR7,. + 0
 2073              	DASH7_Counter:
 2074 0000 0000     		.space	2
 2075              		.section	.bss.LoRaWAN_Counter,"aw",%nobits
 2076              		.align	1
 2077              		.set	.LANCHOR4,. + 0
 2080              	LoRaWAN_Counter:
 2081 0000 0000     		.space	2
 2082              		.section	.bss.about_to_sleep,"aw",%nobits
 2083              		.set	.LANCHOR18,. + 0
 2086              	about_to_sleep:
 2087 0000 00       		.space	1
 2088              		.section	.bss.changeAcceleroMode,"aw",%nobits
 2089              		.set	.LANCHOR13,. + 0
 2092              	changeAcceleroMode:
 2093 0000 00       		.space	1
 2094              		.section	.bss.failureCounter,"aw",%nobits
 2095              		.set	.LANCHOR20,. + 0
 2098              	failureCounter:
 2099 0000 00       		.space	1
 2100              		.section	.bss.gewicht,"aw",%nobits
 2103              	gewicht:
 2104 0000 00       		.space	1
 2105              		.section	.bss.isActiveSending,"aw",%nobits
 2106              		.set	.LANCHOR12,. + 0
 2109              	isActiveSending:
 2110 0000 00       		.space	1
 2111              		.section	.bss.loracounter,"aw",%nobits
 2112              		.set	.LANCHOR22,. + 0
 2115              	loracounter:
 2116 0000 00       		.space	1
 2117              		.section	.bss.lorawanflag,"aw",%nobits
 2120              	lorawanflag:
 2121 0000 00       		.space	1
 2122              		.section	.bss.messageCounter,"aw",%nobits
 2123              		.set	.LANCHOR5,. + 0
 2126              	messageCounter:
 2127 0000 00       		.space	1
 2128              		.section	.bss.messageMode,"aw",%nobits
 2129              		.set	.LANCHOR11,. + 0
 2132              	messageMode:
 2133 0000 00       		.space	1
 2134              		.section	.bss.murata_data_ready,"aw",%nobits
 2135              		.set	.LANCHOR9,. + 0
 2138              	murata_data_ready:
 2139 0000 00       		.space	1
 2140              		.section	.bss.murata_init,"aw",%nobits
 2141              		.set	.LANCHOR3,. + 0
 2144              	murata_init:
ARM GAS  C:\Users\yvesk\AppData\Local\Temp\cc6ysVum.s 			page 56


 2145 0000 00       		.space	1
 2146              		.section	.bss.rebooted,"aw",%nobits
 2147              		.set	.LANCHOR10,. + 0
 2150              	rebooted:
 2151 0000 00       		.space	1
 2152              		.section	.bss.repFlag,"aw",%nobits
 2153              		.set	.LANCHOR15,. + 0
 2156              	repFlag:
 2157 0000 00       		.space	1
 2158              		.section	.bss.repMode,"aw",%nobits
 2159              		.set	.LANCHOR14,. + 0
 2162              	repMode:
 2163 0000 00       		.space	1
 2164              		.section	.bss.rep_counter,"aw",%nobits
 2165              		.set	.LANCHOR8,. + 0
 2168              	rep_counter:
 2169 0000 00       		.space	1
 2170              		.section	.bss.succes,"aw",%nobits
 2171              		.set	.LANCHOR19,. + 0
 2174              	succes:
 2175 0000 00       		.space	1
 2176              		.section	.bss.successCounter,"aw",%nobits
 2177              		.set	.LANCHOR21,. + 0
 2180              	successCounter:
 2181 0000 00       		.space	1
 2182              		.section	.bss.temperatureflag,"aw",%nobits
 2185              	temperatureflag:
 2186 0000 00       		.space	1
 2187              		.section	.bss.timer2flag,"aw",%nobits
 2188              		.set	.LANCHOR16,. + 0
 2191              	timer2flag:
 2192 0000 00       		.space	1
 2193              		.section	.bss.timer3_first,"aw",%nobits
 2194              		.set	.LANCHOR2,. + 0
 2197              	timer3_first:
 2198 0000 00       		.space	1
 2199              		.section	.bss.timer3flag,"aw",%nobits
 2200              		.set	.LANCHOR17,. + 0
 2203              	timer3flag:
 2204 0000 00       		.space	1
 2205              		.section	.bss.timer4_first,"aw",%nobits
 2208              	timer4_first:
 2209 0000 00       		.space	1
 2210              		.section	.bss.timer4flag,"aw",%nobits
 2213              	timer4flag:
 2214 0000 00       		.space	1
 2215              		.section	.bss.val,"aw",%nobits
 2216              		.set	.LANCHOR6,. + 0
 2219              	val:
 2220 0000 00       		.space	1
 2221              		.section	.data.inactive_timer,"aw"
 2222              		.align	2
 2223              		.set	.LANCHOR1,. + 0
 2226              	inactive_timer:
 2227 0000 00040040 		.word	1073742848
 2228 0004 00000000 		.space	60
 2228      00000000 
ARM GAS  C:\Users\yvesk\AppData\Local\Temp\cc6ysVum.s 			page 57


 2228      00000000 
 2228      00000000 
 2228      00000000 
 2229              		.section	.data.localisation_timer,"aw"
 2230              		.align	2
 2231              		.set	.LANCHOR0,. + 0
 2234              	localisation_timer:
 2235 0000 00000040 		.word	1073741824
 2236 0004 00000000 		.space	60
 2236      00000000 
 2236      00000000 
 2236      00000000 
 2236      00000000 
 2237              		.section	.rodata.EXTI1_IRQHandler.str1.4,"aMS",%progbits,1
 2238              		.align	2
 2239              	.LC28:
 2240 0000 494E5445 		.ascii	"INTERRUPT BUTTON! \015\000"
 2240      52525550 
 2240      54204255 
 2240      54544F4E 
 2240      21200D00 
 2241              		.section	.rodata.HAL_GPIO_EXTI_Callback.str1.4,"aMS",%progbits,1
 2242              		.align	2
 2243              	.LC27:
 2244 0000 6D6F7665 		.ascii	"movement detected! \015\000"
 2244      6D656E74 
 2244      20646574 
 2244      65637465 
 2244      6421200D 
 2245              		.section	.rodata.LoRaWAN_send.str1.4,"aMS",%progbits,1
 2246              		.align	2
 2247              	.LC2:
 2248 0000 6D757261 		.ascii	"murata not initialized, not sending\015\000"
 2248      7461206E 
 2248      6F742069 
 2248      6E697469 
 2248      616C697A 
 2249              		.section	.rodata.ble_callback.str1.4,"aMS",%progbits,1
 2250              		.align	2
 2251              	.LC6:
 2252 0000 25640D0A 		.ascii	"%d\015\012\000"
 2252      00
 2253 0005 000000   		.space	3
 2254              	.LC7:
 2255 0008 626C7565 		.ascii	"bluetooth callback\000"
 2255      746F6F74 
 2255      68206361 
 2255      6C6C6261 
 2255      636B00
 2256              		.section	.rodata.goToSleep.str1.4,"aMS",%progbits,1
 2257              		.align	2
 2258              	.LC0:
 2259 0000 676F696E 		.ascii	"going into sleepmode\015\000"
 2259      6720696E 
 2259      746F2073 
 2259      6C656570 
 2259      6D6F6465 
ARM GAS  C:\Users\yvesk\AppData\Local\Temp\cc6ysVum.s 			page 58


 2260 0016 0000     		.space	2
 2261              	.LC1:
 2262 0018 2063616D 		.ascii	" came out of sleepmode \015\000"
 2262      65206F75 
 2262      74206F66 
 2262      20736C65 
 2262      65706D6F 
 2263              		.section	.rodata.main.str1.4,"aMS",%progbits,1
 2264              		.align	2
 2265              	.LC13:
 2266 0000 4D757261 		.ascii	"Murata dualstack module init OK\015\012\015\000"
 2266      74612064 
 2266      75616C73 
 2266      7461636B 
 2266      206D6F64 
 2267 0023 00       		.space	1
 2268              	.LC14:
 2269 0024 53746172 		.ascii	"Started Repping\015\000"
 2269      74656420 
 2269      52657070 
 2269      696E670D 
 2269      00
 2270 0035 000000   		.space	3
 2271              	.LC15:
 2272 0038 4C534D20 		.ascii	"LSM in double click mode \015\000"
 2272      696E2064 
 2272      6F75626C 
 2272      6520636C 
 2272      69636B20 
 2273 0053 00       		.space	1
 2274              	.LC16:
 2275 0054 53656E64 		.ascii	"Sending D7 Message with BLE info + temp + hum\015\000"
 2275      696E6720 
 2275      4437204D 
 2275      65737361 
 2275      67652077 
 2276 0083 00       		.space	1
 2277              	.LC17:
 2278 0084 53746F70 		.ascii	"Stopped Repping\012LSM in default mode \015\012\000"
 2278      70656420 
 2278      52657070 
 2278      696E670A 
 2278      4C534D20 
 2279 00ab 00       		.space	1
 2280              	.LC18:
 2281 00ac 53656E64 		.ascii	"Sending D7 Message with BLE info + temp + hum + amo"
 2281      696E6720 
 2281      4437204D 
 2281      65737361 
 2281      67652077 
 2282 00df 756E7420 		.ascii	"unt of reps\015\000"
 2282      6F662072 
 2282      6570730D 
 2282      00
 2283              	.LC19:
 2284 00ec 52657020 		.ascii	"Rep counter: %d,\015\012\015\012\000"
 2284      636F756E 
ARM GAS  C:\Users\yvesk\AppData\Local\Temp\cc6ysVum.s 			page 59


 2284      7465723A 
 2284      2025642C 
 2284      0D0A0D0A 
 2285 0101 000000   		.space	3
 2286              	.LC20:
 2287 0104 4C6F6361 		.ascii	"Localisation timer elapsed\015\000"
 2287      6C697361 
 2287      74696F6E 
 2287      2074696D 
 2287      65722065 
 2288              	.LC21:
 2289 0120 53656E64 		.ascii	"Sending dash7 localisation message (once per minute"
 2289      696E6720 
 2289      64617368 
 2289      37206C6F 
 2289      63616C69 
 2290 0153 290D0A0D 		.ascii	")\015\012\015\000"
 2290      00
 2291              	.LC22:
 2292 0158 496E6163 		.ascii	"Inactive timer expired, sending last message\015\012"
 2292      74697665 
 2292      2074696D 
 2292      65722065 
 2292      78706972 
 2293 0186 0D00     		.ascii	"\015\000"
 2294              	.LC23:
 2295 0188 4661696C 		.ascii	"Failure counter = %d\015\012\000"
 2295      75726520 
 2295      636F756E 
 2295      74657220 
 2295      3D202564 
 2296 019f 00       		.space	1
 2297              	.LC24:
 2298 01a0 476F696E 		.ascii	"Going to LoRaWAN mode\015\012\015\000"
 2298      6720746F 
 2298      204C6F52 
 2298      6157414E 
 2298      206D6F64 
 2299 01b9 000000   		.space	3
 2300              	.LC25:
 2301 01bc 43686563 		.ascii	"Check again for dash7 \015\012\015\000"
 2301      6B206167 
 2301      61696E20 
 2301      666F7220 
 2301      64617368 
 2302 01d6 0000     		.space	2
 2303              	.LC26:
 2304 01d8 0A476F69 		.ascii	"\012Going to dash7 mode\015\012\015\000"
 2304      6E672074 
 2304      6F206461 
 2304      73683720 
 2304      6D6F6465 
 2305              		.section	.rodata.printWelcome.str1.4,"aMS",%progbits,1
 2306              		.align	2
 2307              	.LC8:
 2308 0000 2A2A2A2A 		.ascii	"*****************************************\015\000"
 2308      2A2A2A2A 
ARM GAS  C:\Users\yvesk\AppData\Local\Temp\cc6ysVum.s 			page 60


 2308      2A2A2A2A 
 2308      2A2A2A2A 
 2308      2A2A2A2A 
 2309 002b 00       		.space	1
 2310              	.LC9:
 2311 002c 44452053 		.ascii	"DE SMARTHALTER DELUXE\015\000"
 2311      4D415254 
 2311      48414C54 
 2311      45522044 
 2311      454C5558 
 2312 0043 00       		.space	1
 2313              	.LC10:
 2314 0044 6F637461 		.ascii	"octa ID: \000"
 2314      2049443A 
 2314      2000
 2315 004e 0000     		.space	2
 2316              	.LC11:
 2317 0050 25303278 		.ascii	"%02x\000"
 2317      00
 2318 0055 000000   		.space	3
 2319              	.LC12:
 2320 0058 0D0A0D00 		.ascii	"\015\012\015\000"
 2321              		.section	.rodata.print_temp_hum.str1.4,"aMS",%progbits,1
 2322              		.align	2
 2323              	.LC3:
 2324 0000 0D00     		.ascii	"\015\000"
 2325 0002 0000     		.space	2
 2326              	.LC4:
 2327 0004 54656D70 		.ascii	"Temperature: %.2f \302\260C  \015\012\000"
 2327      65726174 
 2327      7572653A 
 2327      20252E32 
 2327      6620C2B0 
 2328 001e 0000     		.space	2
 2329              	.LC5:
 2330 0020 48756D69 		.ascii	"Humidity: %.2f %% \015\012\000"
 2330      64697479 
 2330      3A20252E 
 2330      32662025 
 2330      25200D0A 
 2331              		.weak	SystemClock_Config
 2332              		.text
 2333              	.Letext0:
 2334              		.file 2 "c:\\program files (x86)\\gnu tools arm embedded\\8 2019-q3-update\\arm-none-eabi\\include
 2335              		.file 3 "c:\\program files (x86)\\gnu tools arm embedded\\8 2019-q3-update\\arm-none-eabi\\include
 2336              		.file 4 "../../core/ST/CMSIS/Include/core_cm4.h"
 2337              		.file 5 "../../core/ST/CMSIS/Device/ST/STM32L4xx/Include/system_stm32l4xx.h"
 2338              		.file 6 "../../core/ST/CMSIS/Device/ST/STM32L4xx/Include/stm32l496xx.h"
 2339              		.file 7 "../../core/ST/CMSIS/Device/ST/STM32L4xx/Include/stm32l4xx.h"
 2340              		.file 8 "../../core/ST/STM32L4xx_HAL_Driver/Inc/stm32l4xx_hal_def.h"
 2341              		.file 9 "../../core/ST/STM32L4xx_HAL_Driver/Inc/stm32l4xx_hal_dma.h"
 2342              		.file 10 "../../core/ST/STM32L4xx_HAL_Driver/Inc/stm32l4xx_hal_i2c.h"
 2343              		.file 11 "../../core/ST/STM32L4xx_HAL_Driver/Inc/stm32l4xx_hal_iwdg.h"
 2344              		.file 12 "../../core/ST/STM32L4xx_HAL_Driver/Inc/stm32l4xx_hal_spi.h"
 2345              		.file 13 "../../core/ST/STM32L4xx_HAL_Driver/Inc/stm32l4xx_hal_tim.h"
 2346              		.file 14 "../../core/ST/STM32L4xx_HAL_Driver/Inc/stm32l4xx_hal_uart.h"
 2347              		.file 15 "../../core/ST/STM32L4xx_HAL_Driver/Inc/stm32l4xx_hal.h"
ARM GAS  C:\Users\yvesk\AppData\Local\Temp\cc6ysVum.s 			page 61


 2348              		.file 16 "../../core/ST/Middlewares/Third_Party/FreeRTOS/Source/include/task.h"
 2349              		.file 17 "../../core/ST/Middlewares/Third_Party/FreeRTOS/Source/include/timers.h"
 2350              		.file 18 "../../core/ST/Middlewares/Third_Party/FreeRTOS/Source/include/queue.h"
 2351              		.file 19 "../../core/ST/Middlewares/Third_Party/FreeRTOS/Source/include/semphr.h"
 2352              		.file 20 "../../core/ST/Middlewares/Third_Party/FreeRTOS/Source/CMSIS_RTOS/cmsis_os.h"
 2353              		.file 21 "../../core/platform/octa/inc/gpio.h"
 2354              		.file 22 "../../core/platform/octa/inc/iwdg.h"
 2355              		.file 23 "../../core/platform/octa/inc/uart.h"
 2356              		.file 24 "../../core/platform/octa/inc/i2c.h"
 2357              		.file 25 "../../core/platform/octa/inc/spi.h"
 2358              		.file 26 "../../core/platform/octa/inc/octa.h"
 2359              		.file 27 "../../applications/murata-dualstack-example-ns/inc/murata-dualstack-example-ns.h"
 2360              		.file 28 "../../core/drivers/LSM303AGR/inc/LSM303AGRSensor.h"
 2361              		.file 29 "c:\\program files (x86)\\gnu tools arm embedded\\8 2019-q3-update\\lib\\gcc\\arm-none-ea
 2362              		.file 30 "c:\\program files (x86)\\gnu tools arm embedded\\8 2019-q3-update\\arm-none-eabi\\includ
 2363              		.file 31 "c:\\program files (x86)\\gnu tools arm embedded\\8 2019-q3-update\\arm-none-eabi\\includ
 2364              		.file 32 "c:\\program files (x86)\\gnu tools arm embedded\\8 2019-q3-update\\arm-none-eabi\\includ
 2365              		.file 33 "../../shields/Murata-dualstack/inc/murata.h"
 2366              		.file 34 "<built-in>"
 2367              		.file 35 "../../core/ST/STM32L4xx_HAL_Driver/Inc/stm32l4xx_hal_gpio.h"
 2368              		.file 36 "c:\\program files (x86)\\gnu tools arm embedded\\8 2019-q3-update\\arm-none-eabi\\includ
 2369              		.file 37 "../../core/ST/STM32L4xx_HAL_Driver/Inc/stm32l4xx_hal_pwr.h"
 2370              		.file 38 "../../core/platform/octa/inc/sysclock.h"
 2371              		.file 39 "../../core/platform/common/inc/platform.h"
 2372              		.file 40 "../../core/ST/STM32L4xx_HAL_Driver/Inc/stm32l4xx_hal_cortex.h"
ARM GAS  C:\Users\yvesk\AppData\Local\Temp\cc6ysVum.s 			page 62


DEFINED SYMBOLS
                            *ABS*:00000000 murata-dualstack-example-ns.c
C:\Users\yvesk\AppData\Local\Temp\cc6ysVum.s:18     .text.InitializeTimer2:00000000 $t
C:\Users\yvesk\AppData\Local\Temp\cc6ysVum.s:26     .text.InitializeTimer2:00000000 InitializeTimer2
C:\Users\yvesk\AppData\Local\Temp\cc6ysVum.s:103    .text.InitializeTimer2:00000050 $d
C:\Users\yvesk\AppData\Local\Temp\cc6ysVum.s:109    .text.InitializeTimer3:00000000 $t
C:\Users\yvesk\AppData\Local\Temp\cc6ysVum.s:116    .text.InitializeTimer3:00000000 InitializeTimer3
C:\Users\yvesk\AppData\Local\Temp\cc6ysVum.s:192    .text.InitializeTimer3:00000050 $d
C:\Users\yvesk\AppData\Local\Temp\cc6ysVum.s:198    .text.goToSleep:00000000 $t
C:\Users\yvesk\AppData\Local\Temp\cc6ysVum.s:205    .text.goToSleep:00000000 goToSleep
C:\Users\yvesk\AppData\Local\Temp\cc6ysVum.s:248    .text.goToSleep:0000002c $d
C:\Users\yvesk\AppData\Local\Temp\cc6ysVum.s:255    .text.LoRaWAN_send:00000000 $t
C:\Users\yvesk\AppData\Local\Temp\cc6ysVum.s:262    .text.LoRaWAN_send:00000000 LoRaWAN_send
C:\Users\yvesk\AppData\Local\Temp\cc6ysVum.s:370    .text.LoRaWAN_send:00000064 $d
                            *COM*:00000008 SHTData
C:\Users\yvesk\AppData\Local\Temp\cc6ysVum.s:378    .text.Dash7_send_temphum:00000000 $t
C:\Users\yvesk\AppData\Local\Temp\cc6ysVum.s:385    .text.Dash7_send_temphum:00000000 Dash7_send_temphum
C:\Users\yvesk\AppData\Local\Temp\cc6ysVum.s:509    .text.Dash7_send_temphum:00000078 $d
C:\Users\yvesk\AppData\Local\Temp\cc6ysVum.s:519    .text.Dash7_send_allInfo:00000000 $t
C:\Users\yvesk\AppData\Local\Temp\cc6ysVum.s:526    .text.Dash7_send_allInfo:00000000 Dash7_send_allInfo
C:\Users\yvesk\AppData\Local\Temp\cc6ysVum.s:653    .text.Dash7_send_allInfo:0000007c $d
C:\Users\yvesk\AppData\Local\Temp\cc6ysVum.s:665    .text.print_temp_hum:00000000 $t
C:\Users\yvesk\AppData\Local\Temp\cc6ysVum.s:672    .text.print_temp_hum:00000000 print_temp_hum
C:\Users\yvesk\AppData\Local\Temp\cc6ysVum.s:720    .text.print_temp_hum:00000034 $d
C:\Users\yvesk\AppData\Local\Temp\cc6ysVum.s:728    .text.temp_hum_measurement:00000000 $t
C:\Users\yvesk\AppData\Local\Temp\cc6ysVum.s:735    .text.temp_hum_measurement:00000000 temp_hum_measurement
C:\Users\yvesk\AppData\Local\Temp\cc6ysVum.s:758    .text.temp_hum_measurement:00000010 $d
C:\Users\yvesk\AppData\Local\Temp\cc6ysVum.s:763    .text.ble_callback:00000000 $t
C:\Users\yvesk\AppData\Local\Temp\cc6ysVum.s:770    .text.ble_callback:00000000 ble_callback
C:\Users\yvesk\AppData\Local\Temp\cc6ysVum.s:825    .text.ble_callback:00000038 $d
                            *COM*:00000002 tmpbuf_ble
C:\Users\yvesk\AppData\Local\Temp\cc6ysVum.s:833    .text.vApplicationIdleHook:00000000 $t
C:\Users\yvesk\AppData\Local\Temp\cc6ysVum.s:840    .text.vApplicationIdleHook:00000000 vApplicationIdleHook
C:\Users\yvesk\AppData\Local\Temp\cc6ysVum.s:853    .text.printWelcome:00000000 $t
C:\Users\yvesk\AppData\Local\Temp\cc6ysVum.s:860    .text.printWelcome:00000000 printWelcome
C:\Users\yvesk\AppData\Local\Temp\cc6ysVum.s:957    .text.printWelcome:00000070 $d
                            *COM*:00000008 short_UID
C:\Users\yvesk\AppData\Local\Temp\cc6ysVum.s:969    .text.quickBlink:00000000 $t
C:\Users\yvesk\AppData\Local\Temp\cc6ysVum.s:976    .text.quickBlink:00000000 quickBlink
C:\Users\yvesk\AppData\Local\Temp\cc6ysVum.s:1007   .text.quickBlink:00000024 $d
C:\Users\yvesk\AppData\Local\Temp\cc6ysVum.s:1012   .text.send_message:00000000 $t
C:\Users\yvesk\AppData\Local\Temp\cc6ysVum.s:1019   .text.send_message:00000000 send_message
C:\Users\yvesk\AppData\Local\Temp\cc6ysVum.s:1041   .text.main:00000000 $t
C:\Users\yvesk\AppData\Local\Temp\cc6ysVum.s:1048   .text.main:00000000 main
C:\Users\yvesk\AppData\Local\Temp\cc6ysVum.s:1600   .text.main:00000284 $d
                            *COM*:0000004c common_I2C
                            *COM*:00000078 BLE_UART
C:\Users\yvesk\AppData\Local\Temp\cc6ysVum.s:1641   .text.HAL_GPIO_EXTI_Callback:00000000 $t
C:\Users\yvesk\AppData\Local\Temp\cc6ysVum.s:1648   .text.HAL_GPIO_EXTI_Callback:00000000 HAL_GPIO_EXTI_Callback
C:\Users\yvesk\AppData\Local\Temp\cc6ysVum.s:1683   .text.HAL_GPIO_EXTI_Callback:00000018 $d
C:\Users\yvesk\AppData\Local\Temp\cc6ysVum.s:1689   .text.EXTI1_IRQHandler:00000000 $t
C:\Users\yvesk\AppData\Local\Temp\cc6ysVum.s:1696   .text.EXTI1_IRQHandler:00000000 EXTI1_IRQHandler
C:\Users\yvesk\AppData\Local\Temp\cc6ysVum.s:1731   .text.EXTI1_IRQHandler:00000020 $d
C:\Users\yvesk\AppData\Local\Temp\cc6ysVum.s:1739   .text.TIM2_IRQHandler:00000000 $t
C:\Users\yvesk\AppData\Local\Temp\cc6ysVum.s:1746   .text.TIM2_IRQHandler:00000000 TIM2_IRQHandler
C:\Users\yvesk\AppData\Local\Temp\cc6ysVum.s:1781   .text.TIM2_IRQHandler:00000024 $d
C:\Users\yvesk\AppData\Local\Temp\cc6ysVum.s:1787   .text.TIM3_IRQHandler:00000000 $t
ARM GAS  C:\Users\yvesk\AppData\Local\Temp\cc6ysVum.s 			page 63


C:\Users\yvesk\AppData\Local\Temp\cc6ysVum.s:1794   .text.TIM3_IRQHandler:00000000 TIM3_IRQHandler
C:\Users\yvesk\AppData\Local\Temp\cc6ysVum.s:1841   .text.TIM3_IRQHandler:00000030 $d
C:\Users\yvesk\AppData\Local\Temp\cc6ysVum.s:1848   .text.HAL_UART_RxCpltCallback:00000000 $t
C:\Users\yvesk\AppData\Local\Temp\cc6ysVum.s:1855   .text.HAL_UART_RxCpltCallback:00000000 HAL_UART_RxCpltCallback
C:\Users\yvesk\AppData\Local\Temp\cc6ysVum.s:1906   .text.HAL_UART_RxCpltCallback:00000028 $d
                            *COM*:00000078 P1_UART
C:\Users\yvesk\AppData\Local\Temp\cc6ysVum.s:1914   .text.HAL_TIM_PeriodElapsedCallback:00000000 $t
C:\Users\yvesk\AppData\Local\Temp\cc6ysVum.s:1921   .text.HAL_TIM_PeriodElapsedCallback:00000000 HAL_TIM_PeriodElapsedCallback
C:\Users\yvesk\AppData\Local\Temp\cc6ysVum.s:1955   .text.HAL_TIM_PeriodElapsedCallback:00000014 $d
C:\Users\yvesk\AppData\Local\Temp\cc6ysVum.s:1960   .text.Error_Handler:00000000 $t
C:\Users\yvesk\AppData\Local\Temp\cc6ysVum.s:1967   .text.Error_Handler:00000000 Error_Handler
C:\Users\yvesk\AppData\Local\Temp\cc6ysVum.s:2150   .bss.rebooted:00000000 rebooted
C:\Users\yvesk\AppData\Local\Temp\cc6ysVum.s:2120   .bss.lorawanflag:00000000 lorawanflag
C:\Users\yvesk\AppData\Local\Temp\cc6ysVum.s:2066   .bss.BLE_flag:00000000 BLE_flag
C:\Users\yvesk\AppData\Local\Temp\cc6ysVum.s:2208   .bss.timer4_first:00000000 timer4_first
C:\Users\yvesk\AppData\Local\Temp\cc6ysVum.s:2197   .bss.timer3_first:00000000 timer3_first
C:\Users\yvesk\AppData\Local\Temp\cc6ysVum.s:2132   .bss.messageMode:00000000 messageMode
C:\Users\yvesk\AppData\Local\Temp\cc6ysVum.s:2092   .bss.changeAcceleroMode:00000000 changeAcceleroMode
C:\Users\yvesk\AppData\Local\Temp\cc6ysVum.s:2162   .bss.repMode:00000000 repMode
C:\Users\yvesk\AppData\Local\Temp\cc6ysVum.s:2156   .bss.repFlag:00000000 repFlag
C:\Users\yvesk\AppData\Local\Temp\cc6ysVum.s:2213   .bss.timer4flag:00000000 timer4flag
C:\Users\yvesk\AppData\Local\Temp\cc6ysVum.s:2203   .bss.timer3flag:00000000 timer3flag
C:\Users\yvesk\AppData\Local\Temp\cc6ysVum.s:2191   .bss.timer2flag:00000000 timer2flag
C:\Users\yvesk\AppData\Local\Temp\cc6ysVum.s:2185   .bss.temperatureflag:00000000 temperatureflag
C:\Users\yvesk\AppData\Local\Temp\cc6ysVum.s:2115   .bss.loracounter:00000000 loracounter
C:\Users\yvesk\AppData\Local\Temp\cc6ysVum.s:2219   .bss.val:00000000 val
                            *COM*:00000001 data
C:\Users\yvesk\AppData\Local\Temp\cc6ysVum.s:2103   .bss.gewicht:00000000 gewicht
C:\Users\yvesk\AppData\Local\Temp\cc6ysVum.s:2086   .bss.about_to_sleep:00000000 about_to_sleep
C:\Users\yvesk\AppData\Local\Temp\cc6ysVum.s:2174   .bss.succes:00000000 succes
C:\Users\yvesk\AppData\Local\Temp\cc6ysVum.s:2109   .bss.isActiveSending:00000000 isActiveSending
C:\Users\yvesk\AppData\Local\Temp\cc6ysVum.s:2126   .bss.messageCounter:00000000 messageCounter
C:\Users\yvesk\AppData\Local\Temp\cc6ysVum.s:2180   .bss.successCounter:00000000 successCounter
C:\Users\yvesk\AppData\Local\Temp\cc6ysVum.s:2098   .bss.failureCounter:00000000 failureCounter
C:\Users\yvesk\AppData\Local\Temp\cc6ysVum.s:2168   .bss.rep_counter:00000000 rep_counter
C:\Users\yvesk\AppData\Local\Temp\cc6ysVum.s:2138   .bss.murata_data_ready:00000000 murata_data_ready
C:\Users\yvesk\AppData\Local\Temp\cc6ysVum.s:2144   .bss.murata_init:00000000 murata_init
C:\Users\yvesk\AppData\Local\Temp\cc6ysVum.s:2073   .bss.DASH7_Counter:00000000 DASH7_Counter
C:\Users\yvesk\AppData\Local\Temp\cc6ysVum.s:2080   .bss.LoRaWAN_Counter:00000000 LoRaWAN_Counter
                            *COM*:00000004 threadToNotify
                            *COM*:00000004 murata_reset_pin
                            *COM*:00000004 murata_wakeup_pin
                            *COM*:00000006 magRawData
                            *COM*:00000006 magRegisterData
                            *COM*:00000006 accRawData
                            *COM*:00000006 accRegisterData
                            *COM*:00000004 LSM303AGR_hi2c
                            *COM*:00000001 LSM303AGR_setting
                            *COM*:00000004 murata_rx_process_mutex_id
                            *COM*:00000004 txMutexId
                            *COM*:00000004 moduleCheckTimId
                            *COM*:00000004 dash7TimId
                            *COM*:00000004 loraWANTimId
                            *COM*:00000004 iwdgTimId
                            *COM*:00000004 murata_rx_processing_handle
                            *COM*:00000004 defaultTaskHandle
                            *COM*:0000002c P3_header
ARM GAS  C:\Users\yvesk\AppData\Local\Temp\cc6ysVum.s 			page 64


                            *COM*:0000002c P2_header
                            *COM*:0000002c P1_header
                            *COM*:00000064 FLASH_SPI
                            *COM*:00000064 P3_SPI
                            *COM*:00000064 P2_SPI
                            *COM*:00000064 P1_SPI
                            *COM*:0000004c P3_I2C
                            *COM*:0000004c P2_I2C
                            *COM*:0000004c P1_I2C
                            *COM*:00000078 P3_UART
                            *COM*:00000078 P2_UART
                            *COM*:00000078 USB_UART
                            *COM*:00000010 hiwdg
                            *COM*:00000008 P3_DIO6
                            *COM*:00000008 P3_DIO5
                            *COM*:00000008 P3_DIO4
                            *COM*:00000008 P3_DIO3
                            *COM*:00000008 P3_DIO2
                            *COM*:00000008 P3_DIO1
                            *COM*:00000008 P2_DIO6
                            *COM*:00000008 P2_DIO5
                            *COM*:00000008 P2_DIO4
                            *COM*:00000008 P2_DIO3
                            *COM*:00000008 P2_DIO2
                            *COM*:00000008 P2_DIO1
                            *COM*:00000008 P1_DIO6
                            *COM*:00000008 P1_DIO5
                            *COM*:00000008 P1_DIO4
                            *COM*:00000008 P1_DIO3
                            *COM*:00000008 P1_DIO2
                            *COM*:00000008 P1_DIO1
C:\Users\yvesk\AppData\Local\Temp\cc6ysVum.s:2067   .bss.BLE_flag:00000000 $d
C:\Users\yvesk\AppData\Local\Temp\cc6ysVum.s:2069   .bss.DASH7_Counter:00000000 $d
C:\Users\yvesk\AppData\Local\Temp\cc6ysVum.s:2076   .bss.LoRaWAN_Counter:00000000 $d
C:\Users\yvesk\AppData\Local\Temp\cc6ysVum.s:2087   .bss.about_to_sleep:00000000 $d
C:\Users\yvesk\AppData\Local\Temp\cc6ysVum.s:2093   .bss.changeAcceleroMode:00000000 $d
C:\Users\yvesk\AppData\Local\Temp\cc6ysVum.s:2099   .bss.failureCounter:00000000 $d
C:\Users\yvesk\AppData\Local\Temp\cc6ysVum.s:2104   .bss.gewicht:00000000 $d
C:\Users\yvesk\AppData\Local\Temp\cc6ysVum.s:2110   .bss.isActiveSending:00000000 $d
C:\Users\yvesk\AppData\Local\Temp\cc6ysVum.s:2116   .bss.loracounter:00000000 $d
C:\Users\yvesk\AppData\Local\Temp\cc6ysVum.s:2121   .bss.lorawanflag:00000000 $d
C:\Users\yvesk\AppData\Local\Temp\cc6ysVum.s:2127   .bss.messageCounter:00000000 $d
C:\Users\yvesk\AppData\Local\Temp\cc6ysVum.s:2133   .bss.messageMode:00000000 $d
C:\Users\yvesk\AppData\Local\Temp\cc6ysVum.s:2139   .bss.murata_data_ready:00000000 $d
C:\Users\yvesk\AppData\Local\Temp\cc6ysVum.s:2145   .bss.murata_init:00000000 $d
C:\Users\yvesk\AppData\Local\Temp\cc6ysVum.s:2151   .bss.rebooted:00000000 $d
C:\Users\yvesk\AppData\Local\Temp\cc6ysVum.s:2157   .bss.repFlag:00000000 $d
C:\Users\yvesk\AppData\Local\Temp\cc6ysVum.s:2163   .bss.repMode:00000000 $d
C:\Users\yvesk\AppData\Local\Temp\cc6ysVum.s:2169   .bss.rep_counter:00000000 $d
C:\Users\yvesk\AppData\Local\Temp\cc6ysVum.s:2175   .bss.succes:00000000 $d
C:\Users\yvesk\AppData\Local\Temp\cc6ysVum.s:2181   .bss.successCounter:00000000 $d
C:\Users\yvesk\AppData\Local\Temp\cc6ysVum.s:2186   .bss.temperatureflag:00000000 $d
C:\Users\yvesk\AppData\Local\Temp\cc6ysVum.s:2192   .bss.timer2flag:00000000 $d
C:\Users\yvesk\AppData\Local\Temp\cc6ysVum.s:2198   .bss.timer3_first:00000000 $d
C:\Users\yvesk\AppData\Local\Temp\cc6ysVum.s:2204   .bss.timer3flag:00000000 $d
C:\Users\yvesk\AppData\Local\Temp\cc6ysVum.s:2209   .bss.timer4_first:00000000 $d
C:\Users\yvesk\AppData\Local\Temp\cc6ysVum.s:2214   .bss.timer4flag:00000000 $d
ARM GAS  C:\Users\yvesk\AppData\Local\Temp\cc6ysVum.s 			page 65


C:\Users\yvesk\AppData\Local\Temp\cc6ysVum.s:2220   .bss.val:00000000 $d
C:\Users\yvesk\AppData\Local\Temp\cc6ysVum.s:2222   .data.inactive_timer:00000000 $d
C:\Users\yvesk\AppData\Local\Temp\cc6ysVum.s:2226   .data.inactive_timer:00000000 inactive_timer
C:\Users\yvesk\AppData\Local\Temp\cc6ysVum.s:2230   .data.localisation_timer:00000000 $d
C:\Users\yvesk\AppData\Local\Temp\cc6ysVum.s:2234   .data.localisation_timer:00000000 localisation_timer
C:\Users\yvesk\AppData\Local\Temp\cc6ysVum.s:2238   .rodata.EXTI1_IRQHandler.str1.4:00000000 $d
C:\Users\yvesk\AppData\Local\Temp\cc6ysVum.s:2242   .rodata.HAL_GPIO_EXTI_Callback.str1.4:00000000 $d
C:\Users\yvesk\AppData\Local\Temp\cc6ysVum.s:2246   .rodata.LoRaWAN_send.str1.4:00000000 $d
C:\Users\yvesk\AppData\Local\Temp\cc6ysVum.s:2250   .rodata.ble_callback.str1.4:00000000 $d
C:\Users\yvesk\AppData\Local\Temp\cc6ysVum.s:2257   .rodata.goToSleep.str1.4:00000000 $d
C:\Users\yvesk\AppData\Local\Temp\cc6ysVum.s:2264   .rodata.main.str1.4:00000000 $d
C:\Users\yvesk\AppData\Local\Temp\cc6ysVum.s:2306   .rodata.printWelcome.str1.4:00000000 $d
C:\Users\yvesk\AppData\Local\Temp\cc6ysVum.s:2322   .rodata.print_temp_hum.str1.4:00000000 $d

UNDEFINED SYMBOLS
HAL_TIM_Base_Init
HAL_TIM_Base_Start_IT
HAL_NVIC_SetPriority
HAL_NVIC_EnableIRQ
puts
HAL_SuspendTick
HAL_PWR_EnterSTOPMode
HAL_ResumeTick
SystemClock_Config
Murata_LoRaWAN_Send
Murata_Dash7_Send
__aeabi_f2d
printf
SHT31_get_temp_hum
HAL_GPIO_TogglePin
HAL_Delay
HAL_Init
Initialize_Platform
get_UID
LSM303AGR_setI2CInterface
setI2CInterface_SHT31
SHT31_begin
LSM303AGR_initDefault
HAL_UART_Receive_IT
Murata_Initialize
Murata_process_fifo
IWDG_feed
LSM303AGR_initDouble
HAL_TIM_Base_Stop_IT
Murata_rxCallback
HAL_IncTick
