ARM GAS  C:\Users\yvesk\AppData\Local\Temp\ccFefcse.s 			page 1


   1              		.cpu cortex-m4
   2              		.eabi_attribute 27, 1
   3              		.eabi_attribute 28, 1
   4              		.eabi_attribute 20, 1
   5              		.eabi_attribute 21, 1
   6              		.eabi_attribute 23, 3
   7              		.eabi_attribute 24, 1
   8              		.eabi_attribute 25, 1
   9              		.eabi_attribute 26, 1
  10              		.eabi_attribute 30, 1
  11              		.eabi_attribute 34, 1
  12              		.eabi_attribute 18, 4
  13              		.file	"stm32l4xx_hal_dma.c"
  14              		.text
  15              	.Ltext0:
  16              		.cfi_sections	.debug_frame
  17              		.section	.text.DMA_SetConfig,"ax",%progbits
  18              		.align	1
  19              		.arch armv7e-m
  20              		.syntax unified
  21              		.thumb
  22              		.thumb_func
  23              		.fpu fpv4-sp-d16
  25              	DMA_SetConfig:
  26              	.LVL0:
  27              	.LFB135:
  28              		.file 1 "../../core/ST/STM32L4xx_HAL_Driver/Src/stm32l4xx_hal_dma.c"
   1:../../core/ST/STM32L4xx_HAL_Driver/Src/stm32l4xx_hal_dma.c **** /**
   2:../../core/ST/STM32L4xx_HAL_Driver/Src/stm32l4xx_hal_dma.c ****   ******************************************************************************
   3:../../core/ST/STM32L4xx_HAL_Driver/Src/stm32l4xx_hal_dma.c ****   * @file    stm32l4xx_hal_dma.c
   4:../../core/ST/STM32L4xx_HAL_Driver/Src/stm32l4xx_hal_dma.c ****   * @author  MCD Application Team
   5:../../core/ST/STM32L4xx_HAL_Driver/Src/stm32l4xx_hal_dma.c ****   * @brief   DMA HAL module driver.
   6:../../core/ST/STM32L4xx_HAL_Driver/Src/stm32l4xx_hal_dma.c ****   *         This file provides firmware functions to manage the following
   7:../../core/ST/STM32L4xx_HAL_Driver/Src/stm32l4xx_hal_dma.c ****   *         functionalities of the Direct Memory Access (DMA) peripheral:
   8:../../core/ST/STM32L4xx_HAL_Driver/Src/stm32l4xx_hal_dma.c ****   *           + Initialization and de-initialization functions
   9:../../core/ST/STM32L4xx_HAL_Driver/Src/stm32l4xx_hal_dma.c ****   *           + IO operation functions
  10:../../core/ST/STM32L4xx_HAL_Driver/Src/stm32l4xx_hal_dma.c ****   *           + Peripheral State and errors functions
  11:../../core/ST/STM32L4xx_HAL_Driver/Src/stm32l4xx_hal_dma.c ****   @verbatim
  12:../../core/ST/STM32L4xx_HAL_Driver/Src/stm32l4xx_hal_dma.c ****   ==============================================================================
  13:../../core/ST/STM32L4xx_HAL_Driver/Src/stm32l4xx_hal_dma.c ****                         ##### How to use this driver #####
  14:../../core/ST/STM32L4xx_HAL_Driver/Src/stm32l4xx_hal_dma.c ****   ==============================================================================
  15:../../core/ST/STM32L4xx_HAL_Driver/Src/stm32l4xx_hal_dma.c ****   [..]
  16:../../core/ST/STM32L4xx_HAL_Driver/Src/stm32l4xx_hal_dma.c ****    (#) Enable and configure the peripheral to be connected to the DMA Channel
  17:../../core/ST/STM32L4xx_HAL_Driver/Src/stm32l4xx_hal_dma.c ****        (except for internal SRAM / FLASH memories: no initialization is
  18:../../core/ST/STM32L4xx_HAL_Driver/Src/stm32l4xx_hal_dma.c ****        necessary). Please refer to the Reference manual for connection between peripherals
  19:../../core/ST/STM32L4xx_HAL_Driver/Src/stm32l4xx_hal_dma.c ****        and DMA requests.
  20:../../core/ST/STM32L4xx_HAL_Driver/Src/stm32l4xx_hal_dma.c **** 
  21:../../core/ST/STM32L4xx_HAL_Driver/Src/stm32l4xx_hal_dma.c ****    (#) For a given Channel, program the required configuration through the following parameters:
  22:../../core/ST/STM32L4xx_HAL_Driver/Src/stm32l4xx_hal_dma.c ****        Channel request, Transfer Direction, Source and Destination data formats,
  23:../../core/ST/STM32L4xx_HAL_Driver/Src/stm32l4xx_hal_dma.c ****        Circular or Normal mode, Channel Priority level, Source and Destination Increment mode
  24:../../core/ST/STM32L4xx_HAL_Driver/Src/stm32l4xx_hal_dma.c ****        using HAL_DMA_Init() function.
  25:../../core/ST/STM32L4xx_HAL_Driver/Src/stm32l4xx_hal_dma.c **** 
  26:../../core/ST/STM32L4xx_HAL_Driver/Src/stm32l4xx_hal_dma.c ****        Prior to HAL_DMA_Init the peripheral clock shall be enabled for both DMA & DMAMUX
  27:../../core/ST/STM32L4xx_HAL_Driver/Src/stm32l4xx_hal_dma.c ****        thanks to:
  28:../../core/ST/STM32L4xx_HAL_Driver/Src/stm32l4xx_hal_dma.c ****       (##) DMA1 or DMA2: __HAL_RCC_DMA1_CLK_ENABLE() or  __HAL_RCC_DMA2_CLK_ENABLE() ;
  29:../../core/ST/STM32L4xx_HAL_Driver/Src/stm32l4xx_hal_dma.c ****       (##) DMAMUX1:      __HAL_RCC_DMAMUX1_CLK_ENABLE();
  30:../../core/ST/STM32L4xx_HAL_Driver/Src/stm32l4xx_hal_dma.c **** 
ARM GAS  C:\Users\yvesk\AppData\Local\Temp\ccFefcse.s 			page 2


  31:../../core/ST/STM32L4xx_HAL_Driver/Src/stm32l4xx_hal_dma.c ****    (#) Use HAL_DMA_GetState() function to return the DMA state and HAL_DMA_GetError() in case of er
  32:../../core/ST/STM32L4xx_HAL_Driver/Src/stm32l4xx_hal_dma.c ****        detection.
  33:../../core/ST/STM32L4xx_HAL_Driver/Src/stm32l4xx_hal_dma.c **** 
  34:../../core/ST/STM32L4xx_HAL_Driver/Src/stm32l4xx_hal_dma.c ****    (#) Use HAL_DMA_Abort() function to abort the current transfer
  35:../../core/ST/STM32L4xx_HAL_Driver/Src/stm32l4xx_hal_dma.c **** 
  36:../../core/ST/STM32L4xx_HAL_Driver/Src/stm32l4xx_hal_dma.c ****      -@-   In Memory-to-Memory transfer mode, Circular mode is not allowed.
  37:../../core/ST/STM32L4xx_HAL_Driver/Src/stm32l4xx_hal_dma.c **** 
  38:../../core/ST/STM32L4xx_HAL_Driver/Src/stm32l4xx_hal_dma.c ****      *** Polling mode IO operation ***
  39:../../core/ST/STM32L4xx_HAL_Driver/Src/stm32l4xx_hal_dma.c ****      =================================
  40:../../core/ST/STM32L4xx_HAL_Driver/Src/stm32l4xx_hal_dma.c ****     [..]
  41:../../core/ST/STM32L4xx_HAL_Driver/Src/stm32l4xx_hal_dma.c ****           (+) Use HAL_DMA_Start() to start DMA transfer after the configuration of Source
  42:../../core/ST/STM32L4xx_HAL_Driver/Src/stm32l4xx_hal_dma.c ****               address and destination address and the Length of data to be transferred
  43:../../core/ST/STM32L4xx_HAL_Driver/Src/stm32l4xx_hal_dma.c ****           (+) Use HAL_DMA_PollForTransfer() to poll for the end of current transfer, in this
  44:../../core/ST/STM32L4xx_HAL_Driver/Src/stm32l4xx_hal_dma.c ****               case a fixed Timeout can be configured by User depending from his application.
  45:../../core/ST/STM32L4xx_HAL_Driver/Src/stm32l4xx_hal_dma.c **** 
  46:../../core/ST/STM32L4xx_HAL_Driver/Src/stm32l4xx_hal_dma.c ****      *** Interrupt mode IO operation ***
  47:../../core/ST/STM32L4xx_HAL_Driver/Src/stm32l4xx_hal_dma.c ****      ===================================
  48:../../core/ST/STM32L4xx_HAL_Driver/Src/stm32l4xx_hal_dma.c ****     [..]
  49:../../core/ST/STM32L4xx_HAL_Driver/Src/stm32l4xx_hal_dma.c ****           (+) Configure the DMA interrupt priority using HAL_NVIC_SetPriority()
  50:../../core/ST/STM32L4xx_HAL_Driver/Src/stm32l4xx_hal_dma.c ****           (+) Enable the DMA IRQ handler using HAL_NVIC_EnableIRQ()
  51:../../core/ST/STM32L4xx_HAL_Driver/Src/stm32l4xx_hal_dma.c ****           (+) Use HAL_DMA_Start_IT() to start DMA transfer after the configuration of
  52:../../core/ST/STM32L4xx_HAL_Driver/Src/stm32l4xx_hal_dma.c ****               Source address and destination address and the Length of data to be transferred.
  53:../../core/ST/STM32L4xx_HAL_Driver/Src/stm32l4xx_hal_dma.c ****               In this case the DMA interrupt is configured
  54:../../core/ST/STM32L4xx_HAL_Driver/Src/stm32l4xx_hal_dma.c ****           (+) Use HAL_DMA_IRQHandler() called under DMA_IRQHandler() Interrupt subroutine
  55:../../core/ST/STM32L4xx_HAL_Driver/Src/stm32l4xx_hal_dma.c ****           (+) At the end of data transfer HAL_DMA_IRQHandler() function is executed and user can
  56:../../core/ST/STM32L4xx_HAL_Driver/Src/stm32l4xx_hal_dma.c ****               add his own function to register callbacks with HAL_DMA_RegisterCallback().
  57:../../core/ST/STM32L4xx_HAL_Driver/Src/stm32l4xx_hal_dma.c **** 
  58:../../core/ST/STM32L4xx_HAL_Driver/Src/stm32l4xx_hal_dma.c ****      *** DMA HAL driver macros list ***
  59:../../core/ST/STM32L4xx_HAL_Driver/Src/stm32l4xx_hal_dma.c ****      =============================================
  60:../../core/ST/STM32L4xx_HAL_Driver/Src/stm32l4xx_hal_dma.c ****       [..]
  61:../../core/ST/STM32L4xx_HAL_Driver/Src/stm32l4xx_hal_dma.c ****        Below the list of macros in DMA HAL driver.
  62:../../core/ST/STM32L4xx_HAL_Driver/Src/stm32l4xx_hal_dma.c **** 
  63:../../core/ST/STM32L4xx_HAL_Driver/Src/stm32l4xx_hal_dma.c ****        (+) __HAL_DMA_ENABLE: Enable the specified DMA Channel.
  64:../../core/ST/STM32L4xx_HAL_Driver/Src/stm32l4xx_hal_dma.c ****        (+) __HAL_DMA_DISABLE: Disable the specified DMA Channel.
  65:../../core/ST/STM32L4xx_HAL_Driver/Src/stm32l4xx_hal_dma.c ****        (+) __HAL_DMA_GET_FLAG: Get the DMA Channel pending flags.
  66:../../core/ST/STM32L4xx_HAL_Driver/Src/stm32l4xx_hal_dma.c ****        (+) __HAL_DMA_CLEAR_FLAG: Clear the DMA Channel pending flags.
  67:../../core/ST/STM32L4xx_HAL_Driver/Src/stm32l4xx_hal_dma.c ****        (+) __HAL_DMA_ENABLE_IT: Enable the specified DMA Channel interrupts.
  68:../../core/ST/STM32L4xx_HAL_Driver/Src/stm32l4xx_hal_dma.c ****        (+) __HAL_DMA_DISABLE_IT: Disable the specified DMA Channel interrupts.
  69:../../core/ST/STM32L4xx_HAL_Driver/Src/stm32l4xx_hal_dma.c ****        (+) __HAL_DMA_GET_IT_SOURCE: Check whether the specified DMA Channel interrupt has occurred 
  70:../../core/ST/STM32L4xx_HAL_Driver/Src/stm32l4xx_hal_dma.c **** 
  71:../../core/ST/STM32L4xx_HAL_Driver/Src/stm32l4xx_hal_dma.c ****      [..]
  72:../../core/ST/STM32L4xx_HAL_Driver/Src/stm32l4xx_hal_dma.c ****       (@) You can refer to the DMA HAL driver header file for more useful macros
  73:../../core/ST/STM32L4xx_HAL_Driver/Src/stm32l4xx_hal_dma.c **** 
  74:../../core/ST/STM32L4xx_HAL_Driver/Src/stm32l4xx_hal_dma.c ****   @endverbatim
  75:../../core/ST/STM32L4xx_HAL_Driver/Src/stm32l4xx_hal_dma.c ****   ******************************************************************************
  76:../../core/ST/STM32L4xx_HAL_Driver/Src/stm32l4xx_hal_dma.c ****   * @attention
  77:../../core/ST/STM32L4xx_HAL_Driver/Src/stm32l4xx_hal_dma.c ****   *
  78:../../core/ST/STM32L4xx_HAL_Driver/Src/stm32l4xx_hal_dma.c ****   * <h2><center>&copy; COPYRIGHT(c) 2017 STMicroelectronics</center></h2>
  79:../../core/ST/STM32L4xx_HAL_Driver/Src/stm32l4xx_hal_dma.c ****   *
  80:../../core/ST/STM32L4xx_HAL_Driver/Src/stm32l4xx_hal_dma.c ****   * Redistribution and use in source and binary forms, with or without modification,
  81:../../core/ST/STM32L4xx_HAL_Driver/Src/stm32l4xx_hal_dma.c ****   * are permitted provided that the following conditions are met:
  82:../../core/ST/STM32L4xx_HAL_Driver/Src/stm32l4xx_hal_dma.c ****   *   1. Redistributions of source code must retain the above copyright notice,
  83:../../core/ST/STM32L4xx_HAL_Driver/Src/stm32l4xx_hal_dma.c ****   *      this list of conditions and the following disclaimer.
  84:../../core/ST/STM32L4xx_HAL_Driver/Src/stm32l4xx_hal_dma.c ****   *   2. Redistributions in binary form must reproduce the above copyright notice,
  85:../../core/ST/STM32L4xx_HAL_Driver/Src/stm32l4xx_hal_dma.c ****   *      this list of conditions and the following disclaimer in the documentation
  86:../../core/ST/STM32L4xx_HAL_Driver/Src/stm32l4xx_hal_dma.c ****   *      and/or other materials provided with the distribution.
  87:../../core/ST/STM32L4xx_HAL_Driver/Src/stm32l4xx_hal_dma.c ****   *   3. Neither the name of STMicroelectronics nor the names of its contributors
ARM GAS  C:\Users\yvesk\AppData\Local\Temp\ccFefcse.s 			page 3


  88:../../core/ST/STM32L4xx_HAL_Driver/Src/stm32l4xx_hal_dma.c ****   *      may be used to endorse or promote products derived from this software
  89:../../core/ST/STM32L4xx_HAL_Driver/Src/stm32l4xx_hal_dma.c ****   *      without specific prior written permission.
  90:../../core/ST/STM32L4xx_HAL_Driver/Src/stm32l4xx_hal_dma.c ****   *
  91:../../core/ST/STM32L4xx_HAL_Driver/Src/stm32l4xx_hal_dma.c ****   * THIS SOFTWARE IS PROVIDED BY THE COPYRIGHT HOLDERS AND CONTRIBUTORS "AS IS"
  92:../../core/ST/STM32L4xx_HAL_Driver/Src/stm32l4xx_hal_dma.c ****   * AND ANY EXPRESS OR IMPLIED WARRANTIES, INCLUDING, BUT NOT LIMITED TO, THE
  93:../../core/ST/STM32L4xx_HAL_Driver/Src/stm32l4xx_hal_dma.c ****   * IMPLIED WARRANTIES OF MERCHANTABILITY AND FITNESS FOR A PARTICULAR PURPOSE ARE
  94:../../core/ST/STM32L4xx_HAL_Driver/Src/stm32l4xx_hal_dma.c ****   * DISCLAIMED. IN NO EVENT SHALL THE COPYRIGHT HOLDER OR CONTRIBUTORS BE LIABLE
  95:../../core/ST/STM32L4xx_HAL_Driver/Src/stm32l4xx_hal_dma.c ****   * FOR ANY DIRECT, INDIRECT, INCIDENTAL, SPECIAL, EXEMPLARY, OR CONSEQUENTIAL
  96:../../core/ST/STM32L4xx_HAL_Driver/Src/stm32l4xx_hal_dma.c ****   * DAMAGES (INCLUDING, BUT NOT LIMITED TO, PROCUREMENT OF SUBSTITUTE GOODS OR
  97:../../core/ST/STM32L4xx_HAL_Driver/Src/stm32l4xx_hal_dma.c ****   * SERVICES; LOSS OF USE, DATA, OR PROFITS; OR BUSINESS INTERRUPTION) HOWEVER
  98:../../core/ST/STM32L4xx_HAL_Driver/Src/stm32l4xx_hal_dma.c ****   * CAUSED AND ON ANY THEORY OF LIABILITY, WHETHER IN CONTRACT, STRICT LIABILITY,
  99:../../core/ST/STM32L4xx_HAL_Driver/Src/stm32l4xx_hal_dma.c ****   * OR TORT (INCLUDING NEGLIGENCE OR OTHERWISE) ARISING IN ANY WAY OUT OF THE USE
 100:../../core/ST/STM32L4xx_HAL_Driver/Src/stm32l4xx_hal_dma.c ****   * OF THIS SOFTWARE, EVEN IF ADVISED OF THE POSSIBILITY OF SUCH DAMAGE.
 101:../../core/ST/STM32L4xx_HAL_Driver/Src/stm32l4xx_hal_dma.c ****   *
 102:../../core/ST/STM32L4xx_HAL_Driver/Src/stm32l4xx_hal_dma.c ****   ******************************************************************************
 103:../../core/ST/STM32L4xx_HAL_Driver/Src/stm32l4xx_hal_dma.c ****   */
 104:../../core/ST/STM32L4xx_HAL_Driver/Src/stm32l4xx_hal_dma.c **** 
 105:../../core/ST/STM32L4xx_HAL_Driver/Src/stm32l4xx_hal_dma.c **** /* Includes ------------------------------------------------------------------*/
 106:../../core/ST/STM32L4xx_HAL_Driver/Src/stm32l4xx_hal_dma.c **** #include "stm32l4xx_hal.h"
 107:../../core/ST/STM32L4xx_HAL_Driver/Src/stm32l4xx_hal_dma.c **** 
 108:../../core/ST/STM32L4xx_HAL_Driver/Src/stm32l4xx_hal_dma.c **** /** @addtogroup STM32L4xx_HAL_Driver
 109:../../core/ST/STM32L4xx_HAL_Driver/Src/stm32l4xx_hal_dma.c ****   * @{
 110:../../core/ST/STM32L4xx_HAL_Driver/Src/stm32l4xx_hal_dma.c ****   */
 111:../../core/ST/STM32L4xx_HAL_Driver/Src/stm32l4xx_hal_dma.c **** 
 112:../../core/ST/STM32L4xx_HAL_Driver/Src/stm32l4xx_hal_dma.c **** /** @defgroup DMA DMA
 113:../../core/ST/STM32L4xx_HAL_Driver/Src/stm32l4xx_hal_dma.c ****   * @brief DMA HAL module driver
 114:../../core/ST/STM32L4xx_HAL_Driver/Src/stm32l4xx_hal_dma.c ****   * @{
 115:../../core/ST/STM32L4xx_HAL_Driver/Src/stm32l4xx_hal_dma.c ****   */
 116:../../core/ST/STM32L4xx_HAL_Driver/Src/stm32l4xx_hal_dma.c **** 
 117:../../core/ST/STM32L4xx_HAL_Driver/Src/stm32l4xx_hal_dma.c **** #ifdef HAL_DMA_MODULE_ENABLED
 118:../../core/ST/STM32L4xx_HAL_Driver/Src/stm32l4xx_hal_dma.c **** 
 119:../../core/ST/STM32L4xx_HAL_Driver/Src/stm32l4xx_hal_dma.c **** /* Private typedef -----------------------------------------------------------*/
 120:../../core/ST/STM32L4xx_HAL_Driver/Src/stm32l4xx_hal_dma.c **** /* Private define ------------------------------------------------------------*/
 121:../../core/ST/STM32L4xx_HAL_Driver/Src/stm32l4xx_hal_dma.c **** /* Private macro -------------------------------------------------------------*/
 122:../../core/ST/STM32L4xx_HAL_Driver/Src/stm32l4xx_hal_dma.c **** /* Private variables ---------------------------------------------------------*/
 123:../../core/ST/STM32L4xx_HAL_Driver/Src/stm32l4xx_hal_dma.c **** /* Private function prototypes -----------------------------------------------*/
 124:../../core/ST/STM32L4xx_HAL_Driver/Src/stm32l4xx_hal_dma.c **** /** @defgroup DMA_Private_Functions DMA Private Functions
 125:../../core/ST/STM32L4xx_HAL_Driver/Src/stm32l4xx_hal_dma.c ****   * @{
 126:../../core/ST/STM32L4xx_HAL_Driver/Src/stm32l4xx_hal_dma.c ****   */
 127:../../core/ST/STM32L4xx_HAL_Driver/Src/stm32l4xx_hal_dma.c **** static void DMA_SetConfig(DMA_HandleTypeDef *hdma, uint32_t SrcAddress, uint32_t DstAddress, uint32
 128:../../core/ST/STM32L4xx_HAL_Driver/Src/stm32l4xx_hal_dma.c **** #if defined(DMAMUX1)
 129:../../core/ST/STM32L4xx_HAL_Driver/Src/stm32l4xx_hal_dma.c **** static void DMA_CalcDMAMUXChannelBaseAndMask(DMA_HandleTypeDef *hdma);
 130:../../core/ST/STM32L4xx_HAL_Driver/Src/stm32l4xx_hal_dma.c **** static void DMA_CalcDMAMUXRequestGenBaseAndMask(DMA_HandleTypeDef *hdma);
 131:../../core/ST/STM32L4xx_HAL_Driver/Src/stm32l4xx_hal_dma.c **** #endif /* DMAMUX1 */
 132:../../core/ST/STM32L4xx_HAL_Driver/Src/stm32l4xx_hal_dma.c **** 
 133:../../core/ST/STM32L4xx_HAL_Driver/Src/stm32l4xx_hal_dma.c **** /**
 134:../../core/ST/STM32L4xx_HAL_Driver/Src/stm32l4xx_hal_dma.c ****   * @}
 135:../../core/ST/STM32L4xx_HAL_Driver/Src/stm32l4xx_hal_dma.c ****   */
 136:../../core/ST/STM32L4xx_HAL_Driver/Src/stm32l4xx_hal_dma.c **** 
 137:../../core/ST/STM32L4xx_HAL_Driver/Src/stm32l4xx_hal_dma.c **** /* Exported functions ---------------------------------------------------------*/
 138:../../core/ST/STM32L4xx_HAL_Driver/Src/stm32l4xx_hal_dma.c **** 
 139:../../core/ST/STM32L4xx_HAL_Driver/Src/stm32l4xx_hal_dma.c **** /** @defgroup DMA_Exported_Functions DMA Exported Functions
 140:../../core/ST/STM32L4xx_HAL_Driver/Src/stm32l4xx_hal_dma.c ****   * @{
 141:../../core/ST/STM32L4xx_HAL_Driver/Src/stm32l4xx_hal_dma.c ****   */
 142:../../core/ST/STM32L4xx_HAL_Driver/Src/stm32l4xx_hal_dma.c **** 
 143:../../core/ST/STM32L4xx_HAL_Driver/Src/stm32l4xx_hal_dma.c **** /** @defgroup DMA_Exported_Functions_Group1 Initialization and de-initialization functions
 144:../../core/ST/STM32L4xx_HAL_Driver/Src/stm32l4xx_hal_dma.c ****  *  @brief   Initialization and de-initialization functions
ARM GAS  C:\Users\yvesk\AppData\Local\Temp\ccFefcse.s 			page 4


 145:../../core/ST/STM32L4xx_HAL_Driver/Src/stm32l4xx_hal_dma.c ****  *
 146:../../core/ST/STM32L4xx_HAL_Driver/Src/stm32l4xx_hal_dma.c **** @verbatim
 147:../../core/ST/STM32L4xx_HAL_Driver/Src/stm32l4xx_hal_dma.c ****  ===============================================================================
 148:../../core/ST/STM32L4xx_HAL_Driver/Src/stm32l4xx_hal_dma.c ****              ##### Initialization and de-initialization functions  #####
 149:../../core/ST/STM32L4xx_HAL_Driver/Src/stm32l4xx_hal_dma.c ****  ===============================================================================
 150:../../core/ST/STM32L4xx_HAL_Driver/Src/stm32l4xx_hal_dma.c ****     [..]
 151:../../core/ST/STM32L4xx_HAL_Driver/Src/stm32l4xx_hal_dma.c ****     This section provides functions allowing to initialize the DMA Channel source
 152:../../core/ST/STM32L4xx_HAL_Driver/Src/stm32l4xx_hal_dma.c ****     and destination addresses, incrementation and data sizes, transfer direction,
 153:../../core/ST/STM32L4xx_HAL_Driver/Src/stm32l4xx_hal_dma.c ****     circular/normal mode selection, memory-to-memory mode selection and Channel priority value.
 154:../../core/ST/STM32L4xx_HAL_Driver/Src/stm32l4xx_hal_dma.c ****     [..]
 155:../../core/ST/STM32L4xx_HAL_Driver/Src/stm32l4xx_hal_dma.c ****     The HAL_DMA_Init() function follows the DMA configuration procedures as described in
 156:../../core/ST/STM32L4xx_HAL_Driver/Src/stm32l4xx_hal_dma.c ****     reference manual.
 157:../../core/ST/STM32L4xx_HAL_Driver/Src/stm32l4xx_hal_dma.c **** 
 158:../../core/ST/STM32L4xx_HAL_Driver/Src/stm32l4xx_hal_dma.c **** @endverbatim
 159:../../core/ST/STM32L4xx_HAL_Driver/Src/stm32l4xx_hal_dma.c ****   * @{
 160:../../core/ST/STM32L4xx_HAL_Driver/Src/stm32l4xx_hal_dma.c ****   */
 161:../../core/ST/STM32L4xx_HAL_Driver/Src/stm32l4xx_hal_dma.c **** 
 162:../../core/ST/STM32L4xx_HAL_Driver/Src/stm32l4xx_hal_dma.c **** /**
 163:../../core/ST/STM32L4xx_HAL_Driver/Src/stm32l4xx_hal_dma.c ****   * @brief  Initialize the DMA according to the specified
 164:../../core/ST/STM32L4xx_HAL_Driver/Src/stm32l4xx_hal_dma.c ****   *         parameters in the DMA_InitTypeDef and initialize the associated handle.
 165:../../core/ST/STM32L4xx_HAL_Driver/Src/stm32l4xx_hal_dma.c ****   * @param  hdma Pointer to a DMA_HandleTypeDef structure that contains
 166:../../core/ST/STM32L4xx_HAL_Driver/Src/stm32l4xx_hal_dma.c ****   *               the configuration information for the specified DMA Channel.
 167:../../core/ST/STM32L4xx_HAL_Driver/Src/stm32l4xx_hal_dma.c ****   * @retval HAL status
 168:../../core/ST/STM32L4xx_HAL_Driver/Src/stm32l4xx_hal_dma.c ****   */
 169:../../core/ST/STM32L4xx_HAL_Driver/Src/stm32l4xx_hal_dma.c **** HAL_StatusTypeDef HAL_DMA_Init(DMA_HandleTypeDef *hdma)
 170:../../core/ST/STM32L4xx_HAL_Driver/Src/stm32l4xx_hal_dma.c **** {
 171:../../core/ST/STM32L4xx_HAL_Driver/Src/stm32l4xx_hal_dma.c ****   uint32_t tmp;
 172:../../core/ST/STM32L4xx_HAL_Driver/Src/stm32l4xx_hal_dma.c **** 
 173:../../core/ST/STM32L4xx_HAL_Driver/Src/stm32l4xx_hal_dma.c ****   /* Check the DMA handle allocation */
 174:../../core/ST/STM32L4xx_HAL_Driver/Src/stm32l4xx_hal_dma.c ****   if(hdma == NULL)
 175:../../core/ST/STM32L4xx_HAL_Driver/Src/stm32l4xx_hal_dma.c ****   {
 176:../../core/ST/STM32L4xx_HAL_Driver/Src/stm32l4xx_hal_dma.c ****     return HAL_ERROR;
 177:../../core/ST/STM32L4xx_HAL_Driver/Src/stm32l4xx_hal_dma.c ****   }
 178:../../core/ST/STM32L4xx_HAL_Driver/Src/stm32l4xx_hal_dma.c **** 
 179:../../core/ST/STM32L4xx_HAL_Driver/Src/stm32l4xx_hal_dma.c ****   /* Check the parameters */
 180:../../core/ST/STM32L4xx_HAL_Driver/Src/stm32l4xx_hal_dma.c ****   assert_param(IS_DMA_ALL_INSTANCE(hdma->Instance));
 181:../../core/ST/STM32L4xx_HAL_Driver/Src/stm32l4xx_hal_dma.c ****   assert_param(IS_DMA_DIRECTION(hdma->Init.Direction));
 182:../../core/ST/STM32L4xx_HAL_Driver/Src/stm32l4xx_hal_dma.c ****   assert_param(IS_DMA_PERIPHERAL_INC_STATE(hdma->Init.PeriphInc));
 183:../../core/ST/STM32L4xx_HAL_Driver/Src/stm32l4xx_hal_dma.c ****   assert_param(IS_DMA_MEMORY_INC_STATE(hdma->Init.MemInc));
 184:../../core/ST/STM32L4xx_HAL_Driver/Src/stm32l4xx_hal_dma.c ****   assert_param(IS_DMA_PERIPHERAL_DATA_SIZE(hdma->Init.PeriphDataAlignment));
 185:../../core/ST/STM32L4xx_HAL_Driver/Src/stm32l4xx_hal_dma.c ****   assert_param(IS_DMA_MEMORY_DATA_SIZE(hdma->Init.MemDataAlignment));
 186:../../core/ST/STM32L4xx_HAL_Driver/Src/stm32l4xx_hal_dma.c ****   assert_param(IS_DMA_MODE(hdma->Init.Mode));
 187:../../core/ST/STM32L4xx_HAL_Driver/Src/stm32l4xx_hal_dma.c ****   assert_param(IS_DMA_PRIORITY(hdma->Init.Priority));
 188:../../core/ST/STM32L4xx_HAL_Driver/Src/stm32l4xx_hal_dma.c **** 
 189:../../core/ST/STM32L4xx_HAL_Driver/Src/stm32l4xx_hal_dma.c ****   assert_param(IS_DMA_ALL_REQUEST(hdma->Init.Request));
 190:../../core/ST/STM32L4xx_HAL_Driver/Src/stm32l4xx_hal_dma.c **** 
 191:../../core/ST/STM32L4xx_HAL_Driver/Src/stm32l4xx_hal_dma.c ****   /* Compute the channel index */
 192:../../core/ST/STM32L4xx_HAL_Driver/Src/stm32l4xx_hal_dma.c ****   if ((uint32_t)(hdma->Instance) < (uint32_t)(DMA2_Channel1))
 193:../../core/ST/STM32L4xx_HAL_Driver/Src/stm32l4xx_hal_dma.c ****   {
 194:../../core/ST/STM32L4xx_HAL_Driver/Src/stm32l4xx_hal_dma.c ****     /* DMA1 */
 195:../../core/ST/STM32L4xx_HAL_Driver/Src/stm32l4xx_hal_dma.c ****     hdma->ChannelIndex = (((uint32_t)hdma->Instance - (uint32_t)DMA1_Channel1) / ((uint32_t)DMA1_Ch
 196:../../core/ST/STM32L4xx_HAL_Driver/Src/stm32l4xx_hal_dma.c ****     hdma->DmaBaseAddress = DMA1;
 197:../../core/ST/STM32L4xx_HAL_Driver/Src/stm32l4xx_hal_dma.c ****   }
 198:../../core/ST/STM32L4xx_HAL_Driver/Src/stm32l4xx_hal_dma.c ****   else
 199:../../core/ST/STM32L4xx_HAL_Driver/Src/stm32l4xx_hal_dma.c ****   {
 200:../../core/ST/STM32L4xx_HAL_Driver/Src/stm32l4xx_hal_dma.c ****     /* DMA2 */
 201:../../core/ST/STM32L4xx_HAL_Driver/Src/stm32l4xx_hal_dma.c ****     hdma->ChannelIndex = (((uint32_t)hdma->Instance - (uint32_t)DMA2_Channel1) / ((uint32_t)DMA2_Ch
ARM GAS  C:\Users\yvesk\AppData\Local\Temp\ccFefcse.s 			page 5


 202:../../core/ST/STM32L4xx_HAL_Driver/Src/stm32l4xx_hal_dma.c ****     hdma->DmaBaseAddress = DMA2;
 203:../../core/ST/STM32L4xx_HAL_Driver/Src/stm32l4xx_hal_dma.c ****   }
 204:../../core/ST/STM32L4xx_HAL_Driver/Src/stm32l4xx_hal_dma.c **** 
 205:../../core/ST/STM32L4xx_HAL_Driver/Src/stm32l4xx_hal_dma.c ****   /* Change DMA peripheral state */
 206:../../core/ST/STM32L4xx_HAL_Driver/Src/stm32l4xx_hal_dma.c ****   hdma->State = HAL_DMA_STATE_BUSY;
 207:../../core/ST/STM32L4xx_HAL_Driver/Src/stm32l4xx_hal_dma.c **** 
 208:../../core/ST/STM32L4xx_HAL_Driver/Src/stm32l4xx_hal_dma.c ****   /* Get the CR register value */
 209:../../core/ST/STM32L4xx_HAL_Driver/Src/stm32l4xx_hal_dma.c ****   tmp = hdma->Instance->CCR;
 210:../../core/ST/STM32L4xx_HAL_Driver/Src/stm32l4xx_hal_dma.c **** 
 211:../../core/ST/STM32L4xx_HAL_Driver/Src/stm32l4xx_hal_dma.c ****   /* Clear PL, MSIZE, PSIZE, MINC, PINC, CIRC, DIR and MEM2MEM bits */
 212:../../core/ST/STM32L4xx_HAL_Driver/Src/stm32l4xx_hal_dma.c ****   tmp &= ((uint32_t)~(DMA_CCR_PL    | DMA_CCR_MSIZE  | DMA_CCR_PSIZE  |
 213:../../core/ST/STM32L4xx_HAL_Driver/Src/stm32l4xx_hal_dma.c ****                       DMA_CCR_MINC  | DMA_CCR_PINC   | DMA_CCR_CIRC   |
 214:../../core/ST/STM32L4xx_HAL_Driver/Src/stm32l4xx_hal_dma.c ****                       DMA_CCR_DIR   | DMA_CCR_MEM2MEM));
 215:../../core/ST/STM32L4xx_HAL_Driver/Src/stm32l4xx_hal_dma.c **** 
 216:../../core/ST/STM32L4xx_HAL_Driver/Src/stm32l4xx_hal_dma.c ****   /* Prepare the DMA Channel configuration */
 217:../../core/ST/STM32L4xx_HAL_Driver/Src/stm32l4xx_hal_dma.c ****   tmp |=  hdma->Init.Direction        |
 218:../../core/ST/STM32L4xx_HAL_Driver/Src/stm32l4xx_hal_dma.c ****           hdma->Init.PeriphInc           | hdma->Init.MemInc           |
 219:../../core/ST/STM32L4xx_HAL_Driver/Src/stm32l4xx_hal_dma.c ****           hdma->Init.PeriphDataAlignment | hdma->Init.MemDataAlignment |
 220:../../core/ST/STM32L4xx_HAL_Driver/Src/stm32l4xx_hal_dma.c ****           hdma->Init.Mode                | hdma->Init.Priority;
 221:../../core/ST/STM32L4xx_HAL_Driver/Src/stm32l4xx_hal_dma.c **** 
 222:../../core/ST/STM32L4xx_HAL_Driver/Src/stm32l4xx_hal_dma.c ****   /* Write to DMA Channel CR register */
 223:../../core/ST/STM32L4xx_HAL_Driver/Src/stm32l4xx_hal_dma.c ****   hdma->Instance->CCR = tmp;
 224:../../core/ST/STM32L4xx_HAL_Driver/Src/stm32l4xx_hal_dma.c **** 
 225:../../core/ST/STM32L4xx_HAL_Driver/Src/stm32l4xx_hal_dma.c **** 
 226:../../core/ST/STM32L4xx_HAL_Driver/Src/stm32l4xx_hal_dma.c **** #if defined(DMAMUX1)
 227:../../core/ST/STM32L4xx_HAL_Driver/Src/stm32l4xx_hal_dma.c ****   /* Initialize parameters for DMAMUX channel :
 228:../../core/ST/STM32L4xx_HAL_Driver/Src/stm32l4xx_hal_dma.c ****      DMAmuxChannel, DMAmuxChannelStatus and DMAmuxChannelStatusMask
 229:../../core/ST/STM32L4xx_HAL_Driver/Src/stm32l4xx_hal_dma.c ****   */
 230:../../core/ST/STM32L4xx_HAL_Driver/Src/stm32l4xx_hal_dma.c ****   DMA_CalcDMAMUXChannelBaseAndMask(hdma);
 231:../../core/ST/STM32L4xx_HAL_Driver/Src/stm32l4xx_hal_dma.c **** 
 232:../../core/ST/STM32L4xx_HAL_Driver/Src/stm32l4xx_hal_dma.c ****   if(hdma->Init.Direction == DMA_MEMORY_TO_MEMORY)
 233:../../core/ST/STM32L4xx_HAL_Driver/Src/stm32l4xx_hal_dma.c ****   {
 234:../../core/ST/STM32L4xx_HAL_Driver/Src/stm32l4xx_hal_dma.c ****     /* if memory to memory force the request to 0*/
 235:../../core/ST/STM32L4xx_HAL_Driver/Src/stm32l4xx_hal_dma.c ****     hdma->Init.Request = DMA_REQUEST_MEM2MEM;
 236:../../core/ST/STM32L4xx_HAL_Driver/Src/stm32l4xx_hal_dma.c ****   }
 237:../../core/ST/STM32L4xx_HAL_Driver/Src/stm32l4xx_hal_dma.c **** 
 238:../../core/ST/STM32L4xx_HAL_Driver/Src/stm32l4xx_hal_dma.c ****   /* Set peripheral request  to DMAMUX channel */
 239:../../core/ST/STM32L4xx_HAL_Driver/Src/stm32l4xx_hal_dma.c ****   hdma->DMAmuxChannel->CCR = (hdma->Init.Request & DMAMUX_CxCR_DMAREQ_ID);
 240:../../core/ST/STM32L4xx_HAL_Driver/Src/stm32l4xx_hal_dma.c **** 
 241:../../core/ST/STM32L4xx_HAL_Driver/Src/stm32l4xx_hal_dma.c ****   /* Clear the DMAMUX synchro overrun flag */
 242:../../core/ST/STM32L4xx_HAL_Driver/Src/stm32l4xx_hal_dma.c ****   hdma->DMAmuxChannelStatus->CFR = hdma->DMAmuxChannelStatusMask;
 243:../../core/ST/STM32L4xx_HAL_Driver/Src/stm32l4xx_hal_dma.c **** 
 244:../../core/ST/STM32L4xx_HAL_Driver/Src/stm32l4xx_hal_dma.c ****   if(((hdma->Init.Request > 0U) && (hdma->Init.Request <= DMA_REQUEST_GENERATOR3)))
 245:../../core/ST/STM32L4xx_HAL_Driver/Src/stm32l4xx_hal_dma.c ****   {
 246:../../core/ST/STM32L4xx_HAL_Driver/Src/stm32l4xx_hal_dma.c ****     /* Initialize parameters for DMAMUX request generator :
 247:../../core/ST/STM32L4xx_HAL_Driver/Src/stm32l4xx_hal_dma.c ****        DMAmuxRequestGen, DMAmuxRequestGenStatus and DMAmuxRequestGenStatusMask
 248:../../core/ST/STM32L4xx_HAL_Driver/Src/stm32l4xx_hal_dma.c ****     */
 249:../../core/ST/STM32L4xx_HAL_Driver/Src/stm32l4xx_hal_dma.c ****     DMA_CalcDMAMUXRequestGenBaseAndMask(hdma);
 250:../../core/ST/STM32L4xx_HAL_Driver/Src/stm32l4xx_hal_dma.c **** 
 251:../../core/ST/STM32L4xx_HAL_Driver/Src/stm32l4xx_hal_dma.c ****     /* Reset the DMAMUX request generator register*/
 252:../../core/ST/STM32L4xx_HAL_Driver/Src/stm32l4xx_hal_dma.c ****     hdma->DMAmuxRequestGen->RGCR = 0U;
 253:../../core/ST/STM32L4xx_HAL_Driver/Src/stm32l4xx_hal_dma.c **** 
 254:../../core/ST/STM32L4xx_HAL_Driver/Src/stm32l4xx_hal_dma.c ****     /* Clear the DMAMUX request generator overrun flag */
 255:../../core/ST/STM32L4xx_HAL_Driver/Src/stm32l4xx_hal_dma.c ****     hdma->DMAmuxRequestGenStatus->RGCFR = hdma->DMAmuxRequestGenStatusMask;
 256:../../core/ST/STM32L4xx_HAL_Driver/Src/stm32l4xx_hal_dma.c ****   }
 257:../../core/ST/STM32L4xx_HAL_Driver/Src/stm32l4xx_hal_dma.c ****   else
 258:../../core/ST/STM32L4xx_HAL_Driver/Src/stm32l4xx_hal_dma.c ****   {
ARM GAS  C:\Users\yvesk\AppData\Local\Temp\ccFefcse.s 			page 6


 259:../../core/ST/STM32L4xx_HAL_Driver/Src/stm32l4xx_hal_dma.c ****     hdma->DMAmuxRequestGen = 0U;
 260:../../core/ST/STM32L4xx_HAL_Driver/Src/stm32l4xx_hal_dma.c ****     hdma->DMAmuxRequestGenStatus = 0U;
 261:../../core/ST/STM32L4xx_HAL_Driver/Src/stm32l4xx_hal_dma.c ****     hdma->DMAmuxRequestGenStatusMask = 0U;
 262:../../core/ST/STM32L4xx_HAL_Driver/Src/stm32l4xx_hal_dma.c ****   }
 263:../../core/ST/STM32L4xx_HAL_Driver/Src/stm32l4xx_hal_dma.c **** #endif /* DMAMUX1 */
 264:../../core/ST/STM32L4xx_HAL_Driver/Src/stm32l4xx_hal_dma.c **** 
 265:../../core/ST/STM32L4xx_HAL_Driver/Src/stm32l4xx_hal_dma.c **** #if !defined (DMAMUX1)
 266:../../core/ST/STM32L4xx_HAL_Driver/Src/stm32l4xx_hal_dma.c **** 
 267:../../core/ST/STM32L4xx_HAL_Driver/Src/stm32l4xx_hal_dma.c ****   /* Set request selection */
 268:../../core/ST/STM32L4xx_HAL_Driver/Src/stm32l4xx_hal_dma.c ****   if(hdma->Init.Direction != DMA_MEMORY_TO_MEMORY)
 269:../../core/ST/STM32L4xx_HAL_Driver/Src/stm32l4xx_hal_dma.c ****   {
 270:../../core/ST/STM32L4xx_HAL_Driver/Src/stm32l4xx_hal_dma.c ****     /* Write to DMA channel selection register */
 271:../../core/ST/STM32L4xx_HAL_Driver/Src/stm32l4xx_hal_dma.c ****     if (DMA1 == hdma->DmaBaseAddress)
 272:../../core/ST/STM32L4xx_HAL_Driver/Src/stm32l4xx_hal_dma.c ****     {
 273:../../core/ST/STM32L4xx_HAL_Driver/Src/stm32l4xx_hal_dma.c ****       /* Reset request selection for DMA1 Channelx */
 274:../../core/ST/STM32L4xx_HAL_Driver/Src/stm32l4xx_hal_dma.c ****       DMA1_CSELR->CSELR &= ~(DMA_CSELR_C1S << (hdma->ChannelIndex & 0x1cU));
 275:../../core/ST/STM32L4xx_HAL_Driver/Src/stm32l4xx_hal_dma.c **** 
 276:../../core/ST/STM32L4xx_HAL_Driver/Src/stm32l4xx_hal_dma.c ****       /* Configure request selection for DMA1 Channelx */
 277:../../core/ST/STM32L4xx_HAL_Driver/Src/stm32l4xx_hal_dma.c ****       DMA1_CSELR->CSELR |= (uint32_t) (hdma->Init.Request << (hdma->ChannelIndex & 0x1cU));
 278:../../core/ST/STM32L4xx_HAL_Driver/Src/stm32l4xx_hal_dma.c ****     }
 279:../../core/ST/STM32L4xx_HAL_Driver/Src/stm32l4xx_hal_dma.c ****     else /* DMA2 */
 280:../../core/ST/STM32L4xx_HAL_Driver/Src/stm32l4xx_hal_dma.c ****     {
 281:../../core/ST/STM32L4xx_HAL_Driver/Src/stm32l4xx_hal_dma.c ****       /* Reset request selection for DMA2 Channelx */
 282:../../core/ST/STM32L4xx_HAL_Driver/Src/stm32l4xx_hal_dma.c ****       DMA2_CSELR->CSELR &= ~(DMA_CSELR_C1S << (hdma->ChannelIndex & 0x1cU));
 283:../../core/ST/STM32L4xx_HAL_Driver/Src/stm32l4xx_hal_dma.c **** 
 284:../../core/ST/STM32L4xx_HAL_Driver/Src/stm32l4xx_hal_dma.c ****       /* Configure request selection for DMA2 Channelx */
 285:../../core/ST/STM32L4xx_HAL_Driver/Src/stm32l4xx_hal_dma.c ****       DMA2_CSELR->CSELR |= (uint32_t) (hdma->Init.Request << (hdma->ChannelIndex & 0x1cU));
 286:../../core/ST/STM32L4xx_HAL_Driver/Src/stm32l4xx_hal_dma.c ****     }
 287:../../core/ST/STM32L4xx_HAL_Driver/Src/stm32l4xx_hal_dma.c ****   }
 288:../../core/ST/STM32L4xx_HAL_Driver/Src/stm32l4xx_hal_dma.c **** 
 289:../../core/ST/STM32L4xx_HAL_Driver/Src/stm32l4xx_hal_dma.c **** #endif /* STM32L431xx || STM32L432xx || STM32L433xx || STM32L442xx || STM32L443xx */
 290:../../core/ST/STM32L4xx_HAL_Driver/Src/stm32l4xx_hal_dma.c ****        /* STM32L471xx || STM32L475xx || STM32L476xx || STM32L442xx || STM32L486xx */
 291:../../core/ST/STM32L4xx_HAL_Driver/Src/stm32l4xx_hal_dma.c ****        /* STM32L496xx || STM32L4A6xx                                              */
 292:../../core/ST/STM32L4xx_HAL_Driver/Src/stm32l4xx_hal_dma.c **** 
 293:../../core/ST/STM32L4xx_HAL_Driver/Src/stm32l4xx_hal_dma.c ****   /* Initialise the error code */
 294:../../core/ST/STM32L4xx_HAL_Driver/Src/stm32l4xx_hal_dma.c ****   hdma->ErrorCode = HAL_DMA_ERROR_NONE;
 295:../../core/ST/STM32L4xx_HAL_Driver/Src/stm32l4xx_hal_dma.c **** 
 296:../../core/ST/STM32L4xx_HAL_Driver/Src/stm32l4xx_hal_dma.c ****   /* Initialize the DMA state*/
 297:../../core/ST/STM32L4xx_HAL_Driver/Src/stm32l4xx_hal_dma.c ****   hdma->State  = HAL_DMA_STATE_READY;
 298:../../core/ST/STM32L4xx_HAL_Driver/Src/stm32l4xx_hal_dma.c **** 
 299:../../core/ST/STM32L4xx_HAL_Driver/Src/stm32l4xx_hal_dma.c ****   /* Allocate lock resource and initialize it */
 300:../../core/ST/STM32L4xx_HAL_Driver/Src/stm32l4xx_hal_dma.c ****   hdma->Lock = HAL_UNLOCKED;
 301:../../core/ST/STM32L4xx_HAL_Driver/Src/stm32l4xx_hal_dma.c **** 
 302:../../core/ST/STM32L4xx_HAL_Driver/Src/stm32l4xx_hal_dma.c ****   return HAL_OK;
 303:../../core/ST/STM32L4xx_HAL_Driver/Src/stm32l4xx_hal_dma.c **** }
 304:../../core/ST/STM32L4xx_HAL_Driver/Src/stm32l4xx_hal_dma.c **** 
 305:../../core/ST/STM32L4xx_HAL_Driver/Src/stm32l4xx_hal_dma.c **** /**
 306:../../core/ST/STM32L4xx_HAL_Driver/Src/stm32l4xx_hal_dma.c ****   * @brief  DeInitialize the DMA peripheral.
 307:../../core/ST/STM32L4xx_HAL_Driver/Src/stm32l4xx_hal_dma.c ****   * @param  hdma pointer to a DMA_HandleTypeDef structure that contains
 308:../../core/ST/STM32L4xx_HAL_Driver/Src/stm32l4xx_hal_dma.c ****   *               the configuration information for the specified DMA Channel.
 309:../../core/ST/STM32L4xx_HAL_Driver/Src/stm32l4xx_hal_dma.c ****   * @retval HAL status
 310:../../core/ST/STM32L4xx_HAL_Driver/Src/stm32l4xx_hal_dma.c ****   */
 311:../../core/ST/STM32L4xx_HAL_Driver/Src/stm32l4xx_hal_dma.c **** HAL_StatusTypeDef HAL_DMA_DeInit(DMA_HandleTypeDef *hdma)
 312:../../core/ST/STM32L4xx_HAL_Driver/Src/stm32l4xx_hal_dma.c **** {
 313:../../core/ST/STM32L4xx_HAL_Driver/Src/stm32l4xx_hal_dma.c **** 
 314:../../core/ST/STM32L4xx_HAL_Driver/Src/stm32l4xx_hal_dma.c ****   /* Check the DMA handle allocation */
 315:../../core/ST/STM32L4xx_HAL_Driver/Src/stm32l4xx_hal_dma.c ****   if (NULL == hdma )
ARM GAS  C:\Users\yvesk\AppData\Local\Temp\ccFefcse.s 			page 7


 316:../../core/ST/STM32L4xx_HAL_Driver/Src/stm32l4xx_hal_dma.c ****   {
 317:../../core/ST/STM32L4xx_HAL_Driver/Src/stm32l4xx_hal_dma.c ****     return HAL_ERROR;
 318:../../core/ST/STM32L4xx_HAL_Driver/Src/stm32l4xx_hal_dma.c ****   }
 319:../../core/ST/STM32L4xx_HAL_Driver/Src/stm32l4xx_hal_dma.c **** 
 320:../../core/ST/STM32L4xx_HAL_Driver/Src/stm32l4xx_hal_dma.c ****   /* Check the parameters */
 321:../../core/ST/STM32L4xx_HAL_Driver/Src/stm32l4xx_hal_dma.c ****   assert_param(IS_DMA_ALL_INSTANCE(hdma->Instance));
 322:../../core/ST/STM32L4xx_HAL_Driver/Src/stm32l4xx_hal_dma.c **** 
 323:../../core/ST/STM32L4xx_HAL_Driver/Src/stm32l4xx_hal_dma.c ****   /* Disable the selected DMA Channelx */
 324:../../core/ST/STM32L4xx_HAL_Driver/Src/stm32l4xx_hal_dma.c ****   __HAL_DMA_DISABLE(hdma);
 325:../../core/ST/STM32L4xx_HAL_Driver/Src/stm32l4xx_hal_dma.c **** 
 326:../../core/ST/STM32L4xx_HAL_Driver/Src/stm32l4xx_hal_dma.c ****   /* Compute the channel index */
 327:../../core/ST/STM32L4xx_HAL_Driver/Src/stm32l4xx_hal_dma.c ****   if ((uint32_t)(hdma->Instance) < (uint32_t)(DMA2_Channel1))
 328:../../core/ST/STM32L4xx_HAL_Driver/Src/stm32l4xx_hal_dma.c ****   {
 329:../../core/ST/STM32L4xx_HAL_Driver/Src/stm32l4xx_hal_dma.c ****     /* DMA1 */
 330:../../core/ST/STM32L4xx_HAL_Driver/Src/stm32l4xx_hal_dma.c ****     hdma->ChannelIndex = (((uint32_t)hdma->Instance - (uint32_t)DMA1_Channel1) / ((uint32_t)DMA1_Ch
 331:../../core/ST/STM32L4xx_HAL_Driver/Src/stm32l4xx_hal_dma.c ****     hdma->DmaBaseAddress = DMA1;
 332:../../core/ST/STM32L4xx_HAL_Driver/Src/stm32l4xx_hal_dma.c ****   }
 333:../../core/ST/STM32L4xx_HAL_Driver/Src/stm32l4xx_hal_dma.c ****   else
 334:../../core/ST/STM32L4xx_HAL_Driver/Src/stm32l4xx_hal_dma.c ****   {
 335:../../core/ST/STM32L4xx_HAL_Driver/Src/stm32l4xx_hal_dma.c ****     /* DMA2 */
 336:../../core/ST/STM32L4xx_HAL_Driver/Src/stm32l4xx_hal_dma.c ****     hdma->ChannelIndex = (((uint32_t)hdma->Instance - (uint32_t)DMA2_Channel1) / ((uint32_t)DMA2_Ch
 337:../../core/ST/STM32L4xx_HAL_Driver/Src/stm32l4xx_hal_dma.c ****     hdma->DmaBaseAddress = DMA2;
 338:../../core/ST/STM32L4xx_HAL_Driver/Src/stm32l4xx_hal_dma.c ****   }
 339:../../core/ST/STM32L4xx_HAL_Driver/Src/stm32l4xx_hal_dma.c **** 
 340:../../core/ST/STM32L4xx_HAL_Driver/Src/stm32l4xx_hal_dma.c ****   /* Reset DMA Channel control register */
 341:../../core/ST/STM32L4xx_HAL_Driver/Src/stm32l4xx_hal_dma.c ****   hdma->Instance->CCR  = 0;
 342:../../core/ST/STM32L4xx_HAL_Driver/Src/stm32l4xx_hal_dma.c **** 
 343:../../core/ST/STM32L4xx_HAL_Driver/Src/stm32l4xx_hal_dma.c ****   /* Clear all flags */
 344:../../core/ST/STM32L4xx_HAL_Driver/Src/stm32l4xx_hal_dma.c ****   hdma->DmaBaseAddress->IFCR = (DMA_ISR_GIF1 << (hdma->ChannelIndex & 0x1cU));
 345:../../core/ST/STM32L4xx_HAL_Driver/Src/stm32l4xx_hal_dma.c **** 
 346:../../core/ST/STM32L4xx_HAL_Driver/Src/stm32l4xx_hal_dma.c **** #if !defined (DMAMUX1)
 347:../../core/ST/STM32L4xx_HAL_Driver/Src/stm32l4xx_hal_dma.c **** 
 348:../../core/ST/STM32L4xx_HAL_Driver/Src/stm32l4xx_hal_dma.c ****   /* Reset DMA channel selection register */
 349:../../core/ST/STM32L4xx_HAL_Driver/Src/stm32l4xx_hal_dma.c ****   if (DMA1 == hdma->DmaBaseAddress)
 350:../../core/ST/STM32L4xx_HAL_Driver/Src/stm32l4xx_hal_dma.c ****   {
 351:../../core/ST/STM32L4xx_HAL_Driver/Src/stm32l4xx_hal_dma.c ****     /* DMA1 */
 352:../../core/ST/STM32L4xx_HAL_Driver/Src/stm32l4xx_hal_dma.c ****     DMA1_CSELR->CSELR &= ~(DMA_CSELR_C1S << (hdma->ChannelIndex & 0x1cU));
 353:../../core/ST/STM32L4xx_HAL_Driver/Src/stm32l4xx_hal_dma.c ****   }
 354:../../core/ST/STM32L4xx_HAL_Driver/Src/stm32l4xx_hal_dma.c ****   else
 355:../../core/ST/STM32L4xx_HAL_Driver/Src/stm32l4xx_hal_dma.c ****   {
 356:../../core/ST/STM32L4xx_HAL_Driver/Src/stm32l4xx_hal_dma.c ****     /* DMA2 */
 357:../../core/ST/STM32L4xx_HAL_Driver/Src/stm32l4xx_hal_dma.c ****     DMA2_CSELR->CSELR &= ~(DMA_CSELR_C1S << (hdma->ChannelIndex & 0x1cU));
 358:../../core/ST/STM32L4xx_HAL_Driver/Src/stm32l4xx_hal_dma.c ****   }
 359:../../core/ST/STM32L4xx_HAL_Driver/Src/stm32l4xx_hal_dma.c **** #endif /* STM32L431xx || STM32L432xx || STM32L433xx || STM32L442xx || STM32L443xx */
 360:../../core/ST/STM32L4xx_HAL_Driver/Src/stm32l4xx_hal_dma.c ****        /* STM32L471xx || STM32L475xx || STM32L476xx || STM32L442xx || STM32L486xx */
 361:../../core/ST/STM32L4xx_HAL_Driver/Src/stm32l4xx_hal_dma.c ****        /* STM32L496xx || STM32L4A6xx                                              */
 362:../../core/ST/STM32L4xx_HAL_Driver/Src/stm32l4xx_hal_dma.c **** 
 363:../../core/ST/STM32L4xx_HAL_Driver/Src/stm32l4xx_hal_dma.c **** #if defined(DMAMUX1)
 364:../../core/ST/STM32L4xx_HAL_Driver/Src/stm32l4xx_hal_dma.c **** 
 365:../../core/ST/STM32L4xx_HAL_Driver/Src/stm32l4xx_hal_dma.c ****   /* Initialize parameters for DMAMUX channel :
 366:../../core/ST/STM32L4xx_HAL_Driver/Src/stm32l4xx_hal_dma.c ****      DMAmuxChannel, DMAmuxChannelStatus and DMAmuxChannelStatusMask */
 367:../../core/ST/STM32L4xx_HAL_Driver/Src/stm32l4xx_hal_dma.c **** 
 368:../../core/ST/STM32L4xx_HAL_Driver/Src/stm32l4xx_hal_dma.c ****   DMA_CalcDMAMUXChannelBaseAndMask(hdma);
 369:../../core/ST/STM32L4xx_HAL_Driver/Src/stm32l4xx_hal_dma.c **** 
 370:../../core/ST/STM32L4xx_HAL_Driver/Src/stm32l4xx_hal_dma.c ****   /* Reset the DMAMUX channel that corresponds to the DMA channel */
 371:../../core/ST/STM32L4xx_HAL_Driver/Src/stm32l4xx_hal_dma.c ****   hdma->DMAmuxChannel->CCR = 0;
 372:../../core/ST/STM32L4xx_HAL_Driver/Src/stm32l4xx_hal_dma.c **** 
ARM GAS  C:\Users\yvesk\AppData\Local\Temp\ccFefcse.s 			page 8


 373:../../core/ST/STM32L4xx_HAL_Driver/Src/stm32l4xx_hal_dma.c ****   /* Clear the DMAMUX synchro overrun flag */
 374:../../core/ST/STM32L4xx_HAL_Driver/Src/stm32l4xx_hal_dma.c ****   hdma->DMAmuxChannelStatus->CFR = hdma->DMAmuxChannelStatusMask;
 375:../../core/ST/STM32L4xx_HAL_Driver/Src/stm32l4xx_hal_dma.c **** 
 376:../../core/ST/STM32L4xx_HAL_Driver/Src/stm32l4xx_hal_dma.c ****   /* Reset Request generator parameters if any */
 377:../../core/ST/STM32L4xx_HAL_Driver/Src/stm32l4xx_hal_dma.c ****   if(((hdma->Init.Request >  0U) && (hdma->Init.Request <= DMA_REQUEST_GENERATOR3)))
 378:../../core/ST/STM32L4xx_HAL_Driver/Src/stm32l4xx_hal_dma.c ****   {
 379:../../core/ST/STM32L4xx_HAL_Driver/Src/stm32l4xx_hal_dma.c ****     /* Initialize parameters for DMAMUX request generator :
 380:../../core/ST/STM32L4xx_HAL_Driver/Src/stm32l4xx_hal_dma.c ****        DMAmuxRequestGen, DMAmuxRequestGenStatus and DMAmuxRequestGenStatusMask
 381:../../core/ST/STM32L4xx_HAL_Driver/Src/stm32l4xx_hal_dma.c ****     */
 382:../../core/ST/STM32L4xx_HAL_Driver/Src/stm32l4xx_hal_dma.c ****     DMA_CalcDMAMUXRequestGenBaseAndMask(hdma);
 383:../../core/ST/STM32L4xx_HAL_Driver/Src/stm32l4xx_hal_dma.c **** 
 384:../../core/ST/STM32L4xx_HAL_Driver/Src/stm32l4xx_hal_dma.c ****     /* Reset the DMAMUX request generator register*/
 385:../../core/ST/STM32L4xx_HAL_Driver/Src/stm32l4xx_hal_dma.c ****     hdma->DMAmuxRequestGen->RGCR = 0U;
 386:../../core/ST/STM32L4xx_HAL_Driver/Src/stm32l4xx_hal_dma.c **** 
 387:../../core/ST/STM32L4xx_HAL_Driver/Src/stm32l4xx_hal_dma.c ****     /* Clear the DMAMUX request generator overrun flag */
 388:../../core/ST/STM32L4xx_HAL_Driver/Src/stm32l4xx_hal_dma.c ****     hdma->DMAmuxRequestGenStatus->RGCFR = hdma->DMAmuxRequestGenStatusMask;
 389:../../core/ST/STM32L4xx_HAL_Driver/Src/stm32l4xx_hal_dma.c ****   }
 390:../../core/ST/STM32L4xx_HAL_Driver/Src/stm32l4xx_hal_dma.c **** 
 391:../../core/ST/STM32L4xx_HAL_Driver/Src/stm32l4xx_hal_dma.c ****   hdma->DMAmuxRequestGen = 0U;
 392:../../core/ST/STM32L4xx_HAL_Driver/Src/stm32l4xx_hal_dma.c ****   hdma->DMAmuxRequestGenStatus = 0U;
 393:../../core/ST/STM32L4xx_HAL_Driver/Src/stm32l4xx_hal_dma.c ****   hdma->DMAmuxRequestGenStatusMask = 0U;
 394:../../core/ST/STM32L4xx_HAL_Driver/Src/stm32l4xx_hal_dma.c **** 
 395:../../core/ST/STM32L4xx_HAL_Driver/Src/stm32l4xx_hal_dma.c **** #endif /* DMAMUX1 */
 396:../../core/ST/STM32L4xx_HAL_Driver/Src/stm32l4xx_hal_dma.c **** 
 397:../../core/ST/STM32L4xx_HAL_Driver/Src/stm32l4xx_hal_dma.c ****   /* Clean callbacks */
 398:../../core/ST/STM32L4xx_HAL_Driver/Src/stm32l4xx_hal_dma.c ****   hdma->XferCpltCallback = NULL;
 399:../../core/ST/STM32L4xx_HAL_Driver/Src/stm32l4xx_hal_dma.c ****   hdma->XferHalfCpltCallback = NULL;
 400:../../core/ST/STM32L4xx_HAL_Driver/Src/stm32l4xx_hal_dma.c ****   hdma->XferErrorCallback = NULL;
 401:../../core/ST/STM32L4xx_HAL_Driver/Src/stm32l4xx_hal_dma.c ****   hdma->XferAbortCallback = NULL;
 402:../../core/ST/STM32L4xx_HAL_Driver/Src/stm32l4xx_hal_dma.c **** 
 403:../../core/ST/STM32L4xx_HAL_Driver/Src/stm32l4xx_hal_dma.c ****   /* Initialise the error code */
 404:../../core/ST/STM32L4xx_HAL_Driver/Src/stm32l4xx_hal_dma.c ****   hdma->ErrorCode = HAL_DMA_ERROR_NONE;
 405:../../core/ST/STM32L4xx_HAL_Driver/Src/stm32l4xx_hal_dma.c **** 
 406:../../core/ST/STM32L4xx_HAL_Driver/Src/stm32l4xx_hal_dma.c ****   /* Initialize the DMA state */
 407:../../core/ST/STM32L4xx_HAL_Driver/Src/stm32l4xx_hal_dma.c ****   hdma->State = HAL_DMA_STATE_RESET;
 408:../../core/ST/STM32L4xx_HAL_Driver/Src/stm32l4xx_hal_dma.c **** 
 409:../../core/ST/STM32L4xx_HAL_Driver/Src/stm32l4xx_hal_dma.c ****   /* Release Lock */
 410:../../core/ST/STM32L4xx_HAL_Driver/Src/stm32l4xx_hal_dma.c ****   __HAL_UNLOCK(hdma);
 411:../../core/ST/STM32L4xx_HAL_Driver/Src/stm32l4xx_hal_dma.c **** 
 412:../../core/ST/STM32L4xx_HAL_Driver/Src/stm32l4xx_hal_dma.c ****   return HAL_OK;
 413:../../core/ST/STM32L4xx_HAL_Driver/Src/stm32l4xx_hal_dma.c **** }
 414:../../core/ST/STM32L4xx_HAL_Driver/Src/stm32l4xx_hal_dma.c **** 
 415:../../core/ST/STM32L4xx_HAL_Driver/Src/stm32l4xx_hal_dma.c **** /**
 416:../../core/ST/STM32L4xx_HAL_Driver/Src/stm32l4xx_hal_dma.c ****   * @}
 417:../../core/ST/STM32L4xx_HAL_Driver/Src/stm32l4xx_hal_dma.c ****   */
 418:../../core/ST/STM32L4xx_HAL_Driver/Src/stm32l4xx_hal_dma.c **** 
 419:../../core/ST/STM32L4xx_HAL_Driver/Src/stm32l4xx_hal_dma.c **** /** @defgroup DMA_Exported_Functions_Group2 Input and Output operation functions
 420:../../core/ST/STM32L4xx_HAL_Driver/Src/stm32l4xx_hal_dma.c ****  *  @brief   Input and Output operation functions
 421:../../core/ST/STM32L4xx_HAL_Driver/Src/stm32l4xx_hal_dma.c ****  *
 422:../../core/ST/STM32L4xx_HAL_Driver/Src/stm32l4xx_hal_dma.c **** @verbatim
 423:../../core/ST/STM32L4xx_HAL_Driver/Src/stm32l4xx_hal_dma.c ****  ===============================================================================
 424:../../core/ST/STM32L4xx_HAL_Driver/Src/stm32l4xx_hal_dma.c ****                       #####  IO operation functions  #####
 425:../../core/ST/STM32L4xx_HAL_Driver/Src/stm32l4xx_hal_dma.c ****  ===============================================================================
 426:../../core/ST/STM32L4xx_HAL_Driver/Src/stm32l4xx_hal_dma.c ****     [..]  This section provides functions allowing to:
 427:../../core/ST/STM32L4xx_HAL_Driver/Src/stm32l4xx_hal_dma.c ****       (+) Configure the source, destination address and data length and Start DMA transfer
 428:../../core/ST/STM32L4xx_HAL_Driver/Src/stm32l4xx_hal_dma.c ****       (+) Configure the source, destination address and data length and
 429:../../core/ST/STM32L4xx_HAL_Driver/Src/stm32l4xx_hal_dma.c ****           Start DMA transfer with interrupt
ARM GAS  C:\Users\yvesk\AppData\Local\Temp\ccFefcse.s 			page 9


 430:../../core/ST/STM32L4xx_HAL_Driver/Src/stm32l4xx_hal_dma.c ****       (+) Abort DMA transfer
 431:../../core/ST/STM32L4xx_HAL_Driver/Src/stm32l4xx_hal_dma.c ****       (+) Poll for transfer complete
 432:../../core/ST/STM32L4xx_HAL_Driver/Src/stm32l4xx_hal_dma.c ****       (+) Handle DMA interrupt request
 433:../../core/ST/STM32L4xx_HAL_Driver/Src/stm32l4xx_hal_dma.c **** 
 434:../../core/ST/STM32L4xx_HAL_Driver/Src/stm32l4xx_hal_dma.c **** @endverbatim
 435:../../core/ST/STM32L4xx_HAL_Driver/Src/stm32l4xx_hal_dma.c ****   * @{
 436:../../core/ST/STM32L4xx_HAL_Driver/Src/stm32l4xx_hal_dma.c ****   */
 437:../../core/ST/STM32L4xx_HAL_Driver/Src/stm32l4xx_hal_dma.c **** 
 438:../../core/ST/STM32L4xx_HAL_Driver/Src/stm32l4xx_hal_dma.c **** /**
 439:../../core/ST/STM32L4xx_HAL_Driver/Src/stm32l4xx_hal_dma.c ****   * @brief  Start the DMA Transfer.
 440:../../core/ST/STM32L4xx_HAL_Driver/Src/stm32l4xx_hal_dma.c ****   * @param  hdma pointer to a DMA_HandleTypeDef structure that contains
 441:../../core/ST/STM32L4xx_HAL_Driver/Src/stm32l4xx_hal_dma.c ****   *               the configuration information for the specified DMA Channel.
 442:../../core/ST/STM32L4xx_HAL_Driver/Src/stm32l4xx_hal_dma.c ****   * @param  SrcAddress The source memory Buffer address
 443:../../core/ST/STM32L4xx_HAL_Driver/Src/stm32l4xx_hal_dma.c ****   * @param  DstAddress The destination memory Buffer address
 444:../../core/ST/STM32L4xx_HAL_Driver/Src/stm32l4xx_hal_dma.c ****   * @param  DataLength The length of data to be transferred from source to destination
 445:../../core/ST/STM32L4xx_HAL_Driver/Src/stm32l4xx_hal_dma.c ****   * @retval HAL status
 446:../../core/ST/STM32L4xx_HAL_Driver/Src/stm32l4xx_hal_dma.c ****   */
 447:../../core/ST/STM32L4xx_HAL_Driver/Src/stm32l4xx_hal_dma.c **** HAL_StatusTypeDef HAL_DMA_Start(DMA_HandleTypeDef *hdma, uint32_t SrcAddress, uint32_t DstAddress, 
 448:../../core/ST/STM32L4xx_HAL_Driver/Src/stm32l4xx_hal_dma.c **** {
 449:../../core/ST/STM32L4xx_HAL_Driver/Src/stm32l4xx_hal_dma.c ****   HAL_StatusTypeDef status = HAL_OK;
 450:../../core/ST/STM32L4xx_HAL_Driver/Src/stm32l4xx_hal_dma.c **** 
 451:../../core/ST/STM32L4xx_HAL_Driver/Src/stm32l4xx_hal_dma.c ****   /* Check the parameters */
 452:../../core/ST/STM32L4xx_HAL_Driver/Src/stm32l4xx_hal_dma.c ****   assert_param(IS_DMA_BUFFER_SIZE(DataLength));
 453:../../core/ST/STM32L4xx_HAL_Driver/Src/stm32l4xx_hal_dma.c **** 
 454:../../core/ST/STM32L4xx_HAL_Driver/Src/stm32l4xx_hal_dma.c ****   /* Process locked */
 455:../../core/ST/STM32L4xx_HAL_Driver/Src/stm32l4xx_hal_dma.c ****   __HAL_LOCK(hdma);
 456:../../core/ST/STM32L4xx_HAL_Driver/Src/stm32l4xx_hal_dma.c **** 
 457:../../core/ST/STM32L4xx_HAL_Driver/Src/stm32l4xx_hal_dma.c ****   if(HAL_DMA_STATE_READY == hdma->State)
 458:../../core/ST/STM32L4xx_HAL_Driver/Src/stm32l4xx_hal_dma.c ****   {
 459:../../core/ST/STM32L4xx_HAL_Driver/Src/stm32l4xx_hal_dma.c ****     /* Change DMA peripheral state */
 460:../../core/ST/STM32L4xx_HAL_Driver/Src/stm32l4xx_hal_dma.c ****     hdma->State = HAL_DMA_STATE_BUSY;
 461:../../core/ST/STM32L4xx_HAL_Driver/Src/stm32l4xx_hal_dma.c ****     hdma->ErrorCode = HAL_DMA_ERROR_NONE;
 462:../../core/ST/STM32L4xx_HAL_Driver/Src/stm32l4xx_hal_dma.c **** 
 463:../../core/ST/STM32L4xx_HAL_Driver/Src/stm32l4xx_hal_dma.c ****     /* Disable the peripheral */
 464:../../core/ST/STM32L4xx_HAL_Driver/Src/stm32l4xx_hal_dma.c ****     __HAL_DMA_DISABLE(hdma);
 465:../../core/ST/STM32L4xx_HAL_Driver/Src/stm32l4xx_hal_dma.c **** 
 466:../../core/ST/STM32L4xx_HAL_Driver/Src/stm32l4xx_hal_dma.c ****     /* Configure the source, destination address and the data length & clear flags*/
 467:../../core/ST/STM32L4xx_HAL_Driver/Src/stm32l4xx_hal_dma.c ****     DMA_SetConfig(hdma, SrcAddress, DstAddress, DataLength);
 468:../../core/ST/STM32L4xx_HAL_Driver/Src/stm32l4xx_hal_dma.c **** 
 469:../../core/ST/STM32L4xx_HAL_Driver/Src/stm32l4xx_hal_dma.c ****     /* Enable the Peripheral */
 470:../../core/ST/STM32L4xx_HAL_Driver/Src/stm32l4xx_hal_dma.c ****     __HAL_DMA_ENABLE(hdma);
 471:../../core/ST/STM32L4xx_HAL_Driver/Src/stm32l4xx_hal_dma.c ****   }
 472:../../core/ST/STM32L4xx_HAL_Driver/Src/stm32l4xx_hal_dma.c ****   else
 473:../../core/ST/STM32L4xx_HAL_Driver/Src/stm32l4xx_hal_dma.c ****   {
 474:../../core/ST/STM32L4xx_HAL_Driver/Src/stm32l4xx_hal_dma.c ****     /* Process Unlocked */
 475:../../core/ST/STM32L4xx_HAL_Driver/Src/stm32l4xx_hal_dma.c ****     __HAL_UNLOCK(hdma);
 476:../../core/ST/STM32L4xx_HAL_Driver/Src/stm32l4xx_hal_dma.c ****     status = HAL_BUSY;
 477:../../core/ST/STM32L4xx_HAL_Driver/Src/stm32l4xx_hal_dma.c ****   }
 478:../../core/ST/STM32L4xx_HAL_Driver/Src/stm32l4xx_hal_dma.c ****   return status;
 479:../../core/ST/STM32L4xx_HAL_Driver/Src/stm32l4xx_hal_dma.c **** }
 480:../../core/ST/STM32L4xx_HAL_Driver/Src/stm32l4xx_hal_dma.c **** 
 481:../../core/ST/STM32L4xx_HAL_Driver/Src/stm32l4xx_hal_dma.c **** /**
 482:../../core/ST/STM32L4xx_HAL_Driver/Src/stm32l4xx_hal_dma.c ****   * @brief  Start the DMA Transfer with interrupt enabled.
 483:../../core/ST/STM32L4xx_HAL_Driver/Src/stm32l4xx_hal_dma.c ****   * @param  hdma pointer to a DMA_HandleTypeDef structure that contains
 484:../../core/ST/STM32L4xx_HAL_Driver/Src/stm32l4xx_hal_dma.c ****   *               the configuration information for the specified DMA Channel.
 485:../../core/ST/STM32L4xx_HAL_Driver/Src/stm32l4xx_hal_dma.c ****   * @param  SrcAddress The source memory Buffer address
 486:../../core/ST/STM32L4xx_HAL_Driver/Src/stm32l4xx_hal_dma.c ****   * @param  DstAddress The destination memory Buffer address
ARM GAS  C:\Users\yvesk\AppData\Local\Temp\ccFefcse.s 			page 10


 487:../../core/ST/STM32L4xx_HAL_Driver/Src/stm32l4xx_hal_dma.c ****   * @param  DataLength The length of data to be transferred from source to destination
 488:../../core/ST/STM32L4xx_HAL_Driver/Src/stm32l4xx_hal_dma.c ****   * @retval HAL status
 489:../../core/ST/STM32L4xx_HAL_Driver/Src/stm32l4xx_hal_dma.c ****   */
 490:../../core/ST/STM32L4xx_HAL_Driver/Src/stm32l4xx_hal_dma.c **** HAL_StatusTypeDef HAL_DMA_Start_IT(DMA_HandleTypeDef *hdma, uint32_t SrcAddress, uint32_t DstAddres
 491:../../core/ST/STM32L4xx_HAL_Driver/Src/stm32l4xx_hal_dma.c **** {
 492:../../core/ST/STM32L4xx_HAL_Driver/Src/stm32l4xx_hal_dma.c ****   HAL_StatusTypeDef status = HAL_OK;
 493:../../core/ST/STM32L4xx_HAL_Driver/Src/stm32l4xx_hal_dma.c **** 
 494:../../core/ST/STM32L4xx_HAL_Driver/Src/stm32l4xx_hal_dma.c ****   /* Check the parameters */
 495:../../core/ST/STM32L4xx_HAL_Driver/Src/stm32l4xx_hal_dma.c ****   assert_param(IS_DMA_BUFFER_SIZE(DataLength));
 496:../../core/ST/STM32L4xx_HAL_Driver/Src/stm32l4xx_hal_dma.c **** 
 497:../../core/ST/STM32L4xx_HAL_Driver/Src/stm32l4xx_hal_dma.c ****   /* Process locked */
 498:../../core/ST/STM32L4xx_HAL_Driver/Src/stm32l4xx_hal_dma.c ****   __HAL_LOCK(hdma);
 499:../../core/ST/STM32L4xx_HAL_Driver/Src/stm32l4xx_hal_dma.c **** 
 500:../../core/ST/STM32L4xx_HAL_Driver/Src/stm32l4xx_hal_dma.c ****   if(HAL_DMA_STATE_READY == hdma->State)
 501:../../core/ST/STM32L4xx_HAL_Driver/Src/stm32l4xx_hal_dma.c ****   {
 502:../../core/ST/STM32L4xx_HAL_Driver/Src/stm32l4xx_hal_dma.c ****     /* Change DMA peripheral state */
 503:../../core/ST/STM32L4xx_HAL_Driver/Src/stm32l4xx_hal_dma.c ****     hdma->State = HAL_DMA_STATE_BUSY;
 504:../../core/ST/STM32L4xx_HAL_Driver/Src/stm32l4xx_hal_dma.c ****     hdma->ErrorCode = HAL_DMA_ERROR_NONE;
 505:../../core/ST/STM32L4xx_HAL_Driver/Src/stm32l4xx_hal_dma.c **** 
 506:../../core/ST/STM32L4xx_HAL_Driver/Src/stm32l4xx_hal_dma.c ****     /* Disable the peripheral */
 507:../../core/ST/STM32L4xx_HAL_Driver/Src/stm32l4xx_hal_dma.c ****     __HAL_DMA_DISABLE(hdma);
 508:../../core/ST/STM32L4xx_HAL_Driver/Src/stm32l4xx_hal_dma.c **** 
 509:../../core/ST/STM32L4xx_HAL_Driver/Src/stm32l4xx_hal_dma.c ****     /* Configure the source, destination address and the data length & clear flags*/
 510:../../core/ST/STM32L4xx_HAL_Driver/Src/stm32l4xx_hal_dma.c ****     DMA_SetConfig(hdma, SrcAddress, DstAddress, DataLength);
 511:../../core/ST/STM32L4xx_HAL_Driver/Src/stm32l4xx_hal_dma.c **** 
 512:../../core/ST/STM32L4xx_HAL_Driver/Src/stm32l4xx_hal_dma.c ****     /* Enable the transfer complete interrupt */
 513:../../core/ST/STM32L4xx_HAL_Driver/Src/stm32l4xx_hal_dma.c ****     /* Enable the transfer Error interrupt */
 514:../../core/ST/STM32L4xx_HAL_Driver/Src/stm32l4xx_hal_dma.c ****     if(NULL != hdma->XferHalfCpltCallback )
 515:../../core/ST/STM32L4xx_HAL_Driver/Src/stm32l4xx_hal_dma.c ****     {
 516:../../core/ST/STM32L4xx_HAL_Driver/Src/stm32l4xx_hal_dma.c ****       /* Enable the Half transfer complete interrupt as well */
 517:../../core/ST/STM32L4xx_HAL_Driver/Src/stm32l4xx_hal_dma.c ****       __HAL_DMA_ENABLE_IT(hdma, (DMA_IT_TC | DMA_IT_HT | DMA_IT_TE));
 518:../../core/ST/STM32L4xx_HAL_Driver/Src/stm32l4xx_hal_dma.c ****     }
 519:../../core/ST/STM32L4xx_HAL_Driver/Src/stm32l4xx_hal_dma.c ****     else
 520:../../core/ST/STM32L4xx_HAL_Driver/Src/stm32l4xx_hal_dma.c ****     {
 521:../../core/ST/STM32L4xx_HAL_Driver/Src/stm32l4xx_hal_dma.c ****       __HAL_DMA_DISABLE_IT(hdma, DMA_IT_HT);
 522:../../core/ST/STM32L4xx_HAL_Driver/Src/stm32l4xx_hal_dma.c ****       __HAL_DMA_ENABLE_IT(hdma, (DMA_IT_TC | DMA_IT_TE));
 523:../../core/ST/STM32L4xx_HAL_Driver/Src/stm32l4xx_hal_dma.c ****     }
 524:../../core/ST/STM32L4xx_HAL_Driver/Src/stm32l4xx_hal_dma.c **** 
 525:../../core/ST/STM32L4xx_HAL_Driver/Src/stm32l4xx_hal_dma.c **** #ifdef DMAMUX1
 526:../../core/ST/STM32L4xx_HAL_Driver/Src/stm32l4xx_hal_dma.c **** 
 527:../../core/ST/STM32L4xx_HAL_Driver/Src/stm32l4xx_hal_dma.c ****     /* Check if DMAMUX Synchronization is enabled*/
 528:../../core/ST/STM32L4xx_HAL_Driver/Src/stm32l4xx_hal_dma.c ****     if((hdma->DMAmuxChannel->CCR & DMAMUX_CxCR_SE) != 0U)
 529:../../core/ST/STM32L4xx_HAL_Driver/Src/stm32l4xx_hal_dma.c ****     {
 530:../../core/ST/STM32L4xx_HAL_Driver/Src/stm32l4xx_hal_dma.c ****       /* Enable DMAMUX sync overrun IT*/
 531:../../core/ST/STM32L4xx_HAL_Driver/Src/stm32l4xx_hal_dma.c ****       hdma->DMAmuxChannel->CCR |= DMAMUX_CxCR_SOIE;
 532:../../core/ST/STM32L4xx_HAL_Driver/Src/stm32l4xx_hal_dma.c ****     }
 533:../../core/ST/STM32L4xx_HAL_Driver/Src/stm32l4xx_hal_dma.c **** 
 534:../../core/ST/STM32L4xx_HAL_Driver/Src/stm32l4xx_hal_dma.c ****     if(hdma->DMAmuxRequestGen != 0U)
 535:../../core/ST/STM32L4xx_HAL_Driver/Src/stm32l4xx_hal_dma.c ****     {
 536:../../core/ST/STM32L4xx_HAL_Driver/Src/stm32l4xx_hal_dma.c ****       /* if using DMAMUX request generator, enable the DMAMUX request generator overrun IT*/
 537:../../core/ST/STM32L4xx_HAL_Driver/Src/stm32l4xx_hal_dma.c ****       /* enable the request gen overrun IT*/
 538:../../core/ST/STM32L4xx_HAL_Driver/Src/stm32l4xx_hal_dma.c ****       hdma->DMAmuxRequestGen->RGCR |= DMAMUX_RGxCR_OIE;
 539:../../core/ST/STM32L4xx_HAL_Driver/Src/stm32l4xx_hal_dma.c ****     }
 540:../../core/ST/STM32L4xx_HAL_Driver/Src/stm32l4xx_hal_dma.c **** 
 541:../../core/ST/STM32L4xx_HAL_Driver/Src/stm32l4xx_hal_dma.c **** #endif /* DMAMUX1 */
 542:../../core/ST/STM32L4xx_HAL_Driver/Src/stm32l4xx_hal_dma.c **** 
 543:../../core/ST/STM32L4xx_HAL_Driver/Src/stm32l4xx_hal_dma.c ****     /* Enable the Peripheral */
ARM GAS  C:\Users\yvesk\AppData\Local\Temp\ccFefcse.s 			page 11


 544:../../core/ST/STM32L4xx_HAL_Driver/Src/stm32l4xx_hal_dma.c ****     __HAL_DMA_ENABLE(hdma);
 545:../../core/ST/STM32L4xx_HAL_Driver/Src/stm32l4xx_hal_dma.c ****   }
 546:../../core/ST/STM32L4xx_HAL_Driver/Src/stm32l4xx_hal_dma.c ****   else
 547:../../core/ST/STM32L4xx_HAL_Driver/Src/stm32l4xx_hal_dma.c ****   {
 548:../../core/ST/STM32L4xx_HAL_Driver/Src/stm32l4xx_hal_dma.c ****     /* Process Unlocked */
 549:../../core/ST/STM32L4xx_HAL_Driver/Src/stm32l4xx_hal_dma.c ****     __HAL_UNLOCK(hdma);
 550:../../core/ST/STM32L4xx_HAL_Driver/Src/stm32l4xx_hal_dma.c **** 
 551:../../core/ST/STM32L4xx_HAL_Driver/Src/stm32l4xx_hal_dma.c ****     /* Remain BUSY */
 552:../../core/ST/STM32L4xx_HAL_Driver/Src/stm32l4xx_hal_dma.c ****     status = HAL_BUSY;
 553:../../core/ST/STM32L4xx_HAL_Driver/Src/stm32l4xx_hal_dma.c ****   }
 554:../../core/ST/STM32L4xx_HAL_Driver/Src/stm32l4xx_hal_dma.c ****   return status;
 555:../../core/ST/STM32L4xx_HAL_Driver/Src/stm32l4xx_hal_dma.c **** }
 556:../../core/ST/STM32L4xx_HAL_Driver/Src/stm32l4xx_hal_dma.c **** 
 557:../../core/ST/STM32L4xx_HAL_Driver/Src/stm32l4xx_hal_dma.c **** /**
 558:../../core/ST/STM32L4xx_HAL_Driver/Src/stm32l4xx_hal_dma.c ****   * @brief  Abort the DMA Transfer.
 559:../../core/ST/STM32L4xx_HAL_Driver/Src/stm32l4xx_hal_dma.c ****   * @param  hdma pointer to a DMA_HandleTypeDef structure that contains
 560:../../core/ST/STM32L4xx_HAL_Driver/Src/stm32l4xx_hal_dma.c ****   *               the configuration information for the specified DMA Channel.
 561:../../core/ST/STM32L4xx_HAL_Driver/Src/stm32l4xx_hal_dma.c ****     * @retval HAL status
 562:../../core/ST/STM32L4xx_HAL_Driver/Src/stm32l4xx_hal_dma.c ****   */
 563:../../core/ST/STM32L4xx_HAL_Driver/Src/stm32l4xx_hal_dma.c **** HAL_StatusTypeDef HAL_DMA_Abort(DMA_HandleTypeDef *hdma)
 564:../../core/ST/STM32L4xx_HAL_Driver/Src/stm32l4xx_hal_dma.c **** {
 565:../../core/ST/STM32L4xx_HAL_Driver/Src/stm32l4xx_hal_dma.c ****   HAL_StatusTypeDef status = HAL_OK;
 566:../../core/ST/STM32L4xx_HAL_Driver/Src/stm32l4xx_hal_dma.c **** 
 567:../../core/ST/STM32L4xx_HAL_Driver/Src/stm32l4xx_hal_dma.c ****   /* Check the DMA peripheral handle */
 568:../../core/ST/STM32L4xx_HAL_Driver/Src/stm32l4xx_hal_dma.c ****   if(NULL == hdma)
 569:../../core/ST/STM32L4xx_HAL_Driver/Src/stm32l4xx_hal_dma.c ****   {
 570:../../core/ST/STM32L4xx_HAL_Driver/Src/stm32l4xx_hal_dma.c ****     return HAL_ERROR;
 571:../../core/ST/STM32L4xx_HAL_Driver/Src/stm32l4xx_hal_dma.c ****   }
 572:../../core/ST/STM32L4xx_HAL_Driver/Src/stm32l4xx_hal_dma.c **** 
 573:../../core/ST/STM32L4xx_HAL_Driver/Src/stm32l4xx_hal_dma.c ****   /* Disable DMA IT */
 574:../../core/ST/STM32L4xx_HAL_Driver/Src/stm32l4xx_hal_dma.c ****   __HAL_DMA_DISABLE_IT(hdma, (DMA_IT_TC | DMA_IT_HT | DMA_IT_TE));
 575:../../core/ST/STM32L4xx_HAL_Driver/Src/stm32l4xx_hal_dma.c **** 
 576:../../core/ST/STM32L4xx_HAL_Driver/Src/stm32l4xx_hal_dma.c **** #if defined(DMAMUX1)
 577:../../core/ST/STM32L4xx_HAL_Driver/Src/stm32l4xx_hal_dma.c ****   /* disable the DMAMUX sync overrun IT*/
 578:../../core/ST/STM32L4xx_HAL_Driver/Src/stm32l4xx_hal_dma.c ****   hdma->DMAmuxChannel->CCR &= ~DMAMUX_CxCR_SOIE;
 579:../../core/ST/STM32L4xx_HAL_Driver/Src/stm32l4xx_hal_dma.c **** #endif /* DMAMUX1 */
 580:../../core/ST/STM32L4xx_HAL_Driver/Src/stm32l4xx_hal_dma.c **** 
 581:../../core/ST/STM32L4xx_HAL_Driver/Src/stm32l4xx_hal_dma.c ****   /* Disable the channel */
 582:../../core/ST/STM32L4xx_HAL_Driver/Src/stm32l4xx_hal_dma.c ****   __HAL_DMA_DISABLE(hdma);
 583:../../core/ST/STM32L4xx_HAL_Driver/Src/stm32l4xx_hal_dma.c **** 
 584:../../core/ST/STM32L4xx_HAL_Driver/Src/stm32l4xx_hal_dma.c ****   /* Clear all flags */
 585:../../core/ST/STM32L4xx_HAL_Driver/Src/stm32l4xx_hal_dma.c ****   hdma->DmaBaseAddress->IFCR = (DMA_ISR_GIF1 << (hdma->ChannelIndex & 0x1cU));
 586:../../core/ST/STM32L4xx_HAL_Driver/Src/stm32l4xx_hal_dma.c **** 
 587:../../core/ST/STM32L4xx_HAL_Driver/Src/stm32l4xx_hal_dma.c **** #if defined(DMAMUX1)
 588:../../core/ST/STM32L4xx_HAL_Driver/Src/stm32l4xx_hal_dma.c ****   /* Clear the DMAMUX synchro overrun flag */
 589:../../core/ST/STM32L4xx_HAL_Driver/Src/stm32l4xx_hal_dma.c ****   hdma->DMAmuxChannelStatus->CFR = hdma->DMAmuxChannelStatusMask;
 590:../../core/ST/STM32L4xx_HAL_Driver/Src/stm32l4xx_hal_dma.c **** 
 591:../../core/ST/STM32L4xx_HAL_Driver/Src/stm32l4xx_hal_dma.c ****   if(hdma->DMAmuxRequestGen != 0U)
 592:../../core/ST/STM32L4xx_HAL_Driver/Src/stm32l4xx_hal_dma.c ****   {
 593:../../core/ST/STM32L4xx_HAL_Driver/Src/stm32l4xx_hal_dma.c ****     /* if using DMAMUX request generator, disable the DMAMUX request generator overrun IT*/
 594:../../core/ST/STM32L4xx_HAL_Driver/Src/stm32l4xx_hal_dma.c ****     /* disable the request gen overrun IT*/
 595:../../core/ST/STM32L4xx_HAL_Driver/Src/stm32l4xx_hal_dma.c ****     hdma->DMAmuxRequestGen->RGCR &= ~DMAMUX_RGxCR_OIE;
 596:../../core/ST/STM32L4xx_HAL_Driver/Src/stm32l4xx_hal_dma.c **** 
 597:../../core/ST/STM32L4xx_HAL_Driver/Src/stm32l4xx_hal_dma.c ****     /* Clear the DMAMUX request generator overrun flag */
 598:../../core/ST/STM32L4xx_HAL_Driver/Src/stm32l4xx_hal_dma.c ****     hdma->DMAmuxRequestGenStatus->RGCFR = hdma->DMAmuxRequestGenStatusMask;
 599:../../core/ST/STM32L4xx_HAL_Driver/Src/stm32l4xx_hal_dma.c ****   }
 600:../../core/ST/STM32L4xx_HAL_Driver/Src/stm32l4xx_hal_dma.c **** 
ARM GAS  C:\Users\yvesk\AppData\Local\Temp\ccFefcse.s 			page 12


 601:../../core/ST/STM32L4xx_HAL_Driver/Src/stm32l4xx_hal_dma.c **** #endif /* DMAMUX1 */
 602:../../core/ST/STM32L4xx_HAL_Driver/Src/stm32l4xx_hal_dma.c **** 
 603:../../core/ST/STM32L4xx_HAL_Driver/Src/stm32l4xx_hal_dma.c ****   /* Change the DMA state */
 604:../../core/ST/STM32L4xx_HAL_Driver/Src/stm32l4xx_hal_dma.c ****   hdma->State = HAL_DMA_STATE_READY;
 605:../../core/ST/STM32L4xx_HAL_Driver/Src/stm32l4xx_hal_dma.c **** 
 606:../../core/ST/STM32L4xx_HAL_Driver/Src/stm32l4xx_hal_dma.c ****   /* Process Unlocked */
 607:../../core/ST/STM32L4xx_HAL_Driver/Src/stm32l4xx_hal_dma.c ****   __HAL_UNLOCK(hdma);
 608:../../core/ST/STM32L4xx_HAL_Driver/Src/stm32l4xx_hal_dma.c **** 
 609:../../core/ST/STM32L4xx_HAL_Driver/Src/stm32l4xx_hal_dma.c ****   return status;
 610:../../core/ST/STM32L4xx_HAL_Driver/Src/stm32l4xx_hal_dma.c **** }
 611:../../core/ST/STM32L4xx_HAL_Driver/Src/stm32l4xx_hal_dma.c **** 
 612:../../core/ST/STM32L4xx_HAL_Driver/Src/stm32l4xx_hal_dma.c **** /**
 613:../../core/ST/STM32L4xx_HAL_Driver/Src/stm32l4xx_hal_dma.c ****   * @brief  Aborts the DMA Transfer in Interrupt mode.
 614:../../core/ST/STM32L4xx_HAL_Driver/Src/stm32l4xx_hal_dma.c ****   * @param  hdma pointer to a DMA_HandleTypeDef structure that contains
 615:../../core/ST/STM32L4xx_HAL_Driver/Src/stm32l4xx_hal_dma.c ****   *                 the configuration information for the specified DMA Channel.
 616:../../core/ST/STM32L4xx_HAL_Driver/Src/stm32l4xx_hal_dma.c ****   * @retval HAL status
 617:../../core/ST/STM32L4xx_HAL_Driver/Src/stm32l4xx_hal_dma.c ****   */
 618:../../core/ST/STM32L4xx_HAL_Driver/Src/stm32l4xx_hal_dma.c **** HAL_StatusTypeDef HAL_DMA_Abort_IT(DMA_HandleTypeDef *hdma)
 619:../../core/ST/STM32L4xx_HAL_Driver/Src/stm32l4xx_hal_dma.c **** {
 620:../../core/ST/STM32L4xx_HAL_Driver/Src/stm32l4xx_hal_dma.c ****   HAL_StatusTypeDef status = HAL_OK;
 621:../../core/ST/STM32L4xx_HAL_Driver/Src/stm32l4xx_hal_dma.c **** 
 622:../../core/ST/STM32L4xx_HAL_Driver/Src/stm32l4xx_hal_dma.c ****   if(HAL_DMA_STATE_BUSY != hdma->State)
 623:../../core/ST/STM32L4xx_HAL_Driver/Src/stm32l4xx_hal_dma.c ****   {
 624:../../core/ST/STM32L4xx_HAL_Driver/Src/stm32l4xx_hal_dma.c ****     /* no transfer ongoing */
 625:../../core/ST/STM32L4xx_HAL_Driver/Src/stm32l4xx_hal_dma.c ****     hdma->ErrorCode = HAL_DMA_ERROR_NO_XFER;
 626:../../core/ST/STM32L4xx_HAL_Driver/Src/stm32l4xx_hal_dma.c **** 
 627:../../core/ST/STM32L4xx_HAL_Driver/Src/stm32l4xx_hal_dma.c ****     status = HAL_ERROR;
 628:../../core/ST/STM32L4xx_HAL_Driver/Src/stm32l4xx_hal_dma.c ****   }
 629:../../core/ST/STM32L4xx_HAL_Driver/Src/stm32l4xx_hal_dma.c ****   else
 630:../../core/ST/STM32L4xx_HAL_Driver/Src/stm32l4xx_hal_dma.c ****   {
 631:../../core/ST/STM32L4xx_HAL_Driver/Src/stm32l4xx_hal_dma.c ****     /* Disable DMA IT */
 632:../../core/ST/STM32L4xx_HAL_Driver/Src/stm32l4xx_hal_dma.c ****     __HAL_DMA_DISABLE_IT(hdma, (DMA_IT_TC | DMA_IT_HT | DMA_IT_TE));
 633:../../core/ST/STM32L4xx_HAL_Driver/Src/stm32l4xx_hal_dma.c **** 
 634:../../core/ST/STM32L4xx_HAL_Driver/Src/stm32l4xx_hal_dma.c ****     /* Disable the channel */
 635:../../core/ST/STM32L4xx_HAL_Driver/Src/stm32l4xx_hal_dma.c ****     __HAL_DMA_DISABLE(hdma);
 636:../../core/ST/STM32L4xx_HAL_Driver/Src/stm32l4xx_hal_dma.c **** 
 637:../../core/ST/STM32L4xx_HAL_Driver/Src/stm32l4xx_hal_dma.c **** #if defined(DMAMUX1)
 638:../../core/ST/STM32L4xx_HAL_Driver/Src/stm32l4xx_hal_dma.c ****     /* disable the DMAMUX sync overrun IT*/
 639:../../core/ST/STM32L4xx_HAL_Driver/Src/stm32l4xx_hal_dma.c ****     hdma->DMAmuxChannel->CCR &= ~DMAMUX_CxCR_SOIE;
 640:../../core/ST/STM32L4xx_HAL_Driver/Src/stm32l4xx_hal_dma.c **** 
 641:../../core/ST/STM32L4xx_HAL_Driver/Src/stm32l4xx_hal_dma.c ****     /* Clear all flags */
 642:../../core/ST/STM32L4xx_HAL_Driver/Src/stm32l4xx_hal_dma.c ****     hdma->DmaBaseAddress->IFCR = (DMA_ISR_GIF1 << (hdma->ChannelIndex & 0x1cU));
 643:../../core/ST/STM32L4xx_HAL_Driver/Src/stm32l4xx_hal_dma.c **** 
 644:../../core/ST/STM32L4xx_HAL_Driver/Src/stm32l4xx_hal_dma.c ****     /* Clear the DMAMUX synchro overrun flag */
 645:../../core/ST/STM32L4xx_HAL_Driver/Src/stm32l4xx_hal_dma.c ****     hdma->DMAmuxChannelStatus->CFR = hdma->DMAmuxChannelStatusMask;
 646:../../core/ST/STM32L4xx_HAL_Driver/Src/stm32l4xx_hal_dma.c **** 
 647:../../core/ST/STM32L4xx_HAL_Driver/Src/stm32l4xx_hal_dma.c ****     if(hdma->DMAmuxRequestGen != 0U)
 648:../../core/ST/STM32L4xx_HAL_Driver/Src/stm32l4xx_hal_dma.c ****     {
 649:../../core/ST/STM32L4xx_HAL_Driver/Src/stm32l4xx_hal_dma.c ****       /* if using DMAMUX request generator, disable the DMAMUX request generator overrun IT*/
 650:../../core/ST/STM32L4xx_HAL_Driver/Src/stm32l4xx_hal_dma.c ****       /* disable the request gen overrun IT*/
 651:../../core/ST/STM32L4xx_HAL_Driver/Src/stm32l4xx_hal_dma.c ****       hdma->DMAmuxRequestGen->RGCR &= ~DMAMUX_RGxCR_OIE;
 652:../../core/ST/STM32L4xx_HAL_Driver/Src/stm32l4xx_hal_dma.c **** 
 653:../../core/ST/STM32L4xx_HAL_Driver/Src/stm32l4xx_hal_dma.c ****       /* Clear the DMAMUX request generator overrun flag */
 654:../../core/ST/STM32L4xx_HAL_Driver/Src/stm32l4xx_hal_dma.c ****       hdma->DMAmuxRequestGenStatus->RGCFR = hdma->DMAmuxRequestGenStatusMask;
 655:../../core/ST/STM32L4xx_HAL_Driver/Src/stm32l4xx_hal_dma.c ****     }
 656:../../core/ST/STM32L4xx_HAL_Driver/Src/stm32l4xx_hal_dma.c **** 
 657:../../core/ST/STM32L4xx_HAL_Driver/Src/stm32l4xx_hal_dma.c **** #else
ARM GAS  C:\Users\yvesk\AppData\Local\Temp\ccFefcse.s 			page 13


 658:../../core/ST/STM32L4xx_HAL_Driver/Src/stm32l4xx_hal_dma.c ****     /* Clear all flags */
 659:../../core/ST/STM32L4xx_HAL_Driver/Src/stm32l4xx_hal_dma.c ****     hdma->DmaBaseAddress->IFCR = (DMA_ISR_GIF1 << (hdma->ChannelIndex & 0x1cU));
 660:../../core/ST/STM32L4xx_HAL_Driver/Src/stm32l4xx_hal_dma.c **** #endif /* DMAMUX1 */
 661:../../core/ST/STM32L4xx_HAL_Driver/Src/stm32l4xx_hal_dma.c **** 
 662:../../core/ST/STM32L4xx_HAL_Driver/Src/stm32l4xx_hal_dma.c ****     /* Change the DMA state */
 663:../../core/ST/STM32L4xx_HAL_Driver/Src/stm32l4xx_hal_dma.c ****     hdma->State = HAL_DMA_STATE_READY;
 664:../../core/ST/STM32L4xx_HAL_Driver/Src/stm32l4xx_hal_dma.c **** 
 665:../../core/ST/STM32L4xx_HAL_Driver/Src/stm32l4xx_hal_dma.c ****     /* Process Unlocked */
 666:../../core/ST/STM32L4xx_HAL_Driver/Src/stm32l4xx_hal_dma.c ****     __HAL_UNLOCK(hdma);
 667:../../core/ST/STM32L4xx_HAL_Driver/Src/stm32l4xx_hal_dma.c **** 
 668:../../core/ST/STM32L4xx_HAL_Driver/Src/stm32l4xx_hal_dma.c ****     /* Call User Abort callback */
 669:../../core/ST/STM32L4xx_HAL_Driver/Src/stm32l4xx_hal_dma.c ****     if(hdma->XferAbortCallback != NULL)
 670:../../core/ST/STM32L4xx_HAL_Driver/Src/stm32l4xx_hal_dma.c ****     {
 671:../../core/ST/STM32L4xx_HAL_Driver/Src/stm32l4xx_hal_dma.c ****       hdma->XferAbortCallback(hdma);
 672:../../core/ST/STM32L4xx_HAL_Driver/Src/stm32l4xx_hal_dma.c ****     }
 673:../../core/ST/STM32L4xx_HAL_Driver/Src/stm32l4xx_hal_dma.c ****   }
 674:../../core/ST/STM32L4xx_HAL_Driver/Src/stm32l4xx_hal_dma.c ****   return status;
 675:../../core/ST/STM32L4xx_HAL_Driver/Src/stm32l4xx_hal_dma.c **** }
 676:../../core/ST/STM32L4xx_HAL_Driver/Src/stm32l4xx_hal_dma.c **** 
 677:../../core/ST/STM32L4xx_HAL_Driver/Src/stm32l4xx_hal_dma.c **** /**
 678:../../core/ST/STM32L4xx_HAL_Driver/Src/stm32l4xx_hal_dma.c ****   * @brief  Polling for transfer complete.
 679:../../core/ST/STM32L4xx_HAL_Driver/Src/stm32l4xx_hal_dma.c ****   * @param  hdma pointer to a DMA_HandleTypeDef structure that contains
 680:../../core/ST/STM32L4xx_HAL_Driver/Src/stm32l4xx_hal_dma.c ****   *                  the configuration information for the specified DMA Channel.
 681:../../core/ST/STM32L4xx_HAL_Driver/Src/stm32l4xx_hal_dma.c ****   * @param  CompleteLevel Specifies the DMA level complete.
 682:../../core/ST/STM32L4xx_HAL_Driver/Src/stm32l4xx_hal_dma.c ****   * @param  Timeout       Timeout duration.
 683:../../core/ST/STM32L4xx_HAL_Driver/Src/stm32l4xx_hal_dma.c ****   * @retval HAL status
 684:../../core/ST/STM32L4xx_HAL_Driver/Src/stm32l4xx_hal_dma.c ****   */
 685:../../core/ST/STM32L4xx_HAL_Driver/Src/stm32l4xx_hal_dma.c **** HAL_StatusTypeDef HAL_DMA_PollForTransfer(DMA_HandleTypeDef *hdma, HAL_DMA_LevelCompleteTypeDef Com
 686:../../core/ST/STM32L4xx_HAL_Driver/Src/stm32l4xx_hal_dma.c **** {
 687:../../core/ST/STM32L4xx_HAL_Driver/Src/stm32l4xx_hal_dma.c ****   uint32_t temp;
 688:../../core/ST/STM32L4xx_HAL_Driver/Src/stm32l4xx_hal_dma.c ****   uint32_t tickstart;
 689:../../core/ST/STM32L4xx_HAL_Driver/Src/stm32l4xx_hal_dma.c **** 
 690:../../core/ST/STM32L4xx_HAL_Driver/Src/stm32l4xx_hal_dma.c ****   if(HAL_DMA_STATE_BUSY != hdma->State)
 691:../../core/ST/STM32L4xx_HAL_Driver/Src/stm32l4xx_hal_dma.c ****   {
 692:../../core/ST/STM32L4xx_HAL_Driver/Src/stm32l4xx_hal_dma.c ****     /* no transfer ongoing */
 693:../../core/ST/STM32L4xx_HAL_Driver/Src/stm32l4xx_hal_dma.c ****     hdma->ErrorCode = HAL_DMA_ERROR_NO_XFER;
 694:../../core/ST/STM32L4xx_HAL_Driver/Src/stm32l4xx_hal_dma.c ****     __HAL_UNLOCK(hdma);
 695:../../core/ST/STM32L4xx_HAL_Driver/Src/stm32l4xx_hal_dma.c ****     return HAL_ERROR;
 696:../../core/ST/STM32L4xx_HAL_Driver/Src/stm32l4xx_hal_dma.c ****   }
 697:../../core/ST/STM32L4xx_HAL_Driver/Src/stm32l4xx_hal_dma.c **** 
 698:../../core/ST/STM32L4xx_HAL_Driver/Src/stm32l4xx_hal_dma.c ****   /* Polling mode not supported in circular mode */
 699:../../core/ST/STM32L4xx_HAL_Driver/Src/stm32l4xx_hal_dma.c ****   if (0U != (hdma->Instance->CCR & DMA_CCR_CIRC))
 700:../../core/ST/STM32L4xx_HAL_Driver/Src/stm32l4xx_hal_dma.c ****   {
 701:../../core/ST/STM32L4xx_HAL_Driver/Src/stm32l4xx_hal_dma.c ****     hdma->ErrorCode = HAL_DMA_ERROR_NOT_SUPPORTED;
 702:../../core/ST/STM32L4xx_HAL_Driver/Src/stm32l4xx_hal_dma.c ****     return HAL_ERROR;
 703:../../core/ST/STM32L4xx_HAL_Driver/Src/stm32l4xx_hal_dma.c ****   }
 704:../../core/ST/STM32L4xx_HAL_Driver/Src/stm32l4xx_hal_dma.c **** 
 705:../../core/ST/STM32L4xx_HAL_Driver/Src/stm32l4xx_hal_dma.c ****   /* Get the level transfer complete flag */
 706:../../core/ST/STM32L4xx_HAL_Driver/Src/stm32l4xx_hal_dma.c ****   if (HAL_DMA_FULL_TRANSFER == CompleteLevel)
 707:../../core/ST/STM32L4xx_HAL_Driver/Src/stm32l4xx_hal_dma.c ****   {
 708:../../core/ST/STM32L4xx_HAL_Driver/Src/stm32l4xx_hal_dma.c ****     /* Transfer Complete flag */
 709:../../core/ST/STM32L4xx_HAL_Driver/Src/stm32l4xx_hal_dma.c ****     temp = DMA_FLAG_TC1 << (hdma->ChannelIndex & 0x1cU);
 710:../../core/ST/STM32L4xx_HAL_Driver/Src/stm32l4xx_hal_dma.c ****   }
 711:../../core/ST/STM32L4xx_HAL_Driver/Src/stm32l4xx_hal_dma.c ****   else
 712:../../core/ST/STM32L4xx_HAL_Driver/Src/stm32l4xx_hal_dma.c ****   {
 713:../../core/ST/STM32L4xx_HAL_Driver/Src/stm32l4xx_hal_dma.c ****     /* Half Transfer Complete flag */
 714:../../core/ST/STM32L4xx_HAL_Driver/Src/stm32l4xx_hal_dma.c ****     temp = DMA_FLAG_HT1 << (hdma->ChannelIndex & 0x1cU);
ARM GAS  C:\Users\yvesk\AppData\Local\Temp\ccFefcse.s 			page 14


 715:../../core/ST/STM32L4xx_HAL_Driver/Src/stm32l4xx_hal_dma.c ****   }
 716:../../core/ST/STM32L4xx_HAL_Driver/Src/stm32l4xx_hal_dma.c **** 
 717:../../core/ST/STM32L4xx_HAL_Driver/Src/stm32l4xx_hal_dma.c ****   /* Get tick */
 718:../../core/ST/STM32L4xx_HAL_Driver/Src/stm32l4xx_hal_dma.c ****   tickstart = HAL_GetTick();
 719:../../core/ST/STM32L4xx_HAL_Driver/Src/stm32l4xx_hal_dma.c **** 
 720:../../core/ST/STM32L4xx_HAL_Driver/Src/stm32l4xx_hal_dma.c ****   while(0U == (hdma->DmaBaseAddress->ISR & temp))
 721:../../core/ST/STM32L4xx_HAL_Driver/Src/stm32l4xx_hal_dma.c ****   {
 722:../../core/ST/STM32L4xx_HAL_Driver/Src/stm32l4xx_hal_dma.c ****     if((0U != (hdma->DmaBaseAddress->ISR & (DMA_FLAG_TE1 << (hdma->ChannelIndex& 0x1cU)))))
 723:../../core/ST/STM32L4xx_HAL_Driver/Src/stm32l4xx_hal_dma.c ****     {
 724:../../core/ST/STM32L4xx_HAL_Driver/Src/stm32l4xx_hal_dma.c ****       /* When a DMA transfer error occurs */
 725:../../core/ST/STM32L4xx_HAL_Driver/Src/stm32l4xx_hal_dma.c ****       /* A hardware clear of its EN bits is performed */
 726:../../core/ST/STM32L4xx_HAL_Driver/Src/stm32l4xx_hal_dma.c ****       /* Clear all flags */
 727:../../core/ST/STM32L4xx_HAL_Driver/Src/stm32l4xx_hal_dma.c ****       hdma->DmaBaseAddress->IFCR = (DMA_ISR_GIF1 << (hdma->ChannelIndex & 0x1cU));
 728:../../core/ST/STM32L4xx_HAL_Driver/Src/stm32l4xx_hal_dma.c **** 
 729:../../core/ST/STM32L4xx_HAL_Driver/Src/stm32l4xx_hal_dma.c ****       /* Update error code */
 730:../../core/ST/STM32L4xx_HAL_Driver/Src/stm32l4xx_hal_dma.c ****       hdma->ErrorCode = HAL_DMA_ERROR_TE;
 731:../../core/ST/STM32L4xx_HAL_Driver/Src/stm32l4xx_hal_dma.c **** 
 732:../../core/ST/STM32L4xx_HAL_Driver/Src/stm32l4xx_hal_dma.c ****       /* Change the DMA state */
 733:../../core/ST/STM32L4xx_HAL_Driver/Src/stm32l4xx_hal_dma.c ****       hdma->State= HAL_DMA_STATE_READY;
 734:../../core/ST/STM32L4xx_HAL_Driver/Src/stm32l4xx_hal_dma.c **** 
 735:../../core/ST/STM32L4xx_HAL_Driver/Src/stm32l4xx_hal_dma.c ****       /* Process Unlocked */
 736:../../core/ST/STM32L4xx_HAL_Driver/Src/stm32l4xx_hal_dma.c ****       __HAL_UNLOCK(hdma);
 737:../../core/ST/STM32L4xx_HAL_Driver/Src/stm32l4xx_hal_dma.c **** 
 738:../../core/ST/STM32L4xx_HAL_Driver/Src/stm32l4xx_hal_dma.c ****       return HAL_ERROR;
 739:../../core/ST/STM32L4xx_HAL_Driver/Src/stm32l4xx_hal_dma.c ****     }
 740:../../core/ST/STM32L4xx_HAL_Driver/Src/stm32l4xx_hal_dma.c ****     /* Check for the Timeout */
 741:../../core/ST/STM32L4xx_HAL_Driver/Src/stm32l4xx_hal_dma.c ****     if(Timeout != HAL_MAX_DELAY)
 742:../../core/ST/STM32L4xx_HAL_Driver/Src/stm32l4xx_hal_dma.c ****     {
 743:../../core/ST/STM32L4xx_HAL_Driver/Src/stm32l4xx_hal_dma.c ****       if(((HAL_GetTick() - tickstart) > Timeout) ||  (Timeout == 0U))
 744:../../core/ST/STM32L4xx_HAL_Driver/Src/stm32l4xx_hal_dma.c ****       {
 745:../../core/ST/STM32L4xx_HAL_Driver/Src/stm32l4xx_hal_dma.c ****         /* Update error code */
 746:../../core/ST/STM32L4xx_HAL_Driver/Src/stm32l4xx_hal_dma.c ****         hdma->ErrorCode = HAL_DMA_ERROR_TIMEOUT;
 747:../../core/ST/STM32L4xx_HAL_Driver/Src/stm32l4xx_hal_dma.c **** 
 748:../../core/ST/STM32L4xx_HAL_Driver/Src/stm32l4xx_hal_dma.c ****         /* Change the DMA state */
 749:../../core/ST/STM32L4xx_HAL_Driver/Src/stm32l4xx_hal_dma.c ****         hdma->State = HAL_DMA_STATE_READY;
 750:../../core/ST/STM32L4xx_HAL_Driver/Src/stm32l4xx_hal_dma.c **** 
 751:../../core/ST/STM32L4xx_HAL_Driver/Src/stm32l4xx_hal_dma.c ****         /* Process Unlocked */
 752:../../core/ST/STM32L4xx_HAL_Driver/Src/stm32l4xx_hal_dma.c ****         __HAL_UNLOCK(hdma);
 753:../../core/ST/STM32L4xx_HAL_Driver/Src/stm32l4xx_hal_dma.c **** 
 754:../../core/ST/STM32L4xx_HAL_Driver/Src/stm32l4xx_hal_dma.c ****         return HAL_ERROR;
 755:../../core/ST/STM32L4xx_HAL_Driver/Src/stm32l4xx_hal_dma.c ****       }
 756:../../core/ST/STM32L4xx_HAL_Driver/Src/stm32l4xx_hal_dma.c ****     }
 757:../../core/ST/STM32L4xx_HAL_Driver/Src/stm32l4xx_hal_dma.c ****   }
 758:../../core/ST/STM32L4xx_HAL_Driver/Src/stm32l4xx_hal_dma.c **** 
 759:../../core/ST/STM32L4xx_HAL_Driver/Src/stm32l4xx_hal_dma.c **** #if defined(DMAMUX1)
 760:../../core/ST/STM32L4xx_HAL_Driver/Src/stm32l4xx_hal_dma.c ****   /*Check for DMAMUX Request generator (if used) overrun status */
 761:../../core/ST/STM32L4xx_HAL_Driver/Src/stm32l4xx_hal_dma.c ****   if(hdma->DMAmuxRequestGen != 0U)
 762:../../core/ST/STM32L4xx_HAL_Driver/Src/stm32l4xx_hal_dma.c ****   {
 763:../../core/ST/STM32L4xx_HAL_Driver/Src/stm32l4xx_hal_dma.c ****     /* if using DMAMUX request generator Check for DMAMUX request generator overrun */
 764:../../core/ST/STM32L4xx_HAL_Driver/Src/stm32l4xx_hal_dma.c ****     if((hdma->DMAmuxRequestGenStatus->RGSR & hdma->DMAmuxRequestGenStatusMask) != 0U)
 765:../../core/ST/STM32L4xx_HAL_Driver/Src/stm32l4xx_hal_dma.c ****     {
 766:../../core/ST/STM32L4xx_HAL_Driver/Src/stm32l4xx_hal_dma.c ****       /* Disable the request gen overrun interrupt */
 767:../../core/ST/STM32L4xx_HAL_Driver/Src/stm32l4xx_hal_dma.c ****       hdma->DMAmuxRequestGen->RGCR |= DMAMUX_RGxCR_OIE;
 768:../../core/ST/STM32L4xx_HAL_Driver/Src/stm32l4xx_hal_dma.c **** 
 769:../../core/ST/STM32L4xx_HAL_Driver/Src/stm32l4xx_hal_dma.c ****       /* Clear the DMAMUX request generator overrun flag */
 770:../../core/ST/STM32L4xx_HAL_Driver/Src/stm32l4xx_hal_dma.c ****       hdma->DMAmuxRequestGenStatus->RGCFR = hdma->DMAmuxRequestGenStatusMask;
 771:../../core/ST/STM32L4xx_HAL_Driver/Src/stm32l4xx_hal_dma.c **** 
ARM GAS  C:\Users\yvesk\AppData\Local\Temp\ccFefcse.s 			page 15


 772:../../core/ST/STM32L4xx_HAL_Driver/Src/stm32l4xx_hal_dma.c ****       /* Update error code */
 773:../../core/ST/STM32L4xx_HAL_Driver/Src/stm32l4xx_hal_dma.c ****       hdma->ErrorCode |= HAL_DMA_ERROR_REQGEN;
 774:../../core/ST/STM32L4xx_HAL_Driver/Src/stm32l4xx_hal_dma.c ****     }
 775:../../core/ST/STM32L4xx_HAL_Driver/Src/stm32l4xx_hal_dma.c ****   }
 776:../../core/ST/STM32L4xx_HAL_Driver/Src/stm32l4xx_hal_dma.c **** 
 777:../../core/ST/STM32L4xx_HAL_Driver/Src/stm32l4xx_hal_dma.c ****   /* Check for DMAMUX Synchronization overrun */
 778:../../core/ST/STM32L4xx_HAL_Driver/Src/stm32l4xx_hal_dma.c ****   if((hdma->DMAmuxChannelStatus->CSR & hdma->DMAmuxChannelStatusMask) != 0U)
 779:../../core/ST/STM32L4xx_HAL_Driver/Src/stm32l4xx_hal_dma.c ****   {
 780:../../core/ST/STM32L4xx_HAL_Driver/Src/stm32l4xx_hal_dma.c ****     /* Clear the DMAMUX synchro overrun flag */
 781:../../core/ST/STM32L4xx_HAL_Driver/Src/stm32l4xx_hal_dma.c ****     hdma->DMAmuxChannelStatus->CFR = hdma->DMAmuxChannelStatusMask;
 782:../../core/ST/STM32L4xx_HAL_Driver/Src/stm32l4xx_hal_dma.c **** 
 783:../../core/ST/STM32L4xx_HAL_Driver/Src/stm32l4xx_hal_dma.c ****     /* Update error code */
 784:../../core/ST/STM32L4xx_HAL_Driver/Src/stm32l4xx_hal_dma.c ****     hdma->ErrorCode |= HAL_DMA_ERROR_SYNC;
 785:../../core/ST/STM32L4xx_HAL_Driver/Src/stm32l4xx_hal_dma.c ****   }
 786:../../core/ST/STM32L4xx_HAL_Driver/Src/stm32l4xx_hal_dma.c **** #endif /* DMAMUX1 */
 787:../../core/ST/STM32L4xx_HAL_Driver/Src/stm32l4xx_hal_dma.c **** 
 788:../../core/ST/STM32L4xx_HAL_Driver/Src/stm32l4xx_hal_dma.c ****   if(HAL_DMA_FULL_TRANSFER == CompleteLevel)
 789:../../core/ST/STM32L4xx_HAL_Driver/Src/stm32l4xx_hal_dma.c ****   {
 790:../../core/ST/STM32L4xx_HAL_Driver/Src/stm32l4xx_hal_dma.c ****     /* Clear the transfer complete flag */
 791:../../core/ST/STM32L4xx_HAL_Driver/Src/stm32l4xx_hal_dma.c ****     hdma->DmaBaseAddress->IFCR = (DMA_FLAG_TC1 << (hdma->ChannelIndex& 0x1cU));
 792:../../core/ST/STM32L4xx_HAL_Driver/Src/stm32l4xx_hal_dma.c **** 
 793:../../core/ST/STM32L4xx_HAL_Driver/Src/stm32l4xx_hal_dma.c ****     /* The selected Channelx EN bit is cleared (DMA is disabled and
 794:../../core/ST/STM32L4xx_HAL_Driver/Src/stm32l4xx_hal_dma.c ****     all transfers are complete) */
 795:../../core/ST/STM32L4xx_HAL_Driver/Src/stm32l4xx_hal_dma.c ****     hdma->State = HAL_DMA_STATE_READY;
 796:../../core/ST/STM32L4xx_HAL_Driver/Src/stm32l4xx_hal_dma.c ****   }
 797:../../core/ST/STM32L4xx_HAL_Driver/Src/stm32l4xx_hal_dma.c ****   else
 798:../../core/ST/STM32L4xx_HAL_Driver/Src/stm32l4xx_hal_dma.c ****   {
 799:../../core/ST/STM32L4xx_HAL_Driver/Src/stm32l4xx_hal_dma.c ****     /* Clear the half transfer complete flag */
 800:../../core/ST/STM32L4xx_HAL_Driver/Src/stm32l4xx_hal_dma.c ****     hdma->DmaBaseAddress->IFCR = (DMA_FLAG_HT1 << (hdma->ChannelIndex & 0x1cU));
 801:../../core/ST/STM32L4xx_HAL_Driver/Src/stm32l4xx_hal_dma.c ****   }
 802:../../core/ST/STM32L4xx_HAL_Driver/Src/stm32l4xx_hal_dma.c **** 
 803:../../core/ST/STM32L4xx_HAL_Driver/Src/stm32l4xx_hal_dma.c ****   /* Process unlocked */
 804:../../core/ST/STM32L4xx_HAL_Driver/Src/stm32l4xx_hal_dma.c ****   __HAL_UNLOCK(hdma);
 805:../../core/ST/STM32L4xx_HAL_Driver/Src/stm32l4xx_hal_dma.c **** 
 806:../../core/ST/STM32L4xx_HAL_Driver/Src/stm32l4xx_hal_dma.c ****   return HAL_OK;
 807:../../core/ST/STM32L4xx_HAL_Driver/Src/stm32l4xx_hal_dma.c **** }
 808:../../core/ST/STM32L4xx_HAL_Driver/Src/stm32l4xx_hal_dma.c **** 
 809:../../core/ST/STM32L4xx_HAL_Driver/Src/stm32l4xx_hal_dma.c **** /**
 810:../../core/ST/STM32L4xx_HAL_Driver/Src/stm32l4xx_hal_dma.c ****   * @brief  Handle DMA interrupt request.
 811:../../core/ST/STM32L4xx_HAL_Driver/Src/stm32l4xx_hal_dma.c ****   * @param  hdma pointer to a DMA_HandleTypeDef structure that contains
 812:../../core/ST/STM32L4xx_HAL_Driver/Src/stm32l4xx_hal_dma.c ****   *               the configuration information for the specified DMA Channel.
 813:../../core/ST/STM32L4xx_HAL_Driver/Src/stm32l4xx_hal_dma.c ****   * @retval None
 814:../../core/ST/STM32L4xx_HAL_Driver/Src/stm32l4xx_hal_dma.c ****   */
 815:../../core/ST/STM32L4xx_HAL_Driver/Src/stm32l4xx_hal_dma.c **** void HAL_DMA_IRQHandler(DMA_HandleTypeDef *hdma)
 816:../../core/ST/STM32L4xx_HAL_Driver/Src/stm32l4xx_hal_dma.c **** {
 817:../../core/ST/STM32L4xx_HAL_Driver/Src/stm32l4xx_hal_dma.c ****   uint32_t flag_it = hdma->DmaBaseAddress->ISR;
 818:../../core/ST/STM32L4xx_HAL_Driver/Src/stm32l4xx_hal_dma.c ****   uint32_t source_it = hdma->Instance->CCR;
 819:../../core/ST/STM32L4xx_HAL_Driver/Src/stm32l4xx_hal_dma.c **** 
 820:../../core/ST/STM32L4xx_HAL_Driver/Src/stm32l4xx_hal_dma.c ****   /* Half Transfer Complete Interrupt management ******************************/
 821:../../core/ST/STM32L4xx_HAL_Driver/Src/stm32l4xx_hal_dma.c ****   if ((0U != (flag_it & (DMA_FLAG_HT1 << (hdma->ChannelIndex & 0x1cU)))) && (0U != (source_it & DMA
 822:../../core/ST/STM32L4xx_HAL_Driver/Src/stm32l4xx_hal_dma.c ****   {
 823:../../core/ST/STM32L4xx_HAL_Driver/Src/stm32l4xx_hal_dma.c ****       /* Disable the half transfer interrupt if the DMA mode is not CIRCULAR */
 824:../../core/ST/STM32L4xx_HAL_Driver/Src/stm32l4xx_hal_dma.c ****       if((hdma->Instance->CCR & DMA_CCR_CIRC) == 0U)
 825:../../core/ST/STM32L4xx_HAL_Driver/Src/stm32l4xx_hal_dma.c ****       {
 826:../../core/ST/STM32L4xx_HAL_Driver/Src/stm32l4xx_hal_dma.c ****         /* Disable the half transfer interrupt */
 827:../../core/ST/STM32L4xx_HAL_Driver/Src/stm32l4xx_hal_dma.c ****         __HAL_DMA_DISABLE_IT(hdma, DMA_IT_HT);
 828:../../core/ST/STM32L4xx_HAL_Driver/Src/stm32l4xx_hal_dma.c ****       }
ARM GAS  C:\Users\yvesk\AppData\Local\Temp\ccFefcse.s 			page 16


 829:../../core/ST/STM32L4xx_HAL_Driver/Src/stm32l4xx_hal_dma.c ****       /* Clear the half transfer complete flag */
 830:../../core/ST/STM32L4xx_HAL_Driver/Src/stm32l4xx_hal_dma.c ****       hdma->DmaBaseAddress->IFCR = DMA_ISR_HTIF1 << (hdma->ChannelIndex & 0x1cU);
 831:../../core/ST/STM32L4xx_HAL_Driver/Src/stm32l4xx_hal_dma.c **** 
 832:../../core/ST/STM32L4xx_HAL_Driver/Src/stm32l4xx_hal_dma.c ****       /* DMA peripheral state is not updated in Half Transfer */
 833:../../core/ST/STM32L4xx_HAL_Driver/Src/stm32l4xx_hal_dma.c ****       /* but in Transfer Complete case */
 834:../../core/ST/STM32L4xx_HAL_Driver/Src/stm32l4xx_hal_dma.c **** 
 835:../../core/ST/STM32L4xx_HAL_Driver/Src/stm32l4xx_hal_dma.c ****      if(hdma->XferHalfCpltCallback != NULL)
 836:../../core/ST/STM32L4xx_HAL_Driver/Src/stm32l4xx_hal_dma.c ****       {
 837:../../core/ST/STM32L4xx_HAL_Driver/Src/stm32l4xx_hal_dma.c ****         /* Half transfer callback */
 838:../../core/ST/STM32L4xx_HAL_Driver/Src/stm32l4xx_hal_dma.c ****         hdma->XferHalfCpltCallback(hdma);
 839:../../core/ST/STM32L4xx_HAL_Driver/Src/stm32l4xx_hal_dma.c ****       }
 840:../../core/ST/STM32L4xx_HAL_Driver/Src/stm32l4xx_hal_dma.c ****   }
 841:../../core/ST/STM32L4xx_HAL_Driver/Src/stm32l4xx_hal_dma.c **** 
 842:../../core/ST/STM32L4xx_HAL_Driver/Src/stm32l4xx_hal_dma.c ****   /* Transfer Complete Interrupt management ***********************************/
 843:../../core/ST/STM32L4xx_HAL_Driver/Src/stm32l4xx_hal_dma.c ****   else if ((0U != (flag_it & (DMA_FLAG_TC1 << (hdma->ChannelIndex & 0x1cU)))) && (0U != (source_it 
 844:../../core/ST/STM32L4xx_HAL_Driver/Src/stm32l4xx_hal_dma.c ****   {
 845:../../core/ST/STM32L4xx_HAL_Driver/Src/stm32l4xx_hal_dma.c ****     if((hdma->Instance->CCR & DMA_CCR_CIRC) == 0U)
 846:../../core/ST/STM32L4xx_HAL_Driver/Src/stm32l4xx_hal_dma.c ****     {
 847:../../core/ST/STM32L4xx_HAL_Driver/Src/stm32l4xx_hal_dma.c ****       /* Disable the transfer complete and error interrupt */
 848:../../core/ST/STM32L4xx_HAL_Driver/Src/stm32l4xx_hal_dma.c ****       __HAL_DMA_DISABLE_IT(hdma, DMA_IT_TE | DMA_IT_TC);
 849:../../core/ST/STM32L4xx_HAL_Driver/Src/stm32l4xx_hal_dma.c **** 
 850:../../core/ST/STM32L4xx_HAL_Driver/Src/stm32l4xx_hal_dma.c ****       /* Change the DMA state */
 851:../../core/ST/STM32L4xx_HAL_Driver/Src/stm32l4xx_hal_dma.c ****       hdma->State = HAL_DMA_STATE_READY;
 852:../../core/ST/STM32L4xx_HAL_Driver/Src/stm32l4xx_hal_dma.c ****     }
 853:../../core/ST/STM32L4xx_HAL_Driver/Src/stm32l4xx_hal_dma.c ****     /* Clear the transfer complete flag */
 854:../../core/ST/STM32L4xx_HAL_Driver/Src/stm32l4xx_hal_dma.c ****     hdma->DmaBaseAddress->IFCR = (DMA_ISR_TCIF1 << (hdma->ChannelIndex & 0x1cU));
 855:../../core/ST/STM32L4xx_HAL_Driver/Src/stm32l4xx_hal_dma.c **** 
 856:../../core/ST/STM32L4xx_HAL_Driver/Src/stm32l4xx_hal_dma.c ****     /* Process Unlocked */
 857:../../core/ST/STM32L4xx_HAL_Driver/Src/stm32l4xx_hal_dma.c ****     __HAL_UNLOCK(hdma);
 858:../../core/ST/STM32L4xx_HAL_Driver/Src/stm32l4xx_hal_dma.c **** 
 859:../../core/ST/STM32L4xx_HAL_Driver/Src/stm32l4xx_hal_dma.c ****     if(hdma->XferCpltCallback != NULL)
 860:../../core/ST/STM32L4xx_HAL_Driver/Src/stm32l4xx_hal_dma.c ****     {
 861:../../core/ST/STM32L4xx_HAL_Driver/Src/stm32l4xx_hal_dma.c ****       /* Transfer complete callback */
 862:../../core/ST/STM32L4xx_HAL_Driver/Src/stm32l4xx_hal_dma.c ****       hdma->XferCpltCallback(hdma);
 863:../../core/ST/STM32L4xx_HAL_Driver/Src/stm32l4xx_hal_dma.c ****     }
 864:../../core/ST/STM32L4xx_HAL_Driver/Src/stm32l4xx_hal_dma.c ****   }
 865:../../core/ST/STM32L4xx_HAL_Driver/Src/stm32l4xx_hal_dma.c **** 
 866:../../core/ST/STM32L4xx_HAL_Driver/Src/stm32l4xx_hal_dma.c ****   /* Transfer Error Interrupt management **************************************/
 867:../../core/ST/STM32L4xx_HAL_Driver/Src/stm32l4xx_hal_dma.c ****   else if ((0U != (flag_it & (DMA_FLAG_TE1 << (hdma->ChannelIndex & 0x1cU)))) && (0U != (source_it 
 868:../../core/ST/STM32L4xx_HAL_Driver/Src/stm32l4xx_hal_dma.c ****   {
 869:../../core/ST/STM32L4xx_HAL_Driver/Src/stm32l4xx_hal_dma.c ****     /* When a DMA transfer error occurs */
 870:../../core/ST/STM32L4xx_HAL_Driver/Src/stm32l4xx_hal_dma.c ****     /* A hardware clear of its EN bits is performed */
 871:../../core/ST/STM32L4xx_HAL_Driver/Src/stm32l4xx_hal_dma.c ****     /* Disable ALL DMA IT */
 872:../../core/ST/STM32L4xx_HAL_Driver/Src/stm32l4xx_hal_dma.c ****     __HAL_DMA_DISABLE_IT(hdma, (DMA_IT_TC | DMA_IT_HT | DMA_IT_TE));
 873:../../core/ST/STM32L4xx_HAL_Driver/Src/stm32l4xx_hal_dma.c **** 
 874:../../core/ST/STM32L4xx_HAL_Driver/Src/stm32l4xx_hal_dma.c ****     /* Clear all flags */
 875:../../core/ST/STM32L4xx_HAL_Driver/Src/stm32l4xx_hal_dma.c ****     hdma->DmaBaseAddress->IFCR = (DMA_ISR_GIF1 << (hdma->ChannelIndex & 0x1cU));
 876:../../core/ST/STM32L4xx_HAL_Driver/Src/stm32l4xx_hal_dma.c **** 
 877:../../core/ST/STM32L4xx_HAL_Driver/Src/stm32l4xx_hal_dma.c ****     /* Update error code */
 878:../../core/ST/STM32L4xx_HAL_Driver/Src/stm32l4xx_hal_dma.c ****     hdma->ErrorCode = HAL_DMA_ERROR_TE;
 879:../../core/ST/STM32L4xx_HAL_Driver/Src/stm32l4xx_hal_dma.c **** 
 880:../../core/ST/STM32L4xx_HAL_Driver/Src/stm32l4xx_hal_dma.c ****     /* Change the DMA state */
 881:../../core/ST/STM32L4xx_HAL_Driver/Src/stm32l4xx_hal_dma.c ****     hdma->State = HAL_DMA_STATE_READY;
 882:../../core/ST/STM32L4xx_HAL_Driver/Src/stm32l4xx_hal_dma.c **** 
 883:../../core/ST/STM32L4xx_HAL_Driver/Src/stm32l4xx_hal_dma.c ****     /* Process Unlocked */
 884:../../core/ST/STM32L4xx_HAL_Driver/Src/stm32l4xx_hal_dma.c ****     __HAL_UNLOCK(hdma);
 885:../../core/ST/STM32L4xx_HAL_Driver/Src/stm32l4xx_hal_dma.c **** 
ARM GAS  C:\Users\yvesk\AppData\Local\Temp\ccFefcse.s 			page 17


 886:../../core/ST/STM32L4xx_HAL_Driver/Src/stm32l4xx_hal_dma.c ****     if (hdma->XferErrorCallback != NULL)
 887:../../core/ST/STM32L4xx_HAL_Driver/Src/stm32l4xx_hal_dma.c ****     {
 888:../../core/ST/STM32L4xx_HAL_Driver/Src/stm32l4xx_hal_dma.c ****       /* Transfer error callback */
 889:../../core/ST/STM32L4xx_HAL_Driver/Src/stm32l4xx_hal_dma.c ****       hdma->XferErrorCallback(hdma);
 890:../../core/ST/STM32L4xx_HAL_Driver/Src/stm32l4xx_hal_dma.c ****     }
 891:../../core/ST/STM32L4xx_HAL_Driver/Src/stm32l4xx_hal_dma.c ****   }
 892:../../core/ST/STM32L4xx_HAL_Driver/Src/stm32l4xx_hal_dma.c ****   else
 893:../../core/ST/STM32L4xx_HAL_Driver/Src/stm32l4xx_hal_dma.c ****   {
 894:../../core/ST/STM32L4xx_HAL_Driver/Src/stm32l4xx_hal_dma.c ****     /* Nothing To Do */
 895:../../core/ST/STM32L4xx_HAL_Driver/Src/stm32l4xx_hal_dma.c ****   }
 896:../../core/ST/STM32L4xx_HAL_Driver/Src/stm32l4xx_hal_dma.c ****   return;
 897:../../core/ST/STM32L4xx_HAL_Driver/Src/stm32l4xx_hal_dma.c **** }
 898:../../core/ST/STM32L4xx_HAL_Driver/Src/stm32l4xx_hal_dma.c **** 
 899:../../core/ST/STM32L4xx_HAL_Driver/Src/stm32l4xx_hal_dma.c **** /**
 900:../../core/ST/STM32L4xx_HAL_Driver/Src/stm32l4xx_hal_dma.c ****   * @brief  Register callbacks
 901:../../core/ST/STM32L4xx_HAL_Driver/Src/stm32l4xx_hal_dma.c ****   * @param  hdma                 pointer to a DMA_HandleTypeDef structure that contains
 902:../../core/ST/STM32L4xx_HAL_Driver/Src/stm32l4xx_hal_dma.c ****   *                               the configuration information for the specified DMA Channel.
 903:../../core/ST/STM32L4xx_HAL_Driver/Src/stm32l4xx_hal_dma.c ****   * @param  CallbackID           User Callback identifer
 904:../../core/ST/STM32L4xx_HAL_Driver/Src/stm32l4xx_hal_dma.c ****   *                               a HAL_DMA_CallbackIDTypeDef ENUM as parameter.
 905:../../core/ST/STM32L4xx_HAL_Driver/Src/stm32l4xx_hal_dma.c ****   * @param  pCallback            pointer to private callbacsk function which has pointer to
 906:../../core/ST/STM32L4xx_HAL_Driver/Src/stm32l4xx_hal_dma.c ****   *                               a DMA_HandleTypeDef structure as parameter.
 907:../../core/ST/STM32L4xx_HAL_Driver/Src/stm32l4xx_hal_dma.c ****   * @retval HAL status
 908:../../core/ST/STM32L4xx_HAL_Driver/Src/stm32l4xx_hal_dma.c ****   */
 909:../../core/ST/STM32L4xx_HAL_Driver/Src/stm32l4xx_hal_dma.c **** HAL_StatusTypeDef HAL_DMA_RegisterCallback(DMA_HandleTypeDef *hdma, HAL_DMA_CallbackIDTypeDef Callb
 910:../../core/ST/STM32L4xx_HAL_Driver/Src/stm32l4xx_hal_dma.c **** {
 911:../../core/ST/STM32L4xx_HAL_Driver/Src/stm32l4xx_hal_dma.c ****   HAL_StatusTypeDef status = HAL_OK;
 912:../../core/ST/STM32L4xx_HAL_Driver/Src/stm32l4xx_hal_dma.c **** 
 913:../../core/ST/STM32L4xx_HAL_Driver/Src/stm32l4xx_hal_dma.c ****   /* Process locked */
 914:../../core/ST/STM32L4xx_HAL_Driver/Src/stm32l4xx_hal_dma.c ****   __HAL_LOCK(hdma);
 915:../../core/ST/STM32L4xx_HAL_Driver/Src/stm32l4xx_hal_dma.c **** 
 916:../../core/ST/STM32L4xx_HAL_Driver/Src/stm32l4xx_hal_dma.c ****   if(HAL_DMA_STATE_READY == hdma->State)
 917:../../core/ST/STM32L4xx_HAL_Driver/Src/stm32l4xx_hal_dma.c ****   {
 918:../../core/ST/STM32L4xx_HAL_Driver/Src/stm32l4xx_hal_dma.c ****     switch (CallbackID)
 919:../../core/ST/STM32L4xx_HAL_Driver/Src/stm32l4xx_hal_dma.c ****     {
 920:../../core/ST/STM32L4xx_HAL_Driver/Src/stm32l4xx_hal_dma.c ****      case  HAL_DMA_XFER_CPLT_CB_ID:
 921:../../core/ST/STM32L4xx_HAL_Driver/Src/stm32l4xx_hal_dma.c ****            hdma->XferCpltCallback = pCallback;
 922:../../core/ST/STM32L4xx_HAL_Driver/Src/stm32l4xx_hal_dma.c ****            break;
 923:../../core/ST/STM32L4xx_HAL_Driver/Src/stm32l4xx_hal_dma.c **** 
 924:../../core/ST/STM32L4xx_HAL_Driver/Src/stm32l4xx_hal_dma.c ****      case  HAL_DMA_XFER_HALFCPLT_CB_ID:
 925:../../core/ST/STM32L4xx_HAL_Driver/Src/stm32l4xx_hal_dma.c ****            hdma->XferHalfCpltCallback = pCallback;
 926:../../core/ST/STM32L4xx_HAL_Driver/Src/stm32l4xx_hal_dma.c ****            break;
 927:../../core/ST/STM32L4xx_HAL_Driver/Src/stm32l4xx_hal_dma.c **** 
 928:../../core/ST/STM32L4xx_HAL_Driver/Src/stm32l4xx_hal_dma.c ****      case  HAL_DMA_XFER_ERROR_CB_ID:
 929:../../core/ST/STM32L4xx_HAL_Driver/Src/stm32l4xx_hal_dma.c ****            hdma->XferErrorCallback = pCallback;
 930:../../core/ST/STM32L4xx_HAL_Driver/Src/stm32l4xx_hal_dma.c ****            break;
 931:../../core/ST/STM32L4xx_HAL_Driver/Src/stm32l4xx_hal_dma.c **** 
 932:../../core/ST/STM32L4xx_HAL_Driver/Src/stm32l4xx_hal_dma.c ****      case  HAL_DMA_XFER_ABORT_CB_ID:
 933:../../core/ST/STM32L4xx_HAL_Driver/Src/stm32l4xx_hal_dma.c ****            hdma->XferAbortCallback = pCallback;
 934:../../core/ST/STM32L4xx_HAL_Driver/Src/stm32l4xx_hal_dma.c ****            break;
 935:../../core/ST/STM32L4xx_HAL_Driver/Src/stm32l4xx_hal_dma.c **** 
 936:../../core/ST/STM32L4xx_HAL_Driver/Src/stm32l4xx_hal_dma.c ****      default:
 937:../../core/ST/STM32L4xx_HAL_Driver/Src/stm32l4xx_hal_dma.c ****            status = HAL_ERROR;
 938:../../core/ST/STM32L4xx_HAL_Driver/Src/stm32l4xx_hal_dma.c ****            break;
 939:../../core/ST/STM32L4xx_HAL_Driver/Src/stm32l4xx_hal_dma.c ****     }
 940:../../core/ST/STM32L4xx_HAL_Driver/Src/stm32l4xx_hal_dma.c ****   }
 941:../../core/ST/STM32L4xx_HAL_Driver/Src/stm32l4xx_hal_dma.c ****   else
 942:../../core/ST/STM32L4xx_HAL_Driver/Src/stm32l4xx_hal_dma.c ****   {
ARM GAS  C:\Users\yvesk\AppData\Local\Temp\ccFefcse.s 			page 18


 943:../../core/ST/STM32L4xx_HAL_Driver/Src/stm32l4xx_hal_dma.c ****     status = HAL_ERROR;
 944:../../core/ST/STM32L4xx_HAL_Driver/Src/stm32l4xx_hal_dma.c ****   }
 945:../../core/ST/STM32L4xx_HAL_Driver/Src/stm32l4xx_hal_dma.c **** 
 946:../../core/ST/STM32L4xx_HAL_Driver/Src/stm32l4xx_hal_dma.c ****   /* Release Lock */
 947:../../core/ST/STM32L4xx_HAL_Driver/Src/stm32l4xx_hal_dma.c ****   __HAL_UNLOCK(hdma);
 948:../../core/ST/STM32L4xx_HAL_Driver/Src/stm32l4xx_hal_dma.c **** 
 949:../../core/ST/STM32L4xx_HAL_Driver/Src/stm32l4xx_hal_dma.c ****   return status;
 950:../../core/ST/STM32L4xx_HAL_Driver/Src/stm32l4xx_hal_dma.c **** }
 951:../../core/ST/STM32L4xx_HAL_Driver/Src/stm32l4xx_hal_dma.c **** 
 952:../../core/ST/STM32L4xx_HAL_Driver/Src/stm32l4xx_hal_dma.c **** /**
 953:../../core/ST/STM32L4xx_HAL_Driver/Src/stm32l4xx_hal_dma.c ****   * @brief  UnRegister callbacks
 954:../../core/ST/STM32L4xx_HAL_Driver/Src/stm32l4xx_hal_dma.c ****   * @param  hdma                 pointer to a DMA_HandleTypeDef structure that contains
 955:../../core/ST/STM32L4xx_HAL_Driver/Src/stm32l4xx_hal_dma.c ****   *                               the configuration information for the specified DMA Channel.
 956:../../core/ST/STM32L4xx_HAL_Driver/Src/stm32l4xx_hal_dma.c ****   * @param  CallbackID           User Callback identifer
 957:../../core/ST/STM32L4xx_HAL_Driver/Src/stm32l4xx_hal_dma.c ****   *                               a HAL_DMA_CallbackIDTypeDef ENUM as parameter.
 958:../../core/ST/STM32L4xx_HAL_Driver/Src/stm32l4xx_hal_dma.c ****   * @retval HAL status
 959:../../core/ST/STM32L4xx_HAL_Driver/Src/stm32l4xx_hal_dma.c ****   */
 960:../../core/ST/STM32L4xx_HAL_Driver/Src/stm32l4xx_hal_dma.c **** HAL_StatusTypeDef HAL_DMA_UnRegisterCallback(DMA_HandleTypeDef *hdma, HAL_DMA_CallbackIDTypeDef Cal
 961:../../core/ST/STM32L4xx_HAL_Driver/Src/stm32l4xx_hal_dma.c **** {
 962:../../core/ST/STM32L4xx_HAL_Driver/Src/stm32l4xx_hal_dma.c ****   HAL_StatusTypeDef status = HAL_OK;
 963:../../core/ST/STM32L4xx_HAL_Driver/Src/stm32l4xx_hal_dma.c **** 
 964:../../core/ST/STM32L4xx_HAL_Driver/Src/stm32l4xx_hal_dma.c ****     /* Process locked */
 965:../../core/ST/STM32L4xx_HAL_Driver/Src/stm32l4xx_hal_dma.c ****   __HAL_LOCK(hdma);
 966:../../core/ST/STM32L4xx_HAL_Driver/Src/stm32l4xx_hal_dma.c **** 
 967:../../core/ST/STM32L4xx_HAL_Driver/Src/stm32l4xx_hal_dma.c ****   if(HAL_DMA_STATE_READY == hdma->State)
 968:../../core/ST/STM32L4xx_HAL_Driver/Src/stm32l4xx_hal_dma.c ****   {
 969:../../core/ST/STM32L4xx_HAL_Driver/Src/stm32l4xx_hal_dma.c ****     switch (CallbackID)
 970:../../core/ST/STM32L4xx_HAL_Driver/Src/stm32l4xx_hal_dma.c ****     {
 971:../../core/ST/STM32L4xx_HAL_Driver/Src/stm32l4xx_hal_dma.c ****      case  HAL_DMA_XFER_CPLT_CB_ID:
 972:../../core/ST/STM32L4xx_HAL_Driver/Src/stm32l4xx_hal_dma.c ****            hdma->XferCpltCallback = NULL;
 973:../../core/ST/STM32L4xx_HAL_Driver/Src/stm32l4xx_hal_dma.c ****            break;
 974:../../core/ST/STM32L4xx_HAL_Driver/Src/stm32l4xx_hal_dma.c **** 
 975:../../core/ST/STM32L4xx_HAL_Driver/Src/stm32l4xx_hal_dma.c ****      case  HAL_DMA_XFER_HALFCPLT_CB_ID:
 976:../../core/ST/STM32L4xx_HAL_Driver/Src/stm32l4xx_hal_dma.c ****            hdma->XferHalfCpltCallback = NULL;
 977:../../core/ST/STM32L4xx_HAL_Driver/Src/stm32l4xx_hal_dma.c ****            break;
 978:../../core/ST/STM32L4xx_HAL_Driver/Src/stm32l4xx_hal_dma.c **** 
 979:../../core/ST/STM32L4xx_HAL_Driver/Src/stm32l4xx_hal_dma.c ****      case  HAL_DMA_XFER_ERROR_CB_ID:
 980:../../core/ST/STM32L4xx_HAL_Driver/Src/stm32l4xx_hal_dma.c ****            hdma->XferErrorCallback = NULL;
 981:../../core/ST/STM32L4xx_HAL_Driver/Src/stm32l4xx_hal_dma.c ****            break;
 982:../../core/ST/STM32L4xx_HAL_Driver/Src/stm32l4xx_hal_dma.c **** 
 983:../../core/ST/STM32L4xx_HAL_Driver/Src/stm32l4xx_hal_dma.c ****      case  HAL_DMA_XFER_ABORT_CB_ID:
 984:../../core/ST/STM32L4xx_HAL_Driver/Src/stm32l4xx_hal_dma.c ****            hdma->XferAbortCallback = NULL;
 985:../../core/ST/STM32L4xx_HAL_Driver/Src/stm32l4xx_hal_dma.c ****            break;
 986:../../core/ST/STM32L4xx_HAL_Driver/Src/stm32l4xx_hal_dma.c **** 
 987:../../core/ST/STM32L4xx_HAL_Driver/Src/stm32l4xx_hal_dma.c ****     case   HAL_DMA_XFER_ALL_CB_ID:
 988:../../core/ST/STM32L4xx_HAL_Driver/Src/stm32l4xx_hal_dma.c ****            hdma->XferCpltCallback = NULL;
 989:../../core/ST/STM32L4xx_HAL_Driver/Src/stm32l4xx_hal_dma.c ****            hdma->XferHalfCpltCallback = NULL;
 990:../../core/ST/STM32L4xx_HAL_Driver/Src/stm32l4xx_hal_dma.c ****            hdma->XferErrorCallback = NULL;
 991:../../core/ST/STM32L4xx_HAL_Driver/Src/stm32l4xx_hal_dma.c ****            hdma->XferAbortCallback = NULL;
 992:../../core/ST/STM32L4xx_HAL_Driver/Src/stm32l4xx_hal_dma.c ****            break;
 993:../../core/ST/STM32L4xx_HAL_Driver/Src/stm32l4xx_hal_dma.c **** 
 994:../../core/ST/STM32L4xx_HAL_Driver/Src/stm32l4xx_hal_dma.c ****     default:
 995:../../core/ST/STM32L4xx_HAL_Driver/Src/stm32l4xx_hal_dma.c ****            status = HAL_ERROR;
 996:../../core/ST/STM32L4xx_HAL_Driver/Src/stm32l4xx_hal_dma.c ****            break;
 997:../../core/ST/STM32L4xx_HAL_Driver/Src/stm32l4xx_hal_dma.c ****     }
 998:../../core/ST/STM32L4xx_HAL_Driver/Src/stm32l4xx_hal_dma.c ****   }
 999:../../core/ST/STM32L4xx_HAL_Driver/Src/stm32l4xx_hal_dma.c ****   else
ARM GAS  C:\Users\yvesk\AppData\Local\Temp\ccFefcse.s 			page 19


1000:../../core/ST/STM32L4xx_HAL_Driver/Src/stm32l4xx_hal_dma.c ****   {
1001:../../core/ST/STM32L4xx_HAL_Driver/Src/stm32l4xx_hal_dma.c ****     status = HAL_ERROR;
1002:../../core/ST/STM32L4xx_HAL_Driver/Src/stm32l4xx_hal_dma.c ****   }
1003:../../core/ST/STM32L4xx_HAL_Driver/Src/stm32l4xx_hal_dma.c **** 
1004:../../core/ST/STM32L4xx_HAL_Driver/Src/stm32l4xx_hal_dma.c ****   /* Release Lock */
1005:../../core/ST/STM32L4xx_HAL_Driver/Src/stm32l4xx_hal_dma.c ****   __HAL_UNLOCK(hdma);
1006:../../core/ST/STM32L4xx_HAL_Driver/Src/stm32l4xx_hal_dma.c **** 
1007:../../core/ST/STM32L4xx_HAL_Driver/Src/stm32l4xx_hal_dma.c ****   return status;
1008:../../core/ST/STM32L4xx_HAL_Driver/Src/stm32l4xx_hal_dma.c **** }
1009:../../core/ST/STM32L4xx_HAL_Driver/Src/stm32l4xx_hal_dma.c **** 
1010:../../core/ST/STM32L4xx_HAL_Driver/Src/stm32l4xx_hal_dma.c **** /**
1011:../../core/ST/STM32L4xx_HAL_Driver/Src/stm32l4xx_hal_dma.c ****   * @}
1012:../../core/ST/STM32L4xx_HAL_Driver/Src/stm32l4xx_hal_dma.c ****   */
1013:../../core/ST/STM32L4xx_HAL_Driver/Src/stm32l4xx_hal_dma.c **** 
1014:../../core/ST/STM32L4xx_HAL_Driver/Src/stm32l4xx_hal_dma.c **** 
1015:../../core/ST/STM32L4xx_HAL_Driver/Src/stm32l4xx_hal_dma.c **** 
1016:../../core/ST/STM32L4xx_HAL_Driver/Src/stm32l4xx_hal_dma.c **** /** @defgroup DMA_Exported_Functions_Group3 Peripheral State and Errors functions
1017:../../core/ST/STM32L4xx_HAL_Driver/Src/stm32l4xx_hal_dma.c ****  *  @brief    Peripheral State and Errors functions
1018:../../core/ST/STM32L4xx_HAL_Driver/Src/stm32l4xx_hal_dma.c ****  *
1019:../../core/ST/STM32L4xx_HAL_Driver/Src/stm32l4xx_hal_dma.c **** @verbatim
1020:../../core/ST/STM32L4xx_HAL_Driver/Src/stm32l4xx_hal_dma.c ****  ===============================================================================
1021:../../core/ST/STM32L4xx_HAL_Driver/Src/stm32l4xx_hal_dma.c ****             ##### Peripheral State and Errors functions #####
1022:../../core/ST/STM32L4xx_HAL_Driver/Src/stm32l4xx_hal_dma.c ****  ===============================================================================
1023:../../core/ST/STM32L4xx_HAL_Driver/Src/stm32l4xx_hal_dma.c ****     [..]
1024:../../core/ST/STM32L4xx_HAL_Driver/Src/stm32l4xx_hal_dma.c ****     This subsection provides functions allowing to
1025:../../core/ST/STM32L4xx_HAL_Driver/Src/stm32l4xx_hal_dma.c ****       (+) Check the DMA state
1026:../../core/ST/STM32L4xx_HAL_Driver/Src/stm32l4xx_hal_dma.c ****       (+) Get error code
1027:../../core/ST/STM32L4xx_HAL_Driver/Src/stm32l4xx_hal_dma.c **** 
1028:../../core/ST/STM32L4xx_HAL_Driver/Src/stm32l4xx_hal_dma.c **** @endverbatim
1029:../../core/ST/STM32L4xx_HAL_Driver/Src/stm32l4xx_hal_dma.c ****   * @{
1030:../../core/ST/STM32L4xx_HAL_Driver/Src/stm32l4xx_hal_dma.c ****   */
1031:../../core/ST/STM32L4xx_HAL_Driver/Src/stm32l4xx_hal_dma.c **** 
1032:../../core/ST/STM32L4xx_HAL_Driver/Src/stm32l4xx_hal_dma.c **** /**
1033:../../core/ST/STM32L4xx_HAL_Driver/Src/stm32l4xx_hal_dma.c ****   * @brief  Return the DMA hande state.
1034:../../core/ST/STM32L4xx_HAL_Driver/Src/stm32l4xx_hal_dma.c ****   * @param  hdma pointer to a DMA_HandleTypeDef structure that contains
1035:../../core/ST/STM32L4xx_HAL_Driver/Src/stm32l4xx_hal_dma.c ****   *               the configuration information for the specified DMA Channel.
1036:../../core/ST/STM32L4xx_HAL_Driver/Src/stm32l4xx_hal_dma.c ****   * @retval HAL state
1037:../../core/ST/STM32L4xx_HAL_Driver/Src/stm32l4xx_hal_dma.c ****   */
1038:../../core/ST/STM32L4xx_HAL_Driver/Src/stm32l4xx_hal_dma.c **** HAL_DMA_StateTypeDef HAL_DMA_GetState(DMA_HandleTypeDef *hdma)
1039:../../core/ST/STM32L4xx_HAL_Driver/Src/stm32l4xx_hal_dma.c **** {
1040:../../core/ST/STM32L4xx_HAL_Driver/Src/stm32l4xx_hal_dma.c ****   /* Return DMA handle state */
1041:../../core/ST/STM32L4xx_HAL_Driver/Src/stm32l4xx_hal_dma.c ****   return hdma->State;
1042:../../core/ST/STM32L4xx_HAL_Driver/Src/stm32l4xx_hal_dma.c **** }
1043:../../core/ST/STM32L4xx_HAL_Driver/Src/stm32l4xx_hal_dma.c **** 
1044:../../core/ST/STM32L4xx_HAL_Driver/Src/stm32l4xx_hal_dma.c **** /**
1045:../../core/ST/STM32L4xx_HAL_Driver/Src/stm32l4xx_hal_dma.c ****   * @brief  Return the DMA error code.
1046:../../core/ST/STM32L4xx_HAL_Driver/Src/stm32l4xx_hal_dma.c ****   * @param  hdma : pointer to a DMA_HandleTypeDef structure that contains
1047:../../core/ST/STM32L4xx_HAL_Driver/Src/stm32l4xx_hal_dma.c ****   *              the configuration information for the specified DMA Channel.
1048:../../core/ST/STM32L4xx_HAL_Driver/Src/stm32l4xx_hal_dma.c ****   * @retval DMA Error Code
1049:../../core/ST/STM32L4xx_HAL_Driver/Src/stm32l4xx_hal_dma.c ****   */
1050:../../core/ST/STM32L4xx_HAL_Driver/Src/stm32l4xx_hal_dma.c **** uint32_t HAL_DMA_GetError(DMA_HandleTypeDef *hdma)
1051:../../core/ST/STM32L4xx_HAL_Driver/Src/stm32l4xx_hal_dma.c **** {
1052:../../core/ST/STM32L4xx_HAL_Driver/Src/stm32l4xx_hal_dma.c ****   return hdma->ErrorCode;
1053:../../core/ST/STM32L4xx_HAL_Driver/Src/stm32l4xx_hal_dma.c **** }
1054:../../core/ST/STM32L4xx_HAL_Driver/Src/stm32l4xx_hal_dma.c **** 
1055:../../core/ST/STM32L4xx_HAL_Driver/Src/stm32l4xx_hal_dma.c **** /**
1056:../../core/ST/STM32L4xx_HAL_Driver/Src/stm32l4xx_hal_dma.c ****   * @}
ARM GAS  C:\Users\yvesk\AppData\Local\Temp\ccFefcse.s 			page 20


1057:../../core/ST/STM32L4xx_HAL_Driver/Src/stm32l4xx_hal_dma.c ****   */
1058:../../core/ST/STM32L4xx_HAL_Driver/Src/stm32l4xx_hal_dma.c **** 
1059:../../core/ST/STM32L4xx_HAL_Driver/Src/stm32l4xx_hal_dma.c **** /**
1060:../../core/ST/STM32L4xx_HAL_Driver/Src/stm32l4xx_hal_dma.c ****   * @}
1061:../../core/ST/STM32L4xx_HAL_Driver/Src/stm32l4xx_hal_dma.c ****   */
1062:../../core/ST/STM32L4xx_HAL_Driver/Src/stm32l4xx_hal_dma.c **** 
1063:../../core/ST/STM32L4xx_HAL_Driver/Src/stm32l4xx_hal_dma.c **** /** @addtogroup DMA_Private_Functions
1064:../../core/ST/STM32L4xx_HAL_Driver/Src/stm32l4xx_hal_dma.c ****   * @{
1065:../../core/ST/STM32L4xx_HAL_Driver/Src/stm32l4xx_hal_dma.c ****   */
1066:../../core/ST/STM32L4xx_HAL_Driver/Src/stm32l4xx_hal_dma.c **** 
1067:../../core/ST/STM32L4xx_HAL_Driver/Src/stm32l4xx_hal_dma.c **** /**
1068:../../core/ST/STM32L4xx_HAL_Driver/Src/stm32l4xx_hal_dma.c ****   * @brief  Sets the DMA Transfer parameter.
1069:../../core/ST/STM32L4xx_HAL_Driver/Src/stm32l4xx_hal_dma.c ****   * @param  hdma       pointer to a DMA_HandleTypeDef structure that contains
1070:../../core/ST/STM32L4xx_HAL_Driver/Src/stm32l4xx_hal_dma.c ****   *                     the configuration information for the specified DMA Channel.
1071:../../core/ST/STM32L4xx_HAL_Driver/Src/stm32l4xx_hal_dma.c ****   * @param  SrcAddress The source memory Buffer address
1072:../../core/ST/STM32L4xx_HAL_Driver/Src/stm32l4xx_hal_dma.c ****   * @param  DstAddress The destination memory Buffer address
1073:../../core/ST/STM32L4xx_HAL_Driver/Src/stm32l4xx_hal_dma.c ****   * @param  DataLength The length of data to be transferred from source to destination
1074:../../core/ST/STM32L4xx_HAL_Driver/Src/stm32l4xx_hal_dma.c ****   * @retval HAL status
1075:../../core/ST/STM32L4xx_HAL_Driver/Src/stm32l4xx_hal_dma.c ****   */
1076:../../core/ST/STM32L4xx_HAL_Driver/Src/stm32l4xx_hal_dma.c **** static void DMA_SetConfig(DMA_HandleTypeDef *hdma, uint32_t SrcAddress, uint32_t DstAddress, uint32
1077:../../core/ST/STM32L4xx_HAL_Driver/Src/stm32l4xx_hal_dma.c **** {
  29              		.loc 1 1077 1 view -0
  30              		.cfi_startproc
  31              		@ args = 0, pretend = 0, frame = 0
  32              		@ frame_needed = 0, uses_anonymous_args = 0
  33              		@ link register save eliminated.
  34              		.loc 1 1077 1 is_stmt 0 view .LVU1
  35 0000 70B4     		push	{r4, r5, r6}
  36              	.LCFI0:
  37              		.cfi_def_cfa_offset 12
  38              		.cfi_offset 4, -12
  39              		.cfi_offset 5, -8
  40              		.cfi_offset 6, -4
1078:../../core/ST/STM32L4xx_HAL_Driver/Src/stm32l4xx_hal_dma.c **** #if defined(DMAMUX1)
1079:../../core/ST/STM32L4xx_HAL_Driver/Src/stm32l4xx_hal_dma.c ****   /* Clear the DMAMUX synchro overrun flag */
1080:../../core/ST/STM32L4xx_HAL_Driver/Src/stm32l4xx_hal_dma.c ****   hdma->DMAmuxChannelStatus->CFR = hdma->DMAmuxChannelStatusMask;
1081:../../core/ST/STM32L4xx_HAL_Driver/Src/stm32l4xx_hal_dma.c **** 
1082:../../core/ST/STM32L4xx_HAL_Driver/Src/stm32l4xx_hal_dma.c ****   if(hdma->DMAmuxRequestGen != 0U)
1083:../../core/ST/STM32L4xx_HAL_Driver/Src/stm32l4xx_hal_dma.c ****   {
1084:../../core/ST/STM32L4xx_HAL_Driver/Src/stm32l4xx_hal_dma.c ****     /* Clear the DMAMUX request generator overrun flag */
1085:../../core/ST/STM32L4xx_HAL_Driver/Src/stm32l4xx_hal_dma.c ****     hdma->DMAmuxRequestGenStatus->RGCFR = hdma->DMAmuxRequestGenStatusMask;
1086:../../core/ST/STM32L4xx_HAL_Driver/Src/stm32l4xx_hal_dma.c ****   }
1087:../../core/ST/STM32L4xx_HAL_Driver/Src/stm32l4xx_hal_dma.c **** #endif
1088:../../core/ST/STM32L4xx_HAL_Driver/Src/stm32l4xx_hal_dma.c **** 
1089:../../core/ST/STM32L4xx_HAL_Driver/Src/stm32l4xx_hal_dma.c ****   /* Clear all flags */
1090:../../core/ST/STM32L4xx_HAL_Driver/Src/stm32l4xx_hal_dma.c ****   hdma->DmaBaseAddress->IFCR = (DMA_ISR_GIF1 << (hdma->ChannelIndex & 0x1cU));
  41              		.loc 1 1090 3 is_stmt 1 view .LVU2
  42              		.loc 1 1090 54 is_stmt 0 view .LVU3
  43 0002 446C     		ldr	r4, [r0, #68]
  44              		.loc 1 1090 69 view .LVU4
  45 0004 04F01C05 		and	r5, r4, #28
  46              		.loc 1 1090 7 view .LVU5
  47 0008 066C     		ldr	r6, [r0, #64]
  48              		.loc 1 1090 46 view .LVU6
  49 000a 0124     		movs	r4, #1
  50 000c AC40     		lsls	r4, r4, r5
  51              		.loc 1 1090 30 view .LVU7
ARM GAS  C:\Users\yvesk\AppData\Local\Temp\ccFefcse.s 			page 21


  52 000e 7460     		str	r4, [r6, #4]
1091:../../core/ST/STM32L4xx_HAL_Driver/Src/stm32l4xx_hal_dma.c **** 
1092:../../core/ST/STM32L4xx_HAL_Driver/Src/stm32l4xx_hal_dma.c ****   /* Configure DMA Channel data length */
1093:../../core/ST/STM32L4xx_HAL_Driver/Src/stm32l4xx_hal_dma.c ****   hdma->Instance->CNDTR = DataLength;
  53              		.loc 1 1093 3 is_stmt 1 view .LVU8
  54              		.loc 1 1093 7 is_stmt 0 view .LVU9
  55 0010 0468     		ldr	r4, [r0]
  56              		.loc 1 1093 25 view .LVU10
  57 0012 6360     		str	r3, [r4, #4]
1094:../../core/ST/STM32L4xx_HAL_Driver/Src/stm32l4xx_hal_dma.c **** 
1095:../../core/ST/STM32L4xx_HAL_Driver/Src/stm32l4xx_hal_dma.c ****   /* Memory to Peripheral */
1096:../../core/ST/STM32L4xx_HAL_Driver/Src/stm32l4xx_hal_dma.c ****   if((hdma->Init.Direction) == DMA_MEMORY_TO_PERIPH)
  58              		.loc 1 1096 3 is_stmt 1 view .LVU11
  59              		.loc 1 1096 17 is_stmt 0 view .LVU12
  60 0014 8368     		ldr	r3, [r0, #8]
  61              	.LVL1:
  62              		.loc 1 1096 5 view .LVU13
  63 0016 102B     		cmp	r3, #16
  64 0018 05D0     		beq	.L5
1097:../../core/ST/STM32L4xx_HAL_Driver/Src/stm32l4xx_hal_dma.c ****   {
1098:../../core/ST/STM32L4xx_HAL_Driver/Src/stm32l4xx_hal_dma.c ****     /* Configure DMA Channel destination address */
1099:../../core/ST/STM32L4xx_HAL_Driver/Src/stm32l4xx_hal_dma.c ****     hdma->Instance->CPAR = DstAddress;
1100:../../core/ST/STM32L4xx_HAL_Driver/Src/stm32l4xx_hal_dma.c **** 
1101:../../core/ST/STM32L4xx_HAL_Driver/Src/stm32l4xx_hal_dma.c ****     /* Configure DMA Channel source address */
1102:../../core/ST/STM32L4xx_HAL_Driver/Src/stm32l4xx_hal_dma.c ****     hdma->Instance->CMAR = SrcAddress;
1103:../../core/ST/STM32L4xx_HAL_Driver/Src/stm32l4xx_hal_dma.c ****   }
1104:../../core/ST/STM32L4xx_HAL_Driver/Src/stm32l4xx_hal_dma.c ****   /* Peripheral to Memory */
1105:../../core/ST/STM32L4xx_HAL_Driver/Src/stm32l4xx_hal_dma.c ****   else
1106:../../core/ST/STM32L4xx_HAL_Driver/Src/stm32l4xx_hal_dma.c ****   {
1107:../../core/ST/STM32L4xx_HAL_Driver/Src/stm32l4xx_hal_dma.c ****     /* Configure DMA Channel source address */
1108:../../core/ST/STM32L4xx_HAL_Driver/Src/stm32l4xx_hal_dma.c ****     hdma->Instance->CPAR = SrcAddress;
  65              		.loc 1 1108 5 is_stmt 1 view .LVU14
  66              		.loc 1 1108 9 is_stmt 0 view .LVU15
  67 001a 0368     		ldr	r3, [r0]
  68              		.loc 1 1108 26 view .LVU16
  69 001c 9960     		str	r1, [r3, #8]
  70              	.LVL2:
1109:../../core/ST/STM32L4xx_HAL_Driver/Src/stm32l4xx_hal_dma.c **** 
1110:../../core/ST/STM32L4xx_HAL_Driver/Src/stm32l4xx_hal_dma.c ****     /* Configure DMA Channel destination address */
1111:../../core/ST/STM32L4xx_HAL_Driver/Src/stm32l4xx_hal_dma.c ****     hdma->Instance->CMAR = DstAddress;
  71              		.loc 1 1111 5 is_stmt 1 view .LVU17
  72              		.loc 1 1111 9 is_stmt 0 view .LVU18
  73 001e 0368     		ldr	r3, [r0]
  74              		.loc 1 1111 26 view .LVU19
  75 0020 DA60     		str	r2, [r3, #12]
  76              	.L1:
1112:../../core/ST/STM32L4xx_HAL_Driver/Src/stm32l4xx_hal_dma.c ****   }
1113:../../core/ST/STM32L4xx_HAL_Driver/Src/stm32l4xx_hal_dma.c **** }
  77              		.loc 1 1113 1 view .LVU20
  78 0022 70BC     		pop	{r4, r5, r6}
  79              	.LCFI1:
  80              		.cfi_remember_state
  81              		.cfi_restore 6
  82              		.cfi_restore 5
  83              		.cfi_restore 4
  84              		.cfi_def_cfa_offset 0
  85 0024 7047     		bx	lr
ARM GAS  C:\Users\yvesk\AppData\Local\Temp\ccFefcse.s 			page 22


  86              	.LVL3:
  87              	.L5:
  88              	.LCFI2:
  89              		.cfi_restore_state
1099:../../core/ST/STM32L4xx_HAL_Driver/Src/stm32l4xx_hal_dma.c **** 
  90              		.loc 1 1099 5 is_stmt 1 view .LVU21
1099:../../core/ST/STM32L4xx_HAL_Driver/Src/stm32l4xx_hal_dma.c **** 
  91              		.loc 1 1099 9 is_stmt 0 view .LVU22
  92 0026 0368     		ldr	r3, [r0]
1099:../../core/ST/STM32L4xx_HAL_Driver/Src/stm32l4xx_hal_dma.c **** 
  93              		.loc 1 1099 26 view .LVU23
  94 0028 9A60     		str	r2, [r3, #8]
  95              	.LVL4:
1102:../../core/ST/STM32L4xx_HAL_Driver/Src/stm32l4xx_hal_dma.c ****   }
  96              		.loc 1 1102 5 is_stmt 1 view .LVU24
1102:../../core/ST/STM32L4xx_HAL_Driver/Src/stm32l4xx_hal_dma.c ****   }
  97              		.loc 1 1102 9 is_stmt 0 view .LVU25
  98 002a 0368     		ldr	r3, [r0]
1102:../../core/ST/STM32L4xx_HAL_Driver/Src/stm32l4xx_hal_dma.c ****   }
  99              		.loc 1 1102 26 view .LVU26
 100 002c D960     		str	r1, [r3, #12]
 101 002e F8E7     		b	.L1
 102              		.cfi_endproc
 103              	.LFE135:
 105              		.section	.text.HAL_DMA_Init,"ax",%progbits
 106              		.align	1
 107              		.global	HAL_DMA_Init
 108              		.syntax unified
 109              		.thumb
 110              		.thumb_func
 111              		.fpu fpv4-sp-d16
 113              	HAL_DMA_Init:
 114              	.LVL5:
 115              	.LFB123:
 170:../../core/ST/STM32L4xx_HAL_Driver/Src/stm32l4xx_hal_dma.c ****   uint32_t tmp;
 116              		.loc 1 170 1 is_stmt 1 view -0
 117              		.cfi_startproc
 118              		@ args = 0, pretend = 0, frame = 0
 119              		@ frame_needed = 0, uses_anonymous_args = 0
 120              		@ link register save eliminated.
 171:../../core/ST/STM32L4xx_HAL_Driver/Src/stm32l4xx_hal_dma.c **** 
 121              		.loc 1 171 3 view .LVU28
 174:../../core/ST/STM32L4xx_HAL_Driver/Src/stm32l4xx_hal_dma.c ****   {
 122              		.loc 1 174 3 view .LVU29
 174:../../core/ST/STM32L4xx_HAL_Driver/Src/stm32l4xx_hal_dma.c ****   {
 123              		.loc 1 174 5 is_stmt 0 view .LVU30
 124 0000 0028     		cmp	r0, #0
 125 0002 68D0     		beq	.L12
 170:../../core/ST/STM32L4xx_HAL_Driver/Src/stm32l4xx_hal_dma.c ****   uint32_t tmp;
 126              		.loc 1 170 1 view .LVU31
 127 0004 10B4     		push	{r4}
 128              	.LCFI3:
 129              		.cfi_def_cfa_offset 4
 130              		.cfi_offset 4, -4
 131 0006 0346     		mov	r3, r0
 180:../../core/ST/STM32L4xx_HAL_Driver/Src/stm32l4xx_hal_dma.c ****   assert_param(IS_DMA_DIRECTION(hdma->Init.Direction));
 132              		.loc 1 180 3 is_stmt 1 view .LVU32
ARM GAS  C:\Users\yvesk\AppData\Local\Temp\ccFefcse.s 			page 23


 181:../../core/ST/STM32L4xx_HAL_Driver/Src/stm32l4xx_hal_dma.c ****   assert_param(IS_DMA_PERIPHERAL_INC_STATE(hdma->Init.PeriphInc));
 133              		.loc 1 181 3 view .LVU33
 182:../../core/ST/STM32L4xx_HAL_Driver/Src/stm32l4xx_hal_dma.c ****   assert_param(IS_DMA_MEMORY_INC_STATE(hdma->Init.MemInc));
 134              		.loc 1 182 3 view .LVU34
 183:../../core/ST/STM32L4xx_HAL_Driver/Src/stm32l4xx_hal_dma.c ****   assert_param(IS_DMA_PERIPHERAL_DATA_SIZE(hdma->Init.PeriphDataAlignment));
 135              		.loc 1 183 3 view .LVU35
 184:../../core/ST/STM32L4xx_HAL_Driver/Src/stm32l4xx_hal_dma.c ****   assert_param(IS_DMA_MEMORY_DATA_SIZE(hdma->Init.MemDataAlignment));
 136              		.loc 1 184 3 view .LVU36
 185:../../core/ST/STM32L4xx_HAL_Driver/Src/stm32l4xx_hal_dma.c ****   assert_param(IS_DMA_MODE(hdma->Init.Mode));
 137              		.loc 1 185 3 view .LVU37
 186:../../core/ST/STM32L4xx_HAL_Driver/Src/stm32l4xx_hal_dma.c ****   assert_param(IS_DMA_PRIORITY(hdma->Init.Priority));
 138              		.loc 1 186 3 view .LVU38
 187:../../core/ST/STM32L4xx_HAL_Driver/Src/stm32l4xx_hal_dma.c **** 
 139              		.loc 1 187 3 view .LVU39
 189:../../core/ST/STM32L4xx_HAL_Driver/Src/stm32l4xx_hal_dma.c **** 
 140              		.loc 1 189 3 view .LVU40
 192:../../core/ST/STM32L4xx_HAL_Driver/Src/stm32l4xx_hal_dma.c ****   {
 141              		.loc 1 192 3 view .LVU41
 192:../../core/ST/STM32L4xx_HAL_Driver/Src/stm32l4xx_hal_dma.c ****   {
 142              		.loc 1 192 22 is_stmt 0 view .LVU42
 143 0008 0068     		ldr	r0, [r0]
 144              	.LVL6:
 192:../../core/ST/STM32L4xx_HAL_Driver/Src/stm32l4xx_hal_dma.c ****   {
 145              		.loc 1 192 6 view .LVU43
 146 000a 344A     		ldr	r2, .L18
 147 000c 9042     		cmp	r0, r2
 148 000e 44D8     		bhi	.L8
 195:../../core/ST/STM32L4xx_HAL_Driver/Src/stm32l4xx_hal_dma.c ****     hdma->DmaBaseAddress = DMA1;
 149              		.loc 1 195 5 is_stmt 1 view .LVU44
 195:../../core/ST/STM32L4xx_HAL_Driver/Src/stm32l4xx_hal_dma.c ****     hdma->DmaBaseAddress = DMA1;
 150              		.loc 1 195 53 is_stmt 0 view .LVU45
 151 0010 334A     		ldr	r2, .L18+4
 152 0012 0244     		add	r2, r2, r0
 195:../../core/ST/STM32L4xx_HAL_Driver/Src/stm32l4xx_hal_dma.c ****     hdma->DmaBaseAddress = DMA1;
 153              		.loc 1 195 80 view .LVU46
 154 0014 3349     		ldr	r1, .L18+8
 155 0016 A1FB0212 		umull	r1, r2, r1, r2
 156 001a 1209     		lsrs	r2, r2, #4
 195:../../core/ST/STM32L4xx_HAL_Driver/Src/stm32l4xx_hal_dma.c ****     hdma->DmaBaseAddress = DMA1;
 157              		.loc 1 195 135 view .LVU47
 158 001c 9200     		lsls	r2, r2, #2
 195:../../core/ST/STM32L4xx_HAL_Driver/Src/stm32l4xx_hal_dma.c ****     hdma->DmaBaseAddress = DMA1;
 159              		.loc 1 195 24 view .LVU48
 160 001e 5A64     		str	r2, [r3, #68]
 196:../../core/ST/STM32L4xx_HAL_Driver/Src/stm32l4xx_hal_dma.c ****   }
 161              		.loc 1 196 5 is_stmt 1 view .LVU49
 196:../../core/ST/STM32L4xx_HAL_Driver/Src/stm32l4xx_hal_dma.c ****   }
 162              		.loc 1 196 26 is_stmt 0 view .LVU50
 163 0020 314A     		ldr	r2, .L18+12
 164 0022 1A64     		str	r2, [r3, #64]
 165              	.L9:
 206:../../core/ST/STM32L4xx_HAL_Driver/Src/stm32l4xx_hal_dma.c **** 
 166              		.loc 1 206 3 is_stmt 1 view .LVU51
 206:../../core/ST/STM32L4xx_HAL_Driver/Src/stm32l4xx_hal_dma.c **** 
 167              		.loc 1 206 15 is_stmt 0 view .LVU52
 168 0024 0222     		movs	r2, #2
 169 0026 83F82520 		strb	r2, [r3, #37]
ARM GAS  C:\Users\yvesk\AppData\Local\Temp\ccFefcse.s 			page 24


 209:../../core/ST/STM32L4xx_HAL_Driver/Src/stm32l4xx_hal_dma.c **** 
 170              		.loc 1 209 3 is_stmt 1 view .LVU53
 209:../../core/ST/STM32L4xx_HAL_Driver/Src/stm32l4xx_hal_dma.c **** 
 171              		.loc 1 209 7 is_stmt 0 view .LVU54
 172 002a 0168     		ldr	r1, [r0]
 173              	.LVL7:
 212:../../core/ST/STM32L4xx_HAL_Driver/Src/stm32l4xx_hal_dma.c ****                       DMA_CCR_MINC  | DMA_CCR_PINC   | DMA_CCR_CIRC   |
 174              		.loc 1 212 3 is_stmt 1 view .LVU55
 212:../../core/ST/STM32L4xx_HAL_Driver/Src/stm32l4xx_hal_dma.c ****                       DMA_CCR_MINC  | DMA_CCR_PINC   | DMA_CCR_CIRC   |
 175              		.loc 1 212 7 is_stmt 0 view .LVU56
 176 002c 21F4FF41 		bic	r1, r1, #32640
 177              	.LVL8:
 212:../../core/ST/STM32L4xx_HAL_Driver/Src/stm32l4xx_hal_dma.c ****                       DMA_CCR_MINC  | DMA_CCR_PINC   | DMA_CCR_CIRC   |
 178              		.loc 1 212 7 view .LVU57
 179 0030 21F07001 		bic	r1, r1, #112
 180              	.LVL9:
 217:../../core/ST/STM32L4xx_HAL_Driver/Src/stm32l4xx_hal_dma.c ****           hdma->Init.PeriphInc           | hdma->Init.MemInc           |
 181              		.loc 1 217 3 is_stmt 1 view .LVU58
 217:../../core/ST/STM32L4xx_HAL_Driver/Src/stm32l4xx_hal_dma.c ****           hdma->Init.PeriphInc           | hdma->Init.MemInc           |
 182              		.loc 1 217 21 is_stmt 0 view .LVU59
 183 0034 9A68     		ldr	r2, [r3, #8]
 218:../../core/ST/STM32L4xx_HAL_Driver/Src/stm32l4xx_hal_dma.c ****           hdma->Init.PeriphDataAlignment | hdma->Init.MemDataAlignment |
 184              		.loc 1 218 21 view .LVU60
 185 0036 DC68     		ldr	r4, [r3, #12]
 217:../../core/ST/STM32L4xx_HAL_Driver/Src/stm32l4xx_hal_dma.c ****           hdma->Init.PeriphInc           | hdma->Init.MemInc           |
 186              		.loc 1 217 39 view .LVU61
 187 0038 2243     		orrs	r2, r2, r4
 218:../../core/ST/STM32L4xx_HAL_Driver/Src/stm32l4xx_hal_dma.c ****           hdma->Init.PeriphDataAlignment | hdma->Init.MemDataAlignment |
 188              		.loc 1 218 54 view .LVU62
 189 003a 1C69     		ldr	r4, [r3, #16]
 218:../../core/ST/STM32L4xx_HAL_Driver/Src/stm32l4xx_hal_dma.c ****           hdma->Init.PeriphDataAlignment | hdma->Init.MemDataAlignment |
 190              		.loc 1 218 42 view .LVU63
 191 003c 2243     		orrs	r2, r2, r4
 219:../../core/ST/STM32L4xx_HAL_Driver/Src/stm32l4xx_hal_dma.c ****           hdma->Init.Mode                | hdma->Init.Priority;
 192              		.loc 1 219 21 view .LVU64
 193 003e 5C69     		ldr	r4, [r3, #20]
 218:../../core/ST/STM32L4xx_HAL_Driver/Src/stm32l4xx_hal_dma.c ****           hdma->Init.PeriphDataAlignment | hdma->Init.MemDataAlignment |
 194              		.loc 1 218 72 view .LVU65
 195 0040 2243     		orrs	r2, r2, r4
 219:../../core/ST/STM32L4xx_HAL_Driver/Src/stm32l4xx_hal_dma.c ****           hdma->Init.Mode                | hdma->Init.Priority;
 196              		.loc 1 219 54 view .LVU66
 197 0042 9C69     		ldr	r4, [r3, #24]
 219:../../core/ST/STM32L4xx_HAL_Driver/Src/stm32l4xx_hal_dma.c ****           hdma->Init.Mode                | hdma->Init.Priority;
 198              		.loc 1 219 42 view .LVU67
 199 0044 2243     		orrs	r2, r2, r4
 220:../../core/ST/STM32L4xx_HAL_Driver/Src/stm32l4xx_hal_dma.c **** 
 200              		.loc 1 220 21 view .LVU68
 201 0046 DC69     		ldr	r4, [r3, #28]
 219:../../core/ST/STM32L4xx_HAL_Driver/Src/stm32l4xx_hal_dma.c ****           hdma->Init.Mode                | hdma->Init.Priority;
 202              		.loc 1 219 72 view .LVU69
 203 0048 2243     		orrs	r2, r2, r4
 220:../../core/ST/STM32L4xx_HAL_Driver/Src/stm32l4xx_hal_dma.c **** 
 204              		.loc 1 220 54 view .LVU70
 205 004a 1C6A     		ldr	r4, [r3, #32]
 220:../../core/ST/STM32L4xx_HAL_Driver/Src/stm32l4xx_hal_dma.c **** 
 206              		.loc 1 220 42 view .LVU71
 207 004c 2243     		orrs	r2, r2, r4
ARM GAS  C:\Users\yvesk\AppData\Local\Temp\ccFefcse.s 			page 25


 217:../../core/ST/STM32L4xx_HAL_Driver/Src/stm32l4xx_hal_dma.c ****           hdma->Init.PeriphInc           | hdma->Init.MemInc           |
 208              		.loc 1 217 7 view .LVU72
 209 004e 0A43     		orrs	r2, r2, r1
 210              	.LVL10:
 223:../../core/ST/STM32L4xx_HAL_Driver/Src/stm32l4xx_hal_dma.c **** 
 211              		.loc 1 223 3 is_stmt 1 view .LVU73
 223:../../core/ST/STM32L4xx_HAL_Driver/Src/stm32l4xx_hal_dma.c **** 
 212              		.loc 1 223 23 is_stmt 0 view .LVU74
 213 0050 0260     		str	r2, [r0]
 268:../../core/ST/STM32L4xx_HAL_Driver/Src/stm32l4xx_hal_dma.c ****   {
 214              		.loc 1 268 3 is_stmt 1 view .LVU75
 268:../../core/ST/STM32L4xx_HAL_Driver/Src/stm32l4xx_hal_dma.c ****   {
 215              		.loc 1 268 16 is_stmt 0 view .LVU76
 216 0052 9A68     		ldr	r2, [r3, #8]
 217              	.LVL11:
 268:../../core/ST/STM32L4xx_HAL_Driver/Src/stm32l4xx_hal_dma.c ****   {
 218              		.loc 1 268 5 view .LVU77
 219 0054 B2F5804F 		cmp	r2, #16384
 220 0058 15D0     		beq	.L10
 271:../../core/ST/STM32L4xx_HAL_Driver/Src/stm32l4xx_hal_dma.c ****     {
 221              		.loc 1 271 5 is_stmt 1 view .LVU78
 271:../../core/ST/STM32L4xx_HAL_Driver/Src/stm32l4xx_hal_dma.c ****     {
 222              		.loc 1 271 21 is_stmt 0 view .LVU79
 223 005a 196C     		ldr	r1, [r3, #64]
 271:../../core/ST/STM32L4xx_HAL_Driver/Src/stm32l4xx_hal_dma.c ****     {
 224              		.loc 1 271 8 view .LVU80
 225 005c 224A     		ldr	r2, .L18+12
 226 005e 9142     		cmp	r1, r2
 227 0060 26D0     		beq	.L17
 282:../../core/ST/STM32L4xx_HAL_Driver/Src/stm32l4xx_hal_dma.c **** 
 228              		.loc 1 282 7 is_stmt 1 view .LVU81
 282:../../core/ST/STM32L4xx_HAL_Driver/Src/stm32l4xx_hal_dma.c **** 
 229              		.loc 1 282 25 is_stmt 0 view .LVU82
 230 0062 224A     		ldr	r2, .L18+16
 231 0064 1168     		ldr	r1, [r2]
 282:../../core/ST/STM32L4xx_HAL_Driver/Src/stm32l4xx_hal_dma.c **** 
 232              		.loc 1 282 52 view .LVU83
 233 0066 586C     		ldr	r0, [r3, #68]
 234              	.LVL12:
 282:../../core/ST/STM32L4xx_HAL_Driver/Src/stm32l4xx_hal_dma.c **** 
 235              		.loc 1 282 67 view .LVU84
 236 0068 00F01C04 		and	r4, r0, #28
 282:../../core/ST/STM32L4xx_HAL_Driver/Src/stm32l4xx_hal_dma.c **** 
 237              		.loc 1 282 44 view .LVU85
 238 006c 0F20     		movs	r0, #15
 239 006e A040     		lsls	r0, r0, r4
 282:../../core/ST/STM32L4xx_HAL_Driver/Src/stm32l4xx_hal_dma.c **** 
 240              		.loc 1 282 25 view .LVU86
 241 0070 21EA0001 		bic	r1, r1, r0
 242 0074 1160     		str	r1, [r2]
 285:../../core/ST/STM32L4xx_HAL_Driver/Src/stm32l4xx_hal_dma.c ****     }
 243              		.loc 1 285 7 is_stmt 1 view .LVU87
 285:../../core/ST/STM32L4xx_HAL_Driver/Src/stm32l4xx_hal_dma.c ****     }
 244              		.loc 1 285 25 is_stmt 0 view .LVU88
 245 0076 1168     		ldr	r1, [r2]
 285:../../core/ST/STM32L4xx_HAL_Driver/Src/stm32l4xx_hal_dma.c ****     }
 246              		.loc 1 285 50 view .LVU89
ARM GAS  C:\Users\yvesk\AppData\Local\Temp\ccFefcse.s 			page 26


 247 0078 5868     		ldr	r0, [r3, #4]
 285:../../core/ST/STM32L4xx_HAL_Driver/Src/stm32l4xx_hal_dma.c ****     }
 248              		.loc 1 285 67 view .LVU90
 249 007a 5C6C     		ldr	r4, [r3, #68]
 285:../../core/ST/STM32L4xx_HAL_Driver/Src/stm32l4xx_hal_dma.c ****     }
 250              		.loc 1 285 82 view .LVU91
 251 007c 04F01C04 		and	r4, r4, #28
 285:../../core/ST/STM32L4xx_HAL_Driver/Src/stm32l4xx_hal_dma.c ****     }
 252              		.loc 1 285 59 view .LVU92
 253 0080 A040     		lsls	r0, r0, r4
 285:../../core/ST/STM32L4xx_HAL_Driver/Src/stm32l4xx_hal_dma.c ****     }
 254              		.loc 1 285 25 view .LVU93
 255 0082 0143     		orrs	r1, r1, r0
 256 0084 1160     		str	r1, [r2]
 257              	.L10:
 294:../../core/ST/STM32L4xx_HAL_Driver/Src/stm32l4xx_hal_dma.c **** 
 258              		.loc 1 294 3 is_stmt 1 view .LVU94
 294:../../core/ST/STM32L4xx_HAL_Driver/Src/stm32l4xx_hal_dma.c **** 
 259              		.loc 1 294 19 is_stmt 0 view .LVU95
 260 0086 0020     		movs	r0, #0
 261 0088 D863     		str	r0, [r3, #60]
 297:../../core/ST/STM32L4xx_HAL_Driver/Src/stm32l4xx_hal_dma.c **** 
 262              		.loc 1 297 3 is_stmt 1 view .LVU96
 297:../../core/ST/STM32L4xx_HAL_Driver/Src/stm32l4xx_hal_dma.c **** 
 263              		.loc 1 297 16 is_stmt 0 view .LVU97
 264 008a 0122     		movs	r2, #1
 265 008c 83F82520 		strb	r2, [r3, #37]
 300:../../core/ST/STM32L4xx_HAL_Driver/Src/stm32l4xx_hal_dma.c **** 
 266              		.loc 1 300 3 is_stmt 1 view .LVU98
 300:../../core/ST/STM32L4xx_HAL_Driver/Src/stm32l4xx_hal_dma.c **** 
 267              		.loc 1 300 14 is_stmt 0 view .LVU99
 268 0090 83F82400 		strb	r0, [r3, #36]
 302:../../core/ST/STM32L4xx_HAL_Driver/Src/stm32l4xx_hal_dma.c **** }
 269              		.loc 1 302 3 is_stmt 1 view .LVU100
 303:../../core/ST/STM32L4xx_HAL_Driver/Src/stm32l4xx_hal_dma.c **** 
 270              		.loc 1 303 1 is_stmt 0 view .LVU101
 271 0094 5DF8044B 		ldr	r4, [sp], #4
 272              	.LCFI4:
 273              		.cfi_remember_state
 274              		.cfi_restore 4
 275              		.cfi_def_cfa_offset 0
 276 0098 7047     		bx	lr
 277              	.L8:
 278              	.LCFI5:
 279              		.cfi_restore_state
 201:../../core/ST/STM32L4xx_HAL_Driver/Src/stm32l4xx_hal_dma.c ****     hdma->DmaBaseAddress = DMA2;
 280              		.loc 1 201 5 is_stmt 1 view .LVU102
 201:../../core/ST/STM32L4xx_HAL_Driver/Src/stm32l4xx_hal_dma.c ****     hdma->DmaBaseAddress = DMA2;
 281              		.loc 1 201 53 is_stmt 0 view .LVU103
 282 009a 154A     		ldr	r2, .L18+20
 283 009c 0244     		add	r2, r2, r0
 201:../../core/ST/STM32L4xx_HAL_Driver/Src/stm32l4xx_hal_dma.c ****     hdma->DmaBaseAddress = DMA2;
 284              		.loc 1 201 80 view .LVU104
 285 009e 1149     		ldr	r1, .L18+8
 286 00a0 A1FB0212 		umull	r1, r2, r1, r2
 287 00a4 1209     		lsrs	r2, r2, #4
 201:../../core/ST/STM32L4xx_HAL_Driver/Src/stm32l4xx_hal_dma.c ****     hdma->DmaBaseAddress = DMA2;
ARM GAS  C:\Users\yvesk\AppData\Local\Temp\ccFefcse.s 			page 27


 288              		.loc 1 201 135 view .LVU105
 289 00a6 9200     		lsls	r2, r2, #2
 201:../../core/ST/STM32L4xx_HAL_Driver/Src/stm32l4xx_hal_dma.c ****     hdma->DmaBaseAddress = DMA2;
 290              		.loc 1 201 24 view .LVU106
 291 00a8 5A64     		str	r2, [r3, #68]
 202:../../core/ST/STM32L4xx_HAL_Driver/Src/stm32l4xx_hal_dma.c ****   }
 292              		.loc 1 202 5 is_stmt 1 view .LVU107
 202:../../core/ST/STM32L4xx_HAL_Driver/Src/stm32l4xx_hal_dma.c ****   }
 293              		.loc 1 202 26 is_stmt 0 view .LVU108
 294 00aa 124A     		ldr	r2, .L18+24
 295 00ac 1A64     		str	r2, [r3, #64]
 296 00ae B9E7     		b	.L9
 297              	.LVL13:
 298              	.L17:
 274:../../core/ST/STM32L4xx_HAL_Driver/Src/stm32l4xx_hal_dma.c **** 
 299              		.loc 1 274 7 is_stmt 1 view .LVU109
 274:../../core/ST/STM32L4xx_HAL_Driver/Src/stm32l4xx_hal_dma.c **** 
 300              		.loc 1 274 25 is_stmt 0 view .LVU110
 301 00b0 A832     		adds	r2, r2, #168
 302 00b2 1168     		ldr	r1, [r2]
 274:../../core/ST/STM32L4xx_HAL_Driver/Src/stm32l4xx_hal_dma.c **** 
 303              		.loc 1 274 52 view .LVU111
 304 00b4 586C     		ldr	r0, [r3, #68]
 305              	.LVL14:
 274:../../core/ST/STM32L4xx_HAL_Driver/Src/stm32l4xx_hal_dma.c **** 
 306              		.loc 1 274 67 view .LVU112
 307 00b6 00F01C04 		and	r4, r0, #28
 274:../../core/ST/STM32L4xx_HAL_Driver/Src/stm32l4xx_hal_dma.c **** 
 308              		.loc 1 274 44 view .LVU113
 309 00ba 0F20     		movs	r0, #15
 310 00bc A040     		lsls	r0, r0, r4
 274:../../core/ST/STM32L4xx_HAL_Driver/Src/stm32l4xx_hal_dma.c **** 
 311              		.loc 1 274 25 view .LVU114
 312 00be 21EA0001 		bic	r1, r1, r0
 313 00c2 1160     		str	r1, [r2]
 277:../../core/ST/STM32L4xx_HAL_Driver/Src/stm32l4xx_hal_dma.c ****     }
 314              		.loc 1 277 7 is_stmt 1 view .LVU115
 277:../../core/ST/STM32L4xx_HAL_Driver/Src/stm32l4xx_hal_dma.c ****     }
 315              		.loc 1 277 25 is_stmt 0 view .LVU116
 316 00c4 1168     		ldr	r1, [r2]
 277:../../core/ST/STM32L4xx_HAL_Driver/Src/stm32l4xx_hal_dma.c ****     }
 317              		.loc 1 277 50 view .LVU117
 318 00c6 5868     		ldr	r0, [r3, #4]
 277:../../core/ST/STM32L4xx_HAL_Driver/Src/stm32l4xx_hal_dma.c ****     }
 319              		.loc 1 277 67 view .LVU118
 320 00c8 5C6C     		ldr	r4, [r3, #68]
 277:../../core/ST/STM32L4xx_HAL_Driver/Src/stm32l4xx_hal_dma.c ****     }
 321              		.loc 1 277 82 view .LVU119
 322 00ca 04F01C04 		and	r4, r4, #28
 277:../../core/ST/STM32L4xx_HAL_Driver/Src/stm32l4xx_hal_dma.c ****     }
 323              		.loc 1 277 59 view .LVU120
 324 00ce A040     		lsls	r0, r0, r4
 277:../../core/ST/STM32L4xx_HAL_Driver/Src/stm32l4xx_hal_dma.c ****     }
 325              		.loc 1 277 25 view .LVU121
 326 00d0 0143     		orrs	r1, r1, r0
 327 00d2 1160     		str	r1, [r2]
 328 00d4 D7E7     		b	.L10
ARM GAS  C:\Users\yvesk\AppData\Local\Temp\ccFefcse.s 			page 28


 329              	.LVL15:
 330              	.L12:
 331              	.LCFI6:
 332              		.cfi_def_cfa_offset 0
 333              		.cfi_restore 4
 176:../../core/ST/STM32L4xx_HAL_Driver/Src/stm32l4xx_hal_dma.c ****   }
 334              		.loc 1 176 12 view .LVU122
 335 00d6 0120     		movs	r0, #1
 336              	.LVL16:
 303:../../core/ST/STM32L4xx_HAL_Driver/Src/stm32l4xx_hal_dma.c **** 
 337              		.loc 1 303 1 view .LVU123
 338 00d8 7047     		bx	lr
 339              	.L19:
 340 00da 00BF     		.align	2
 341              	.L18:
 342 00dc 07040240 		.word	1073873927
 343 00e0 F8FFFDBF 		.word	-1073872904
 344 00e4 CDCCCCCC 		.word	-858993459
 345 00e8 00000240 		.word	1073872896
 346 00ec A8040240 		.word	1073874088
 347 00f0 F8FBFDBF 		.word	-1073873928
 348 00f4 00040240 		.word	1073873920
 349              		.cfi_endproc
 350              	.LFE123:
 352              		.section	.text.HAL_DMA_DeInit,"ax",%progbits
 353              		.align	1
 354              		.global	HAL_DMA_DeInit
 355              		.syntax unified
 356              		.thumb
 357              		.thumb_func
 358              		.fpu fpv4-sp-d16
 360              	HAL_DMA_DeInit:
 361              	.LVL17:
 362              	.LFB124:
 312:../../core/ST/STM32L4xx_HAL_Driver/Src/stm32l4xx_hal_dma.c **** 
 363              		.loc 1 312 1 is_stmt 1 view -0
 364              		.cfi_startproc
 365              		@ args = 0, pretend = 0, frame = 0
 366              		@ frame_needed = 0, uses_anonymous_args = 0
 367              		@ link register save eliminated.
 315:../../core/ST/STM32L4xx_HAL_Driver/Src/stm32l4xx_hal_dma.c ****   {
 368              		.loc 1 315 3 view .LVU125
 315:../../core/ST/STM32L4xx_HAL_Driver/Src/stm32l4xx_hal_dma.c ****   {
 369              		.loc 1 315 6 is_stmt 0 view .LVU126
 370 0000 0028     		cmp	r0, #0
 371 0002 4ED0     		beq	.L26
 312:../../core/ST/STM32L4xx_HAL_Driver/Src/stm32l4xx_hal_dma.c **** 
 372              		.loc 1 312 1 view .LVU127
 373 0004 10B4     		push	{r4}
 374              	.LCFI7:
 375              		.cfi_def_cfa_offset 4
 376              		.cfi_offset 4, -4
 377 0006 0346     		mov	r3, r0
 321:../../core/ST/STM32L4xx_HAL_Driver/Src/stm32l4xx_hal_dma.c **** 
 378              		.loc 1 321 3 is_stmt 1 view .LVU128
 324:../../core/ST/STM32L4xx_HAL_Driver/Src/stm32l4xx_hal_dma.c **** 
 379              		.loc 1 324 3 view .LVU129
ARM GAS  C:\Users\yvesk\AppData\Local\Temp\ccFefcse.s 			page 29


 380 0008 0168     		ldr	r1, [r0]
 381 000a 0A68     		ldr	r2, [r1]
 382 000c 22F00102 		bic	r2, r2, #1
 383 0010 0A60     		str	r2, [r1]
 327:../../core/ST/STM32L4xx_HAL_Driver/Src/stm32l4xx_hal_dma.c ****   {
 384              		.loc 1 327 3 view .LVU130
 327:../../core/ST/STM32L4xx_HAL_Driver/Src/stm32l4xx_hal_dma.c ****   {
 385              		.loc 1 327 22 is_stmt 0 view .LVU131
 386 0012 0168     		ldr	r1, [r0]
 327:../../core/ST/STM32L4xx_HAL_Driver/Src/stm32l4xx_hal_dma.c ****   {
 387              		.loc 1 327 6 view .LVU132
 388 0014 244A     		ldr	r2, .L32
 389 0016 9142     		cmp	r1, r2
 390 0018 2DD8     		bhi	.L22
 330:../../core/ST/STM32L4xx_HAL_Driver/Src/stm32l4xx_hal_dma.c ****     hdma->DmaBaseAddress = DMA1;
 391              		.loc 1 330 5 is_stmt 1 view .LVU133
 330:../../core/ST/STM32L4xx_HAL_Driver/Src/stm32l4xx_hal_dma.c ****     hdma->DmaBaseAddress = DMA1;
 392              		.loc 1 330 53 is_stmt 0 view .LVU134
 393 001a 244A     		ldr	r2, .L32+4
 394 001c 0A44     		add	r2, r2, r1
 330:../../core/ST/STM32L4xx_HAL_Driver/Src/stm32l4xx_hal_dma.c ****     hdma->DmaBaseAddress = DMA1;
 395              		.loc 1 330 80 view .LVU135
 396 001e 2448     		ldr	r0, .L32+8
 397              	.LVL18:
 330:../../core/ST/STM32L4xx_HAL_Driver/Src/stm32l4xx_hal_dma.c ****     hdma->DmaBaseAddress = DMA1;
 398              		.loc 1 330 80 view .LVU136
 399 0020 A0FB0202 		umull	r0, r2, r0, r2
 400 0024 1209     		lsrs	r2, r2, #4
 330:../../core/ST/STM32L4xx_HAL_Driver/Src/stm32l4xx_hal_dma.c ****     hdma->DmaBaseAddress = DMA1;
 401              		.loc 1 330 135 view .LVU137
 402 0026 9200     		lsls	r2, r2, #2
 330:../../core/ST/STM32L4xx_HAL_Driver/Src/stm32l4xx_hal_dma.c ****     hdma->DmaBaseAddress = DMA1;
 403              		.loc 1 330 24 view .LVU138
 404 0028 5A64     		str	r2, [r3, #68]
 331:../../core/ST/STM32L4xx_HAL_Driver/Src/stm32l4xx_hal_dma.c ****   }
 405              		.loc 1 331 5 is_stmt 1 view .LVU139
 331:../../core/ST/STM32L4xx_HAL_Driver/Src/stm32l4xx_hal_dma.c ****   }
 406              		.loc 1 331 26 is_stmt 0 view .LVU140
 407 002a 224A     		ldr	r2, .L32+12
 408 002c 1A64     		str	r2, [r3, #64]
 409              	.L23:
 341:../../core/ST/STM32L4xx_HAL_Driver/Src/stm32l4xx_hal_dma.c **** 
 410              		.loc 1 341 3 is_stmt 1 view .LVU141
 341:../../core/ST/STM32L4xx_HAL_Driver/Src/stm32l4xx_hal_dma.c **** 
 411              		.loc 1 341 24 is_stmt 0 view .LVU142
 412 002e 0022     		movs	r2, #0
 413 0030 0A60     		str	r2, [r1]
 344:../../core/ST/STM32L4xx_HAL_Driver/Src/stm32l4xx_hal_dma.c **** 
 414              		.loc 1 344 3 is_stmt 1 view .LVU143
 344:../../core/ST/STM32L4xx_HAL_Driver/Src/stm32l4xx_hal_dma.c **** 
 415              		.loc 1 344 54 is_stmt 0 view .LVU144
 416 0032 5A6C     		ldr	r2, [r3, #68]
 344:../../core/ST/STM32L4xx_HAL_Driver/Src/stm32l4xx_hal_dma.c **** 
 417              		.loc 1 344 69 view .LVU145
 418 0034 02F01C01 		and	r1, r2, #28
 344:../../core/ST/STM32L4xx_HAL_Driver/Src/stm32l4xx_hal_dma.c **** 
 419              		.loc 1 344 7 view .LVU146
ARM GAS  C:\Users\yvesk\AppData\Local\Temp\ccFefcse.s 			page 30


 420 0038 186C     		ldr	r0, [r3, #64]
 344:../../core/ST/STM32L4xx_HAL_Driver/Src/stm32l4xx_hal_dma.c **** 
 421              		.loc 1 344 46 view .LVU147
 422 003a 0122     		movs	r2, #1
 423 003c 8A40     		lsls	r2, r2, r1
 344:../../core/ST/STM32L4xx_HAL_Driver/Src/stm32l4xx_hal_dma.c **** 
 424              		.loc 1 344 30 view .LVU148
 425 003e 4260     		str	r2, [r0, #4]
 349:../../core/ST/STM32L4xx_HAL_Driver/Src/stm32l4xx_hal_dma.c ****   {
 426              		.loc 1 349 3 is_stmt 1 view .LVU149
 349:../../core/ST/STM32L4xx_HAL_Driver/Src/stm32l4xx_hal_dma.c ****   {
 427              		.loc 1 349 19 is_stmt 0 view .LVU150
 428 0040 196C     		ldr	r1, [r3, #64]
 349:../../core/ST/STM32L4xx_HAL_Driver/Src/stm32l4xx_hal_dma.c ****   {
 429              		.loc 1 349 6 view .LVU151
 430 0042 1C4A     		ldr	r2, .L32+12
 431 0044 9142     		cmp	r1, r2
 432 0046 21D0     		beq	.L31
 357:../../core/ST/STM32L4xx_HAL_Driver/Src/stm32l4xx_hal_dma.c ****   }
 433              		.loc 1 357 5 is_stmt 1 view .LVU152
 357:../../core/ST/STM32L4xx_HAL_Driver/Src/stm32l4xx_hal_dma.c ****   }
 434              		.loc 1 357 23 is_stmt 0 view .LVU153
 435 0048 1B4C     		ldr	r4, .L32+16
 436 004a 2268     		ldr	r2, [r4]
 357:../../core/ST/STM32L4xx_HAL_Driver/Src/stm32l4xx_hal_dma.c ****   }
 437              		.loc 1 357 50 view .LVU154
 438 004c 596C     		ldr	r1, [r3, #68]
 357:../../core/ST/STM32L4xx_HAL_Driver/Src/stm32l4xx_hal_dma.c ****   }
 439              		.loc 1 357 65 view .LVU155
 440 004e 01F01C00 		and	r0, r1, #28
 357:../../core/ST/STM32L4xx_HAL_Driver/Src/stm32l4xx_hal_dma.c ****   }
 441              		.loc 1 357 42 view .LVU156
 442 0052 0F21     		movs	r1, #15
 443 0054 8140     		lsls	r1, r1, r0
 357:../../core/ST/STM32L4xx_HAL_Driver/Src/stm32l4xx_hal_dma.c ****   }
 444              		.loc 1 357 23 view .LVU157
 445 0056 22EA0102 		bic	r2, r2, r1
 446 005a 2260     		str	r2, [r4]
 447              	.L25:
 398:../../core/ST/STM32L4xx_HAL_Driver/Src/stm32l4xx_hal_dma.c ****   hdma->XferHalfCpltCallback = NULL;
 448              		.loc 1 398 3 is_stmt 1 view .LVU158
 398:../../core/ST/STM32L4xx_HAL_Driver/Src/stm32l4xx_hal_dma.c ****   hdma->XferHalfCpltCallback = NULL;
 449              		.loc 1 398 26 is_stmt 0 view .LVU159
 450 005c 0020     		movs	r0, #0
 451 005e D862     		str	r0, [r3, #44]
 399:../../core/ST/STM32L4xx_HAL_Driver/Src/stm32l4xx_hal_dma.c ****   hdma->XferErrorCallback = NULL;
 452              		.loc 1 399 3 is_stmt 1 view .LVU160
 399:../../core/ST/STM32L4xx_HAL_Driver/Src/stm32l4xx_hal_dma.c ****   hdma->XferErrorCallback = NULL;
 453              		.loc 1 399 30 is_stmt 0 view .LVU161
 454 0060 1863     		str	r0, [r3, #48]
 400:../../core/ST/STM32L4xx_HAL_Driver/Src/stm32l4xx_hal_dma.c ****   hdma->XferAbortCallback = NULL;
 455              		.loc 1 400 3 is_stmt 1 view .LVU162
 400:../../core/ST/STM32L4xx_HAL_Driver/Src/stm32l4xx_hal_dma.c ****   hdma->XferAbortCallback = NULL;
 456              		.loc 1 400 27 is_stmt 0 view .LVU163
 457 0062 5863     		str	r0, [r3, #52]
 401:../../core/ST/STM32L4xx_HAL_Driver/Src/stm32l4xx_hal_dma.c **** 
 458              		.loc 1 401 3 is_stmt 1 view .LVU164
ARM GAS  C:\Users\yvesk\AppData\Local\Temp\ccFefcse.s 			page 31


 401:../../core/ST/STM32L4xx_HAL_Driver/Src/stm32l4xx_hal_dma.c **** 
 459              		.loc 1 401 27 is_stmt 0 view .LVU165
 460 0064 9863     		str	r0, [r3, #56]
 404:../../core/ST/STM32L4xx_HAL_Driver/Src/stm32l4xx_hal_dma.c **** 
 461              		.loc 1 404 3 is_stmt 1 view .LVU166
 404:../../core/ST/STM32L4xx_HAL_Driver/Src/stm32l4xx_hal_dma.c **** 
 462              		.loc 1 404 19 is_stmt 0 view .LVU167
 463 0066 D863     		str	r0, [r3, #60]
 407:../../core/ST/STM32L4xx_HAL_Driver/Src/stm32l4xx_hal_dma.c **** 
 464              		.loc 1 407 3 is_stmt 1 view .LVU168
 407:../../core/ST/STM32L4xx_HAL_Driver/Src/stm32l4xx_hal_dma.c **** 
 465              		.loc 1 407 15 is_stmt 0 view .LVU169
 466 0068 83F82500 		strb	r0, [r3, #37]
 410:../../core/ST/STM32L4xx_HAL_Driver/Src/stm32l4xx_hal_dma.c **** 
 467              		.loc 1 410 3 is_stmt 1 view .LVU170
 410:../../core/ST/STM32L4xx_HAL_Driver/Src/stm32l4xx_hal_dma.c **** 
 468              		.loc 1 410 3 view .LVU171
 469 006c 83F82400 		strb	r0, [r3, #36]
 412:../../core/ST/STM32L4xx_HAL_Driver/Src/stm32l4xx_hal_dma.c **** }
 470              		.loc 1 412 3 view .LVU172
 413:../../core/ST/STM32L4xx_HAL_Driver/Src/stm32l4xx_hal_dma.c **** 
 471              		.loc 1 413 1 is_stmt 0 view .LVU173
 472 0070 5DF8044B 		ldr	r4, [sp], #4
 473              	.LCFI8:
 474              		.cfi_remember_state
 475              		.cfi_restore 4
 476              		.cfi_def_cfa_offset 0
 477 0074 7047     		bx	lr
 478              	.LVL19:
 479              	.L22:
 480              	.LCFI9:
 481              		.cfi_restore_state
 336:../../core/ST/STM32L4xx_HAL_Driver/Src/stm32l4xx_hal_dma.c ****     hdma->DmaBaseAddress = DMA2;
 482              		.loc 1 336 5 is_stmt 1 view .LVU174
 336:../../core/ST/STM32L4xx_HAL_Driver/Src/stm32l4xx_hal_dma.c ****     hdma->DmaBaseAddress = DMA2;
 483              		.loc 1 336 53 is_stmt 0 view .LVU175
 484 0076 114A     		ldr	r2, .L32+20
 485 0078 0A44     		add	r2, r2, r1
 336:../../core/ST/STM32L4xx_HAL_Driver/Src/stm32l4xx_hal_dma.c ****     hdma->DmaBaseAddress = DMA2;
 486              		.loc 1 336 80 view .LVU176
 487 007a 0D48     		ldr	r0, .L32+8
 488              	.LVL20:
 336:../../core/ST/STM32L4xx_HAL_Driver/Src/stm32l4xx_hal_dma.c ****     hdma->DmaBaseAddress = DMA2;
 489              		.loc 1 336 80 view .LVU177
 490 007c A0FB0202 		umull	r0, r2, r0, r2
 491 0080 1209     		lsrs	r2, r2, #4
 336:../../core/ST/STM32L4xx_HAL_Driver/Src/stm32l4xx_hal_dma.c ****     hdma->DmaBaseAddress = DMA2;
 492              		.loc 1 336 135 view .LVU178
 493 0082 9200     		lsls	r2, r2, #2
 336:../../core/ST/STM32L4xx_HAL_Driver/Src/stm32l4xx_hal_dma.c ****     hdma->DmaBaseAddress = DMA2;
 494              		.loc 1 336 24 view .LVU179
 495 0084 5A64     		str	r2, [r3, #68]
 337:../../core/ST/STM32L4xx_HAL_Driver/Src/stm32l4xx_hal_dma.c ****   }
 496              		.loc 1 337 5 is_stmt 1 view .LVU180
 337:../../core/ST/STM32L4xx_HAL_Driver/Src/stm32l4xx_hal_dma.c ****   }
 497              		.loc 1 337 26 is_stmt 0 view .LVU181
 498 0086 0E4A     		ldr	r2, .L32+24
ARM GAS  C:\Users\yvesk\AppData\Local\Temp\ccFefcse.s 			page 32


 499 0088 1A64     		str	r2, [r3, #64]
 500 008a D0E7     		b	.L23
 501              	.L31:
 352:../../core/ST/STM32L4xx_HAL_Driver/Src/stm32l4xx_hal_dma.c ****   }
 502              		.loc 1 352 5 is_stmt 1 view .LVU182
 352:../../core/ST/STM32L4xx_HAL_Driver/Src/stm32l4xx_hal_dma.c ****   }
 503              		.loc 1 352 23 is_stmt 0 view .LVU183
 504 008c 0D4C     		ldr	r4, .L32+28
 505 008e 2268     		ldr	r2, [r4]
 352:../../core/ST/STM32L4xx_HAL_Driver/Src/stm32l4xx_hal_dma.c ****   }
 506              		.loc 1 352 50 view .LVU184
 507 0090 596C     		ldr	r1, [r3, #68]
 352:../../core/ST/STM32L4xx_HAL_Driver/Src/stm32l4xx_hal_dma.c ****   }
 508              		.loc 1 352 65 view .LVU185
 509 0092 01F01C00 		and	r0, r1, #28
 352:../../core/ST/STM32L4xx_HAL_Driver/Src/stm32l4xx_hal_dma.c ****   }
 510              		.loc 1 352 42 view .LVU186
 511 0096 0F21     		movs	r1, #15
 512 0098 8140     		lsls	r1, r1, r0
 352:../../core/ST/STM32L4xx_HAL_Driver/Src/stm32l4xx_hal_dma.c ****   }
 513              		.loc 1 352 23 view .LVU187
 514 009a 22EA0102 		bic	r2, r2, r1
 515 009e 2260     		str	r2, [r4]
 516 00a0 DCE7     		b	.L25
 517              	.LVL21:
 518              	.L26:
 519              	.LCFI10:
 520              		.cfi_def_cfa_offset 0
 521              		.cfi_restore 4
 317:../../core/ST/STM32L4xx_HAL_Driver/Src/stm32l4xx_hal_dma.c ****   }
 522              		.loc 1 317 12 view .LVU188
 523 00a2 0120     		movs	r0, #1
 524              	.LVL22:
 413:../../core/ST/STM32L4xx_HAL_Driver/Src/stm32l4xx_hal_dma.c **** 
 525              		.loc 1 413 1 view .LVU189
 526 00a4 7047     		bx	lr
 527              	.L33:
 528 00a6 00BF     		.align	2
 529              	.L32:
 530 00a8 07040240 		.word	1073873927
 531 00ac F8FFFDBF 		.word	-1073872904
 532 00b0 CDCCCCCC 		.word	-858993459
 533 00b4 00000240 		.word	1073872896
 534 00b8 A8040240 		.word	1073874088
 535 00bc F8FBFDBF 		.word	-1073873928
 536 00c0 00040240 		.word	1073873920
 537 00c4 A8000240 		.word	1073873064
 538              		.cfi_endproc
 539              	.LFE124:
 541              		.section	.text.HAL_DMA_Start,"ax",%progbits
 542              		.align	1
 543              		.global	HAL_DMA_Start
 544              		.syntax unified
 545              		.thumb
 546              		.thumb_func
 547              		.fpu fpv4-sp-d16
 549              	HAL_DMA_Start:
ARM GAS  C:\Users\yvesk\AppData\Local\Temp\ccFefcse.s 			page 33


 550              	.LVL23:
 551              	.LFB125:
 448:../../core/ST/STM32L4xx_HAL_Driver/Src/stm32l4xx_hal_dma.c ****   HAL_StatusTypeDef status = HAL_OK;
 552              		.loc 1 448 1 is_stmt 1 view -0
 553              		.cfi_startproc
 554              		@ args = 0, pretend = 0, frame = 0
 555              		@ frame_needed = 0, uses_anonymous_args = 0
 448:../../core/ST/STM32L4xx_HAL_Driver/Src/stm32l4xx_hal_dma.c ****   HAL_StatusTypeDef status = HAL_OK;
 556              		.loc 1 448 1 is_stmt 0 view .LVU191
 557 0000 70B5     		push	{r4, r5, r6, lr}
 558              	.LCFI11:
 559              		.cfi_def_cfa_offset 16
 560              		.cfi_offset 4, -16
 561              		.cfi_offset 5, -12
 562              		.cfi_offset 6, -8
 563              		.cfi_offset 14, -4
 449:../../core/ST/STM32L4xx_HAL_Driver/Src/stm32l4xx_hal_dma.c **** 
 564              		.loc 1 449 3 is_stmt 1 view .LVU192
 565              	.LVL24:
 452:../../core/ST/STM32L4xx_HAL_Driver/Src/stm32l4xx_hal_dma.c **** 
 566              		.loc 1 452 3 view .LVU193
 455:../../core/ST/STM32L4xx_HAL_Driver/Src/stm32l4xx_hal_dma.c **** 
 567              		.loc 1 455 3 view .LVU194
 455:../../core/ST/STM32L4xx_HAL_Driver/Src/stm32l4xx_hal_dma.c **** 
 568              		.loc 1 455 3 view .LVU195
 569 0002 90F82440 		ldrb	r4, [r0, #36]	@ zero_extendqisi2
 570 0006 012C     		cmp	r4, #1
 571 0008 21D0     		beq	.L37
 455:../../core/ST/STM32L4xx_HAL_Driver/Src/stm32l4xx_hal_dma.c **** 
 572              		.loc 1 455 3 discriminator 2 view .LVU196
 573 000a 0124     		movs	r4, #1
 574 000c 80F82440 		strb	r4, [r0, #36]
 457:../../core/ST/STM32L4xx_HAL_Driver/Src/stm32l4xx_hal_dma.c ****   {
 575              		.loc 1 457 3 discriminator 2 view .LVU197
 457:../../core/ST/STM32L4xx_HAL_Driver/Src/stm32l4xx_hal_dma.c ****   {
 576              		.loc 1 457 33 is_stmt 0 discriminator 2 view .LVU198
 577 0010 90F82540 		ldrb	r4, [r0, #37]	@ zero_extendqisi2
 578 0014 E4B2     		uxtb	r4, r4
 457:../../core/ST/STM32L4xx_HAL_Driver/Src/stm32l4xx_hal_dma.c ****   {
 579              		.loc 1 457 5 discriminator 2 view .LVU199
 580 0016 012C     		cmp	r4, #1
 581 0018 04D0     		beq	.L39
 475:../../core/ST/STM32L4xx_HAL_Driver/Src/stm32l4xx_hal_dma.c ****     status = HAL_BUSY;
 582              		.loc 1 475 5 is_stmt 1 view .LVU200
 475:../../core/ST/STM32L4xx_HAL_Driver/Src/stm32l4xx_hal_dma.c ****     status = HAL_BUSY;
 583              		.loc 1 475 5 view .LVU201
 584 001a 0023     		movs	r3, #0
 585              	.LVL25:
 475:../../core/ST/STM32L4xx_HAL_Driver/Src/stm32l4xx_hal_dma.c ****     status = HAL_BUSY;
 586              		.loc 1 475 5 is_stmt 0 view .LVU202
 587 001c 80F82430 		strb	r3, [r0, #36]
 476:../../core/ST/STM32L4xx_HAL_Driver/Src/stm32l4xx_hal_dma.c ****   }
 588              		.loc 1 476 5 is_stmt 1 view .LVU203
 589              	.LVL26:
 476:../../core/ST/STM32L4xx_HAL_Driver/Src/stm32l4xx_hal_dma.c ****   }
 590              		.loc 1 476 12 is_stmt 0 view .LVU204
 591 0020 0220     		movs	r0, #2
ARM GAS  C:\Users\yvesk\AppData\Local\Temp\ccFefcse.s 			page 34


 592              	.LVL27:
 593              	.L35:
 479:../../core/ST/STM32L4xx_HAL_Driver/Src/stm32l4xx_hal_dma.c **** 
 594              		.loc 1 479 1 view .LVU205
 595 0022 70BD     		pop	{r4, r5, r6, pc}
 596              	.LVL28:
 597              	.L39:
 479:../../core/ST/STM32L4xx_HAL_Driver/Src/stm32l4xx_hal_dma.c **** 
 598              		.loc 1 479 1 view .LVU206
 599 0024 0546     		mov	r5, r0
 460:../../core/ST/STM32L4xx_HAL_Driver/Src/stm32l4xx_hal_dma.c ****     hdma->ErrorCode = HAL_DMA_ERROR_NONE;
 600              		.loc 1 460 5 is_stmt 1 view .LVU207
 460:../../core/ST/STM32L4xx_HAL_Driver/Src/stm32l4xx_hal_dma.c ****     hdma->ErrorCode = HAL_DMA_ERROR_NONE;
 601              		.loc 1 460 17 is_stmt 0 view .LVU208
 602 0026 0220     		movs	r0, #2
 603              	.LVL29:
 460:../../core/ST/STM32L4xx_HAL_Driver/Src/stm32l4xx_hal_dma.c ****     hdma->ErrorCode = HAL_DMA_ERROR_NONE;
 604              		.loc 1 460 17 view .LVU209
 605 0028 85F82500 		strb	r0, [r5, #37]
 461:../../core/ST/STM32L4xx_HAL_Driver/Src/stm32l4xx_hal_dma.c **** 
 606              		.loc 1 461 5 is_stmt 1 view .LVU210
 461:../../core/ST/STM32L4xx_HAL_Driver/Src/stm32l4xx_hal_dma.c **** 
 607              		.loc 1 461 21 is_stmt 0 view .LVU211
 608 002c 0024     		movs	r4, #0
 609 002e EC63     		str	r4, [r5, #60]
 464:../../core/ST/STM32L4xx_HAL_Driver/Src/stm32l4xx_hal_dma.c **** 
 610              		.loc 1 464 5 is_stmt 1 view .LVU212
 611 0030 2E68     		ldr	r6, [r5]
 612 0032 3068     		ldr	r0, [r6]
 613 0034 20F00100 		bic	r0, r0, #1
 614 0038 3060     		str	r0, [r6]
 467:../../core/ST/STM32L4xx_HAL_Driver/Src/stm32l4xx_hal_dma.c **** 
 615              		.loc 1 467 5 view .LVU213
 616 003a 2846     		mov	r0, r5
 617 003c FFF7FEFF 		bl	DMA_SetConfig
 618              	.LVL30:
 470:../../core/ST/STM32L4xx_HAL_Driver/Src/stm32l4xx_hal_dma.c ****   }
 619              		.loc 1 470 5 view .LVU214
 620 0040 2A68     		ldr	r2, [r5]
 621 0042 1368     		ldr	r3, [r2]
 622 0044 43F00103 		orr	r3, r3, #1
 623 0048 1360     		str	r3, [r2]
 449:../../core/ST/STM32L4xx_HAL_Driver/Src/stm32l4xx_hal_dma.c **** 
 624              		.loc 1 449 21 is_stmt 0 view .LVU215
 625 004a 2046     		mov	r0, r4
 626 004c E9E7     		b	.L35
 627              	.LVL31:
 628              	.L37:
 455:../../core/ST/STM32L4xx_HAL_Driver/Src/stm32l4xx_hal_dma.c **** 
 629              		.loc 1 455 3 view .LVU216
 630 004e 0220     		movs	r0, #2
 631              	.LVL32:
 455:../../core/ST/STM32L4xx_HAL_Driver/Src/stm32l4xx_hal_dma.c **** 
 632              		.loc 1 455 3 view .LVU217
 633 0050 E7E7     		b	.L35
 634              		.cfi_endproc
 635              	.LFE125:
ARM GAS  C:\Users\yvesk\AppData\Local\Temp\ccFefcse.s 			page 35


 637              		.section	.text.HAL_DMA_Start_IT,"ax",%progbits
 638              		.align	1
 639              		.global	HAL_DMA_Start_IT
 640              		.syntax unified
 641              		.thumb
 642              		.thumb_func
 643              		.fpu fpv4-sp-d16
 645              	HAL_DMA_Start_IT:
 646              	.LVL33:
 647              	.LFB126:
 491:../../core/ST/STM32L4xx_HAL_Driver/Src/stm32l4xx_hal_dma.c ****   HAL_StatusTypeDef status = HAL_OK;
 648              		.loc 1 491 1 is_stmt 1 view -0
 649              		.cfi_startproc
 650              		@ args = 0, pretend = 0, frame = 0
 651              		@ frame_needed = 0, uses_anonymous_args = 0
 491:../../core/ST/STM32L4xx_HAL_Driver/Src/stm32l4xx_hal_dma.c ****   HAL_StatusTypeDef status = HAL_OK;
 652              		.loc 1 491 1 is_stmt 0 view .LVU219
 653 0000 38B5     		push	{r3, r4, r5, lr}
 654              	.LCFI12:
 655              		.cfi_def_cfa_offset 16
 656              		.cfi_offset 3, -16
 657              		.cfi_offset 4, -12
 658              		.cfi_offset 5, -8
 659              		.cfi_offset 14, -4
 492:../../core/ST/STM32L4xx_HAL_Driver/Src/stm32l4xx_hal_dma.c **** 
 660              		.loc 1 492 3 is_stmt 1 view .LVU220
 661              	.LVL34:
 495:../../core/ST/STM32L4xx_HAL_Driver/Src/stm32l4xx_hal_dma.c **** 
 662              		.loc 1 495 3 view .LVU221
 498:../../core/ST/STM32L4xx_HAL_Driver/Src/stm32l4xx_hal_dma.c **** 
 663              		.loc 1 498 3 view .LVU222
 498:../../core/ST/STM32L4xx_HAL_Driver/Src/stm32l4xx_hal_dma.c **** 
 664              		.loc 1 498 3 view .LVU223
 665 0002 90F82440 		ldrb	r4, [r0, #36]	@ zero_extendqisi2
 666 0006 012C     		cmp	r4, #1
 667 0008 33D0     		beq	.L45
 498:../../core/ST/STM32L4xx_HAL_Driver/Src/stm32l4xx_hal_dma.c **** 
 668              		.loc 1 498 3 discriminator 2 view .LVU224
 669 000a 0124     		movs	r4, #1
 670 000c 80F82440 		strb	r4, [r0, #36]
 500:../../core/ST/STM32L4xx_HAL_Driver/Src/stm32l4xx_hal_dma.c ****   {
 671              		.loc 1 500 3 discriminator 2 view .LVU225
 500:../../core/ST/STM32L4xx_HAL_Driver/Src/stm32l4xx_hal_dma.c ****   {
 672              		.loc 1 500 33 is_stmt 0 discriminator 2 view .LVU226
 673 0010 90F82540 		ldrb	r4, [r0, #37]	@ zero_extendqisi2
 674 0014 E4B2     		uxtb	r4, r4
 500:../../core/ST/STM32L4xx_HAL_Driver/Src/stm32l4xx_hal_dma.c ****   {
 675              		.loc 1 500 5 discriminator 2 view .LVU227
 676 0016 012C     		cmp	r4, #1
 677 0018 04D0     		beq	.L47
 549:../../core/ST/STM32L4xx_HAL_Driver/Src/stm32l4xx_hal_dma.c **** 
 678              		.loc 1 549 5 is_stmt 1 view .LVU228
 549:../../core/ST/STM32L4xx_HAL_Driver/Src/stm32l4xx_hal_dma.c **** 
 679              		.loc 1 549 5 view .LVU229
 680 001a 0023     		movs	r3, #0
 681              	.LVL35:
 549:../../core/ST/STM32L4xx_HAL_Driver/Src/stm32l4xx_hal_dma.c **** 
ARM GAS  C:\Users\yvesk\AppData\Local\Temp\ccFefcse.s 			page 36


 682              		.loc 1 549 5 is_stmt 0 view .LVU230
 683 001c 80F82430 		strb	r3, [r0, #36]
 552:../../core/ST/STM32L4xx_HAL_Driver/Src/stm32l4xx_hal_dma.c ****   }
 684              		.loc 1 552 5 is_stmt 1 view .LVU231
 685              	.LVL36:
 552:../../core/ST/STM32L4xx_HAL_Driver/Src/stm32l4xx_hal_dma.c ****   }
 686              		.loc 1 552 12 is_stmt 0 view .LVU232
 687 0020 0220     		movs	r0, #2
 688              	.LVL37:
 689              	.L41:
 555:../../core/ST/STM32L4xx_HAL_Driver/Src/stm32l4xx_hal_dma.c **** 
 690              		.loc 1 555 1 view .LVU233
 691 0022 38BD     		pop	{r3, r4, r5, pc}
 692              	.LVL38:
 693              	.L47:
 555:../../core/ST/STM32L4xx_HAL_Driver/Src/stm32l4xx_hal_dma.c **** 
 694              		.loc 1 555 1 view .LVU234
 695 0024 0446     		mov	r4, r0
 503:../../core/ST/STM32L4xx_HAL_Driver/Src/stm32l4xx_hal_dma.c ****     hdma->ErrorCode = HAL_DMA_ERROR_NONE;
 696              		.loc 1 503 5 is_stmt 1 view .LVU235
 503:../../core/ST/STM32L4xx_HAL_Driver/Src/stm32l4xx_hal_dma.c ****     hdma->ErrorCode = HAL_DMA_ERROR_NONE;
 697              		.loc 1 503 17 is_stmt 0 view .LVU236
 698 0026 0220     		movs	r0, #2
 699              	.LVL39:
 503:../../core/ST/STM32L4xx_HAL_Driver/Src/stm32l4xx_hal_dma.c ****     hdma->ErrorCode = HAL_DMA_ERROR_NONE;
 700              		.loc 1 503 17 view .LVU237
 701 0028 84F82500 		strb	r0, [r4, #37]
 504:../../core/ST/STM32L4xx_HAL_Driver/Src/stm32l4xx_hal_dma.c **** 
 702              		.loc 1 504 5 is_stmt 1 view .LVU238
 504:../../core/ST/STM32L4xx_HAL_Driver/Src/stm32l4xx_hal_dma.c **** 
 703              		.loc 1 504 21 is_stmt 0 view .LVU239
 704 002c 0020     		movs	r0, #0
 705 002e E063     		str	r0, [r4, #60]
 507:../../core/ST/STM32L4xx_HAL_Driver/Src/stm32l4xx_hal_dma.c **** 
 706              		.loc 1 507 5 is_stmt 1 view .LVU240
 707 0030 2568     		ldr	r5, [r4]
 708 0032 2868     		ldr	r0, [r5]
 709 0034 20F00100 		bic	r0, r0, #1
 710 0038 2860     		str	r0, [r5]
 510:../../core/ST/STM32L4xx_HAL_Driver/Src/stm32l4xx_hal_dma.c **** 
 711              		.loc 1 510 5 view .LVU241
 712 003a 2046     		mov	r0, r4
 713 003c FFF7FEFF 		bl	DMA_SetConfig
 714              	.LVL40:
 514:../../core/ST/STM32L4xx_HAL_Driver/Src/stm32l4xx_hal_dma.c ****     {
 715              		.loc 1 514 5 view .LVU242
 514:../../core/ST/STM32L4xx_HAL_Driver/Src/stm32l4xx_hal_dma.c ****     {
 716              		.loc 1 514 20 is_stmt 0 view .LVU243
 717 0040 236B     		ldr	r3, [r4, #48]
 514:../../core/ST/STM32L4xx_HAL_Driver/Src/stm32l4xx_hal_dma.c ****     {
 718              		.loc 1 514 7 view .LVU244
 719 0042 5BB1     		cbz	r3, .L43
 517:../../core/ST/STM32L4xx_HAL_Driver/Src/stm32l4xx_hal_dma.c ****     }
 720              		.loc 1 517 7 is_stmt 1 view .LVU245
 721 0044 2268     		ldr	r2, [r4]
 722 0046 1368     		ldr	r3, [r2]
 723 0048 43F00E03 		orr	r3, r3, #14
ARM GAS  C:\Users\yvesk\AppData\Local\Temp\ccFefcse.s 			page 37


 724 004c 1360     		str	r3, [r2]
 725              	.L44:
 544:../../core/ST/STM32L4xx_HAL_Driver/Src/stm32l4xx_hal_dma.c ****   }
 726              		.loc 1 544 5 view .LVU246
 727 004e 2268     		ldr	r2, [r4]
 728 0050 1368     		ldr	r3, [r2]
 729 0052 43F00103 		orr	r3, r3, #1
 730 0056 1360     		str	r3, [r2]
 492:../../core/ST/STM32L4xx_HAL_Driver/Src/stm32l4xx_hal_dma.c **** 
 731              		.loc 1 492 21 is_stmt 0 view .LVU247
 732 0058 0020     		movs	r0, #0
 733 005a E2E7     		b	.L41
 734              	.L43:
 521:../../core/ST/STM32L4xx_HAL_Driver/Src/stm32l4xx_hal_dma.c ****       __HAL_DMA_ENABLE_IT(hdma, (DMA_IT_TC | DMA_IT_TE));
 735              		.loc 1 521 7 is_stmt 1 view .LVU248
 736 005c 2268     		ldr	r2, [r4]
 737 005e 1368     		ldr	r3, [r2]
 738 0060 23F00403 		bic	r3, r3, #4
 739 0064 1360     		str	r3, [r2]
 522:../../core/ST/STM32L4xx_HAL_Driver/Src/stm32l4xx_hal_dma.c ****     }
 740              		.loc 1 522 7 view .LVU249
 741 0066 2268     		ldr	r2, [r4]
 742 0068 1368     		ldr	r3, [r2]
 743 006a 43F00A03 		orr	r3, r3, #10
 744 006e 1360     		str	r3, [r2]
 745 0070 EDE7     		b	.L44
 746              	.LVL41:
 747              	.L45:
 498:../../core/ST/STM32L4xx_HAL_Driver/Src/stm32l4xx_hal_dma.c **** 
 748              		.loc 1 498 3 is_stmt 0 view .LVU250
 749 0072 0220     		movs	r0, #2
 750              	.LVL42:
 498:../../core/ST/STM32L4xx_HAL_Driver/Src/stm32l4xx_hal_dma.c **** 
 751              		.loc 1 498 3 view .LVU251
 752 0074 D5E7     		b	.L41
 753              		.cfi_endproc
 754              	.LFE126:
 756              		.section	.text.HAL_DMA_Abort,"ax",%progbits
 757              		.align	1
 758              		.global	HAL_DMA_Abort
 759              		.syntax unified
 760              		.thumb
 761              		.thumb_func
 762              		.fpu fpv4-sp-d16
 764              	HAL_DMA_Abort:
 765              	.LVL43:
 766              	.LFB127:
 564:../../core/ST/STM32L4xx_HAL_Driver/Src/stm32l4xx_hal_dma.c ****   HAL_StatusTypeDef status = HAL_OK;
 767              		.loc 1 564 1 is_stmt 1 view -0
 768              		.cfi_startproc
 769              		@ args = 0, pretend = 0, frame = 0
 770              		@ frame_needed = 0, uses_anonymous_args = 0
 771              		@ link register save eliminated.
 565:../../core/ST/STM32L4xx_HAL_Driver/Src/stm32l4xx_hal_dma.c **** 
 772              		.loc 1 565 3 view .LVU253
 568:../../core/ST/STM32L4xx_HAL_Driver/Src/stm32l4xx_hal_dma.c ****   {
 773              		.loc 1 568 3 view .LVU254
ARM GAS  C:\Users\yvesk\AppData\Local\Temp\ccFefcse.s 			page 38


 568:../../core/ST/STM32L4xx_HAL_Driver/Src/stm32l4xx_hal_dma.c ****   {
 774              		.loc 1 568 5 is_stmt 0 view .LVU255
 775 0000 0346     		mov	r3, r0
 776 0002 B8B1     		cbz	r0, .L50
 574:../../core/ST/STM32L4xx_HAL_Driver/Src/stm32l4xx_hal_dma.c **** 
 777              		.loc 1 574 3 is_stmt 1 view .LVU256
 778 0004 0168     		ldr	r1, [r0]
 779 0006 0A68     		ldr	r2, [r1]
 780 0008 22F00E02 		bic	r2, r2, #14
 781 000c 0A60     		str	r2, [r1]
 582:../../core/ST/STM32L4xx_HAL_Driver/Src/stm32l4xx_hal_dma.c **** 
 782              		.loc 1 582 3 view .LVU257
 783 000e 0168     		ldr	r1, [r0]
 784 0010 0A68     		ldr	r2, [r1]
 785 0012 22F00102 		bic	r2, r2, #1
 786 0016 0A60     		str	r2, [r1]
 585:../../core/ST/STM32L4xx_HAL_Driver/Src/stm32l4xx_hal_dma.c **** 
 787              		.loc 1 585 3 view .LVU258
 585:../../core/ST/STM32L4xx_HAL_Driver/Src/stm32l4xx_hal_dma.c **** 
 788              		.loc 1 585 54 is_stmt 0 view .LVU259
 789 0018 426C     		ldr	r2, [r0, #68]
 585:../../core/ST/STM32L4xx_HAL_Driver/Src/stm32l4xx_hal_dma.c **** 
 790              		.loc 1 585 69 view .LVU260
 791 001a 02F01C02 		and	r2, r2, #28
 585:../../core/ST/STM32L4xx_HAL_Driver/Src/stm32l4xx_hal_dma.c **** 
 792              		.loc 1 585 7 view .LVU261
 793 001e 006C     		ldr	r0, [r0, #64]
 794              	.LVL44:
 585:../../core/ST/STM32L4xx_HAL_Driver/Src/stm32l4xx_hal_dma.c **** 
 795              		.loc 1 585 46 view .LVU262
 796 0020 0121     		movs	r1, #1
 797 0022 01FA02F2 		lsl	r2, r1, r2
 585:../../core/ST/STM32L4xx_HAL_Driver/Src/stm32l4xx_hal_dma.c **** 
 798              		.loc 1 585 30 view .LVU263
 799 0026 4260     		str	r2, [r0, #4]
 604:../../core/ST/STM32L4xx_HAL_Driver/Src/stm32l4xx_hal_dma.c **** 
 800              		.loc 1 604 3 is_stmt 1 view .LVU264
 604:../../core/ST/STM32L4xx_HAL_Driver/Src/stm32l4xx_hal_dma.c **** 
 801              		.loc 1 604 15 is_stmt 0 view .LVU265
 802 0028 83F82510 		strb	r1, [r3, #37]
 607:../../core/ST/STM32L4xx_HAL_Driver/Src/stm32l4xx_hal_dma.c **** 
 803              		.loc 1 607 3 is_stmt 1 view .LVU266
 607:../../core/ST/STM32L4xx_HAL_Driver/Src/stm32l4xx_hal_dma.c **** 
 804              		.loc 1 607 3 view .LVU267
 805 002c 0020     		movs	r0, #0
 806 002e 83F82400 		strb	r0, [r3, #36]
 609:../../core/ST/STM32L4xx_HAL_Driver/Src/stm32l4xx_hal_dma.c **** }
 807              		.loc 1 609 3 view .LVU268
 609:../../core/ST/STM32L4xx_HAL_Driver/Src/stm32l4xx_hal_dma.c **** }
 808              		.loc 1 609 10 is_stmt 0 view .LVU269
 809 0032 7047     		bx	lr
 810              	.LVL45:
 811              	.L50:
 570:../../core/ST/STM32L4xx_HAL_Driver/Src/stm32l4xx_hal_dma.c ****   }
 812              		.loc 1 570 12 view .LVU270
 813 0034 0120     		movs	r0, #1
 814              	.LVL46:
ARM GAS  C:\Users\yvesk\AppData\Local\Temp\ccFefcse.s 			page 39


 610:../../core/ST/STM32L4xx_HAL_Driver/Src/stm32l4xx_hal_dma.c **** 
 815              		.loc 1 610 1 view .LVU271
 816 0036 7047     		bx	lr
 817              		.cfi_endproc
 818              	.LFE127:
 820              		.section	.text.HAL_DMA_Abort_IT,"ax",%progbits
 821              		.align	1
 822              		.global	HAL_DMA_Abort_IT
 823              		.syntax unified
 824              		.thumb
 825              		.thumb_func
 826              		.fpu fpv4-sp-d16
 828              	HAL_DMA_Abort_IT:
 829              	.LVL47:
 830              	.LFB128:
 619:../../core/ST/STM32L4xx_HAL_Driver/Src/stm32l4xx_hal_dma.c ****   HAL_StatusTypeDef status = HAL_OK;
 831              		.loc 1 619 1 is_stmt 1 view -0
 832              		.cfi_startproc
 833              		@ args = 0, pretend = 0, frame = 0
 834              		@ frame_needed = 0, uses_anonymous_args = 0
 619:../../core/ST/STM32L4xx_HAL_Driver/Src/stm32l4xx_hal_dma.c ****   HAL_StatusTypeDef status = HAL_OK;
 835              		.loc 1 619 1 is_stmt 0 view .LVU273
 836 0000 08B5     		push	{r3, lr}
 837              	.LCFI13:
 838              		.cfi_def_cfa_offset 8
 839              		.cfi_offset 3, -8
 840              		.cfi_offset 14, -4
 620:../../core/ST/STM32L4xx_HAL_Driver/Src/stm32l4xx_hal_dma.c **** 
 841              		.loc 1 620 3 is_stmt 1 view .LVU274
 842              	.LVL48:
 622:../../core/ST/STM32L4xx_HAL_Driver/Src/stm32l4xx_hal_dma.c ****   {
 843              		.loc 1 622 3 view .LVU275
 622:../../core/ST/STM32L4xx_HAL_Driver/Src/stm32l4xx_hal_dma.c ****   {
 844              		.loc 1 622 32 is_stmt 0 view .LVU276
 845 0002 90F82530 		ldrb	r3, [r0, #37]	@ zero_extendqisi2
 846 0006 DBB2     		uxtb	r3, r3
 622:../../core/ST/STM32L4xx_HAL_Driver/Src/stm32l4xx_hal_dma.c ****   {
 847              		.loc 1 622 5 view .LVU277
 848 0008 022B     		cmp	r3, #2
 849 000a 03D0     		beq	.L52
 625:../../core/ST/STM32L4xx_HAL_Driver/Src/stm32l4xx_hal_dma.c **** 
 850              		.loc 1 625 5 is_stmt 1 view .LVU278
 625:../../core/ST/STM32L4xx_HAL_Driver/Src/stm32l4xx_hal_dma.c **** 
 851              		.loc 1 625 21 is_stmt 0 view .LVU279
 852 000c 0423     		movs	r3, #4
 853 000e C363     		str	r3, [r0, #60]
 627:../../core/ST/STM32L4xx_HAL_Driver/Src/stm32l4xx_hal_dma.c ****   }
 854              		.loc 1 627 5 is_stmt 1 view .LVU280
 855              	.LVL49:
 627:../../core/ST/STM32L4xx_HAL_Driver/Src/stm32l4xx_hal_dma.c ****   }
 856              		.loc 1 627 12 is_stmt 0 view .LVU281
 857 0010 0120     		movs	r0, #1
 858              	.LVL50:
 859              	.L53:
 674:../../core/ST/STM32L4xx_HAL_Driver/Src/stm32l4xx_hal_dma.c **** }
 860              		.loc 1 674 3 is_stmt 1 view .LVU282
 675:../../core/ST/STM32L4xx_HAL_Driver/Src/stm32l4xx_hal_dma.c **** 
ARM GAS  C:\Users\yvesk\AppData\Local\Temp\ccFefcse.s 			page 40


 861              		.loc 1 675 1 is_stmt 0 view .LVU283
 862 0012 08BD     		pop	{r3, pc}
 863              	.LVL51:
 864              	.L52:
 632:../../core/ST/STM32L4xx_HAL_Driver/Src/stm32l4xx_hal_dma.c **** 
 865              		.loc 1 632 5 is_stmt 1 view .LVU284
 866 0014 0268     		ldr	r2, [r0]
 867 0016 1368     		ldr	r3, [r2]
 868 0018 23F00E03 		bic	r3, r3, #14
 869 001c 1360     		str	r3, [r2]
 635:../../core/ST/STM32L4xx_HAL_Driver/Src/stm32l4xx_hal_dma.c **** 
 870              		.loc 1 635 5 view .LVU285
 871 001e 0268     		ldr	r2, [r0]
 872 0020 1368     		ldr	r3, [r2]
 873 0022 23F00103 		bic	r3, r3, #1
 874 0026 1360     		str	r3, [r2]
 659:../../core/ST/STM32L4xx_HAL_Driver/Src/stm32l4xx_hal_dma.c **** #endif /* DMAMUX1 */
 875              		.loc 1 659 5 view .LVU286
 659:../../core/ST/STM32L4xx_HAL_Driver/Src/stm32l4xx_hal_dma.c **** #endif /* DMAMUX1 */
 876              		.loc 1 659 56 is_stmt 0 view .LVU287
 877 0028 436C     		ldr	r3, [r0, #68]
 659:../../core/ST/STM32L4xx_HAL_Driver/Src/stm32l4xx_hal_dma.c **** #endif /* DMAMUX1 */
 878              		.loc 1 659 71 view .LVU288
 879 002a 03F01C03 		and	r3, r3, #28
 659:../../core/ST/STM32L4xx_HAL_Driver/Src/stm32l4xx_hal_dma.c **** #endif /* DMAMUX1 */
 880              		.loc 1 659 9 view .LVU289
 881 002e 016C     		ldr	r1, [r0, #64]
 659:../../core/ST/STM32L4xx_HAL_Driver/Src/stm32l4xx_hal_dma.c **** #endif /* DMAMUX1 */
 882              		.loc 1 659 48 view .LVU290
 883 0030 0122     		movs	r2, #1
 884 0032 02FA03F3 		lsl	r3, r2, r3
 659:../../core/ST/STM32L4xx_HAL_Driver/Src/stm32l4xx_hal_dma.c **** #endif /* DMAMUX1 */
 885              		.loc 1 659 32 view .LVU291
 886 0036 4B60     		str	r3, [r1, #4]
 663:../../core/ST/STM32L4xx_HAL_Driver/Src/stm32l4xx_hal_dma.c **** 
 887              		.loc 1 663 5 is_stmt 1 view .LVU292
 663:../../core/ST/STM32L4xx_HAL_Driver/Src/stm32l4xx_hal_dma.c **** 
 888              		.loc 1 663 17 is_stmt 0 view .LVU293
 889 0038 80F82520 		strb	r2, [r0, #37]
 666:../../core/ST/STM32L4xx_HAL_Driver/Src/stm32l4xx_hal_dma.c **** 
 890              		.loc 1 666 5 is_stmt 1 view .LVU294
 666:../../core/ST/STM32L4xx_HAL_Driver/Src/stm32l4xx_hal_dma.c **** 
 891              		.loc 1 666 5 view .LVU295
 892 003c 0023     		movs	r3, #0
 893 003e 80F82430 		strb	r3, [r0, #36]
 669:../../core/ST/STM32L4xx_HAL_Driver/Src/stm32l4xx_hal_dma.c ****     {
 894              		.loc 1 669 5 view .LVU296
 669:../../core/ST/STM32L4xx_HAL_Driver/Src/stm32l4xx_hal_dma.c ****     {
 895              		.loc 1 669 12 is_stmt 0 view .LVU297
 896 0042 836B     		ldr	r3, [r0, #56]
 669:../../core/ST/STM32L4xx_HAL_Driver/Src/stm32l4xx_hal_dma.c ****     {
 897              		.loc 1 669 7 view .LVU298
 898 0044 13B1     		cbz	r3, .L54
 671:../../core/ST/STM32L4xx_HAL_Driver/Src/stm32l4xx_hal_dma.c ****     }
 899              		.loc 1 671 7 is_stmt 1 view .LVU299
 900 0046 9847     		blx	r3
 901              	.LVL52:
ARM GAS  C:\Users\yvesk\AppData\Local\Temp\ccFefcse.s 			page 41


 620:../../core/ST/STM32L4xx_HAL_Driver/Src/stm32l4xx_hal_dma.c **** 
 902              		.loc 1 620 21 is_stmt 0 view .LVU300
 903 0048 0020     		movs	r0, #0
 904 004a E2E7     		b	.L53
 905              	.LVL53:
 906              	.L54:
 620:../../core/ST/STM32L4xx_HAL_Driver/Src/stm32l4xx_hal_dma.c **** 
 907              		.loc 1 620 21 view .LVU301
 908 004c 0020     		movs	r0, #0
 909              	.LVL54:
 620:../../core/ST/STM32L4xx_HAL_Driver/Src/stm32l4xx_hal_dma.c **** 
 910              		.loc 1 620 21 view .LVU302
 911 004e E0E7     		b	.L53
 912              		.cfi_endproc
 913              	.LFE128:
 915              		.section	.text.HAL_DMA_PollForTransfer,"ax",%progbits
 916              		.align	1
 917              		.global	HAL_DMA_PollForTransfer
 918              		.syntax unified
 919              		.thumb
 920              		.thumb_func
 921              		.fpu fpv4-sp-d16
 923              	HAL_DMA_PollForTransfer:
 924              	.LVL55:
 925              	.LFB129:
 686:../../core/ST/STM32L4xx_HAL_Driver/Src/stm32l4xx_hal_dma.c ****   uint32_t temp;
 926              		.loc 1 686 1 is_stmt 1 view -0
 927              		.cfi_startproc
 928              		@ args = 0, pretend = 0, frame = 0
 929              		@ frame_needed = 0, uses_anonymous_args = 0
 686:../../core/ST/STM32L4xx_HAL_Driver/Src/stm32l4xx_hal_dma.c ****   uint32_t temp;
 930              		.loc 1 686 1 is_stmt 0 view .LVU304
 931 0000 2DE9F843 		push	{r3, r4, r5, r6, r7, r8, r9, lr}
 932              	.LCFI14:
 933              		.cfi_def_cfa_offset 32
 934              		.cfi_offset 3, -32
 935              		.cfi_offset 4, -28
 936              		.cfi_offset 5, -24
 937              		.cfi_offset 6, -20
 938              		.cfi_offset 7, -16
 939              		.cfi_offset 8, -12
 940              		.cfi_offset 9, -8
 941              		.cfi_offset 14, -4
 687:../../core/ST/STM32L4xx_HAL_Driver/Src/stm32l4xx_hal_dma.c ****   uint32_t tickstart;
 942              		.loc 1 687 3 is_stmt 1 view .LVU305
 688:../../core/ST/STM32L4xx_HAL_Driver/Src/stm32l4xx_hal_dma.c **** 
 943              		.loc 1 688 3 view .LVU306
 690:../../core/ST/STM32L4xx_HAL_Driver/Src/stm32l4xx_hal_dma.c ****   {
 944              		.loc 1 690 3 view .LVU307
 690:../../core/ST/STM32L4xx_HAL_Driver/Src/stm32l4xx_hal_dma.c ****   {
 945              		.loc 1 690 32 is_stmt 0 view .LVU308
 946 0004 90F82530 		ldrb	r3, [r0, #37]	@ zero_extendqisi2
 947 0008 DBB2     		uxtb	r3, r3
 690:../../core/ST/STM32L4xx_HAL_Driver/Src/stm32l4xx_hal_dma.c ****   {
 948              		.loc 1 690 5 view .LVU309
 949 000a 022B     		cmp	r3, #2
 950 000c 07D0     		beq	.L57
ARM GAS  C:\Users\yvesk\AppData\Local\Temp\ccFefcse.s 			page 42


 693:../../core/ST/STM32L4xx_HAL_Driver/Src/stm32l4xx_hal_dma.c ****     __HAL_UNLOCK(hdma);
 951              		.loc 1 693 5 is_stmt 1 view .LVU310
 693:../../core/ST/STM32L4xx_HAL_Driver/Src/stm32l4xx_hal_dma.c ****     __HAL_UNLOCK(hdma);
 952              		.loc 1 693 21 is_stmt 0 view .LVU311
 953 000e 0423     		movs	r3, #4
 954 0010 C363     		str	r3, [r0, #60]
 694:../../core/ST/STM32L4xx_HAL_Driver/Src/stm32l4xx_hal_dma.c ****     return HAL_ERROR;
 955              		.loc 1 694 5 is_stmt 1 view .LVU312
 694:../../core/ST/STM32L4xx_HAL_Driver/Src/stm32l4xx_hal_dma.c ****     return HAL_ERROR;
 956              		.loc 1 694 5 view .LVU313
 957 0012 0023     		movs	r3, #0
 958 0014 80F82430 		strb	r3, [r0, #36]
 695:../../core/ST/STM32L4xx_HAL_Driver/Src/stm32l4xx_hal_dma.c ****   }
 959              		.loc 1 695 5 view .LVU314
 695:../../core/ST/STM32L4xx_HAL_Driver/Src/stm32l4xx_hal_dma.c ****   }
 960              		.loc 1 695 12 is_stmt 0 view .LVU315
 961 0018 0120     		movs	r0, #1
 962              	.LVL56:
 963              	.L58:
 807:../../core/ST/STM32L4xx_HAL_Driver/Src/stm32l4xx_hal_dma.c **** 
 964              		.loc 1 807 1 view .LVU316
 965 001a BDE8F883 		pop	{r3, r4, r5, r6, r7, r8, r9, pc}
 966              	.LVL57:
 967              	.L57:
 699:../../core/ST/STM32L4xx_HAL_Driver/Src/stm32l4xx_hal_dma.c ****   {
 968              		.loc 1 699 3 is_stmt 1 view .LVU317
 699:../../core/ST/STM32L4xx_HAL_Driver/Src/stm32l4xx_hal_dma.c ****   {
 969              		.loc 1 699 18 is_stmt 0 view .LVU318
 970 001e 0368     		ldr	r3, [r0]
 699:../../core/ST/STM32L4xx_HAL_Driver/Src/stm32l4xx_hal_dma.c ****   {
 971              		.loc 1 699 28 view .LVU319
 972 0020 1B68     		ldr	r3, [r3]
 699:../../core/ST/STM32L4xx_HAL_Driver/Src/stm32l4xx_hal_dma.c ****   {
 973              		.loc 1 699 6 view .LVU320
 974 0022 13F0200F 		tst	r3, #32
 975 0026 2CD1     		bne	.L70
 706:../../core/ST/STM32L4xx_HAL_Driver/Src/stm32l4xx_hal_dma.c ****   {
 976              		.loc 1 706 3 is_stmt 1 view .LVU321
 706:../../core/ST/STM32L4xx_HAL_Driver/Src/stm32l4xx_hal_dma.c ****   {
 977              		.loc 1 706 6 is_stmt 0 view .LVU322
 978 0028 81BB     		cbnz	r1, .L60
 709:../../core/ST/STM32L4xx_HAL_Driver/Src/stm32l4xx_hal_dma.c ****   }
 979              		.loc 1 709 5 is_stmt 1 view .LVU323
 709:../../core/ST/STM32L4xx_HAL_Driver/Src/stm32l4xx_hal_dma.c ****   }
 980              		.loc 1 709 33 is_stmt 0 view .LVU324
 981 002a 476C     		ldr	r7, [r0, #68]
 709:../../core/ST/STM32L4xx_HAL_Driver/Src/stm32l4xx_hal_dma.c ****   }
 982              		.loc 1 709 48 view .LVU325
 983 002c 07F01C07 		and	r7, r7, #28
 709:../../core/ST/STM32L4xx_HAL_Driver/Src/stm32l4xx_hal_dma.c ****   }
 984              		.loc 1 709 10 view .LVU326
 985 0030 0223     		movs	r3, #2
 986 0032 03FA07F7 		lsl	r7, r3, r7
 987              	.LVL58:
 988              	.L61:
 709:../../core/ST/STM32L4xx_HAL_Driver/Src/stm32l4xx_hal_dma.c ****   }
 989              		.loc 1 709 10 view .LVU327
ARM GAS  C:\Users\yvesk\AppData\Local\Temp\ccFefcse.s 			page 43


 990 0036 1646     		mov	r6, r2
 991 0038 8846     		mov	r8, r1
 992 003a 0546     		mov	r5, r0
 718:../../core/ST/STM32L4xx_HAL_Driver/Src/stm32l4xx_hal_dma.c **** 
 993              		.loc 1 718 3 is_stmt 1 view .LVU328
 718:../../core/ST/STM32L4xx_HAL_Driver/Src/stm32l4xx_hal_dma.c **** 
 994              		.loc 1 718 15 is_stmt 0 view .LVU329
 995 003c FFF7FEFF 		bl	HAL_GetTick
 996              	.LVL59:
 718:../../core/ST/STM32L4xx_HAL_Driver/Src/stm32l4xx_hal_dma.c **** 
 997              		.loc 1 718 15 view .LVU330
 998 0040 8146     		mov	r9, r0
 999              	.LVL60:
 720:../../core/ST/STM32L4xx_HAL_Driver/Src/stm32l4xx_hal_dma.c ****   {
 1000              		.loc 1 720 3 is_stmt 1 view .LVU331
 1001              	.L64:
 720:../../core/ST/STM32L4xx_HAL_Driver/Src/stm32l4xx_hal_dma.c ****   {
 1002              		.loc 1 720 20 is_stmt 0 view .LVU332
 1003 0042 2A6C     		ldr	r2, [r5, #64]
 720:../../core/ST/STM32L4xx_HAL_Driver/Src/stm32l4xx_hal_dma.c ****   {
 1004              		.loc 1 720 36 view .LVU333
 1005 0044 1368     		ldr	r3, [r2]
 720:../../core/ST/STM32L4xx_HAL_Driver/Src/stm32l4xx_hal_dma.c ****   {
 1006              		.loc 1 720 8 view .LVU334
 1007 0046 3B42     		tst	r3, r7
 1008 0048 32D1     		bne	.L71
 722:../../core/ST/STM32L4xx_HAL_Driver/Src/stm32l4xx_hal_dma.c ****     {
 1009              		.loc 1 722 5 is_stmt 1 view .LVU335
 722:../../core/ST/STM32L4xx_HAL_Driver/Src/stm32l4xx_hal_dma.c ****     {
 1010              		.loc 1 722 36 is_stmt 0 view .LVU336
 1011 004a 1168     		ldr	r1, [r2]
 722:../../core/ST/STM32L4xx_HAL_Driver/Src/stm32l4xx_hal_dma.c ****     {
 1012              		.loc 1 722 66 view .LVU337
 1013 004c 6B6C     		ldr	r3, [r5, #68]
 722:../../core/ST/STM32L4xx_HAL_Driver/Src/stm32l4xx_hal_dma.c ****     {
 1014              		.loc 1 722 80 view .LVU338
 1015 004e 03F01C03 		and	r3, r3, #28
 722:../../core/ST/STM32L4xx_HAL_Driver/Src/stm32l4xx_hal_dma.c ****     {
 1016              		.loc 1 722 58 view .LVU339
 1017 0052 0824     		movs	r4, #8
 1018 0054 9C40     		lsls	r4, r4, r3
 722:../../core/ST/STM32L4xx_HAL_Driver/Src/stm32l4xx_hal_dma.c ****     {
 1019              		.loc 1 722 7 view .LVU340
 1020 0056 2142     		tst	r1, r4
 1021 0058 1FD1     		bne	.L72
 741:../../core/ST/STM32L4xx_HAL_Driver/Src/stm32l4xx_hal_dma.c ****     {
 1022              		.loc 1 741 5 is_stmt 1 view .LVU341
 741:../../core/ST/STM32L4xx_HAL_Driver/Src/stm32l4xx_hal_dma.c ****     {
 1023              		.loc 1 741 7 is_stmt 0 view .LVU342
 1024 005a B6F1FF3F 		cmp	r6, #-1
 1025 005e F0D0     		beq	.L64
 743:../../core/ST/STM32L4xx_HAL_Driver/Src/stm32l4xx_hal_dma.c ****       {
 1026              		.loc 1 743 7 is_stmt 1 view .LVU343
 743:../../core/ST/STM32L4xx_HAL_Driver/Src/stm32l4xx_hal_dma.c ****       {
 1027              		.loc 1 743 12 is_stmt 0 view .LVU344
 1028 0060 FFF7FEFF 		bl	HAL_GetTick
 1029              	.LVL61:
ARM GAS  C:\Users\yvesk\AppData\Local\Temp\ccFefcse.s 			page 44


 743:../../core/ST/STM32L4xx_HAL_Driver/Src/stm32l4xx_hal_dma.c ****       {
 1030              		.loc 1 743 26 view .LVU345
 1031 0064 A0EB0900 		sub	r0, r0, r9
 743:../../core/ST/STM32L4xx_HAL_Driver/Src/stm32l4xx_hal_dma.c ****       {
 1032              		.loc 1 743 9 view .LVU346
 1033 0068 B042     		cmp	r0, r6
 1034 006a 01D8     		bhi	.L65
 743:../../core/ST/STM32L4xx_HAL_Driver/Src/stm32l4xx_hal_dma.c ****       {
 1035              		.loc 1 743 50 discriminator 1 view .LVU347
 1036 006c 002E     		cmp	r6, #0
 1037 006e E8D1     		bne	.L64
 1038              	.L65:
 746:../../core/ST/STM32L4xx_HAL_Driver/Src/stm32l4xx_hal_dma.c **** 
 1039              		.loc 1 746 9 is_stmt 1 view .LVU348
 746:../../core/ST/STM32L4xx_HAL_Driver/Src/stm32l4xx_hal_dma.c **** 
 1040              		.loc 1 746 25 is_stmt 0 view .LVU349
 1041 0070 2023     		movs	r3, #32
 1042 0072 EB63     		str	r3, [r5, #60]
 749:../../core/ST/STM32L4xx_HAL_Driver/Src/stm32l4xx_hal_dma.c **** 
 1043              		.loc 1 749 9 is_stmt 1 view .LVU350
 749:../../core/ST/STM32L4xx_HAL_Driver/Src/stm32l4xx_hal_dma.c **** 
 1044              		.loc 1 749 21 is_stmt 0 view .LVU351
 1045 0074 0120     		movs	r0, #1
 1046 0076 85F82500 		strb	r0, [r5, #37]
 752:../../core/ST/STM32L4xx_HAL_Driver/Src/stm32l4xx_hal_dma.c **** 
 1047              		.loc 1 752 9 is_stmt 1 view .LVU352
 752:../../core/ST/STM32L4xx_HAL_Driver/Src/stm32l4xx_hal_dma.c **** 
 1048              		.loc 1 752 9 view .LVU353
 1049 007a 0023     		movs	r3, #0
 1050 007c 85F82430 		strb	r3, [r5, #36]
 754:../../core/ST/STM32L4xx_HAL_Driver/Src/stm32l4xx_hal_dma.c ****       }
 1051              		.loc 1 754 9 view .LVU354
 754:../../core/ST/STM32L4xx_HAL_Driver/Src/stm32l4xx_hal_dma.c ****       }
 1052              		.loc 1 754 16 is_stmt 0 view .LVU355
 1053 0080 CBE7     		b	.L58
 1054              	.LVL62:
 1055              	.L70:
 701:../../core/ST/STM32L4xx_HAL_Driver/Src/stm32l4xx_hal_dma.c ****     return HAL_ERROR;
 1056              		.loc 1 701 5 is_stmt 1 view .LVU356
 701:../../core/ST/STM32L4xx_HAL_Driver/Src/stm32l4xx_hal_dma.c ****     return HAL_ERROR;
 1057              		.loc 1 701 21 is_stmt 0 view .LVU357
 1058 0082 4FF48073 		mov	r3, #256
 1059 0086 C363     		str	r3, [r0, #60]
 702:../../core/ST/STM32L4xx_HAL_Driver/Src/stm32l4xx_hal_dma.c ****   }
 1060              		.loc 1 702 5 is_stmt 1 view .LVU358
 702:../../core/ST/STM32L4xx_HAL_Driver/Src/stm32l4xx_hal_dma.c ****   }
 1061              		.loc 1 702 12 is_stmt 0 view .LVU359
 1062 0088 0120     		movs	r0, #1
 1063              	.LVL63:
 702:../../core/ST/STM32L4xx_HAL_Driver/Src/stm32l4xx_hal_dma.c ****   }
 1064              		.loc 1 702 12 view .LVU360
 1065 008a C6E7     		b	.L58
 1066              	.LVL64:
 1067              	.L60:
 714:../../core/ST/STM32L4xx_HAL_Driver/Src/stm32l4xx_hal_dma.c ****   }
 1068              		.loc 1 714 5 is_stmt 1 view .LVU361
 714:../../core/ST/STM32L4xx_HAL_Driver/Src/stm32l4xx_hal_dma.c ****   }
ARM GAS  C:\Users\yvesk\AppData\Local\Temp\ccFefcse.s 			page 45


 1069              		.loc 1 714 33 is_stmt 0 view .LVU362
 1070 008c 476C     		ldr	r7, [r0, #68]
 714:../../core/ST/STM32L4xx_HAL_Driver/Src/stm32l4xx_hal_dma.c ****   }
 1071              		.loc 1 714 48 view .LVU363
 1072 008e 07F01C07 		and	r7, r7, #28
 714:../../core/ST/STM32L4xx_HAL_Driver/Src/stm32l4xx_hal_dma.c ****   }
 1073              		.loc 1 714 10 view .LVU364
 1074 0092 0423     		movs	r3, #4
 1075 0094 03FA07F7 		lsl	r7, r3, r7
 1076              	.LVL65:
 714:../../core/ST/STM32L4xx_HAL_Driver/Src/stm32l4xx_hal_dma.c ****   }
 1077              		.loc 1 714 10 view .LVU365
 1078 0098 CDE7     		b	.L61
 1079              	.LVL66:
 1080              	.L72:
 727:../../core/ST/STM32L4xx_HAL_Driver/Src/stm32l4xx_hal_dma.c **** 
 1081              		.loc 1 727 7 is_stmt 1 view .LVU366
 727:../../core/ST/STM32L4xx_HAL_Driver/Src/stm32l4xx_hal_dma.c **** 
 1082              		.loc 1 727 50 is_stmt 0 view .LVU367
 1083 009a 0120     		movs	r0, #1
 1084 009c 00FA03F3 		lsl	r3, r0, r3
 727:../../core/ST/STM32L4xx_HAL_Driver/Src/stm32l4xx_hal_dma.c **** 
 1085              		.loc 1 727 34 view .LVU368
 1086 00a0 5360     		str	r3, [r2, #4]
 730:../../core/ST/STM32L4xx_HAL_Driver/Src/stm32l4xx_hal_dma.c **** 
 1087              		.loc 1 730 7 is_stmt 1 view .LVU369
 730:../../core/ST/STM32L4xx_HAL_Driver/Src/stm32l4xx_hal_dma.c **** 
 1088              		.loc 1 730 23 is_stmt 0 view .LVU370
 1089 00a2 E863     		str	r0, [r5, #60]
 733:../../core/ST/STM32L4xx_HAL_Driver/Src/stm32l4xx_hal_dma.c **** 
 1090              		.loc 1 733 7 is_stmt 1 view .LVU371
 733:../../core/ST/STM32L4xx_HAL_Driver/Src/stm32l4xx_hal_dma.c **** 
 1091              		.loc 1 733 18 is_stmt 0 view .LVU372
 1092 00a4 85F82500 		strb	r0, [r5, #37]
 736:../../core/ST/STM32L4xx_HAL_Driver/Src/stm32l4xx_hal_dma.c **** 
 1093              		.loc 1 736 7 is_stmt 1 view .LVU373
 736:../../core/ST/STM32L4xx_HAL_Driver/Src/stm32l4xx_hal_dma.c **** 
 1094              		.loc 1 736 7 view .LVU374
 1095 00a8 0023     		movs	r3, #0
 1096 00aa 85F82430 		strb	r3, [r5, #36]
 738:../../core/ST/STM32L4xx_HAL_Driver/Src/stm32l4xx_hal_dma.c ****     }
 1097              		.loc 1 738 7 view .LVU375
 738:../../core/ST/STM32L4xx_HAL_Driver/Src/stm32l4xx_hal_dma.c ****     }
 1098              		.loc 1 738 14 is_stmt 0 view .LVU376
 1099 00ae B4E7     		b	.L58
 1100              	.L71:
 788:../../core/ST/STM32L4xx_HAL_Driver/Src/stm32l4xx_hal_dma.c ****   {
 1101              		.loc 1 788 3 is_stmt 1 view .LVU377
 788:../../core/ST/STM32L4xx_HAL_Driver/Src/stm32l4xx_hal_dma.c ****   {
 1102              		.loc 1 788 5 is_stmt 0 view .LVU378
 1103 00b0 B8F1000F 		cmp	r8, #0
 1104 00b4 0CD1     		bne	.L67
 791:../../core/ST/STM32L4xx_HAL_Driver/Src/stm32l4xx_hal_dma.c **** 
 1105              		.loc 1 791 5 is_stmt 1 view .LVU379
 791:../../core/ST/STM32L4xx_HAL_Driver/Src/stm32l4xx_hal_dma.c **** 
 1106              		.loc 1 791 56 is_stmt 0 view .LVU380
 1107 00b6 6B6C     		ldr	r3, [r5, #68]
ARM GAS  C:\Users\yvesk\AppData\Local\Temp\ccFefcse.s 			page 46


 791:../../core/ST/STM32L4xx_HAL_Driver/Src/stm32l4xx_hal_dma.c **** 
 1108              		.loc 1 791 70 view .LVU381
 1109 00b8 03F01C01 		and	r1, r3, #28
 791:../../core/ST/STM32L4xx_HAL_Driver/Src/stm32l4xx_hal_dma.c **** 
 1110              		.loc 1 791 48 view .LVU382
 1111 00bc 0223     		movs	r3, #2
 1112 00be 8B40     		lsls	r3, r3, r1
 791:../../core/ST/STM32L4xx_HAL_Driver/Src/stm32l4xx_hal_dma.c **** 
 1113              		.loc 1 791 32 view .LVU383
 1114 00c0 5360     		str	r3, [r2, #4]
 795:../../core/ST/STM32L4xx_HAL_Driver/Src/stm32l4xx_hal_dma.c ****   }
 1115              		.loc 1 795 5 is_stmt 1 view .LVU384
 795:../../core/ST/STM32L4xx_HAL_Driver/Src/stm32l4xx_hal_dma.c ****   }
 1116              		.loc 1 795 17 is_stmt 0 view .LVU385
 1117 00c2 0123     		movs	r3, #1
 1118 00c4 85F82530 		strb	r3, [r5, #37]
 1119              	.L68:
 804:../../core/ST/STM32L4xx_HAL_Driver/Src/stm32l4xx_hal_dma.c **** 
 1120              		.loc 1 804 3 is_stmt 1 view .LVU386
 804:../../core/ST/STM32L4xx_HAL_Driver/Src/stm32l4xx_hal_dma.c **** 
 1121              		.loc 1 804 3 view .LVU387
 1122 00c8 0020     		movs	r0, #0
 1123 00ca 85F82400 		strb	r0, [r5, #36]
 806:../../core/ST/STM32L4xx_HAL_Driver/Src/stm32l4xx_hal_dma.c **** }
 1124              		.loc 1 806 3 view .LVU388
 806:../../core/ST/STM32L4xx_HAL_Driver/Src/stm32l4xx_hal_dma.c **** }
 1125              		.loc 1 806 10 is_stmt 0 view .LVU389
 1126 00ce A4E7     		b	.L58
 1127              	.L67:
 800:../../core/ST/STM32L4xx_HAL_Driver/Src/stm32l4xx_hal_dma.c ****   }
 1128              		.loc 1 800 5 is_stmt 1 view .LVU390
 800:../../core/ST/STM32L4xx_HAL_Driver/Src/stm32l4xx_hal_dma.c ****   }
 1129              		.loc 1 800 56 is_stmt 0 view .LVU391
 1130 00d0 6B6C     		ldr	r3, [r5, #68]
 800:../../core/ST/STM32L4xx_HAL_Driver/Src/stm32l4xx_hal_dma.c ****   }
 1131              		.loc 1 800 71 view .LVU392
 1132 00d2 03F01C01 		and	r1, r3, #28
 800:../../core/ST/STM32L4xx_HAL_Driver/Src/stm32l4xx_hal_dma.c ****   }
 1133              		.loc 1 800 48 view .LVU393
 1134 00d6 0423     		movs	r3, #4
 1135 00d8 8B40     		lsls	r3, r3, r1
 800:../../core/ST/STM32L4xx_HAL_Driver/Src/stm32l4xx_hal_dma.c ****   }
 1136              		.loc 1 800 32 view .LVU394
 1137 00da 5360     		str	r3, [r2, #4]
 1138 00dc F4E7     		b	.L68
 1139              		.cfi_endproc
 1140              	.LFE129:
 1142              		.section	.text.HAL_DMA_IRQHandler,"ax",%progbits
 1143              		.align	1
 1144              		.global	HAL_DMA_IRQHandler
 1145              		.syntax unified
 1146              		.thumb
 1147              		.thumb_func
 1148              		.fpu fpv4-sp-d16
 1150              	HAL_DMA_IRQHandler:
 1151              	.LVL67:
 1152              	.LFB130:
ARM GAS  C:\Users\yvesk\AppData\Local\Temp\ccFefcse.s 			page 47


 816:../../core/ST/STM32L4xx_HAL_Driver/Src/stm32l4xx_hal_dma.c ****   uint32_t flag_it = hdma->DmaBaseAddress->ISR;
 1153              		.loc 1 816 1 is_stmt 1 view -0
 1154              		.cfi_startproc
 1155              		@ args = 0, pretend = 0, frame = 0
 1156              		@ frame_needed = 0, uses_anonymous_args = 0
 816:../../core/ST/STM32L4xx_HAL_Driver/Src/stm32l4xx_hal_dma.c ****   uint32_t flag_it = hdma->DmaBaseAddress->ISR;
 1157              		.loc 1 816 1 is_stmt 0 view .LVU396
 1158 0000 38B5     		push	{r3, r4, r5, lr}
 1159              	.LCFI15:
 1160              		.cfi_def_cfa_offset 16
 1161              		.cfi_offset 3, -16
 1162              		.cfi_offset 4, -12
 1163              		.cfi_offset 5, -8
 1164              		.cfi_offset 14, -4
 817:../../core/ST/STM32L4xx_HAL_Driver/Src/stm32l4xx_hal_dma.c ****   uint32_t source_it = hdma->Instance->CCR;
 1165              		.loc 1 817 3 is_stmt 1 view .LVU397
 817:../../core/ST/STM32L4xx_HAL_Driver/Src/stm32l4xx_hal_dma.c ****   uint32_t source_it = hdma->Instance->CCR;
 1166              		.loc 1 817 26 is_stmt 0 view .LVU398
 1167 0002 036C     		ldr	r3, [r0, #64]
 817:../../core/ST/STM32L4xx_HAL_Driver/Src/stm32l4xx_hal_dma.c ****   uint32_t source_it = hdma->Instance->CCR;
 1168              		.loc 1 817 12 view .LVU399
 1169 0004 1968     		ldr	r1, [r3]
 1170              	.LVL68:
 818:../../core/ST/STM32L4xx_HAL_Driver/Src/stm32l4xx_hal_dma.c **** 
 1171              		.loc 1 818 3 is_stmt 1 view .LVU400
 818:../../core/ST/STM32L4xx_HAL_Driver/Src/stm32l4xx_hal_dma.c **** 
 1172              		.loc 1 818 28 is_stmt 0 view .LVU401
 1173 0006 0468     		ldr	r4, [r0]
 818:../../core/ST/STM32L4xx_HAL_Driver/Src/stm32l4xx_hal_dma.c **** 
 1174              		.loc 1 818 12 view .LVU402
 1175 0008 2568     		ldr	r5, [r4]
 1176              	.LVL69:
 821:../../core/ST/STM32L4xx_HAL_Driver/Src/stm32l4xx_hal_dma.c ****   {
 1177              		.loc 1 821 3 is_stmt 1 view .LVU403
 821:../../core/ST/STM32L4xx_HAL_Driver/Src/stm32l4xx_hal_dma.c ****   {
 1178              		.loc 1 821 47 is_stmt 0 view .LVU404
 1179 000a 436C     		ldr	r3, [r0, #68]
 821:../../core/ST/STM32L4xx_HAL_Driver/Src/stm32l4xx_hal_dma.c ****   {
 1180              		.loc 1 821 62 view .LVU405
 1181 000c 03F01C03 		and	r3, r3, #28
 821:../../core/ST/STM32L4xx_HAL_Driver/Src/stm32l4xx_hal_dma.c ****   {
 1182              		.loc 1 821 39 view .LVU406
 1183 0010 0422     		movs	r2, #4
 1184 0012 9A40     		lsls	r2, r2, r3
 821:../../core/ST/STM32L4xx_HAL_Driver/Src/stm32l4xx_hal_dma.c ****   {
 1185              		.loc 1 821 6 view .LVU407
 1186 0014 0A42     		tst	r2, r1
 1187 0016 15D0     		beq	.L74
 821:../../core/ST/STM32L4xx_HAL_Driver/Src/stm32l4xx_hal_dma.c ****   {
 1188              		.loc 1 821 74 discriminator 1 view .LVU408
 1189 0018 15F0040F 		tst	r5, #4
 1190 001c 12D0     		beq	.L74
 824:../../core/ST/STM32L4xx_HAL_Driver/Src/stm32l4xx_hal_dma.c ****       {
 1191              		.loc 1 824 7 is_stmt 1 view .LVU409
 824:../../core/ST/STM32L4xx_HAL_Driver/Src/stm32l4xx_hal_dma.c ****       {
 1192              		.loc 1 824 25 is_stmt 0 view .LVU410
 1193 001e 2368     		ldr	r3, [r4]
ARM GAS  C:\Users\yvesk\AppData\Local\Temp\ccFefcse.s 			page 48


 824:../../core/ST/STM32L4xx_HAL_Driver/Src/stm32l4xx_hal_dma.c ****       {
 1194              		.loc 1 824 9 view .LVU411
 1195 0020 13F0200F 		tst	r3, #32
 1196 0024 03D1     		bne	.L75
 827:../../core/ST/STM32L4xx_HAL_Driver/Src/stm32l4xx_hal_dma.c ****       }
 1197              		.loc 1 827 9 is_stmt 1 view .LVU412
 1198 0026 2368     		ldr	r3, [r4]
 1199 0028 23F00403 		bic	r3, r3, #4
 1200 002c 2360     		str	r3, [r4]
 1201              	.L75:
 830:../../core/ST/STM32L4xx_HAL_Driver/Src/stm32l4xx_hal_dma.c **** 
 1202              		.loc 1 830 7 view .LVU413
 830:../../core/ST/STM32L4xx_HAL_Driver/Src/stm32l4xx_hal_dma.c **** 
 1203              		.loc 1 830 58 is_stmt 0 view .LVU414
 1204 002e 436C     		ldr	r3, [r0, #68]
 830:../../core/ST/STM32L4xx_HAL_Driver/Src/stm32l4xx_hal_dma.c **** 
 1205              		.loc 1 830 73 view .LVU415
 1206 0030 03F01C02 		and	r2, r3, #28
 830:../../core/ST/STM32L4xx_HAL_Driver/Src/stm32l4xx_hal_dma.c **** 
 1207              		.loc 1 830 11 view .LVU416
 1208 0034 016C     		ldr	r1, [r0, #64]
 1209              	.LVL70:
 830:../../core/ST/STM32L4xx_HAL_Driver/Src/stm32l4xx_hal_dma.c **** 
 1210              		.loc 1 830 50 view .LVU417
 1211 0036 0423     		movs	r3, #4
 1212 0038 9340     		lsls	r3, r3, r2
 830:../../core/ST/STM32L4xx_HAL_Driver/Src/stm32l4xx_hal_dma.c **** 
 1213              		.loc 1 830 34 view .LVU418
 1214 003a 4B60     		str	r3, [r1, #4]
 835:../../core/ST/STM32L4xx_HAL_Driver/Src/stm32l4xx_hal_dma.c ****       {
 1215              		.loc 1 835 6 is_stmt 1 view .LVU419
 835:../../core/ST/STM32L4xx_HAL_Driver/Src/stm32l4xx_hal_dma.c ****       {
 1216              		.loc 1 835 13 is_stmt 0 view .LVU420
 1217 003c 036B     		ldr	r3, [r0, #48]
 835:../../core/ST/STM32L4xx_HAL_Driver/Src/stm32l4xx_hal_dma.c ****       {
 1218              		.loc 1 835 8 view .LVU421
 1219 003e 03B1     		cbz	r3, .L73
 838:../../core/ST/STM32L4xx_HAL_Driver/Src/stm32l4xx_hal_dma.c ****       }
 1220              		.loc 1 838 9 is_stmt 1 view .LVU422
 1221 0040 9847     		blx	r3
 1222              	.LVL71:
 1223              	.L73:
 897:../../core/ST/STM32L4xx_HAL_Driver/Src/stm32l4xx_hal_dma.c **** 
 1224              		.loc 1 897 1 is_stmt 0 view .LVU423
 1225 0042 38BD     		pop	{r3, r4, r5, pc}
 1226              	.LVL72:
 1227              	.L74:
 843:../../core/ST/STM32L4xx_HAL_Driver/Src/stm32l4xx_hal_dma.c ****   {
 1228              		.loc 1 843 8 is_stmt 1 view .LVU424
 843:../../core/ST/STM32L4xx_HAL_Driver/Src/stm32l4xx_hal_dma.c ****   {
 1229              		.loc 1 843 44 is_stmt 0 view .LVU425
 1230 0044 0222     		movs	r2, #2
 1231 0046 9A40     		lsls	r2, r2, r3
 843:../../core/ST/STM32L4xx_HAL_Driver/Src/stm32l4xx_hal_dma.c ****   {
 1232              		.loc 1 843 11 view .LVU426
 1233 0048 0A42     		tst	r2, r1
 1234 004a 1CD0     		beq	.L77
ARM GAS  C:\Users\yvesk\AppData\Local\Temp\ccFefcse.s 			page 49


 843:../../core/ST/STM32L4xx_HAL_Driver/Src/stm32l4xx_hal_dma.c ****   {
 1235              		.loc 1 843 79 discriminator 1 view .LVU427
 1236 004c 15F0020F 		tst	r5, #2
 1237 0050 19D0     		beq	.L77
 845:../../core/ST/STM32L4xx_HAL_Driver/Src/stm32l4xx_hal_dma.c ****     {
 1238              		.loc 1 845 5 is_stmt 1 view .LVU428
 845:../../core/ST/STM32L4xx_HAL_Driver/Src/stm32l4xx_hal_dma.c ****     {
 1239              		.loc 1 845 23 is_stmt 0 view .LVU429
 1240 0052 2368     		ldr	r3, [r4]
 845:../../core/ST/STM32L4xx_HAL_Driver/Src/stm32l4xx_hal_dma.c ****     {
 1241              		.loc 1 845 7 view .LVU430
 1242 0054 13F0200F 		tst	r3, #32
 1243 0058 06D1     		bne	.L78
 848:../../core/ST/STM32L4xx_HAL_Driver/Src/stm32l4xx_hal_dma.c **** 
 1244              		.loc 1 848 7 is_stmt 1 view .LVU431
 1245 005a 2368     		ldr	r3, [r4]
 1246 005c 23F00A03 		bic	r3, r3, #10
 1247 0060 2360     		str	r3, [r4]
 851:../../core/ST/STM32L4xx_HAL_Driver/Src/stm32l4xx_hal_dma.c ****     }
 1248              		.loc 1 851 7 view .LVU432
 851:../../core/ST/STM32L4xx_HAL_Driver/Src/stm32l4xx_hal_dma.c ****     }
 1249              		.loc 1 851 19 is_stmt 0 view .LVU433
 1250 0062 0123     		movs	r3, #1
 1251 0064 80F82530 		strb	r3, [r0, #37]
 1252              	.L78:
 854:../../core/ST/STM32L4xx_HAL_Driver/Src/stm32l4xx_hal_dma.c **** 
 1253              		.loc 1 854 5 is_stmt 1 view .LVU434
 854:../../core/ST/STM32L4xx_HAL_Driver/Src/stm32l4xx_hal_dma.c **** 
 1254              		.loc 1 854 57 is_stmt 0 view .LVU435
 1255 0068 436C     		ldr	r3, [r0, #68]
 854:../../core/ST/STM32L4xx_HAL_Driver/Src/stm32l4xx_hal_dma.c **** 
 1256              		.loc 1 854 72 view .LVU436
 1257 006a 03F01C02 		and	r2, r3, #28
 854:../../core/ST/STM32L4xx_HAL_Driver/Src/stm32l4xx_hal_dma.c **** 
 1258              		.loc 1 854 9 view .LVU437
 1259 006e 016C     		ldr	r1, [r0, #64]
 1260              	.LVL73:
 854:../../core/ST/STM32L4xx_HAL_Driver/Src/stm32l4xx_hal_dma.c **** 
 1261              		.loc 1 854 49 view .LVU438
 1262 0070 0223     		movs	r3, #2
 1263 0072 9340     		lsls	r3, r3, r2
 854:../../core/ST/STM32L4xx_HAL_Driver/Src/stm32l4xx_hal_dma.c **** 
 1264              		.loc 1 854 32 view .LVU439
 1265 0074 4B60     		str	r3, [r1, #4]
 857:../../core/ST/STM32L4xx_HAL_Driver/Src/stm32l4xx_hal_dma.c **** 
 1266              		.loc 1 857 5 is_stmt 1 view .LVU440
 857:../../core/ST/STM32L4xx_HAL_Driver/Src/stm32l4xx_hal_dma.c **** 
 1267              		.loc 1 857 5 view .LVU441
 1268 0076 0023     		movs	r3, #0
 1269 0078 80F82430 		strb	r3, [r0, #36]
 859:../../core/ST/STM32L4xx_HAL_Driver/Src/stm32l4xx_hal_dma.c ****     {
 1270              		.loc 1 859 5 view .LVU442
 859:../../core/ST/STM32L4xx_HAL_Driver/Src/stm32l4xx_hal_dma.c ****     {
 1271              		.loc 1 859 12 is_stmt 0 view .LVU443
 1272 007c C36A     		ldr	r3, [r0, #44]
 859:../../core/ST/STM32L4xx_HAL_Driver/Src/stm32l4xx_hal_dma.c ****     {
 1273              		.loc 1 859 7 view .LVU444
ARM GAS  C:\Users\yvesk\AppData\Local\Temp\ccFefcse.s 			page 50


 1274 007e 002B     		cmp	r3, #0
 1275 0080 DFD0     		beq	.L73
 862:../../core/ST/STM32L4xx_HAL_Driver/Src/stm32l4xx_hal_dma.c ****     }
 1276              		.loc 1 862 7 is_stmt 1 view .LVU445
 1277 0082 9847     		blx	r3
 1278              	.LVL74:
 862:../../core/ST/STM32L4xx_HAL_Driver/Src/stm32l4xx_hal_dma.c ****     }
 1279              		.loc 1 862 7 is_stmt 0 view .LVU446
 1280 0084 DDE7     		b	.L73
 1281              	.LVL75:
 1282              	.L77:
 867:../../core/ST/STM32L4xx_HAL_Driver/Src/stm32l4xx_hal_dma.c ****   {
 1283              		.loc 1 867 8 is_stmt 1 view .LVU447
 867:../../core/ST/STM32L4xx_HAL_Driver/Src/stm32l4xx_hal_dma.c ****   {
 1284              		.loc 1 867 44 is_stmt 0 view .LVU448
 1285 0086 0822     		movs	r2, #8
 1286 0088 02FA03F3 		lsl	r3, r2, r3
 867:../../core/ST/STM32L4xx_HAL_Driver/Src/stm32l4xx_hal_dma.c ****   {
 1287              		.loc 1 867 11 view .LVU449
 1288 008c 0B42     		tst	r3, r1
 1289 008e D8D0     		beq	.L73
 867:../../core/ST/STM32L4xx_HAL_Driver/Src/stm32l4xx_hal_dma.c ****   {
 1290              		.loc 1 867 79 discriminator 1 view .LVU450
 1291 0090 15F0080F 		tst	r5, #8
 1292 0094 D5D0     		beq	.L73
 872:../../core/ST/STM32L4xx_HAL_Driver/Src/stm32l4xx_hal_dma.c **** 
 1293              		.loc 1 872 5 is_stmt 1 view .LVU451
 1294 0096 2368     		ldr	r3, [r4]
 1295 0098 23F00E03 		bic	r3, r3, #14
 1296 009c 2360     		str	r3, [r4]
 875:../../core/ST/STM32L4xx_HAL_Driver/Src/stm32l4xx_hal_dma.c **** 
 1297              		.loc 1 875 5 view .LVU452
 875:../../core/ST/STM32L4xx_HAL_Driver/Src/stm32l4xx_hal_dma.c **** 
 1298              		.loc 1 875 56 is_stmt 0 view .LVU453
 1299 009e 436C     		ldr	r3, [r0, #68]
 875:../../core/ST/STM32L4xx_HAL_Driver/Src/stm32l4xx_hal_dma.c **** 
 1300              		.loc 1 875 71 view .LVU454
 1301 00a0 03F01C03 		and	r3, r3, #28
 875:../../core/ST/STM32L4xx_HAL_Driver/Src/stm32l4xx_hal_dma.c **** 
 1302              		.loc 1 875 9 view .LVU455
 1303 00a4 016C     		ldr	r1, [r0, #64]
 1304              	.LVL76:
 875:../../core/ST/STM32L4xx_HAL_Driver/Src/stm32l4xx_hal_dma.c **** 
 1305              		.loc 1 875 48 view .LVU456
 1306 00a6 0122     		movs	r2, #1
 1307 00a8 02FA03F3 		lsl	r3, r2, r3
 875:../../core/ST/STM32L4xx_HAL_Driver/Src/stm32l4xx_hal_dma.c **** 
 1308              		.loc 1 875 32 view .LVU457
 1309 00ac 4B60     		str	r3, [r1, #4]
 878:../../core/ST/STM32L4xx_HAL_Driver/Src/stm32l4xx_hal_dma.c **** 
 1310              		.loc 1 878 5 is_stmt 1 view .LVU458
 878:../../core/ST/STM32L4xx_HAL_Driver/Src/stm32l4xx_hal_dma.c **** 
 1311              		.loc 1 878 21 is_stmt 0 view .LVU459
 1312 00ae C263     		str	r2, [r0, #60]
 881:../../core/ST/STM32L4xx_HAL_Driver/Src/stm32l4xx_hal_dma.c **** 
 1313              		.loc 1 881 5 is_stmt 1 view .LVU460
 881:../../core/ST/STM32L4xx_HAL_Driver/Src/stm32l4xx_hal_dma.c **** 
ARM GAS  C:\Users\yvesk\AppData\Local\Temp\ccFefcse.s 			page 51


 1314              		.loc 1 881 17 is_stmt 0 view .LVU461
 1315 00b0 80F82520 		strb	r2, [r0, #37]
 884:../../core/ST/STM32L4xx_HAL_Driver/Src/stm32l4xx_hal_dma.c **** 
 1316              		.loc 1 884 5 is_stmt 1 view .LVU462
 884:../../core/ST/STM32L4xx_HAL_Driver/Src/stm32l4xx_hal_dma.c **** 
 1317              		.loc 1 884 5 view .LVU463
 1318 00b4 0023     		movs	r3, #0
 1319 00b6 80F82430 		strb	r3, [r0, #36]
 886:../../core/ST/STM32L4xx_HAL_Driver/Src/stm32l4xx_hal_dma.c ****     {
 1320              		.loc 1 886 5 view .LVU464
 886:../../core/ST/STM32L4xx_HAL_Driver/Src/stm32l4xx_hal_dma.c ****     {
 1321              		.loc 1 886 13 is_stmt 0 view .LVU465
 1322 00ba 436B     		ldr	r3, [r0, #52]
 886:../../core/ST/STM32L4xx_HAL_Driver/Src/stm32l4xx_hal_dma.c ****     {
 1323              		.loc 1 886 8 view .LVU466
 1324 00bc 002B     		cmp	r3, #0
 1325 00be C0D0     		beq	.L73
 889:../../core/ST/STM32L4xx_HAL_Driver/Src/stm32l4xx_hal_dma.c ****     }
 1326              		.loc 1 889 7 is_stmt 1 view .LVU467
 1327 00c0 9847     		blx	r3
 1328              	.LVL77:
 895:../../core/ST/STM32L4xx_HAL_Driver/Src/stm32l4xx_hal_dma.c ****   return;
 1329              		.loc 1 895 3 view .LVU468
 896:../../core/ST/STM32L4xx_HAL_Driver/Src/stm32l4xx_hal_dma.c **** }
 1330              		.loc 1 896 3 view .LVU469
 1331 00c2 BEE7     		b	.L73
 1332              		.cfi_endproc
 1333              	.LFE130:
 1335              		.section	.text.HAL_DMA_RegisterCallback,"ax",%progbits
 1336              		.align	1
 1337              		.global	HAL_DMA_RegisterCallback
 1338              		.syntax unified
 1339              		.thumb
 1340              		.thumb_func
 1341              		.fpu fpv4-sp-d16
 1343              	HAL_DMA_RegisterCallback:
 1344              	.LVL78:
 1345              	.LFB131:
 910:../../core/ST/STM32L4xx_HAL_Driver/Src/stm32l4xx_hal_dma.c ****   HAL_StatusTypeDef status = HAL_OK;
 1346              		.loc 1 910 1 view -0
 1347              		.cfi_startproc
 1348              		@ args = 0, pretend = 0, frame = 0
 1349              		@ frame_needed = 0, uses_anonymous_args = 0
 1350              		@ link register save eliminated.
 911:../../core/ST/STM32L4xx_HAL_Driver/Src/stm32l4xx_hal_dma.c **** 
 1351              		.loc 1 911 3 view .LVU471
 914:../../core/ST/STM32L4xx_HAL_Driver/Src/stm32l4xx_hal_dma.c **** 
 1352              		.loc 1 914 3 view .LVU472
 914:../../core/ST/STM32L4xx_HAL_Driver/Src/stm32l4xx_hal_dma.c **** 
 1353              		.loc 1 914 3 view .LVU473
 1354 0000 90F82430 		ldrb	r3, [r0, #36]	@ zero_extendqisi2
 1355 0004 012B     		cmp	r3, #1
 1356 0006 1FD0     		beq	.L88
 914:../../core/ST/STM32L4xx_HAL_Driver/Src/stm32l4xx_hal_dma.c **** 
 1357              		.loc 1 914 3 discriminator 2 view .LVU474
 1358 0008 0123     		movs	r3, #1
 1359 000a 80F82430 		strb	r3, [r0, #36]
ARM GAS  C:\Users\yvesk\AppData\Local\Temp\ccFefcse.s 			page 52


 916:../../core/ST/STM32L4xx_HAL_Driver/Src/stm32l4xx_hal_dma.c ****   {
 1360              		.loc 1 916 3 discriminator 2 view .LVU475
 916:../../core/ST/STM32L4xx_HAL_Driver/Src/stm32l4xx_hal_dma.c ****   {
 1361              		.loc 1 916 33 is_stmt 0 discriminator 2 view .LVU476
 1362 000e 90F82530 		ldrb	r3, [r0, #37]	@ zero_extendqisi2
 1363 0012 DBB2     		uxtb	r3, r3
 916:../../core/ST/STM32L4xx_HAL_Driver/Src/stm32l4xx_hal_dma.c ****   {
 1364              		.loc 1 916 5 discriminator 2 view .LVU477
 1365 0014 012B     		cmp	r3, #1
 1366 0016 05D0     		beq	.L90
 943:../../core/ST/STM32L4xx_HAL_Driver/Src/stm32l4xx_hal_dma.c ****   }
 1367              		.loc 1 943 12 view .LVU478
 1368 0018 0123     		movs	r3, #1
 1369              	.L82:
 1370              	.LVL79:
 947:../../core/ST/STM32L4xx_HAL_Driver/Src/stm32l4xx_hal_dma.c **** 
 1371              		.loc 1 947 3 is_stmt 1 view .LVU479
 947:../../core/ST/STM32L4xx_HAL_Driver/Src/stm32l4xx_hal_dma.c **** 
 1372              		.loc 1 947 3 view .LVU480
 1373 001a 0022     		movs	r2, #0
 1374              	.LVL80:
 947:../../core/ST/STM32L4xx_HAL_Driver/Src/stm32l4xx_hal_dma.c **** 
 1375              		.loc 1 947 3 is_stmt 0 view .LVU481
 1376 001c 80F82420 		strb	r2, [r0, #36]
 949:../../core/ST/STM32L4xx_HAL_Driver/Src/stm32l4xx_hal_dma.c **** }
 1377              		.loc 1 949 3 is_stmt 1 view .LVU482
 1378              	.LVL81:
 1379              	.L81:
 950:../../core/ST/STM32L4xx_HAL_Driver/Src/stm32l4xx_hal_dma.c **** 
 1380              		.loc 1 950 1 is_stmt 0 view .LVU483
 1381 0020 1846     		mov	r0, r3
 1382              	.LVL82:
 950:../../core/ST/STM32L4xx_HAL_Driver/Src/stm32l4xx_hal_dma.c **** 
 1383              		.loc 1 950 1 view .LVU484
 1384 0022 7047     		bx	lr
 1385              	.LVL83:
 1386              	.L90:
 918:../../core/ST/STM32L4xx_HAL_Driver/Src/stm32l4xx_hal_dma.c ****     {
 1387              		.loc 1 918 5 is_stmt 1 view .LVU485
 1388 0024 0329     		cmp	r1, #3
 1389 0026 F8D8     		bhi	.L82
 1390 0028 DFE801F0 		tbb	[pc, r1]
 1391              	.L84:
 1392 002c 02       		.byte	(.L87-.L84)/2
 1393 002d 05       		.byte	(.L86-.L84)/2
 1394 002e 08       		.byte	(.L85-.L84)/2
 1395 002f 0B       		.byte	(.L83-.L84)/2
 1396              		.p2align 1
 1397              	.L87:
 921:../../core/ST/STM32L4xx_HAL_Driver/Src/stm32l4xx_hal_dma.c ****            break;
 1398              		.loc 1 921 12 view .LVU486
 921:../../core/ST/STM32L4xx_HAL_Driver/Src/stm32l4xx_hal_dma.c ****            break;
 1399              		.loc 1 921 35 is_stmt 0 view .LVU487
 1400 0030 C262     		str	r2, [r0, #44]
 922:../../core/ST/STM32L4xx_HAL_Driver/Src/stm32l4xx_hal_dma.c **** 
 1401              		.loc 1 922 12 is_stmt 1 view .LVU488
 911:../../core/ST/STM32L4xx_HAL_Driver/Src/stm32l4xx_hal_dma.c **** 
ARM GAS  C:\Users\yvesk\AppData\Local\Temp\ccFefcse.s 			page 53


 1402              		.loc 1 911 21 is_stmt 0 view .LVU489
 1403 0032 0B46     		mov	r3, r1
 922:../../core/ST/STM32L4xx_HAL_Driver/Src/stm32l4xx_hal_dma.c **** 
 1404              		.loc 1 922 12 view .LVU490
 1405 0034 F1E7     		b	.L82
 1406              	.L86:
 925:../../core/ST/STM32L4xx_HAL_Driver/Src/stm32l4xx_hal_dma.c ****            break;
 1407              		.loc 1 925 12 is_stmt 1 view .LVU491
 925:../../core/ST/STM32L4xx_HAL_Driver/Src/stm32l4xx_hal_dma.c ****            break;
 1408              		.loc 1 925 39 is_stmt 0 view .LVU492
 1409 0036 0263     		str	r2, [r0, #48]
 926:../../core/ST/STM32L4xx_HAL_Driver/Src/stm32l4xx_hal_dma.c **** 
 1410              		.loc 1 926 12 is_stmt 1 view .LVU493
 911:../../core/ST/STM32L4xx_HAL_Driver/Src/stm32l4xx_hal_dma.c **** 
 1411              		.loc 1 911 21 is_stmt 0 view .LVU494
 1412 0038 0023     		movs	r3, #0
 926:../../core/ST/STM32L4xx_HAL_Driver/Src/stm32l4xx_hal_dma.c **** 
 1413              		.loc 1 926 12 view .LVU495
 1414 003a EEE7     		b	.L82
 1415              	.L85:
 929:../../core/ST/STM32L4xx_HAL_Driver/Src/stm32l4xx_hal_dma.c ****            break;
 1416              		.loc 1 929 12 is_stmt 1 view .LVU496
 929:../../core/ST/STM32L4xx_HAL_Driver/Src/stm32l4xx_hal_dma.c ****            break;
 1417              		.loc 1 929 36 is_stmt 0 view .LVU497
 1418 003c 4263     		str	r2, [r0, #52]
 930:../../core/ST/STM32L4xx_HAL_Driver/Src/stm32l4xx_hal_dma.c **** 
 1419              		.loc 1 930 12 is_stmt 1 view .LVU498
 911:../../core/ST/STM32L4xx_HAL_Driver/Src/stm32l4xx_hal_dma.c **** 
 1420              		.loc 1 911 21 is_stmt 0 view .LVU499
 1421 003e 0023     		movs	r3, #0
 930:../../core/ST/STM32L4xx_HAL_Driver/Src/stm32l4xx_hal_dma.c **** 
 1422              		.loc 1 930 12 view .LVU500
 1423 0040 EBE7     		b	.L82
 1424              	.L83:
 933:../../core/ST/STM32L4xx_HAL_Driver/Src/stm32l4xx_hal_dma.c ****            break;
 1425              		.loc 1 933 12 is_stmt 1 view .LVU501
 933:../../core/ST/STM32L4xx_HAL_Driver/Src/stm32l4xx_hal_dma.c ****            break;
 1426              		.loc 1 933 36 is_stmt 0 view .LVU502
 1427 0042 8263     		str	r2, [r0, #56]
 934:../../core/ST/STM32L4xx_HAL_Driver/Src/stm32l4xx_hal_dma.c **** 
 1428              		.loc 1 934 12 is_stmt 1 view .LVU503
 911:../../core/ST/STM32L4xx_HAL_Driver/Src/stm32l4xx_hal_dma.c **** 
 1429              		.loc 1 911 21 is_stmt 0 view .LVU504
 1430 0044 0023     		movs	r3, #0
 934:../../core/ST/STM32L4xx_HAL_Driver/Src/stm32l4xx_hal_dma.c **** 
 1431              		.loc 1 934 12 view .LVU505
 1432 0046 E8E7     		b	.L82
 1433              	.L88:
 914:../../core/ST/STM32L4xx_HAL_Driver/Src/stm32l4xx_hal_dma.c **** 
 1434              		.loc 1 914 3 view .LVU506
 1435 0048 0223     		movs	r3, #2
 1436 004a E9E7     		b	.L81
 1437              		.cfi_endproc
 1438              	.LFE131:
 1440              		.section	.text.HAL_DMA_UnRegisterCallback,"ax",%progbits
 1441              		.align	1
 1442              		.global	HAL_DMA_UnRegisterCallback
ARM GAS  C:\Users\yvesk\AppData\Local\Temp\ccFefcse.s 			page 54


 1443              		.syntax unified
 1444              		.thumb
 1445              		.thumb_func
 1446              		.fpu fpv4-sp-d16
 1448              	HAL_DMA_UnRegisterCallback:
 1449              	.LVL84:
 1450              	.LFB132:
 961:../../core/ST/STM32L4xx_HAL_Driver/Src/stm32l4xx_hal_dma.c ****   HAL_StatusTypeDef status = HAL_OK;
 1451              		.loc 1 961 1 is_stmt 1 view -0
 1452              		.cfi_startproc
 1453              		@ args = 0, pretend = 0, frame = 0
 1454              		@ frame_needed = 0, uses_anonymous_args = 0
 1455              		@ link register save eliminated.
 961:../../core/ST/STM32L4xx_HAL_Driver/Src/stm32l4xx_hal_dma.c ****   HAL_StatusTypeDef status = HAL_OK;
 1456              		.loc 1 961 1 is_stmt 0 view .LVU508
 1457 0000 0246     		mov	r2, r0
 962:../../core/ST/STM32L4xx_HAL_Driver/Src/stm32l4xx_hal_dma.c **** 
 1458              		.loc 1 962 3 is_stmt 1 view .LVU509
 1459              	.LVL85:
 965:../../core/ST/STM32L4xx_HAL_Driver/Src/stm32l4xx_hal_dma.c **** 
 1460              		.loc 1 965 3 view .LVU510
 965:../../core/ST/STM32L4xx_HAL_Driver/Src/stm32l4xx_hal_dma.c **** 
 1461              		.loc 1 965 3 view .LVU511
 1462 0002 90F82430 		ldrb	r3, [r0, #36]	@ zero_extendqisi2
 1463 0006 012B     		cmp	r3, #1
 1464 0008 26D0     		beq	.L100
 965:../../core/ST/STM32L4xx_HAL_Driver/Src/stm32l4xx_hal_dma.c **** 
 1465              		.loc 1 965 3 discriminator 2 view .LVU512
 1466 000a 0123     		movs	r3, #1
 1467 000c 80F82430 		strb	r3, [r0, #36]
 967:../../core/ST/STM32L4xx_HAL_Driver/Src/stm32l4xx_hal_dma.c ****   {
 1468              		.loc 1 967 3 discriminator 2 view .LVU513
 967:../../core/ST/STM32L4xx_HAL_Driver/Src/stm32l4xx_hal_dma.c ****   {
 1469              		.loc 1 967 33 is_stmt 0 discriminator 2 view .LVU514
 1470 0010 90F82530 		ldrb	r3, [r0, #37]	@ zero_extendqisi2
 1471 0014 D8B2     		uxtb	r0, r3
 1472              	.LVL86:
 967:../../core/ST/STM32L4xx_HAL_Driver/Src/stm32l4xx_hal_dma.c ****   {
 1473              		.loc 1 967 5 discriminator 2 view .LVU515
 1474 0016 0128     		cmp	r0, #1
 1475 0018 04D0     		beq	.L102
1001:../../core/ST/STM32L4xx_HAL_Driver/Src/stm32l4xx_hal_dma.c ****   }
 1476              		.loc 1 1001 12 view .LVU516
 1477 001a 0120     		movs	r0, #1
 1478              	.L93:
 1479              	.LVL87:
1005:../../core/ST/STM32L4xx_HAL_Driver/Src/stm32l4xx_hal_dma.c **** 
 1480              		.loc 1 1005 3 is_stmt 1 view .LVU517
1005:../../core/ST/STM32L4xx_HAL_Driver/Src/stm32l4xx_hal_dma.c **** 
 1481              		.loc 1 1005 3 view .LVU518
 1482 001c 0023     		movs	r3, #0
 1483 001e 82F82430 		strb	r3, [r2, #36]
1007:../../core/ST/STM32L4xx_HAL_Driver/Src/stm32l4xx_hal_dma.c **** }
 1484              		.loc 1 1007 3 view .LVU519
1007:../../core/ST/STM32L4xx_HAL_Driver/Src/stm32l4xx_hal_dma.c **** }
 1485              		.loc 1 1007 10 is_stmt 0 view .LVU520
 1486 0022 7047     		bx	lr
ARM GAS  C:\Users\yvesk\AppData\Local\Temp\ccFefcse.s 			page 55


 1487              	.LVL88:
 1488              	.L102:
 969:../../core/ST/STM32L4xx_HAL_Driver/Src/stm32l4xx_hal_dma.c ****     {
 1489              		.loc 1 969 5 is_stmt 1 view .LVU521
 1490 0024 0429     		cmp	r1, #4
 1491 0026 F9D8     		bhi	.L93
 1492 0028 DFE801F0 		tbb	[pc, r1]
 1493              	.L95:
 1494 002c 03       		.byte	(.L99-.L95)/2
 1495 002d 07       		.byte	(.L98-.L95)/2
 1496 002e 0A       		.byte	(.L97-.L95)/2
 1497 002f 0D       		.byte	(.L96-.L95)/2
 1498 0030 10       		.byte	(.L94-.L95)/2
 1499 0031 00       		.p2align 1
 1500              	.L99:
 972:../../core/ST/STM32L4xx_HAL_Driver/Src/stm32l4xx_hal_dma.c ****            break;
 1501              		.loc 1 972 12 view .LVU522
 972:../../core/ST/STM32L4xx_HAL_Driver/Src/stm32l4xx_hal_dma.c ****            break;
 1502              		.loc 1 972 35 is_stmt 0 view .LVU523
 1503 0032 0023     		movs	r3, #0
 1504 0034 D362     		str	r3, [r2, #44]
 973:../../core/ST/STM32L4xx_HAL_Driver/Src/stm32l4xx_hal_dma.c **** 
 1505              		.loc 1 973 12 is_stmt 1 view .LVU524
 962:../../core/ST/STM32L4xx_HAL_Driver/Src/stm32l4xx_hal_dma.c **** 
 1506              		.loc 1 962 21 is_stmt 0 view .LVU525
 1507 0036 0846     		mov	r0, r1
 973:../../core/ST/STM32L4xx_HAL_Driver/Src/stm32l4xx_hal_dma.c **** 
 1508              		.loc 1 973 12 view .LVU526
 1509 0038 F0E7     		b	.L93
 1510              	.L98:
 976:../../core/ST/STM32L4xx_HAL_Driver/Src/stm32l4xx_hal_dma.c ****            break;
 1511              		.loc 1 976 12 is_stmt 1 view .LVU527
 976:../../core/ST/STM32L4xx_HAL_Driver/Src/stm32l4xx_hal_dma.c ****            break;
 1512              		.loc 1 976 39 is_stmt 0 view .LVU528
 1513 003a 0020     		movs	r0, #0
 1514 003c 1063     		str	r0, [r2, #48]
 977:../../core/ST/STM32L4xx_HAL_Driver/Src/stm32l4xx_hal_dma.c **** 
 1515              		.loc 1 977 12 is_stmt 1 view .LVU529
 1516 003e EDE7     		b	.L93
 1517              	.L97:
 980:../../core/ST/STM32L4xx_HAL_Driver/Src/stm32l4xx_hal_dma.c ****            break;
 1518              		.loc 1 980 12 view .LVU530
 980:../../core/ST/STM32L4xx_HAL_Driver/Src/stm32l4xx_hal_dma.c ****            break;
 1519              		.loc 1 980 36 is_stmt 0 view .LVU531
 1520 0040 0020     		movs	r0, #0
 1521 0042 5063     		str	r0, [r2, #52]
 981:../../core/ST/STM32L4xx_HAL_Driver/Src/stm32l4xx_hal_dma.c **** 
 1522              		.loc 1 981 12 is_stmt 1 view .LVU532
 1523 0044 EAE7     		b	.L93
 1524              	.L96:
 984:../../core/ST/STM32L4xx_HAL_Driver/Src/stm32l4xx_hal_dma.c ****            break;
 1525              		.loc 1 984 12 view .LVU533
 984:../../core/ST/STM32L4xx_HAL_Driver/Src/stm32l4xx_hal_dma.c ****            break;
 1526              		.loc 1 984 36 is_stmt 0 view .LVU534
 1527 0046 0020     		movs	r0, #0
 1528 0048 9063     		str	r0, [r2, #56]
 985:../../core/ST/STM32L4xx_HAL_Driver/Src/stm32l4xx_hal_dma.c **** 
ARM GAS  C:\Users\yvesk\AppData\Local\Temp\ccFefcse.s 			page 56


 1529              		.loc 1 985 12 is_stmt 1 view .LVU535
 1530 004a E7E7     		b	.L93
 1531              	.L94:
 988:../../core/ST/STM32L4xx_HAL_Driver/Src/stm32l4xx_hal_dma.c ****            hdma->XferHalfCpltCallback = NULL;
 1532              		.loc 1 988 12 view .LVU536
 988:../../core/ST/STM32L4xx_HAL_Driver/Src/stm32l4xx_hal_dma.c ****            hdma->XferHalfCpltCallback = NULL;
 1533              		.loc 1 988 35 is_stmt 0 view .LVU537
 1534 004c 0020     		movs	r0, #0
 1535 004e D062     		str	r0, [r2, #44]
 989:../../core/ST/STM32L4xx_HAL_Driver/Src/stm32l4xx_hal_dma.c ****            hdma->XferErrorCallback = NULL;
 1536              		.loc 1 989 12 is_stmt 1 view .LVU538
 989:../../core/ST/STM32L4xx_HAL_Driver/Src/stm32l4xx_hal_dma.c ****            hdma->XferErrorCallback = NULL;
 1537              		.loc 1 989 39 is_stmt 0 view .LVU539
 1538 0050 1063     		str	r0, [r2, #48]
 990:../../core/ST/STM32L4xx_HAL_Driver/Src/stm32l4xx_hal_dma.c ****            hdma->XferAbortCallback = NULL;
 1539              		.loc 1 990 12 is_stmt 1 view .LVU540
 990:../../core/ST/STM32L4xx_HAL_Driver/Src/stm32l4xx_hal_dma.c ****            hdma->XferAbortCallback = NULL;
 1540              		.loc 1 990 36 is_stmt 0 view .LVU541
 1541 0052 5063     		str	r0, [r2, #52]
 991:../../core/ST/STM32L4xx_HAL_Driver/Src/stm32l4xx_hal_dma.c ****            break;
 1542              		.loc 1 991 12 is_stmt 1 view .LVU542
 991:../../core/ST/STM32L4xx_HAL_Driver/Src/stm32l4xx_hal_dma.c ****            break;
 1543              		.loc 1 991 36 is_stmt 0 view .LVU543
 1544 0054 9063     		str	r0, [r2, #56]
 992:../../core/ST/STM32L4xx_HAL_Driver/Src/stm32l4xx_hal_dma.c **** 
 1545              		.loc 1 992 12 is_stmt 1 view .LVU544
 1546 0056 E1E7     		b	.L93
 1547              	.LVL89:
 1548              	.L100:
 965:../../core/ST/STM32L4xx_HAL_Driver/Src/stm32l4xx_hal_dma.c **** 
 1549              		.loc 1 965 3 is_stmt 0 view .LVU545
 1550 0058 0220     		movs	r0, #2
 1551              	.LVL90:
1008:../../core/ST/STM32L4xx_HAL_Driver/Src/stm32l4xx_hal_dma.c **** 
 1552              		.loc 1 1008 1 view .LVU546
 1553 005a 7047     		bx	lr
 1554              		.cfi_endproc
 1555              	.LFE132:
 1557              		.section	.text.HAL_DMA_GetState,"ax",%progbits
 1558              		.align	1
 1559              		.global	HAL_DMA_GetState
 1560              		.syntax unified
 1561              		.thumb
 1562              		.thumb_func
 1563              		.fpu fpv4-sp-d16
 1565              	HAL_DMA_GetState:
 1566              	.LVL91:
 1567              	.LFB133:
1039:../../core/ST/STM32L4xx_HAL_Driver/Src/stm32l4xx_hal_dma.c ****   /* Return DMA handle state */
 1568              		.loc 1 1039 1 is_stmt 1 view -0
 1569              		.cfi_startproc
 1570              		@ args = 0, pretend = 0, frame = 0
 1571              		@ frame_needed = 0, uses_anonymous_args = 0
 1572              		@ link register save eliminated.
1041:../../core/ST/STM32L4xx_HAL_Driver/Src/stm32l4xx_hal_dma.c **** }
 1573              		.loc 1 1041 3 view .LVU548
1041:../../core/ST/STM32L4xx_HAL_Driver/Src/stm32l4xx_hal_dma.c **** }
ARM GAS  C:\Users\yvesk\AppData\Local\Temp\ccFefcse.s 			page 57


 1574              		.loc 1 1041 14 is_stmt 0 view .LVU549
 1575 0000 90F82500 		ldrb	r0, [r0, #37]	@ zero_extendqisi2
 1576              	.LVL92:
1042:../../core/ST/STM32L4xx_HAL_Driver/Src/stm32l4xx_hal_dma.c **** 
 1577              		.loc 1 1042 1 view .LVU550
 1578 0004 7047     		bx	lr
 1579              		.cfi_endproc
 1580              	.LFE133:
 1582              		.section	.text.HAL_DMA_GetError,"ax",%progbits
 1583              		.align	1
 1584              		.global	HAL_DMA_GetError
 1585              		.syntax unified
 1586              		.thumb
 1587              		.thumb_func
 1588              		.fpu fpv4-sp-d16
 1590              	HAL_DMA_GetError:
 1591              	.LVL93:
 1592              	.LFB134:
1051:../../core/ST/STM32L4xx_HAL_Driver/Src/stm32l4xx_hal_dma.c ****   return hdma->ErrorCode;
 1593              		.loc 1 1051 1 is_stmt 1 view -0
 1594              		.cfi_startproc
 1595              		@ args = 0, pretend = 0, frame = 0
 1596              		@ frame_needed = 0, uses_anonymous_args = 0
 1597              		@ link register save eliminated.
1052:../../core/ST/STM32L4xx_HAL_Driver/Src/stm32l4xx_hal_dma.c **** }
 1598              		.loc 1 1052 3 view .LVU552
1052:../../core/ST/STM32L4xx_HAL_Driver/Src/stm32l4xx_hal_dma.c **** }
 1599              		.loc 1 1052 14 is_stmt 0 view .LVU553
 1600 0000 C06B     		ldr	r0, [r0, #60]
 1601              	.LVL94:
1053:../../core/ST/STM32L4xx_HAL_Driver/Src/stm32l4xx_hal_dma.c **** 
 1602              		.loc 1 1053 1 view .LVU554
 1603 0002 7047     		bx	lr
 1604              		.cfi_endproc
 1605              	.LFE134:
 1607              		.text
 1608              	.Letext0:
 1609              		.file 2 "c:\\program files (x86)\\gnu tools arm embedded\\8 2019-q3-update\\arm-none-eabi\\include
 1610              		.file 3 "c:\\program files (x86)\\gnu tools arm embedded\\8 2019-q3-update\\arm-none-eabi\\include
 1611              		.file 4 "../../core/ST/CMSIS/Include/core_cm4.h"
 1612              		.file 5 "../../core/ST/CMSIS/Device/ST/STM32L4xx/Include/system_stm32l4xx.h"
 1613              		.file 6 "../../core/ST/CMSIS/Device/ST/STM32L4xx/Include/stm32l496xx.h"
 1614              		.file 7 "../../core/ST/STM32L4xx_HAL_Driver/Inc/stm32l4xx_hal_def.h"
 1615              		.file 8 "../../core/ST/STM32L4xx_HAL_Driver/Inc/stm32l4xx_hal_dma.h"
 1616              		.file 9 "../../core/ST/STM32L4xx_HAL_Driver/Inc/stm32l4xx_hal.h"
ARM GAS  C:\Users\yvesk\AppData\Local\Temp\ccFefcse.s 			page 58


DEFINED SYMBOLS
                            *ABS*:00000000 stm32l4xx_hal_dma.c
C:\Users\yvesk\AppData\Local\Temp\ccFefcse.s:18     .text.DMA_SetConfig:00000000 $t
C:\Users\yvesk\AppData\Local\Temp\ccFefcse.s:25     .text.DMA_SetConfig:00000000 DMA_SetConfig
C:\Users\yvesk\AppData\Local\Temp\ccFefcse.s:106    .text.HAL_DMA_Init:00000000 $t
C:\Users\yvesk\AppData\Local\Temp\ccFefcse.s:113    .text.HAL_DMA_Init:00000000 HAL_DMA_Init
C:\Users\yvesk\AppData\Local\Temp\ccFefcse.s:342    .text.HAL_DMA_Init:000000dc $d
C:\Users\yvesk\AppData\Local\Temp\ccFefcse.s:353    .text.HAL_DMA_DeInit:00000000 $t
C:\Users\yvesk\AppData\Local\Temp\ccFefcse.s:360    .text.HAL_DMA_DeInit:00000000 HAL_DMA_DeInit
C:\Users\yvesk\AppData\Local\Temp\ccFefcse.s:530    .text.HAL_DMA_DeInit:000000a8 $d
C:\Users\yvesk\AppData\Local\Temp\ccFefcse.s:542    .text.HAL_DMA_Start:00000000 $t
C:\Users\yvesk\AppData\Local\Temp\ccFefcse.s:549    .text.HAL_DMA_Start:00000000 HAL_DMA_Start
C:\Users\yvesk\AppData\Local\Temp\ccFefcse.s:638    .text.HAL_DMA_Start_IT:00000000 $t
C:\Users\yvesk\AppData\Local\Temp\ccFefcse.s:645    .text.HAL_DMA_Start_IT:00000000 HAL_DMA_Start_IT
C:\Users\yvesk\AppData\Local\Temp\ccFefcse.s:757    .text.HAL_DMA_Abort:00000000 $t
C:\Users\yvesk\AppData\Local\Temp\ccFefcse.s:764    .text.HAL_DMA_Abort:00000000 HAL_DMA_Abort
C:\Users\yvesk\AppData\Local\Temp\ccFefcse.s:821    .text.HAL_DMA_Abort_IT:00000000 $t
C:\Users\yvesk\AppData\Local\Temp\ccFefcse.s:828    .text.HAL_DMA_Abort_IT:00000000 HAL_DMA_Abort_IT
C:\Users\yvesk\AppData\Local\Temp\ccFefcse.s:916    .text.HAL_DMA_PollForTransfer:00000000 $t
C:\Users\yvesk\AppData\Local\Temp\ccFefcse.s:923    .text.HAL_DMA_PollForTransfer:00000000 HAL_DMA_PollForTransfer
C:\Users\yvesk\AppData\Local\Temp\ccFefcse.s:1143   .text.HAL_DMA_IRQHandler:00000000 $t
C:\Users\yvesk\AppData\Local\Temp\ccFefcse.s:1150   .text.HAL_DMA_IRQHandler:00000000 HAL_DMA_IRQHandler
C:\Users\yvesk\AppData\Local\Temp\ccFefcse.s:1336   .text.HAL_DMA_RegisterCallback:00000000 $t
C:\Users\yvesk\AppData\Local\Temp\ccFefcse.s:1343   .text.HAL_DMA_RegisterCallback:00000000 HAL_DMA_RegisterCallback
C:\Users\yvesk\AppData\Local\Temp\ccFefcse.s:1392   .text.HAL_DMA_RegisterCallback:0000002c $d
C:\Users\yvesk\AppData\Local\Temp\ccFefcse.s:1396   .text.HAL_DMA_RegisterCallback:00000030 $t
C:\Users\yvesk\AppData\Local\Temp\ccFefcse.s:1441   .text.HAL_DMA_UnRegisterCallback:00000000 $t
C:\Users\yvesk\AppData\Local\Temp\ccFefcse.s:1448   .text.HAL_DMA_UnRegisterCallback:00000000 HAL_DMA_UnRegisterCallback
C:\Users\yvesk\AppData\Local\Temp\ccFefcse.s:1494   .text.HAL_DMA_UnRegisterCallback:0000002c $d
C:\Users\yvesk\AppData\Local\Temp\ccFefcse.s:1558   .text.HAL_DMA_GetState:00000000 $t
C:\Users\yvesk\AppData\Local\Temp\ccFefcse.s:1565   .text.HAL_DMA_GetState:00000000 HAL_DMA_GetState
C:\Users\yvesk\AppData\Local\Temp\ccFefcse.s:1583   .text.HAL_DMA_GetError:00000000 $t
C:\Users\yvesk\AppData\Local\Temp\ccFefcse.s:1590   .text.HAL_DMA_GetError:00000000 HAL_DMA_GetError
C:\Users\yvesk\AppData\Local\Temp\ccFefcse.s:1499   .text.HAL_DMA_UnRegisterCallback:00000031 $d
C:\Users\yvesk\AppData\Local\Temp\ccFefcse.s:1499   .text.HAL_DMA_UnRegisterCallback:00000032 $t

UNDEFINED SYMBOLS
HAL_GetTick
