ARM GAS  C:\Users\yvesk\AppData\Local\Temp\ccDdTYOB.s 			page 1


   1              		.cpu cortex-m4
   2              		.eabi_attribute 27, 1
   3              		.eabi_attribute 28, 1
   4              		.eabi_attribute 20, 1
   5              		.eabi_attribute 21, 1
   6              		.eabi_attribute 23, 3
   7              		.eabi_attribute 24, 1
   8              		.eabi_attribute 25, 1
   9              		.eabi_attribute 26, 1
  10              		.eabi_attribute 30, 1
  11              		.eabi_attribute 34, 1
  12              		.eabi_attribute 18, 4
  13              		.file	"stm32l4xx_hal_msp.c"
  14              		.text
  15              	.Ltext0:
  16              		.cfi_sections	.debug_frame
  17              		.section	.text.HAL_MspInit,"ax",%progbits
  18              		.align	1
  19              		.global	HAL_MspInit
  20              		.arch armv7e-m
  21              		.syntax unified
  22              		.thumb
  23              		.thumb_func
  24              		.fpu fpv4-sp-d16
  26              	HAL_MspInit:
  27              	.LFB123:
  28              		.file 1 "../../core/platform/octa/src/stm32l4xx_hal_msp.c"
   1:../../core/platform/octa/src/stm32l4xx_hal_msp.c **** /* USER CODE BEGIN Header */
   2:../../core/platform/octa/src/stm32l4xx_hal_msp.c **** /**
   3:../../core/platform/octa/src/stm32l4xx_hal_msp.c ****   ******************************************************************************
   4:../../core/platform/octa/src/stm32l4xx_hal_msp.c ****   * File Name          : stm32l4xx_hal_msp.c
   5:../../core/platform/octa/src/stm32l4xx_hal_msp.c ****   * Description        : This file provides code for the MSP Initialization 
   6:../../core/platform/octa/src/stm32l4xx_hal_msp.c ****   *                      and de-Initialization codes.
   7:../../core/platform/octa/src/stm32l4xx_hal_msp.c ****   ******************************************************************************
   8:../../core/platform/octa/src/stm32l4xx_hal_msp.c ****   * This notice applies to any and all portions of this file
   9:../../core/platform/octa/src/stm32l4xx_hal_msp.c ****   * that are not between comment pairs USER CODE BEGIN and
  10:../../core/platform/octa/src/stm32l4xx_hal_msp.c ****   * USER CODE END. Other portions of this file, whether 
  11:../../core/platform/octa/src/stm32l4xx_hal_msp.c ****   * inserted by the user or by software development tools
  12:../../core/platform/octa/src/stm32l4xx_hal_msp.c ****   * are owned by their respective copyright owners.
  13:../../core/platform/octa/src/stm32l4xx_hal_msp.c ****   *
  14:../../core/platform/octa/src/stm32l4xx_hal_msp.c ****   * Copyright (c) 2019 STMicroelectronics International N.V. 
  15:../../core/platform/octa/src/stm32l4xx_hal_msp.c ****   * All rights reserved.
  16:../../core/platform/octa/src/stm32l4xx_hal_msp.c ****   *
  17:../../core/platform/octa/src/stm32l4xx_hal_msp.c ****   * Redistribution and use in source and binary forms, with or without 
  18:../../core/platform/octa/src/stm32l4xx_hal_msp.c ****   * modification, are permitted, provided that the following conditions are met:
  19:../../core/platform/octa/src/stm32l4xx_hal_msp.c ****   *
  20:../../core/platform/octa/src/stm32l4xx_hal_msp.c ****   * 1. Redistribution of source code must retain the above copyright notice, 
  21:../../core/platform/octa/src/stm32l4xx_hal_msp.c ****   *    this list of conditions and the following disclaimer.
  22:../../core/platform/octa/src/stm32l4xx_hal_msp.c ****   * 2. Redistributions in binary form must reproduce the above copyright notice,
  23:../../core/platform/octa/src/stm32l4xx_hal_msp.c ****   *    this list of conditions and the following disclaimer in the documentation
  24:../../core/platform/octa/src/stm32l4xx_hal_msp.c ****   *    and/or other materials provided with the distribution.
  25:../../core/platform/octa/src/stm32l4xx_hal_msp.c ****   * 3. Neither the name of STMicroelectronics nor the names of other 
  26:../../core/platform/octa/src/stm32l4xx_hal_msp.c ****   *    contributors to this software may be used to endorse or promote products 
  27:../../core/platform/octa/src/stm32l4xx_hal_msp.c ****   *    derived from this software without specific written permission.
  28:../../core/platform/octa/src/stm32l4xx_hal_msp.c ****   * 4. This software, including modifications and/or derivative works of this 
  29:../../core/platform/octa/src/stm32l4xx_hal_msp.c ****   *    software, must execute solely and exclusively on microcontroller or
  30:../../core/platform/octa/src/stm32l4xx_hal_msp.c ****   *    microprocessor devices manufactured by or for STMicroelectronics.
ARM GAS  C:\Users\yvesk\AppData\Local\Temp\ccDdTYOB.s 			page 2


  31:../../core/platform/octa/src/stm32l4xx_hal_msp.c ****   * 5. Redistribution and use of this software other than as permitted under 
  32:../../core/platform/octa/src/stm32l4xx_hal_msp.c ****   *    this license is void and will automatically terminate your rights under 
  33:../../core/platform/octa/src/stm32l4xx_hal_msp.c ****   *    this license. 
  34:../../core/platform/octa/src/stm32l4xx_hal_msp.c ****   *
  35:../../core/platform/octa/src/stm32l4xx_hal_msp.c ****   * THIS SOFTWARE IS PROVIDED BY STMICROELECTRONICS AND CONTRIBUTORS "AS IS" 
  36:../../core/platform/octa/src/stm32l4xx_hal_msp.c ****   * AND ANY EXPRESS, IMPLIED OR STATUTORY WARRANTIES, INCLUDING, BUT NOT 
  37:../../core/platform/octa/src/stm32l4xx_hal_msp.c ****   * LIMITED TO, THE IMPLIED WARRANTIES OF MERCHANTABILITY, FITNESS FOR A 
  38:../../core/platform/octa/src/stm32l4xx_hal_msp.c ****   * PARTICULAR PURPOSE AND NON-INFRINGEMENT OF THIRD PARTY INTELLECTUAL PROPERTY
  39:../../core/platform/octa/src/stm32l4xx_hal_msp.c ****   * RIGHTS ARE DISCLAIMED TO THE FULLEST EXTENT PERMITTED BY LAW. IN NO EVENT 
  40:../../core/platform/octa/src/stm32l4xx_hal_msp.c ****   * SHALL STMICROELECTRONICS OR CONTRIBUTORS BE LIABLE FOR ANY DIRECT, INDIRECT,
  41:../../core/platform/octa/src/stm32l4xx_hal_msp.c ****   * INCIDENTAL, SPECIAL, EXEMPLARY, OR CONSEQUENTIAL DAMAGES (INCLUDING, BUT NOT
  42:../../core/platform/octa/src/stm32l4xx_hal_msp.c ****   * LIMITED TO, PROCUREMENT OF SUBSTITUTE GOODS OR SERVICES; LOSS OF USE, DATA, 
  43:../../core/platform/octa/src/stm32l4xx_hal_msp.c ****   * OR PROFITS; OR BUSINESS INTERRUPTION) HOWEVER CAUSED AND ON ANY THEORY OF 
  44:../../core/platform/octa/src/stm32l4xx_hal_msp.c ****   * LIABILITY, WHETHER IN CONTRACT, STRICT LIABILITY, OR TORT (INCLUDING 
  45:../../core/platform/octa/src/stm32l4xx_hal_msp.c ****   * NEGLIGENCE OR OTHERWISE) ARISING IN ANY WAY OUT OF THE USE OF THIS SOFTWARE,
  46:../../core/platform/octa/src/stm32l4xx_hal_msp.c ****   * EVEN IF ADVISED OF THE POSSIBILITY OF SUCH DAMAGE.
  47:../../core/platform/octa/src/stm32l4xx_hal_msp.c ****   *
  48:../../core/platform/octa/src/stm32l4xx_hal_msp.c ****   ******************************************************************************
  49:../../core/platform/octa/src/stm32l4xx_hal_msp.c ****   */
  50:../../core/platform/octa/src/stm32l4xx_hal_msp.c **** /* USER CODE END Header */
  51:../../core/platform/octa/src/stm32l4xx_hal_msp.c **** 
  52:../../core/platform/octa/src/stm32l4xx_hal_msp.c **** /* Includes ------------------------------------------------------------------*/
  53:../../core/platform/octa/src/stm32l4xx_hal_msp.c **** #include "stm32l4xx_hal.h"
  54:../../core/platform/octa/src/stm32l4xx_hal_msp.c **** /* USER CODE BEGIN Includes */
  55:../../core/platform/octa/src/stm32l4xx_hal_msp.c **** 
  56:../../core/platform/octa/src/stm32l4xx_hal_msp.c **** /* USER CODE END Includes */
  57:../../core/platform/octa/src/stm32l4xx_hal_msp.c **** 
  58:../../core/platform/octa/src/stm32l4xx_hal_msp.c **** /* Private typedef -----------------------------------------------------------*/
  59:../../core/platform/octa/src/stm32l4xx_hal_msp.c **** /* USER CODE BEGIN TD */
  60:../../core/platform/octa/src/stm32l4xx_hal_msp.c **** 
  61:../../core/platform/octa/src/stm32l4xx_hal_msp.c **** /* USER CODE END TD */
  62:../../core/platform/octa/src/stm32l4xx_hal_msp.c **** 
  63:../../core/platform/octa/src/stm32l4xx_hal_msp.c **** /* Private define ------------------------------------------------------------*/
  64:../../core/platform/octa/src/stm32l4xx_hal_msp.c **** /* USER CODE BEGIN Define */
  65:../../core/platform/octa/src/stm32l4xx_hal_msp.c ****  
  66:../../core/platform/octa/src/stm32l4xx_hal_msp.c **** /* USER CODE END Define */
  67:../../core/platform/octa/src/stm32l4xx_hal_msp.c **** 
  68:../../core/platform/octa/src/stm32l4xx_hal_msp.c **** /* Private macro -------------------------------------------------------------*/
  69:../../core/platform/octa/src/stm32l4xx_hal_msp.c **** /* USER CODE BEGIN Macro */
  70:../../core/platform/octa/src/stm32l4xx_hal_msp.c **** 
  71:../../core/platform/octa/src/stm32l4xx_hal_msp.c **** /* USER CODE END Macro */
  72:../../core/platform/octa/src/stm32l4xx_hal_msp.c **** 
  73:../../core/platform/octa/src/stm32l4xx_hal_msp.c **** /* Private variables ---------------------------------------------------------*/
  74:../../core/platform/octa/src/stm32l4xx_hal_msp.c **** /* USER CODE BEGIN PV */
  75:../../core/platform/octa/src/stm32l4xx_hal_msp.c **** 
  76:../../core/platform/octa/src/stm32l4xx_hal_msp.c **** /* USER CODE END PV */
  77:../../core/platform/octa/src/stm32l4xx_hal_msp.c **** 
  78:../../core/platform/octa/src/stm32l4xx_hal_msp.c **** /* Private function prototypes -----------------------------------------------*/
  79:../../core/platform/octa/src/stm32l4xx_hal_msp.c **** /* USER CODE BEGIN PFP */
  80:../../core/platform/octa/src/stm32l4xx_hal_msp.c **** 
  81:../../core/platform/octa/src/stm32l4xx_hal_msp.c **** /* USER CODE END PFP */
  82:../../core/platform/octa/src/stm32l4xx_hal_msp.c **** 
  83:../../core/platform/octa/src/stm32l4xx_hal_msp.c **** /* External functions --------------------------------------------------------*/
  84:../../core/platform/octa/src/stm32l4xx_hal_msp.c **** /* USER CODE BEGIN ExternalFunctions */
  85:../../core/platform/octa/src/stm32l4xx_hal_msp.c **** 
  86:../../core/platform/octa/src/stm32l4xx_hal_msp.c **** /* USER CODE END ExternalFunctions */
  87:../../core/platform/octa/src/stm32l4xx_hal_msp.c **** 
ARM GAS  C:\Users\yvesk\AppData\Local\Temp\ccDdTYOB.s 			page 3


  88:../../core/platform/octa/src/stm32l4xx_hal_msp.c **** /* USER CODE BEGIN 0 */
  89:../../core/platform/octa/src/stm32l4xx_hal_msp.c **** 
  90:../../core/platform/octa/src/stm32l4xx_hal_msp.c **** /* USER CODE END 0 */
  91:../../core/platform/octa/src/stm32l4xx_hal_msp.c **** /**
  92:../../core/platform/octa/src/stm32l4xx_hal_msp.c ****   * Initializes the Global MSP.
  93:../../core/platform/octa/src/stm32l4xx_hal_msp.c ****   */
  94:../../core/platform/octa/src/stm32l4xx_hal_msp.c **** void HAL_MspInit(void)
  95:../../core/platform/octa/src/stm32l4xx_hal_msp.c **** {
  29              		.loc 1 95 1 view -0
  30              		.cfi_startproc
  31              		@ args = 0, pretend = 0, frame = 8
  32              		@ frame_needed = 0, uses_anonymous_args = 0
  33 0000 00B5     		push	{lr}
  34              	.LCFI0:
  35              		.cfi_def_cfa_offset 4
  36              		.cfi_offset 14, -4
  37 0002 83B0     		sub	sp, sp, #12
  38              	.LCFI1:
  39              		.cfi_def_cfa_offset 16
  96:../../core/platform/octa/src/stm32l4xx_hal_msp.c ****   /* USER CODE BEGIN MspInit 0 */
  97:../../core/platform/octa/src/stm32l4xx_hal_msp.c **** 
  98:../../core/platform/octa/src/stm32l4xx_hal_msp.c ****   /* USER CODE END MspInit 0 */
  99:../../core/platform/octa/src/stm32l4xx_hal_msp.c **** 
 100:../../core/platform/octa/src/stm32l4xx_hal_msp.c ****   __HAL_RCC_SYSCFG_CLK_ENABLE();
  40              		.loc 1 100 3 view .LVU1
  41              	.LBB2:
  42              		.loc 1 100 3 view .LVU2
  43              		.loc 1 100 3 view .LVU3
  44 0004 0D4B     		ldr	r3, .L3
  45 0006 1A6E     		ldr	r2, [r3, #96]
  46 0008 42F00102 		orr	r2, r2, #1
  47 000c 1A66     		str	r2, [r3, #96]
  48              		.loc 1 100 3 view .LVU4
  49 000e 1A6E     		ldr	r2, [r3, #96]
  50 0010 02F00102 		and	r2, r2, #1
  51 0014 0092     		str	r2, [sp]
  52              		.loc 1 100 3 view .LVU5
  53 0016 009A     		ldr	r2, [sp]
  54              	.LBE2:
 101:../../core/platform/octa/src/stm32l4xx_hal_msp.c ****   __HAL_RCC_PWR_CLK_ENABLE();
  55              		.loc 1 101 3 view .LVU6
  56              	.LBB3:
  57              		.loc 1 101 3 view .LVU7
  58              		.loc 1 101 3 view .LVU8
  59 0018 9A6D     		ldr	r2, [r3, #88]
  60 001a 42F08052 		orr	r2, r2, #268435456
  61 001e 9A65     		str	r2, [r3, #88]
  62              		.loc 1 101 3 view .LVU9
  63 0020 9B6D     		ldr	r3, [r3, #88]
  64 0022 03F08053 		and	r3, r3, #268435456
  65 0026 0193     		str	r3, [sp, #4]
  66              		.loc 1 101 3 view .LVU10
  67 0028 019B     		ldr	r3, [sp, #4]
  68              	.LBE3:
 102:../../core/platform/octa/src/stm32l4xx_hal_msp.c **** 
 103:../../core/platform/octa/src/stm32l4xx_hal_msp.c ****   /* System interrupt init*/
 104:../../core/platform/octa/src/stm32l4xx_hal_msp.c ****   /* PendSV_IRQn interrupt configuration */
ARM GAS  C:\Users\yvesk\AppData\Local\Temp\ccDdTYOB.s 			page 4


 105:../../core/platform/octa/src/stm32l4xx_hal_msp.c ****   HAL_NVIC_SetPriority(PendSV_IRQn, 15, 0);
  69              		.loc 1 105 3 view .LVU11
  70 002a 0022     		movs	r2, #0
  71 002c 0F21     		movs	r1, #15
  72 002e 6FF00100 		mvn	r0, #1
  73 0032 FFF7FEFF 		bl	HAL_NVIC_SetPriority
  74              	.LVL0:
 106:../../core/platform/octa/src/stm32l4xx_hal_msp.c **** 
 107:../../core/platform/octa/src/stm32l4xx_hal_msp.c ****   /* USER CODE BEGIN MspInit 1 */
 108:../../core/platform/octa/src/stm32l4xx_hal_msp.c **** 
 109:../../core/platform/octa/src/stm32l4xx_hal_msp.c ****   /* USER CODE END MspInit 1 */
 110:../../core/platform/octa/src/stm32l4xx_hal_msp.c **** }
  75              		.loc 1 110 1 is_stmt 0 view .LVU12
  76 0036 03B0     		add	sp, sp, #12
  77              	.LCFI2:
  78              		.cfi_def_cfa_offset 4
  79              		@ sp needed
  80 0038 5DF804FB 		ldr	pc, [sp], #4
  81              	.L4:
  82              		.align	2
  83              	.L3:
  84 003c 00100240 		.word	1073876992
  85              		.cfi_endproc
  86              	.LFE123:
  88              		.section	.text.HAL_I2C_MspInit,"ax",%progbits
  89              		.align	1
  90              		.global	HAL_I2C_MspInit
  91              		.syntax unified
  92              		.thumb
  93              		.thumb_func
  94              		.fpu fpv4-sp-d16
  96              	HAL_I2C_MspInit:
  97              	.LVL1:
  98              	.LFB124:
 111:../../core/platform/octa/src/stm32l4xx_hal_msp.c **** 
 112:../../core/platform/octa/src/stm32l4xx_hal_msp.c **** /**
 113:../../core/platform/octa/src/stm32l4xx_hal_msp.c **** * @brief I2C MSP Initialization
 114:../../core/platform/octa/src/stm32l4xx_hal_msp.c **** * This function configures the hardware resources used in this example
 115:../../core/platform/octa/src/stm32l4xx_hal_msp.c **** * @param hi2c: I2C handle pointer
 116:../../core/platform/octa/src/stm32l4xx_hal_msp.c **** * @retval None
 117:../../core/platform/octa/src/stm32l4xx_hal_msp.c **** */
 118:../../core/platform/octa/src/stm32l4xx_hal_msp.c **** void HAL_I2C_MspInit(I2C_HandleTypeDef* hi2c)
 119:../../core/platform/octa/src/stm32l4xx_hal_msp.c **** {
  99              		.loc 1 119 1 is_stmt 1 view -0
 100              		.cfi_startproc
 101              		@ args = 0, pretend = 0, frame = 56
 102              		@ frame_needed = 0, uses_anonymous_args = 0
 103              		.loc 1 119 1 is_stmt 0 view .LVU14
 104 0000 F0B5     		push	{r4, r5, r6, r7, lr}
 105              	.LCFI3:
 106              		.cfi_def_cfa_offset 20
 107              		.cfi_offset 4, -20
 108              		.cfi_offset 5, -16
 109              		.cfi_offset 6, -12
 110              		.cfi_offset 7, -8
 111              		.cfi_offset 14, -4
 112 0002 8FB0     		sub	sp, sp, #60
ARM GAS  C:\Users\yvesk\AppData\Local\Temp\ccDdTYOB.s 			page 5


 113              	.LCFI4:
 114              		.cfi_def_cfa_offset 80
 115 0004 0446     		mov	r4, r0
 120:../../core/platform/octa/src/stm32l4xx_hal_msp.c **** 
 121:../../core/platform/octa/src/stm32l4xx_hal_msp.c ****   GPIO_InitTypeDef GPIO_InitStruct = {0};
 116              		.loc 1 121 3 is_stmt 1 view .LVU15
 117              		.loc 1 121 20 is_stmt 0 view .LVU16
 118 0006 0023     		movs	r3, #0
 119 0008 0993     		str	r3, [sp, #36]
 120 000a 0A93     		str	r3, [sp, #40]
 121 000c 0B93     		str	r3, [sp, #44]
 122 000e 0C93     		str	r3, [sp, #48]
 123 0010 0D93     		str	r3, [sp, #52]
 122:../../core/platform/octa/src/stm32l4xx_hal_msp.c ****   if(hi2c->Instance==I2C1)
 124              		.loc 1 122 3 is_stmt 1 view .LVU17
 125              		.loc 1 122 10 is_stmt 0 view .LVU18
 126 0012 0268     		ldr	r2, [r0]
 127              		.loc 1 122 5 view .LVU19
 128 0014 554B     		ldr	r3, .L15
 129 0016 9A42     		cmp	r2, r3
 130 0018 0BD0     		beq	.L11
 131              	.LVL2:
 132              	.L6:
 123:../../core/platform/octa/src/stm32l4xx_hal_msp.c ****   {
 124:../../core/platform/octa/src/stm32l4xx_hal_msp.c ****   /* USER CODE BEGIN I2C1_MspInit 0 */
 125:../../core/platform/octa/src/stm32l4xx_hal_msp.c **** 
 126:../../core/platform/octa/src/stm32l4xx_hal_msp.c ****   /* USER CODE END I2C1_MspInit 0 */
 127:../../core/platform/octa/src/stm32l4xx_hal_msp.c ****   
 128:../../core/platform/octa/src/stm32l4xx_hal_msp.c ****     __HAL_RCC_GPIOB_CLK_ENABLE();
 129:../../core/platform/octa/src/stm32l4xx_hal_msp.c ****     /**I2C1 GPIO Configuration    
 130:../../core/platform/octa/src/stm32l4xx_hal_msp.c ****     PB8     ------> I2C1_SCL
 131:../../core/platform/octa/src/stm32l4xx_hal_msp.c ****     PB9     ------> I2C1_SDA 
 132:../../core/platform/octa/src/stm32l4xx_hal_msp.c ****     */
 133:../../core/platform/octa/src/stm32l4xx_hal_msp.c ****     GPIO_InitStruct.Pin = GPIO_PIN_8|GPIO_PIN_9;
 134:../../core/platform/octa/src/stm32l4xx_hal_msp.c ****     GPIO_InitStruct.Mode = GPIO_MODE_AF_OD;
 135:../../core/platform/octa/src/stm32l4xx_hal_msp.c ****     GPIO_InitStruct.Pull = GPIO_PULLUP;
 136:../../core/platform/octa/src/stm32l4xx_hal_msp.c ****     GPIO_InitStruct.Speed = GPIO_SPEED_FREQ_VERY_HIGH;
 137:../../core/platform/octa/src/stm32l4xx_hal_msp.c ****     GPIO_InitStruct.Alternate = GPIO_AF4_I2C1;
 138:../../core/platform/octa/src/stm32l4xx_hal_msp.c ****     HAL_GPIO_Init(GPIOB, &GPIO_InitStruct);
 139:../../core/platform/octa/src/stm32l4xx_hal_msp.c **** 
 140:../../core/platform/octa/src/stm32l4xx_hal_msp.c ****     /* Peripheral clock enable */
 141:../../core/platform/octa/src/stm32l4xx_hal_msp.c ****     __HAL_RCC_I2C1_CLK_ENABLE();
 142:../../core/platform/octa/src/stm32l4xx_hal_msp.c ****   /* USER CODE BEGIN I2C1_MspInit 1 */
 143:../../core/platform/octa/src/stm32l4xx_hal_msp.c **** 
 144:../../core/platform/octa/src/stm32l4xx_hal_msp.c ****   /* USER CODE END I2C1_MspInit 1 */
 145:../../core/platform/octa/src/stm32l4xx_hal_msp.c ****   }
 146:../../core/platform/octa/src/stm32l4xx_hal_msp.c **** 
 147:../../core/platform/octa/src/stm32l4xx_hal_msp.c ****   if(hi2c->Instance==I2C2)
 133              		.loc 1 147 3 is_stmt 1 view .LVU20
 134              		.loc 1 147 10 is_stmt 0 view .LVU21
 135 001a 2368     		ldr	r3, [r4]
 136              		.loc 1 147 5 view .LVU22
 137 001c 544A     		ldr	r2, .L15+4
 138 001e 9342     		cmp	r3, r2
 139 0020 2AD0     		beq	.L12
 148:../../core/platform/octa/src/stm32l4xx_hal_msp.c ****   {
 149:../../core/platform/octa/src/stm32l4xx_hal_msp.c ****   /* USER CODE BEGIN I2C2_MspInit 0 */
ARM GAS  C:\Users\yvesk\AppData\Local\Temp\ccDdTYOB.s 			page 6


 150:../../core/platform/octa/src/stm32l4xx_hal_msp.c **** 
 151:../../core/platform/octa/src/stm32l4xx_hal_msp.c ****   /* USER CODE END I2C2_MspInit 0 */
 152:../../core/platform/octa/src/stm32l4xx_hal_msp.c ****   
 153:../../core/platform/octa/src/stm32l4xx_hal_msp.c ****     __HAL_RCC_GPIOF_CLK_ENABLE();
 154:../../core/platform/octa/src/stm32l4xx_hal_msp.c ****     /**I2C2 GPIO Configuration    
 155:../../core/platform/octa/src/stm32l4xx_hal_msp.c ****     PF0     ------> I2C2_SDA
 156:../../core/platform/octa/src/stm32l4xx_hal_msp.c ****     PF1     ------> I2C2_SCL 
 157:../../core/platform/octa/src/stm32l4xx_hal_msp.c ****     */
 158:../../core/platform/octa/src/stm32l4xx_hal_msp.c ****     GPIO_InitStruct.Pin = GPIO_PIN_0|GPIO_PIN_1;
 159:../../core/platform/octa/src/stm32l4xx_hal_msp.c ****     GPIO_InitStruct.Mode = GPIO_MODE_AF_OD;
 160:../../core/platform/octa/src/stm32l4xx_hal_msp.c ****     GPIO_InitStruct.Pull = GPIO_PULLUP;
 161:../../core/platform/octa/src/stm32l4xx_hal_msp.c ****     GPIO_InitStruct.Speed = GPIO_SPEED_FREQ_VERY_HIGH;
 162:../../core/platform/octa/src/stm32l4xx_hal_msp.c ****     GPIO_InitStruct.Alternate = GPIO_AF4_I2C2;
 163:../../core/platform/octa/src/stm32l4xx_hal_msp.c ****     HAL_GPIO_Init(GPIOF, &GPIO_InitStruct);
 164:../../core/platform/octa/src/stm32l4xx_hal_msp.c **** 
 165:../../core/platform/octa/src/stm32l4xx_hal_msp.c ****     /* Peripheral clock enable */
 166:../../core/platform/octa/src/stm32l4xx_hal_msp.c ****     __HAL_RCC_I2C2_CLK_ENABLE();
 167:../../core/platform/octa/src/stm32l4xx_hal_msp.c ****   /* USER CODE BEGIN I2C2_MspInit 1 */
 168:../../core/platform/octa/src/stm32l4xx_hal_msp.c **** 
 169:../../core/platform/octa/src/stm32l4xx_hal_msp.c ****   /* USER CODE END I2C2_MspInit 1 */
 170:../../core/platform/octa/src/stm32l4xx_hal_msp.c ****   }
 171:../../core/platform/octa/src/stm32l4xx_hal_msp.c ****   else if(hi2c->Instance==I2C3)
 140              		.loc 1 171 8 is_stmt 1 view .LVU23
 141              		.loc 1 171 10 is_stmt 0 view .LVU24
 142 0022 544A     		ldr	r2, .L15+8
 143 0024 9342     		cmp	r3, r2
 144 0026 48D0     		beq	.L13
 172:../../core/platform/octa/src/stm32l4xx_hal_msp.c ****   {
 173:../../core/platform/octa/src/stm32l4xx_hal_msp.c ****   /* USER CODE BEGIN I2C3_MspInit 0 */
 174:../../core/platform/octa/src/stm32l4xx_hal_msp.c **** 
 175:../../core/platform/octa/src/stm32l4xx_hal_msp.c ****   /* USER CODE END I2C3_MspInit 0 */
 176:../../core/platform/octa/src/stm32l4xx_hal_msp.c ****   
 177:../../core/platform/octa/src/stm32l4xx_hal_msp.c ****     __HAL_RCC_GPIOC_CLK_ENABLE();
 178:../../core/platform/octa/src/stm32l4xx_hal_msp.c ****     /**I2C3 GPIO Configuration    
 179:../../core/platform/octa/src/stm32l4xx_hal_msp.c ****     PC0     ------> I2C3_SCL
 180:../../core/platform/octa/src/stm32l4xx_hal_msp.c ****     PC1     ------> I2C3_SDA 
 181:../../core/platform/octa/src/stm32l4xx_hal_msp.c ****     */
 182:../../core/platform/octa/src/stm32l4xx_hal_msp.c ****     GPIO_InitStruct.Pin = GPIO_PIN_0|GPIO_PIN_1;
 183:../../core/platform/octa/src/stm32l4xx_hal_msp.c ****     GPIO_InitStruct.Mode = GPIO_MODE_AF_OD;
 184:../../core/platform/octa/src/stm32l4xx_hal_msp.c ****     GPIO_InitStruct.Pull = GPIO_PULLUP;
 185:../../core/platform/octa/src/stm32l4xx_hal_msp.c ****     GPIO_InitStruct.Speed = GPIO_SPEED_FREQ_VERY_HIGH;
 186:../../core/platform/octa/src/stm32l4xx_hal_msp.c ****     GPIO_InitStruct.Alternate = GPIO_AF4_I2C3;
 187:../../core/platform/octa/src/stm32l4xx_hal_msp.c ****     HAL_GPIO_Init(GPIOC, &GPIO_InitStruct);
 188:../../core/platform/octa/src/stm32l4xx_hal_msp.c **** 
 189:../../core/platform/octa/src/stm32l4xx_hal_msp.c ****     /* Peripheral clock enable */
 190:../../core/platform/octa/src/stm32l4xx_hal_msp.c ****     __HAL_RCC_I2C3_CLK_ENABLE();
 191:../../core/platform/octa/src/stm32l4xx_hal_msp.c ****   /* USER CODE BEGIN I2C3_MspInit 1 */
 192:../../core/platform/octa/src/stm32l4xx_hal_msp.c **** 
 193:../../core/platform/octa/src/stm32l4xx_hal_msp.c ****   /* USER CODE END I2C3_MspInit 1 */
 194:../../core/platform/octa/src/stm32l4xx_hal_msp.c ****   }
 195:../../core/platform/octa/src/stm32l4xx_hal_msp.c ****   else if(hi2c->Instance==I2C4)
 145              		.loc 1 195 8 is_stmt 1 view .LVU25
 146              		.loc 1 195 10 is_stmt 0 view .LVU26
 147 0028 534A     		ldr	r2, .L15+12
 148 002a 9342     		cmp	r3, r2
 149 002c 66D0     		beq	.L14
 150              	.LVL3:
ARM GAS  C:\Users\yvesk\AppData\Local\Temp\ccDdTYOB.s 			page 7


 151              	.L5:
 196:../../core/platform/octa/src/stm32l4xx_hal_msp.c ****   {
 197:../../core/platform/octa/src/stm32l4xx_hal_msp.c ****   /* USER CODE BEGIN I2C4_MspInit 0 */
 198:../../core/platform/octa/src/stm32l4xx_hal_msp.c **** 
 199:../../core/platform/octa/src/stm32l4xx_hal_msp.c ****   /* USER CODE END I2C4_MspInit 0 */
 200:../../core/platform/octa/src/stm32l4xx_hal_msp.c ****   
 201:../../core/platform/octa/src/stm32l4xx_hal_msp.c ****     __HAL_RCC_GPIOF_CLK_ENABLE();
 202:../../core/platform/octa/src/stm32l4xx_hal_msp.c ****     __HAL_RCC_GPIOB_CLK_ENABLE();
 203:../../core/platform/octa/src/stm32l4xx_hal_msp.c ****     /**I2C4 GPIO Configuration    
 204:../../core/platform/octa/src/stm32l4xx_hal_msp.c ****     PF15     ------> I2C4_SDA
 205:../../core/platform/octa/src/stm32l4xx_hal_msp.c ****     PB10     ------> I2C4_SCL 
 206:../../core/platform/octa/src/stm32l4xx_hal_msp.c ****     */
 207:../../core/platform/octa/src/stm32l4xx_hal_msp.c ****     GPIO_InitStruct.Pin = GPIO_PIN_15;
 208:../../core/platform/octa/src/stm32l4xx_hal_msp.c ****     GPIO_InitStruct.Mode = GPIO_MODE_AF_OD;
 209:../../core/platform/octa/src/stm32l4xx_hal_msp.c ****     GPIO_InitStruct.Pull = GPIO_PULLUP;
 210:../../core/platform/octa/src/stm32l4xx_hal_msp.c ****     GPIO_InitStruct.Speed = GPIO_SPEED_FREQ_VERY_HIGH;
 211:../../core/platform/octa/src/stm32l4xx_hal_msp.c ****     GPIO_InitStruct.Alternate = GPIO_AF4_I2C4;
 212:../../core/platform/octa/src/stm32l4xx_hal_msp.c ****     HAL_GPIO_Init(GPIOF, &GPIO_InitStruct);
 213:../../core/platform/octa/src/stm32l4xx_hal_msp.c **** 
 214:../../core/platform/octa/src/stm32l4xx_hal_msp.c ****     GPIO_InitStruct.Pin = GPIO_PIN_10;
 215:../../core/platform/octa/src/stm32l4xx_hal_msp.c ****     GPIO_InitStruct.Mode = GPIO_MODE_AF_OD;
 216:../../core/platform/octa/src/stm32l4xx_hal_msp.c ****     GPIO_InitStruct.Pull = GPIO_PULLUP;
 217:../../core/platform/octa/src/stm32l4xx_hal_msp.c ****     GPIO_InitStruct.Speed = GPIO_SPEED_FREQ_VERY_HIGH;
 218:../../core/platform/octa/src/stm32l4xx_hal_msp.c ****     GPIO_InitStruct.Alternate = GPIO_AF3_I2C4;
 219:../../core/platform/octa/src/stm32l4xx_hal_msp.c ****     HAL_GPIO_Init(GPIOB, &GPIO_InitStruct);
 220:../../core/platform/octa/src/stm32l4xx_hal_msp.c **** 
 221:../../core/platform/octa/src/stm32l4xx_hal_msp.c ****     /* Peripheral clock enable */
 222:../../core/platform/octa/src/stm32l4xx_hal_msp.c ****     __HAL_RCC_I2C4_CLK_ENABLE();
 223:../../core/platform/octa/src/stm32l4xx_hal_msp.c ****   /* USER CODE BEGIN I2C4_MspInit 1 */
 224:../../core/platform/octa/src/stm32l4xx_hal_msp.c **** 
 225:../../core/platform/octa/src/stm32l4xx_hal_msp.c ****   /* USER CODE END I2C4_MspInit 1 */
 226:../../core/platform/octa/src/stm32l4xx_hal_msp.c ****   }
 227:../../core/platform/octa/src/stm32l4xx_hal_msp.c **** 
 228:../../core/platform/octa/src/stm32l4xx_hal_msp.c **** }
 152              		.loc 1 228 1 view .LVU27
 153 002e 0FB0     		add	sp, sp, #60
 154              	.LCFI5:
 155              		.cfi_remember_state
 156              		.cfi_def_cfa_offset 20
 157              		@ sp needed
 158 0030 F0BD     		pop	{r4, r5, r6, r7, pc}
 159              	.LVL4:
 160              	.L11:
 161              	.LCFI6:
 162              		.cfi_restore_state
 128:../../core/platform/octa/src/stm32l4xx_hal_msp.c ****     /**I2C1 GPIO Configuration    
 163              		.loc 1 128 5 is_stmt 1 view .LVU28
 164              	.LBB4:
 128:../../core/platform/octa/src/stm32l4xx_hal_msp.c ****     /**I2C1 GPIO Configuration    
 165              		.loc 1 128 5 view .LVU29
 128:../../core/platform/octa/src/stm32l4xx_hal_msp.c ****     /**I2C1 GPIO Configuration    
 166              		.loc 1 128 5 view .LVU30
 167 0032 524D     		ldr	r5, .L15+16
 168 0034 EB6C     		ldr	r3, [r5, #76]
 169 0036 43F00203 		orr	r3, r3, #2
 170 003a EB64     		str	r3, [r5, #76]
 128:../../core/platform/octa/src/stm32l4xx_hal_msp.c ****     /**I2C1 GPIO Configuration    
ARM GAS  C:\Users\yvesk\AppData\Local\Temp\ccDdTYOB.s 			page 8


 171              		.loc 1 128 5 view .LVU31
 172 003c EB6C     		ldr	r3, [r5, #76]
 173 003e 03F00203 		and	r3, r3, #2
 174 0042 0093     		str	r3, [sp]
 128:../../core/platform/octa/src/stm32l4xx_hal_msp.c ****     /**I2C1 GPIO Configuration    
 175              		.loc 1 128 5 view .LVU32
 176 0044 009B     		ldr	r3, [sp]
 177              	.LBE4:
 133:../../core/platform/octa/src/stm32l4xx_hal_msp.c ****     GPIO_InitStruct.Mode = GPIO_MODE_AF_OD;
 178              		.loc 1 133 5 view .LVU33
 133:../../core/platform/octa/src/stm32l4xx_hal_msp.c ****     GPIO_InitStruct.Mode = GPIO_MODE_AF_OD;
 179              		.loc 1 133 25 is_stmt 0 view .LVU34
 180 0046 4FF44073 		mov	r3, #768
 181 004a 0993     		str	r3, [sp, #36]
 134:../../core/platform/octa/src/stm32l4xx_hal_msp.c ****     GPIO_InitStruct.Pull = GPIO_PULLUP;
 182              		.loc 1 134 5 is_stmt 1 view .LVU35
 134:../../core/platform/octa/src/stm32l4xx_hal_msp.c ****     GPIO_InitStruct.Pull = GPIO_PULLUP;
 183              		.loc 1 134 26 is_stmt 0 view .LVU36
 184 004c 1223     		movs	r3, #18
 185 004e 0A93     		str	r3, [sp, #40]
 135:../../core/platform/octa/src/stm32l4xx_hal_msp.c ****     GPIO_InitStruct.Speed = GPIO_SPEED_FREQ_VERY_HIGH;
 186              		.loc 1 135 5 is_stmt 1 view .LVU37
 135:../../core/platform/octa/src/stm32l4xx_hal_msp.c ****     GPIO_InitStruct.Speed = GPIO_SPEED_FREQ_VERY_HIGH;
 187              		.loc 1 135 26 is_stmt 0 view .LVU38
 188 0050 0123     		movs	r3, #1
 189 0052 0B93     		str	r3, [sp, #44]
 136:../../core/platform/octa/src/stm32l4xx_hal_msp.c ****     GPIO_InitStruct.Alternate = GPIO_AF4_I2C1;
 190              		.loc 1 136 5 is_stmt 1 view .LVU39
 136:../../core/platform/octa/src/stm32l4xx_hal_msp.c ****     GPIO_InitStruct.Alternate = GPIO_AF4_I2C1;
 191              		.loc 1 136 27 is_stmt 0 view .LVU40
 192 0054 0323     		movs	r3, #3
 193 0056 0C93     		str	r3, [sp, #48]
 137:../../core/platform/octa/src/stm32l4xx_hal_msp.c ****     HAL_GPIO_Init(GPIOB, &GPIO_InitStruct);
 194              		.loc 1 137 5 is_stmt 1 view .LVU41
 137:../../core/platform/octa/src/stm32l4xx_hal_msp.c ****     HAL_GPIO_Init(GPIOB, &GPIO_InitStruct);
 195              		.loc 1 137 31 is_stmt 0 view .LVU42
 196 0058 0423     		movs	r3, #4
 197 005a 0D93     		str	r3, [sp, #52]
 138:../../core/platform/octa/src/stm32l4xx_hal_msp.c **** 
 198              		.loc 1 138 5 is_stmt 1 view .LVU43
 199 005c 09A9     		add	r1, sp, #36
 200 005e 4848     		ldr	r0, .L15+20
 201              	.LVL5:
 138:../../core/platform/octa/src/stm32l4xx_hal_msp.c **** 
 202              		.loc 1 138 5 is_stmt 0 view .LVU44
 203 0060 FFF7FEFF 		bl	HAL_GPIO_Init
 204              	.LVL6:
 141:../../core/platform/octa/src/stm32l4xx_hal_msp.c ****   /* USER CODE BEGIN I2C1_MspInit 1 */
 205              		.loc 1 141 5 is_stmt 1 view .LVU45
 206              	.LBB5:
 141:../../core/platform/octa/src/stm32l4xx_hal_msp.c ****   /* USER CODE BEGIN I2C1_MspInit 1 */
 207              		.loc 1 141 5 view .LVU46
 141:../../core/platform/octa/src/stm32l4xx_hal_msp.c ****   /* USER CODE BEGIN I2C1_MspInit 1 */
 208              		.loc 1 141 5 view .LVU47
 209 0064 AB6D     		ldr	r3, [r5, #88]
 210 0066 43F40013 		orr	r3, r3, #2097152
 211 006a AB65     		str	r3, [r5, #88]
ARM GAS  C:\Users\yvesk\AppData\Local\Temp\ccDdTYOB.s 			page 9


 141:../../core/platform/octa/src/stm32l4xx_hal_msp.c ****   /* USER CODE BEGIN I2C1_MspInit 1 */
 212              		.loc 1 141 5 view .LVU48
 213 006c AB6D     		ldr	r3, [r5, #88]
 214 006e 03F40013 		and	r3, r3, #2097152
 215 0072 0193     		str	r3, [sp, #4]
 141:../../core/platform/octa/src/stm32l4xx_hal_msp.c ****   /* USER CODE BEGIN I2C1_MspInit 1 */
 216              		.loc 1 141 5 view .LVU49
 217 0074 019B     		ldr	r3, [sp, #4]
 218 0076 D0E7     		b	.L6
 219              	.L12:
 141:../../core/platform/octa/src/stm32l4xx_hal_msp.c ****   /* USER CODE BEGIN I2C1_MspInit 1 */
 220              		.loc 1 141 5 is_stmt 0 view .LVU50
 221              	.LBE5:
 153:../../core/platform/octa/src/stm32l4xx_hal_msp.c ****     /**I2C2 GPIO Configuration    
 222              		.loc 1 153 5 is_stmt 1 view .LVU51
 223              	.LBB6:
 153:../../core/platform/octa/src/stm32l4xx_hal_msp.c ****     /**I2C2 GPIO Configuration    
 224              		.loc 1 153 5 view .LVU52
 153:../../core/platform/octa/src/stm32l4xx_hal_msp.c ****     /**I2C2 GPIO Configuration    
 225              		.loc 1 153 5 view .LVU53
 226 0078 404C     		ldr	r4, .L15+16
 227              	.LVL7:
 153:../../core/platform/octa/src/stm32l4xx_hal_msp.c ****     /**I2C2 GPIO Configuration    
 228              		.loc 1 153 5 is_stmt 0 view .LVU54
 229 007a E36C     		ldr	r3, [r4, #76]
 230 007c 43F02003 		orr	r3, r3, #32
 231 0080 E364     		str	r3, [r4, #76]
 153:../../core/platform/octa/src/stm32l4xx_hal_msp.c ****     /**I2C2 GPIO Configuration    
 232              		.loc 1 153 5 is_stmt 1 view .LVU55
 233 0082 E36C     		ldr	r3, [r4, #76]
 234 0084 03F02003 		and	r3, r3, #32
 235 0088 0293     		str	r3, [sp, #8]
 153:../../core/platform/octa/src/stm32l4xx_hal_msp.c ****     /**I2C2 GPIO Configuration    
 236              		.loc 1 153 5 view .LVU56
 237 008a 029B     		ldr	r3, [sp, #8]
 238              	.LBE6:
 158:../../core/platform/octa/src/stm32l4xx_hal_msp.c ****     GPIO_InitStruct.Mode = GPIO_MODE_AF_OD;
 239              		.loc 1 158 5 view .LVU57
 158:../../core/platform/octa/src/stm32l4xx_hal_msp.c ****     GPIO_InitStruct.Mode = GPIO_MODE_AF_OD;
 240              		.loc 1 158 25 is_stmt 0 view .LVU58
 241 008c 0323     		movs	r3, #3
 242 008e 0993     		str	r3, [sp, #36]
 159:../../core/platform/octa/src/stm32l4xx_hal_msp.c ****     GPIO_InitStruct.Pull = GPIO_PULLUP;
 243              		.loc 1 159 5 is_stmt 1 view .LVU59
 159:../../core/platform/octa/src/stm32l4xx_hal_msp.c ****     GPIO_InitStruct.Pull = GPIO_PULLUP;
 244              		.loc 1 159 26 is_stmt 0 view .LVU60
 245 0090 1222     		movs	r2, #18
 246 0092 0A92     		str	r2, [sp, #40]
 160:../../core/platform/octa/src/stm32l4xx_hal_msp.c ****     GPIO_InitStruct.Speed = GPIO_SPEED_FREQ_VERY_HIGH;
 247              		.loc 1 160 5 is_stmt 1 view .LVU61
 160:../../core/platform/octa/src/stm32l4xx_hal_msp.c ****     GPIO_InitStruct.Speed = GPIO_SPEED_FREQ_VERY_HIGH;
 248              		.loc 1 160 26 is_stmt 0 view .LVU62
 249 0094 0122     		movs	r2, #1
 250 0096 0B92     		str	r2, [sp, #44]
 161:../../core/platform/octa/src/stm32l4xx_hal_msp.c ****     GPIO_InitStruct.Alternate = GPIO_AF4_I2C2;
 251              		.loc 1 161 5 is_stmt 1 view .LVU63
 161:../../core/platform/octa/src/stm32l4xx_hal_msp.c ****     GPIO_InitStruct.Alternate = GPIO_AF4_I2C2;
ARM GAS  C:\Users\yvesk\AppData\Local\Temp\ccDdTYOB.s 			page 10


 252              		.loc 1 161 27 is_stmt 0 view .LVU64
 253 0098 0C93     		str	r3, [sp, #48]
 162:../../core/platform/octa/src/stm32l4xx_hal_msp.c ****     HAL_GPIO_Init(GPIOF, &GPIO_InitStruct);
 254              		.loc 1 162 5 is_stmt 1 view .LVU65
 162:../../core/platform/octa/src/stm32l4xx_hal_msp.c ****     HAL_GPIO_Init(GPIOF, &GPIO_InitStruct);
 255              		.loc 1 162 31 is_stmt 0 view .LVU66
 256 009a 0423     		movs	r3, #4
 257 009c 0D93     		str	r3, [sp, #52]
 163:../../core/platform/octa/src/stm32l4xx_hal_msp.c **** 
 258              		.loc 1 163 5 is_stmt 1 view .LVU67
 259 009e 09A9     		add	r1, sp, #36
 260 00a0 3848     		ldr	r0, .L15+24
 261 00a2 FFF7FEFF 		bl	HAL_GPIO_Init
 262              	.LVL8:
 166:../../core/platform/octa/src/stm32l4xx_hal_msp.c ****   /* USER CODE BEGIN I2C2_MspInit 1 */
 263              		.loc 1 166 5 view .LVU68
 264              	.LBB7:
 166:../../core/platform/octa/src/stm32l4xx_hal_msp.c ****   /* USER CODE BEGIN I2C2_MspInit 1 */
 265              		.loc 1 166 5 view .LVU69
 166:../../core/platform/octa/src/stm32l4xx_hal_msp.c ****   /* USER CODE BEGIN I2C2_MspInit 1 */
 266              		.loc 1 166 5 view .LVU70
 267 00a6 A36D     		ldr	r3, [r4, #88]
 268 00a8 43F48003 		orr	r3, r3, #4194304
 269 00ac A365     		str	r3, [r4, #88]
 166:../../core/platform/octa/src/stm32l4xx_hal_msp.c ****   /* USER CODE BEGIN I2C2_MspInit 1 */
 270              		.loc 1 166 5 view .LVU71
 271 00ae A36D     		ldr	r3, [r4, #88]
 272 00b0 03F48003 		and	r3, r3, #4194304
 273 00b4 0393     		str	r3, [sp, #12]
 166:../../core/platform/octa/src/stm32l4xx_hal_msp.c ****   /* USER CODE BEGIN I2C2_MspInit 1 */
 274              		.loc 1 166 5 view .LVU72
 275 00b6 039B     		ldr	r3, [sp, #12]
 276              	.LBE7:
 277 00b8 B9E7     		b	.L5
 278              	.LVL9:
 279              	.L13:
 177:../../core/platform/octa/src/stm32l4xx_hal_msp.c ****     /**I2C3 GPIO Configuration    
 280              		.loc 1 177 5 view .LVU73
 281              	.LBB8:
 177:../../core/platform/octa/src/stm32l4xx_hal_msp.c ****     /**I2C3 GPIO Configuration    
 282              		.loc 1 177 5 view .LVU74
 177:../../core/platform/octa/src/stm32l4xx_hal_msp.c ****     /**I2C3 GPIO Configuration    
 283              		.loc 1 177 5 view .LVU75
 284 00ba 304C     		ldr	r4, .L15+16
 285              	.LVL10:
 177:../../core/platform/octa/src/stm32l4xx_hal_msp.c ****     /**I2C3 GPIO Configuration    
 286              		.loc 1 177 5 is_stmt 0 view .LVU76
 287 00bc E36C     		ldr	r3, [r4, #76]
 288 00be 43F00403 		orr	r3, r3, #4
 289 00c2 E364     		str	r3, [r4, #76]
 177:../../core/platform/octa/src/stm32l4xx_hal_msp.c ****     /**I2C3 GPIO Configuration    
 290              		.loc 1 177 5 is_stmt 1 view .LVU77
 291 00c4 E36C     		ldr	r3, [r4, #76]
 292 00c6 03F00403 		and	r3, r3, #4
 293 00ca 0493     		str	r3, [sp, #16]
 177:../../core/platform/octa/src/stm32l4xx_hal_msp.c ****     /**I2C3 GPIO Configuration    
 294              		.loc 1 177 5 view .LVU78
ARM GAS  C:\Users\yvesk\AppData\Local\Temp\ccDdTYOB.s 			page 11


 295 00cc 049B     		ldr	r3, [sp, #16]
 296              	.LBE8:
 182:../../core/platform/octa/src/stm32l4xx_hal_msp.c ****     GPIO_InitStruct.Mode = GPIO_MODE_AF_OD;
 297              		.loc 1 182 5 view .LVU79
 182:../../core/platform/octa/src/stm32l4xx_hal_msp.c ****     GPIO_InitStruct.Mode = GPIO_MODE_AF_OD;
 298              		.loc 1 182 25 is_stmt 0 view .LVU80
 299 00ce 0323     		movs	r3, #3
 300 00d0 0993     		str	r3, [sp, #36]
 183:../../core/platform/octa/src/stm32l4xx_hal_msp.c ****     GPIO_InitStruct.Pull = GPIO_PULLUP;
 301              		.loc 1 183 5 is_stmt 1 view .LVU81
 183:../../core/platform/octa/src/stm32l4xx_hal_msp.c ****     GPIO_InitStruct.Pull = GPIO_PULLUP;
 302              		.loc 1 183 26 is_stmt 0 view .LVU82
 303 00d2 1222     		movs	r2, #18
 304 00d4 0A92     		str	r2, [sp, #40]
 184:../../core/platform/octa/src/stm32l4xx_hal_msp.c ****     GPIO_InitStruct.Speed = GPIO_SPEED_FREQ_VERY_HIGH;
 305              		.loc 1 184 5 is_stmt 1 view .LVU83
 184:../../core/platform/octa/src/stm32l4xx_hal_msp.c ****     GPIO_InitStruct.Speed = GPIO_SPEED_FREQ_VERY_HIGH;
 306              		.loc 1 184 26 is_stmt 0 view .LVU84
 307 00d6 0122     		movs	r2, #1
 308 00d8 0B92     		str	r2, [sp, #44]
 185:../../core/platform/octa/src/stm32l4xx_hal_msp.c ****     GPIO_InitStruct.Alternate = GPIO_AF4_I2C3;
 309              		.loc 1 185 5 is_stmt 1 view .LVU85
 185:../../core/platform/octa/src/stm32l4xx_hal_msp.c ****     GPIO_InitStruct.Alternate = GPIO_AF4_I2C3;
 310              		.loc 1 185 27 is_stmt 0 view .LVU86
 311 00da 0C93     		str	r3, [sp, #48]
 186:../../core/platform/octa/src/stm32l4xx_hal_msp.c ****     HAL_GPIO_Init(GPIOC, &GPIO_InitStruct);
 312              		.loc 1 186 5 is_stmt 1 view .LVU87
 186:../../core/platform/octa/src/stm32l4xx_hal_msp.c ****     HAL_GPIO_Init(GPIOC, &GPIO_InitStruct);
 313              		.loc 1 186 31 is_stmt 0 view .LVU88
 314 00dc 0423     		movs	r3, #4
 315 00de 0D93     		str	r3, [sp, #52]
 187:../../core/platform/octa/src/stm32l4xx_hal_msp.c **** 
 316              		.loc 1 187 5 is_stmt 1 view .LVU89
 317 00e0 09A9     		add	r1, sp, #36
 318 00e2 2948     		ldr	r0, .L15+28
 319 00e4 FFF7FEFF 		bl	HAL_GPIO_Init
 320              	.LVL11:
 190:../../core/platform/octa/src/stm32l4xx_hal_msp.c ****   /* USER CODE BEGIN I2C3_MspInit 1 */
 321              		.loc 1 190 5 view .LVU90
 322              	.LBB9:
 190:../../core/platform/octa/src/stm32l4xx_hal_msp.c ****   /* USER CODE BEGIN I2C3_MspInit 1 */
 323              		.loc 1 190 5 view .LVU91
 190:../../core/platform/octa/src/stm32l4xx_hal_msp.c ****   /* USER CODE BEGIN I2C3_MspInit 1 */
 324              		.loc 1 190 5 view .LVU92
 325 00e8 A36D     		ldr	r3, [r4, #88]
 326 00ea 43F40003 		orr	r3, r3, #8388608
 327 00ee A365     		str	r3, [r4, #88]
 190:../../core/platform/octa/src/stm32l4xx_hal_msp.c ****   /* USER CODE BEGIN I2C3_MspInit 1 */
 328              		.loc 1 190 5 view .LVU93
 329 00f0 A36D     		ldr	r3, [r4, #88]
 330 00f2 03F40003 		and	r3, r3, #8388608
 331 00f6 0593     		str	r3, [sp, #20]
 190:../../core/platform/octa/src/stm32l4xx_hal_msp.c ****   /* USER CODE BEGIN I2C3_MspInit 1 */
 332              		.loc 1 190 5 view .LVU94
 333 00f8 059B     		ldr	r3, [sp, #20]
 334              	.LBE9:
 335 00fa 98E7     		b	.L5
ARM GAS  C:\Users\yvesk\AppData\Local\Temp\ccDdTYOB.s 			page 12


 336              	.LVL12:
 337              	.L14:
 201:../../core/platform/octa/src/stm32l4xx_hal_msp.c ****     __HAL_RCC_GPIOB_CLK_ENABLE();
 338              		.loc 1 201 5 view .LVU95
 339              	.LBB10:
 201:../../core/platform/octa/src/stm32l4xx_hal_msp.c ****     __HAL_RCC_GPIOB_CLK_ENABLE();
 340              		.loc 1 201 5 view .LVU96
 201:../../core/platform/octa/src/stm32l4xx_hal_msp.c ****     __HAL_RCC_GPIOB_CLK_ENABLE();
 341              		.loc 1 201 5 view .LVU97
 342 00fc 1F4C     		ldr	r4, .L15+16
 343              	.LVL13:
 201:../../core/platform/octa/src/stm32l4xx_hal_msp.c ****     __HAL_RCC_GPIOB_CLK_ENABLE();
 344              		.loc 1 201 5 is_stmt 0 view .LVU98
 345 00fe E36C     		ldr	r3, [r4, #76]
 346 0100 43F02003 		orr	r3, r3, #32
 347 0104 E364     		str	r3, [r4, #76]
 201:../../core/platform/octa/src/stm32l4xx_hal_msp.c ****     __HAL_RCC_GPIOB_CLK_ENABLE();
 348              		.loc 1 201 5 is_stmt 1 view .LVU99
 349 0106 E36C     		ldr	r3, [r4, #76]
 350 0108 03F02003 		and	r3, r3, #32
 351 010c 0693     		str	r3, [sp, #24]
 201:../../core/platform/octa/src/stm32l4xx_hal_msp.c ****     __HAL_RCC_GPIOB_CLK_ENABLE();
 352              		.loc 1 201 5 view .LVU100
 353 010e 069B     		ldr	r3, [sp, #24]
 354              	.LBE10:
 202:../../core/platform/octa/src/stm32l4xx_hal_msp.c ****     /**I2C4 GPIO Configuration    
 355              		.loc 1 202 5 view .LVU101
 356              	.LBB11:
 202:../../core/platform/octa/src/stm32l4xx_hal_msp.c ****     /**I2C4 GPIO Configuration    
 357              		.loc 1 202 5 view .LVU102
 202:../../core/platform/octa/src/stm32l4xx_hal_msp.c ****     /**I2C4 GPIO Configuration    
 358              		.loc 1 202 5 view .LVU103
 359 0110 E36C     		ldr	r3, [r4, #76]
 360 0112 43F00203 		orr	r3, r3, #2
 361 0116 E364     		str	r3, [r4, #76]
 202:../../core/platform/octa/src/stm32l4xx_hal_msp.c ****     /**I2C4 GPIO Configuration    
 362              		.loc 1 202 5 view .LVU104
 363 0118 E36C     		ldr	r3, [r4, #76]
 364 011a 03F00203 		and	r3, r3, #2
 365 011e 0793     		str	r3, [sp, #28]
 202:../../core/platform/octa/src/stm32l4xx_hal_msp.c ****     /**I2C4 GPIO Configuration    
 366              		.loc 1 202 5 view .LVU105
 367 0120 079B     		ldr	r3, [sp, #28]
 368              	.LBE11:
 207:../../core/platform/octa/src/stm32l4xx_hal_msp.c ****     GPIO_InitStruct.Mode = GPIO_MODE_AF_OD;
 369              		.loc 1 207 5 view .LVU106
 207:../../core/platform/octa/src/stm32l4xx_hal_msp.c ****     GPIO_InitStruct.Mode = GPIO_MODE_AF_OD;
 370              		.loc 1 207 25 is_stmt 0 view .LVU107
 371 0122 4FF40043 		mov	r3, #32768
 372 0126 0993     		str	r3, [sp, #36]
 208:../../core/platform/octa/src/stm32l4xx_hal_msp.c ****     GPIO_InitStruct.Pull = GPIO_PULLUP;
 373              		.loc 1 208 5 is_stmt 1 view .LVU108
 208:../../core/platform/octa/src/stm32l4xx_hal_msp.c ****     GPIO_InitStruct.Pull = GPIO_PULLUP;
 374              		.loc 1 208 26 is_stmt 0 view .LVU109
 375 0128 1227     		movs	r7, #18
 376 012a 0A97     		str	r7, [sp, #40]
 209:../../core/platform/octa/src/stm32l4xx_hal_msp.c ****     GPIO_InitStruct.Speed = GPIO_SPEED_FREQ_VERY_HIGH;
ARM GAS  C:\Users\yvesk\AppData\Local\Temp\ccDdTYOB.s 			page 13


 377              		.loc 1 209 5 is_stmt 1 view .LVU110
 209:../../core/platform/octa/src/stm32l4xx_hal_msp.c ****     GPIO_InitStruct.Speed = GPIO_SPEED_FREQ_VERY_HIGH;
 378              		.loc 1 209 26 is_stmt 0 view .LVU111
 379 012c 0126     		movs	r6, #1
 380 012e 0B96     		str	r6, [sp, #44]
 210:../../core/platform/octa/src/stm32l4xx_hal_msp.c ****     GPIO_InitStruct.Alternate = GPIO_AF4_I2C4;
 381              		.loc 1 210 5 is_stmt 1 view .LVU112
 210:../../core/platform/octa/src/stm32l4xx_hal_msp.c ****     GPIO_InitStruct.Alternate = GPIO_AF4_I2C4;
 382              		.loc 1 210 27 is_stmt 0 view .LVU113
 383 0130 0325     		movs	r5, #3
 384 0132 0C95     		str	r5, [sp, #48]
 211:../../core/platform/octa/src/stm32l4xx_hal_msp.c ****     HAL_GPIO_Init(GPIOF, &GPIO_InitStruct);
 385              		.loc 1 211 5 is_stmt 1 view .LVU114
 211:../../core/platform/octa/src/stm32l4xx_hal_msp.c ****     HAL_GPIO_Init(GPIOF, &GPIO_InitStruct);
 386              		.loc 1 211 31 is_stmt 0 view .LVU115
 387 0134 0423     		movs	r3, #4
 388 0136 0D93     		str	r3, [sp, #52]
 212:../../core/platform/octa/src/stm32l4xx_hal_msp.c **** 
 389              		.loc 1 212 5 is_stmt 1 view .LVU116
 390 0138 09A9     		add	r1, sp, #36
 391 013a 1248     		ldr	r0, .L15+24
 392 013c FFF7FEFF 		bl	HAL_GPIO_Init
 393              	.LVL14:
 214:../../core/platform/octa/src/stm32l4xx_hal_msp.c ****     GPIO_InitStruct.Mode = GPIO_MODE_AF_OD;
 394              		.loc 1 214 5 view .LVU117
 214:../../core/platform/octa/src/stm32l4xx_hal_msp.c ****     GPIO_InitStruct.Mode = GPIO_MODE_AF_OD;
 395              		.loc 1 214 25 is_stmt 0 view .LVU118
 396 0140 4FF48063 		mov	r3, #1024
 397 0144 0993     		str	r3, [sp, #36]
 215:../../core/platform/octa/src/stm32l4xx_hal_msp.c ****     GPIO_InitStruct.Pull = GPIO_PULLUP;
 398              		.loc 1 215 5 is_stmt 1 view .LVU119
 215:../../core/platform/octa/src/stm32l4xx_hal_msp.c ****     GPIO_InitStruct.Pull = GPIO_PULLUP;
 399              		.loc 1 215 26 is_stmt 0 view .LVU120
 400 0146 0A97     		str	r7, [sp, #40]
 216:../../core/platform/octa/src/stm32l4xx_hal_msp.c ****     GPIO_InitStruct.Speed = GPIO_SPEED_FREQ_VERY_HIGH;
 401              		.loc 1 216 5 is_stmt 1 view .LVU121
 216:../../core/platform/octa/src/stm32l4xx_hal_msp.c ****     GPIO_InitStruct.Speed = GPIO_SPEED_FREQ_VERY_HIGH;
 402              		.loc 1 216 26 is_stmt 0 view .LVU122
 403 0148 0B96     		str	r6, [sp, #44]
 217:../../core/platform/octa/src/stm32l4xx_hal_msp.c ****     GPIO_InitStruct.Alternate = GPIO_AF3_I2C4;
 404              		.loc 1 217 5 is_stmt 1 view .LVU123
 217:../../core/platform/octa/src/stm32l4xx_hal_msp.c ****     GPIO_InitStruct.Alternate = GPIO_AF3_I2C4;
 405              		.loc 1 217 27 is_stmt 0 view .LVU124
 406 014a 0C95     		str	r5, [sp, #48]
 218:../../core/platform/octa/src/stm32l4xx_hal_msp.c ****     HAL_GPIO_Init(GPIOB, &GPIO_InitStruct);
 407              		.loc 1 218 5 is_stmt 1 view .LVU125
 218:../../core/platform/octa/src/stm32l4xx_hal_msp.c ****     HAL_GPIO_Init(GPIOB, &GPIO_InitStruct);
 408              		.loc 1 218 31 is_stmt 0 view .LVU126
 409 014c 0D95     		str	r5, [sp, #52]
 219:../../core/platform/octa/src/stm32l4xx_hal_msp.c **** 
 410              		.loc 1 219 5 is_stmt 1 view .LVU127
 411 014e 09A9     		add	r1, sp, #36
 412 0150 0B48     		ldr	r0, .L15+20
 413 0152 FFF7FEFF 		bl	HAL_GPIO_Init
 414              	.LVL15:
 222:../../core/platform/octa/src/stm32l4xx_hal_msp.c ****   /* USER CODE BEGIN I2C4_MspInit 1 */
 415              		.loc 1 222 5 view .LVU128
ARM GAS  C:\Users\yvesk\AppData\Local\Temp\ccDdTYOB.s 			page 14


 416              	.LBB12:
 222:../../core/platform/octa/src/stm32l4xx_hal_msp.c ****   /* USER CODE BEGIN I2C4_MspInit 1 */
 417              		.loc 1 222 5 view .LVU129
 222:../../core/platform/octa/src/stm32l4xx_hal_msp.c ****   /* USER CODE BEGIN I2C4_MspInit 1 */
 418              		.loc 1 222 5 view .LVU130
 419 0156 E36D     		ldr	r3, [r4, #92]
 420 0158 43F00203 		orr	r3, r3, #2
 421 015c E365     		str	r3, [r4, #92]
 222:../../core/platform/octa/src/stm32l4xx_hal_msp.c ****   /* USER CODE BEGIN I2C4_MspInit 1 */
 422              		.loc 1 222 5 view .LVU131
 423 015e E36D     		ldr	r3, [r4, #92]
 424 0160 03F00203 		and	r3, r3, #2
 425 0164 0893     		str	r3, [sp, #32]
 222:../../core/platform/octa/src/stm32l4xx_hal_msp.c ****   /* USER CODE BEGIN I2C4_MspInit 1 */
 426              		.loc 1 222 5 view .LVU132
 427 0166 089B     		ldr	r3, [sp, #32]
 428              	.LBE12:
 429              		.loc 1 228 1 is_stmt 0 view .LVU133
 430 0168 61E7     		b	.L5
 431              	.L16:
 432 016a 00BF     		.align	2
 433              	.L15:
 434 016c 00540040 		.word	1073763328
 435 0170 00580040 		.word	1073764352
 436 0174 005C0040 		.word	1073765376
 437 0178 00840040 		.word	1073775616
 438 017c 00100240 		.word	1073876992
 439 0180 00040048 		.word	1207960576
 440 0184 00140048 		.word	1207964672
 441 0188 00080048 		.word	1207961600
 442              		.cfi_endproc
 443              	.LFE124:
 445              		.section	.text.HAL_I2C_MspDeInit,"ax",%progbits
 446              		.align	1
 447              		.global	HAL_I2C_MspDeInit
 448              		.syntax unified
 449              		.thumb
 450              		.thumb_func
 451              		.fpu fpv4-sp-d16
 453              	HAL_I2C_MspDeInit:
 454              	.LVL16:
 455              	.LFB125:
 229:../../core/platform/octa/src/stm32l4xx_hal_msp.c **** 
 230:../../core/platform/octa/src/stm32l4xx_hal_msp.c **** /**
 231:../../core/platform/octa/src/stm32l4xx_hal_msp.c **** * @brief I2C MSP De-Initialization
 232:../../core/platform/octa/src/stm32l4xx_hal_msp.c **** * This function freeze the hardware resources used in this example
 233:../../core/platform/octa/src/stm32l4xx_hal_msp.c **** * @param hi2c: I2C handle pointer
 234:../../core/platform/octa/src/stm32l4xx_hal_msp.c **** * @retval None
 235:../../core/platform/octa/src/stm32l4xx_hal_msp.c **** */
 236:../../core/platform/octa/src/stm32l4xx_hal_msp.c **** 
 237:../../core/platform/octa/src/stm32l4xx_hal_msp.c **** void HAL_I2C_MspDeInit(I2C_HandleTypeDef* hi2c)
 238:../../core/platform/octa/src/stm32l4xx_hal_msp.c **** {
 456              		.loc 1 238 1 is_stmt 1 view -0
 457              		.cfi_startproc
 458              		@ args = 0, pretend = 0, frame = 0
 459              		@ frame_needed = 0, uses_anonymous_args = 0
 460              		.loc 1 238 1 is_stmt 0 view .LVU135
ARM GAS  C:\Users\yvesk\AppData\Local\Temp\ccDdTYOB.s 			page 15


 461 0000 10B5     		push	{r4, lr}
 462              	.LCFI7:
 463              		.cfi_def_cfa_offset 8
 464              		.cfi_offset 4, -8
 465              		.cfi_offset 14, -4
 466 0002 0446     		mov	r4, r0
 239:../../core/platform/octa/src/stm32l4xx_hal_msp.c ****   if(hi2c->Instance==I2C1)
 467              		.loc 1 239 3 is_stmt 1 view .LVU136
 468              		.loc 1 239 10 is_stmt 0 view .LVU137
 469 0004 0268     		ldr	r2, [r0]
 470              		.loc 1 239 5 view .LVU138
 471 0006 204B     		ldr	r3, .L27
 472 0008 9A42     		cmp	r2, r3
 473 000a 0AD0     		beq	.L23
 474              	.LVL17:
 475              	.L18:
 240:../../core/platform/octa/src/stm32l4xx_hal_msp.c ****   {
 241:../../core/platform/octa/src/stm32l4xx_hal_msp.c ****   /* USER CODE BEGIN I2C1_MspDeInit 0 */
 242:../../core/platform/octa/src/stm32l4xx_hal_msp.c **** 
 243:../../core/platform/octa/src/stm32l4xx_hal_msp.c ****   /* USER CODE END I2C1_MspDeInit 0 */
 244:../../core/platform/octa/src/stm32l4xx_hal_msp.c ****     /* Peripheral clock disable */
 245:../../core/platform/octa/src/stm32l4xx_hal_msp.c ****     __HAL_RCC_I2C1_CLK_DISABLE();
 246:../../core/platform/octa/src/stm32l4xx_hal_msp.c ****   
 247:../../core/platform/octa/src/stm32l4xx_hal_msp.c ****     /**I2C1 GPIO Configuration    
 248:../../core/platform/octa/src/stm32l4xx_hal_msp.c ****     PB8     ------> I2C1_SCL
 249:../../core/platform/octa/src/stm32l4xx_hal_msp.c ****     PB9     ------> I2C1_SDA 
 250:../../core/platform/octa/src/stm32l4xx_hal_msp.c ****     */
 251:../../core/platform/octa/src/stm32l4xx_hal_msp.c ****     HAL_GPIO_DeInit(GPIOB, GPIO_PIN_8|GPIO_PIN_9);
 252:../../core/platform/octa/src/stm32l4xx_hal_msp.c **** 
 253:../../core/platform/octa/src/stm32l4xx_hal_msp.c ****   /* USER CODE BEGIN I2C1_MspDeInit 1 */
 254:../../core/platform/octa/src/stm32l4xx_hal_msp.c **** 
 255:../../core/platform/octa/src/stm32l4xx_hal_msp.c ****   /* USER CODE END I2C1_MspDeInit 1 */
 256:../../core/platform/octa/src/stm32l4xx_hal_msp.c ****   }
 257:../../core/platform/octa/src/stm32l4xx_hal_msp.c ****   if(hi2c->Instance==I2C2)
 476              		.loc 1 257 3 is_stmt 1 view .LVU139
 477              		.loc 1 257 10 is_stmt 0 view .LVU140
 478 000c 2368     		ldr	r3, [r4]
 479              		.loc 1 257 5 view .LVU141
 480 000e 1F4A     		ldr	r2, .L27+4
 481 0010 9342     		cmp	r3, r2
 482 0012 11D0     		beq	.L24
 258:../../core/platform/octa/src/stm32l4xx_hal_msp.c ****   {
 259:../../core/platform/octa/src/stm32l4xx_hal_msp.c ****   /* USER CODE BEGIN I2C2_MspDeInit 0 */
 260:../../core/platform/octa/src/stm32l4xx_hal_msp.c **** 
 261:../../core/platform/octa/src/stm32l4xx_hal_msp.c ****   /* USER CODE END I2C2_MspDeInit 0 */
 262:../../core/platform/octa/src/stm32l4xx_hal_msp.c ****     /* Peripheral clock disable */
 263:../../core/platform/octa/src/stm32l4xx_hal_msp.c ****     __HAL_RCC_I2C2_CLK_DISABLE();
 264:../../core/platform/octa/src/stm32l4xx_hal_msp.c ****   
 265:../../core/platform/octa/src/stm32l4xx_hal_msp.c ****     /**I2C2 GPIO Configuration    
 266:../../core/platform/octa/src/stm32l4xx_hal_msp.c ****     PF0     ------> I2C2_SDA
 267:../../core/platform/octa/src/stm32l4xx_hal_msp.c ****     PF1     ------> I2C2_SCL 
 268:../../core/platform/octa/src/stm32l4xx_hal_msp.c ****     */
 269:../../core/platform/octa/src/stm32l4xx_hal_msp.c ****     HAL_GPIO_DeInit(GPIOF, GPIO_PIN_0|GPIO_PIN_1);
 270:../../core/platform/octa/src/stm32l4xx_hal_msp.c **** 
 271:../../core/platform/octa/src/stm32l4xx_hal_msp.c ****   /* USER CODE BEGIN I2C2_MspDeInit 1 */
 272:../../core/platform/octa/src/stm32l4xx_hal_msp.c **** 
 273:../../core/platform/octa/src/stm32l4xx_hal_msp.c ****   /* USER CODE END I2C2_MspDeInit 1 */
ARM GAS  C:\Users\yvesk\AppData\Local\Temp\ccDdTYOB.s 			page 16


 274:../../core/platform/octa/src/stm32l4xx_hal_msp.c ****   }
 275:../../core/platform/octa/src/stm32l4xx_hal_msp.c ****   else if(hi2c->Instance==I2C3)
 483              		.loc 1 275 8 is_stmt 1 view .LVU142
 484              		.loc 1 275 10 is_stmt 0 view .LVU143
 485 0014 1E4A     		ldr	r2, .L27+8
 486 0016 9342     		cmp	r3, r2
 487 0018 19D0     		beq	.L25
 276:../../core/platform/octa/src/stm32l4xx_hal_msp.c ****   {
 277:../../core/platform/octa/src/stm32l4xx_hal_msp.c ****   /* USER CODE BEGIN I2C3_MspDeInit 0 */
 278:../../core/platform/octa/src/stm32l4xx_hal_msp.c **** 
 279:../../core/platform/octa/src/stm32l4xx_hal_msp.c ****   /* USER CODE END I2C3_MspDeInit 0 */
 280:../../core/platform/octa/src/stm32l4xx_hal_msp.c ****     /* Peripheral clock disable */
 281:../../core/platform/octa/src/stm32l4xx_hal_msp.c ****     __HAL_RCC_I2C3_CLK_DISABLE();
 282:../../core/platform/octa/src/stm32l4xx_hal_msp.c ****   
 283:../../core/platform/octa/src/stm32l4xx_hal_msp.c ****     /**I2C3 GPIO Configuration    
 284:../../core/platform/octa/src/stm32l4xx_hal_msp.c ****     PC0     ------> I2C3_SCL
 285:../../core/platform/octa/src/stm32l4xx_hal_msp.c ****     PC1     ------> I2C3_SDA 
 286:../../core/platform/octa/src/stm32l4xx_hal_msp.c ****     */
 287:../../core/platform/octa/src/stm32l4xx_hal_msp.c ****     HAL_GPIO_DeInit(GPIOC, GPIO_PIN_0|GPIO_PIN_1);
 288:../../core/platform/octa/src/stm32l4xx_hal_msp.c **** 
 289:../../core/platform/octa/src/stm32l4xx_hal_msp.c ****   /* USER CODE BEGIN I2C3_MspDeInit 1 */
 290:../../core/platform/octa/src/stm32l4xx_hal_msp.c **** 
 291:../../core/platform/octa/src/stm32l4xx_hal_msp.c ****   /* USER CODE END I2C3_MspDeInit 1 */
 292:../../core/platform/octa/src/stm32l4xx_hal_msp.c ****   }
 293:../../core/platform/octa/src/stm32l4xx_hal_msp.c ****   else if(hi2c->Instance==I2C4)
 488              		.loc 1 293 8 is_stmt 1 view .LVU144
 489              		.loc 1 293 10 is_stmt 0 view .LVU145
 490 001a 1E4A     		ldr	r2, .L27+12
 491 001c 9342     		cmp	r3, r2
 492 001e 21D0     		beq	.L26
 493              	.L17:
 294:../../core/platform/octa/src/stm32l4xx_hal_msp.c ****   {
 295:../../core/platform/octa/src/stm32l4xx_hal_msp.c ****   /* USER CODE BEGIN I2C4_MspDeInit 0 */
 296:../../core/platform/octa/src/stm32l4xx_hal_msp.c **** 
 297:../../core/platform/octa/src/stm32l4xx_hal_msp.c ****   /* USER CODE END I2C4_MspDeInit 0 */
 298:../../core/platform/octa/src/stm32l4xx_hal_msp.c ****     /* Peripheral clock disable */
 299:../../core/platform/octa/src/stm32l4xx_hal_msp.c ****     __HAL_RCC_I2C4_CLK_DISABLE();
 300:../../core/platform/octa/src/stm32l4xx_hal_msp.c ****   
 301:../../core/platform/octa/src/stm32l4xx_hal_msp.c ****     /**I2C4 GPIO Configuration    
 302:../../core/platform/octa/src/stm32l4xx_hal_msp.c ****     PF15     ------> I2C4_SDA
 303:../../core/platform/octa/src/stm32l4xx_hal_msp.c ****     PB10     ------> I2C4_SCL 
 304:../../core/platform/octa/src/stm32l4xx_hal_msp.c ****     */
 305:../../core/platform/octa/src/stm32l4xx_hal_msp.c ****     HAL_GPIO_DeInit(GPIOF, GPIO_PIN_15);
 306:../../core/platform/octa/src/stm32l4xx_hal_msp.c **** 
 307:../../core/platform/octa/src/stm32l4xx_hal_msp.c ****     HAL_GPIO_DeInit(GPIOB, GPIO_PIN_10);
 308:../../core/platform/octa/src/stm32l4xx_hal_msp.c **** 
 309:../../core/platform/octa/src/stm32l4xx_hal_msp.c ****   /* USER CODE BEGIN I2C4_MspDeInit 1 */
 310:../../core/platform/octa/src/stm32l4xx_hal_msp.c **** 
 311:../../core/platform/octa/src/stm32l4xx_hal_msp.c ****   /* USER CODE END I2C4_MspDeInit 1 */
 312:../../core/platform/octa/src/stm32l4xx_hal_msp.c ****   }
 313:../../core/platform/octa/src/stm32l4xx_hal_msp.c **** 
 314:../../core/platform/octa/src/stm32l4xx_hal_msp.c **** }
 494              		.loc 1 314 1 view .LVU146
 495 0020 10BD     		pop	{r4, pc}
 496              	.LVL18:
 497              	.L23:
 245:../../core/platform/octa/src/stm32l4xx_hal_msp.c ****   
ARM GAS  C:\Users\yvesk\AppData\Local\Temp\ccDdTYOB.s 			page 17


 498              		.loc 1 245 5 is_stmt 1 view .LVU147
 499 0022 1D4A     		ldr	r2, .L27+16
 500 0024 936D     		ldr	r3, [r2, #88]
 501 0026 23F40013 		bic	r3, r3, #2097152
 502 002a 9365     		str	r3, [r2, #88]
 251:../../core/platform/octa/src/stm32l4xx_hal_msp.c **** 
 503              		.loc 1 251 5 view .LVU148
 504 002c 4FF44071 		mov	r1, #768
 505 0030 1A48     		ldr	r0, .L27+20
 506              	.LVL19:
 251:../../core/platform/octa/src/stm32l4xx_hal_msp.c **** 
 507              		.loc 1 251 5 is_stmt 0 view .LVU149
 508 0032 FFF7FEFF 		bl	HAL_GPIO_DeInit
 509              	.LVL20:
 510 0036 E9E7     		b	.L18
 511              	.L24:
 263:../../core/platform/octa/src/stm32l4xx_hal_msp.c ****   
 512              		.loc 1 263 5 is_stmt 1 view .LVU150
 513 0038 02F5DC32 		add	r2, r2, #112640
 514 003c 936D     		ldr	r3, [r2, #88]
 515 003e 23F48003 		bic	r3, r3, #4194304
 516 0042 9365     		str	r3, [r2, #88]
 269:../../core/platform/octa/src/stm32l4xx_hal_msp.c **** 
 517              		.loc 1 269 5 view .LVU151
 518 0044 0321     		movs	r1, #3
 519 0046 1648     		ldr	r0, .L27+24
 520 0048 FFF7FEFF 		bl	HAL_GPIO_DeInit
 521              	.LVL21:
 522 004c E8E7     		b	.L17
 523              	.L25:
 281:../../core/platform/octa/src/stm32l4xx_hal_msp.c ****   
 524              		.loc 1 281 5 view .LVU152
 525 004e 02F5DA32 		add	r2, r2, #111616
 526 0052 936D     		ldr	r3, [r2, #88]
 527 0054 23F40003 		bic	r3, r3, #8388608
 528 0058 9365     		str	r3, [r2, #88]
 287:../../core/platform/octa/src/stm32l4xx_hal_msp.c **** 
 529              		.loc 1 287 5 view .LVU153
 530 005a 0321     		movs	r1, #3
 531 005c 1148     		ldr	r0, .L27+28
 532 005e FFF7FEFF 		bl	HAL_GPIO_DeInit
 533              	.LVL22:
 534 0062 DDE7     		b	.L17
 535              	.L26:
 299:../../core/platform/octa/src/stm32l4xx_hal_msp.c ****   
 536              		.loc 1 299 5 view .LVU154
 537 0064 02F5C632 		add	r2, r2, #101376
 538 0068 D36D     		ldr	r3, [r2, #92]
 539 006a 23F00203 		bic	r3, r3, #2
 540 006e D365     		str	r3, [r2, #92]
 305:../../core/platform/octa/src/stm32l4xx_hal_msp.c **** 
 541              		.loc 1 305 5 view .LVU155
 542 0070 4FF40041 		mov	r1, #32768
 543 0074 0A48     		ldr	r0, .L27+24
 544 0076 FFF7FEFF 		bl	HAL_GPIO_DeInit
 545              	.LVL23:
 307:../../core/platform/octa/src/stm32l4xx_hal_msp.c **** 
ARM GAS  C:\Users\yvesk\AppData\Local\Temp\ccDdTYOB.s 			page 18


 546              		.loc 1 307 5 view .LVU156
 547 007a 4FF48061 		mov	r1, #1024
 548 007e 0748     		ldr	r0, .L27+20
 549 0080 FFF7FEFF 		bl	HAL_GPIO_DeInit
 550              	.LVL24:
 551              		.loc 1 314 1 is_stmt 0 view .LVU157
 552 0084 CCE7     		b	.L17
 553              	.L28:
 554 0086 00BF     		.align	2
 555              	.L27:
 556 0088 00540040 		.word	1073763328
 557 008c 00580040 		.word	1073764352
 558 0090 005C0040 		.word	1073765376
 559 0094 00840040 		.word	1073775616
 560 0098 00100240 		.word	1073876992
 561 009c 00040048 		.word	1207960576
 562 00a0 00140048 		.word	1207964672
 563 00a4 00080048 		.word	1207961600
 564              		.cfi_endproc
 565              	.LFE125:
 567              		.section	.text.HAL_UART_MspInit,"ax",%progbits
 568              		.align	1
 569              		.global	HAL_UART_MspInit
 570              		.syntax unified
 571              		.thumb
 572              		.thumb_func
 573              		.fpu fpv4-sp-d16
 575              	HAL_UART_MspInit:
 576              	.LVL25:
 577              	.LFB126:
 315:../../core/platform/octa/src/stm32l4xx_hal_msp.c **** 
 316:../../core/platform/octa/src/stm32l4xx_hal_msp.c **** /**
 317:../../core/platform/octa/src/stm32l4xx_hal_msp.c **** * @brief UART MSP Initialization
 318:../../core/platform/octa/src/stm32l4xx_hal_msp.c **** * This function configures the hardware resources used in this example
 319:../../core/platform/octa/src/stm32l4xx_hal_msp.c **** * @param huart: UART handle pointer
 320:../../core/platform/octa/src/stm32l4xx_hal_msp.c **** * @retval None
 321:../../core/platform/octa/src/stm32l4xx_hal_msp.c **** */
 322:../../core/platform/octa/src/stm32l4xx_hal_msp.c **** void HAL_UART_MspInit(UART_HandleTypeDef* huart)
 323:../../core/platform/octa/src/stm32l4xx_hal_msp.c **** {
 578              		.loc 1 323 1 is_stmt 1 view -0
 579              		.cfi_startproc
 580              		@ args = 0, pretend = 0, frame = 64
 581              		@ frame_needed = 0, uses_anonymous_args = 0
 582              		.loc 1 323 1 is_stmt 0 view .LVU159
 583 0000 70B5     		push	{r4, r5, r6, lr}
 584              	.LCFI8:
 585              		.cfi_def_cfa_offset 16
 586              		.cfi_offset 4, -16
 587              		.cfi_offset 5, -12
 588              		.cfi_offset 6, -8
 589              		.cfi_offset 14, -4
 590 0002 90B0     		sub	sp, sp, #64
 591              	.LCFI9:
 592              		.cfi_def_cfa_offset 80
 324:../../core/platform/octa/src/stm32l4xx_hal_msp.c **** 
 325:../../core/platform/octa/src/stm32l4xx_hal_msp.c ****   GPIO_InitTypeDef GPIO_InitStruct = {0};
 593              		.loc 1 325 3 is_stmt 1 view .LVU160
ARM GAS  C:\Users\yvesk\AppData\Local\Temp\ccDdTYOB.s 			page 19


 594              		.loc 1 325 20 is_stmt 0 view .LVU161
 595 0004 0023     		movs	r3, #0
 596 0006 0B93     		str	r3, [sp, #44]
 597 0008 0C93     		str	r3, [sp, #48]
 598 000a 0D93     		str	r3, [sp, #52]
 599 000c 0E93     		str	r3, [sp, #56]
 600 000e 0F93     		str	r3, [sp, #60]
 326:../../core/platform/octa/src/stm32l4xx_hal_msp.c ****   if(huart->Instance==LPUART1)
 601              		.loc 1 326 3 is_stmt 1 view .LVU162
 602              		.loc 1 326 11 is_stmt 0 view .LVU163
 603 0010 0368     		ldr	r3, [r0]
 604              		.loc 1 326 5 view .LVU164
 605 0012 5A4A     		ldr	r2, .L39
 606 0014 9342     		cmp	r3, r2
 607 0016 0BD0     		beq	.L35
 327:../../core/platform/octa/src/stm32l4xx_hal_msp.c ****   {
 328:../../core/platform/octa/src/stm32l4xx_hal_msp.c ****   /* USER CODE BEGIN LPUART1_MspInit 0 */
 329:../../core/platform/octa/src/stm32l4xx_hal_msp.c **** 
 330:../../core/platform/octa/src/stm32l4xx_hal_msp.c ****   /* USER CODE END LPUART1_MspInit 0 */
 331:../../core/platform/octa/src/stm32l4xx_hal_msp.c ****     /* Peripheral clock enable */
 332:../../core/platform/octa/src/stm32l4xx_hal_msp.c ****     __HAL_RCC_LPUART1_CLK_ENABLE();
 333:../../core/platform/octa/src/stm32l4xx_hal_msp.c ****   
 334:../../core/platform/octa/src/stm32l4xx_hal_msp.c ****     __HAL_RCC_GPIOG_CLK_ENABLE();
 335:../../core/platform/octa/src/stm32l4xx_hal_msp.c ****     HAL_PWREx_EnableVddIO2();
 336:../../core/platform/octa/src/stm32l4xx_hal_msp.c ****     /**LPUART1 GPIO Configuration    
 337:../../core/platform/octa/src/stm32l4xx_hal_msp.c ****     PG7     ------> LPUART1_TX
 338:../../core/platform/octa/src/stm32l4xx_hal_msp.c ****     PG8     ------> LPUART1_RX 
 339:../../core/platform/octa/src/stm32l4xx_hal_msp.c ****     */
 340:../../core/platform/octa/src/stm32l4xx_hal_msp.c ****     GPIO_InitStruct.Pin = GPIO_PIN_7|GPIO_PIN_8;
 341:../../core/platform/octa/src/stm32l4xx_hal_msp.c ****     GPIO_InitStruct.Mode = GPIO_MODE_AF_PP;
 342:../../core/platform/octa/src/stm32l4xx_hal_msp.c ****     GPIO_InitStruct.Pull = GPIO_NOPULL;
 343:../../core/platform/octa/src/stm32l4xx_hal_msp.c ****     GPIO_InitStruct.Speed = GPIO_SPEED_FREQ_VERY_HIGH;
 344:../../core/platform/octa/src/stm32l4xx_hal_msp.c ****     GPIO_InitStruct.Alternate = GPIO_AF8_LPUART1;
 345:../../core/platform/octa/src/stm32l4xx_hal_msp.c ****     HAL_GPIO_Init(GPIOG, &GPIO_InitStruct);
 346:../../core/platform/octa/src/stm32l4xx_hal_msp.c **** 
 347:../../core/platform/octa/src/stm32l4xx_hal_msp.c ****   /* USER CODE BEGIN LPUART1_MspInit 1 */
 348:../../core/platform/octa/src/stm32l4xx_hal_msp.c **** 
 349:../../core/platform/octa/src/stm32l4xx_hal_msp.c ****   /* USER CODE END LPUART1_MspInit 1 */
 350:../../core/platform/octa/src/stm32l4xx_hal_msp.c ****   }
 351:../../core/platform/octa/src/stm32l4xx_hal_msp.c ****   else if(huart->Instance==UART5)
 608              		.loc 1 351 8 is_stmt 1 view .LVU165
 609              		.loc 1 351 10 is_stmt 0 view .LVU166
 610 0018 594A     		ldr	r2, .L39+4
 611 001a 9342     		cmp	r3, r2
 612 001c 2DD0     		beq	.L36
 352:../../core/platform/octa/src/stm32l4xx_hal_msp.c ****   {
 353:../../core/platform/octa/src/stm32l4xx_hal_msp.c ****   /* USER CODE BEGIN UART5_MspInit 0 */
 354:../../core/platform/octa/src/stm32l4xx_hal_msp.c **** 
 355:../../core/platform/octa/src/stm32l4xx_hal_msp.c ****   /* USER CODE END UART5_MspInit 0 */
 356:../../core/platform/octa/src/stm32l4xx_hal_msp.c ****     /* Peripheral clock enable */
 357:../../core/platform/octa/src/stm32l4xx_hal_msp.c ****     __HAL_RCC_UART5_CLK_ENABLE();
 358:../../core/platform/octa/src/stm32l4xx_hal_msp.c ****   
 359:../../core/platform/octa/src/stm32l4xx_hal_msp.c ****     __HAL_RCC_GPIOC_CLK_ENABLE();
 360:../../core/platform/octa/src/stm32l4xx_hal_msp.c ****     __HAL_RCC_GPIOD_CLK_ENABLE();
 361:../../core/platform/octa/src/stm32l4xx_hal_msp.c ****     /**UART5 GPIO Configuration    
 362:../../core/platform/octa/src/stm32l4xx_hal_msp.c ****     PC12     ------> UART5_TX
 363:../../core/platform/octa/src/stm32l4xx_hal_msp.c ****     PD2     ------> UART5_RX 
ARM GAS  C:\Users\yvesk\AppData\Local\Temp\ccDdTYOB.s 			page 20


 364:../../core/platform/octa/src/stm32l4xx_hal_msp.c ****     */
 365:../../core/platform/octa/src/stm32l4xx_hal_msp.c ****     GPIO_InitStruct.Pin = GPIO_PIN_12;
 366:../../core/platform/octa/src/stm32l4xx_hal_msp.c ****     GPIO_InitStruct.Mode = GPIO_MODE_AF_PP;
 367:../../core/platform/octa/src/stm32l4xx_hal_msp.c ****     GPIO_InitStruct.Pull = GPIO_NOPULL;
 368:../../core/platform/octa/src/stm32l4xx_hal_msp.c ****     GPIO_InitStruct.Speed = GPIO_SPEED_FREQ_VERY_HIGH;
 369:../../core/platform/octa/src/stm32l4xx_hal_msp.c ****     GPIO_InitStruct.Alternate = GPIO_AF8_UART5;
 370:../../core/platform/octa/src/stm32l4xx_hal_msp.c ****     HAL_GPIO_Init(GPIOC, &GPIO_InitStruct);
 371:../../core/platform/octa/src/stm32l4xx_hal_msp.c **** 
 372:../../core/platform/octa/src/stm32l4xx_hal_msp.c ****     GPIO_InitStruct.Pin = GPIO_PIN_2;
 373:../../core/platform/octa/src/stm32l4xx_hal_msp.c ****     GPIO_InitStruct.Mode = GPIO_MODE_AF_PP;
 374:../../core/platform/octa/src/stm32l4xx_hal_msp.c ****     GPIO_InitStruct.Pull = GPIO_NOPULL;
 375:../../core/platform/octa/src/stm32l4xx_hal_msp.c ****     GPIO_InitStruct.Speed = GPIO_SPEED_FREQ_VERY_HIGH;
 376:../../core/platform/octa/src/stm32l4xx_hal_msp.c ****     GPIO_InitStruct.Alternate = GPIO_AF8_UART5;
 377:../../core/platform/octa/src/stm32l4xx_hal_msp.c ****     HAL_GPIO_Init(GPIOD, &GPIO_InitStruct);
 378:../../core/platform/octa/src/stm32l4xx_hal_msp.c **** 
 379:../../core/platform/octa/src/stm32l4xx_hal_msp.c ****   /* USER CODE BEGIN UART5_MspInit 1 */
 380:../../core/platform/octa/src/stm32l4xx_hal_msp.c **** 
 381:../../core/platform/octa/src/stm32l4xx_hal_msp.c ****   /* USER CODE END UART5_MspInit 1 */
 382:../../core/platform/octa/src/stm32l4xx_hal_msp.c ****   }
 383:../../core/platform/octa/src/stm32l4xx_hal_msp.c ****   else if(huart->Instance==USART2)
 613              		.loc 1 383 8 is_stmt 1 view .LVU167
 614              		.loc 1 383 10 is_stmt 0 view .LVU168
 615 001e 594A     		ldr	r2, .L39+8
 616 0020 9342     		cmp	r3, r2
 617 0022 5FD0     		beq	.L37
 384:../../core/platform/octa/src/stm32l4xx_hal_msp.c ****   {
 385:../../core/platform/octa/src/stm32l4xx_hal_msp.c ****   /* USER CODE BEGIN USART2_MspInit 0 */
 386:../../core/platform/octa/src/stm32l4xx_hal_msp.c **** 
 387:../../core/platform/octa/src/stm32l4xx_hal_msp.c ****   /* USER CODE END USART2_MspInit 0 */
 388:../../core/platform/octa/src/stm32l4xx_hal_msp.c ****     /* Peripheral clock enable */
 389:../../core/platform/octa/src/stm32l4xx_hal_msp.c ****     __HAL_RCC_USART2_CLK_ENABLE();
 390:../../core/platform/octa/src/stm32l4xx_hal_msp.c **** 
 391:../../core/platform/octa/src/stm32l4xx_hal_msp.c ****     __HAL_RCC_GPIOD_CLK_ENABLE(); 
 392:../../core/platform/octa/src/stm32l4xx_hal_msp.c ****   
 393:../../core/platform/octa/src/stm32l4xx_hal_msp.c ****     //#if USE_BOOTLOADER
 394:../../core/platform/octa/src/stm32l4xx_hal_msp.c ****       __HAL_RCC_GPIOD_CLK_ENABLE();
 395:../../core/platform/octa/src/stm32l4xx_hal_msp.c **** 
 396:../../core/platform/octa/src/stm32l4xx_hal_msp.c ****       /**USART2 BLE GPIO Configuration    
 397:../../core/platform/octa/src/stm32l4xx_hal_msp.c ****       PD5     ------> USART2_TX
 398:../../core/platform/octa/src/stm32l4xx_hal_msp.c ****       PD6     ------> USART2_RX 
 399:../../core/platform/octa/src/stm32l4xx_hal_msp.c ****       */
 400:../../core/platform/octa/src/stm32l4xx_hal_msp.c **** 
 401:../../core/platform/octa/src/stm32l4xx_hal_msp.c ****       /* UART TX GPIO pin configuration  */
 402:../../core/platform/octa/src/stm32l4xx_hal_msp.c ****       GPIO_InitStruct.Pin       = GPIO_PIN_5|GPIO_PIN_6;
 403:../../core/platform/octa/src/stm32l4xx_hal_msp.c ****       GPIO_InitStruct.Mode      = GPIO_MODE_AF_PP;
 404:../../core/platform/octa/src/stm32l4xx_hal_msp.c ****       GPIO_InitStruct.Pull      = GPIO_PULLUP;
 405:../../core/platform/octa/src/stm32l4xx_hal_msp.c ****       GPIO_InitStruct.Speed     = GPIO_SPEED_FREQ_HIGH;
 406:../../core/platform/octa/src/stm32l4xx_hal_msp.c ****       GPIO_InitStruct.Alternate = GPIO_AF7_USART2;
 407:../../core/platform/octa/src/stm32l4xx_hal_msp.c **** 
 408:../../core/platform/octa/src/stm32l4xx_hal_msp.c ****       HAL_GPIO_Init(GPIOD, &GPIO_InitStruct);
 409:../../core/platform/octa/src/stm32l4xx_hal_msp.c ****    /*  #else
 410:../../core/platform/octa/src/stm32l4xx_hal_msp.c ****       __HAL_RCC_GPIOA_CLK_ENABLE();
 411:../../core/platform/octa/src/stm32l4xx_hal_msp.c ****     
 412:../../core/platform/octa/src/stm32l4xx_hal_msp.c ****       /**USART2 P2 GPIO Configuration    
 413:../../core/platform/octa/src/stm32l4xx_hal_msp.c ****       PA2     ------> USART2_TX
 414:../../core/platform/octa/src/stm32l4xx_hal_msp.c ****       PA3     ------> USART2_RX 
 415:../../core/platform/octa/src/stm32l4xx_hal_msp.c ****       
ARM GAS  C:\Users\yvesk\AppData\Local\Temp\ccDdTYOB.s 			page 21


 416:../../core/platform/octa/src/stm32l4xx_hal_msp.c ****       GPIO_InitStruct.Pin = GPIO_PIN_2|GPIO_PIN_3;
 417:../../core/platform/octa/src/stm32l4xx_hal_msp.c ****       GPIO_InitStruct.Mode = GPIO_MODE_AF_PP;
 418:../../core/platform/octa/src/stm32l4xx_hal_msp.c ****       GPIO_InitStruct.Pull = GPIO_NOPULL;
 419:../../core/platform/octa/src/stm32l4xx_hal_msp.c ****       GPIO_InitStruct.Speed = GPIO_SPEED_FREQ_VERY_HIGH;
 420:../../core/platform/octa/src/stm32l4xx_hal_msp.c ****       GPIO_InitStruct.Alternate = GPIO_AF7_USART2;
 421:../../core/platform/octa/src/stm32l4xx_hal_msp.c ****       HAL_GPIO_Init(GPIOA, &GPIO_InitStruct);
 422:../../core/platform/octa/src/stm32l4xx_hal_msp.c ****     #endif */
 423:../../core/platform/octa/src/stm32l4xx_hal_msp.c ****   /* USER CODE BEGIN USART2_MspInit 1 */
 424:../../core/platform/octa/src/stm32l4xx_hal_msp.c **** 
 425:../../core/platform/octa/src/stm32l4xx_hal_msp.c ****   /* USER CODE END USART2_MspInit 1 */
 426:../../core/platform/octa/src/stm32l4xx_hal_msp.c ****   }
 427:../../core/platform/octa/src/stm32l4xx_hal_msp.c ****   else if(huart->Instance==USART3)
 618              		.loc 1 427 8 is_stmt 1 view .LVU169
 619              		.loc 1 427 10 is_stmt 0 view .LVU170
 620 0024 584A     		ldr	r2, .L39+12
 621 0026 9342     		cmp	r3, r2
 622 0028 00F08680 		beq	.L38
 623              	.LVL26:
 624              	.L29:
 428:../../core/platform/octa/src/stm32l4xx_hal_msp.c ****   {
 429:../../core/platform/octa/src/stm32l4xx_hal_msp.c ****   /* USER CODE BEGIN USART3_MspInit 0 */
 430:../../core/platform/octa/src/stm32l4xx_hal_msp.c **** 
 431:../../core/platform/octa/src/stm32l4xx_hal_msp.c ****   /* USER CODE END USART3_MspInit 0 */
 432:../../core/platform/octa/src/stm32l4xx_hal_msp.c ****     /* Peripheral clock enable */
 433:../../core/platform/octa/src/stm32l4xx_hal_msp.c ****     __HAL_RCC_USART3_CLK_ENABLE();
 434:../../core/platform/octa/src/stm32l4xx_hal_msp.c ****   
 435:../../core/platform/octa/src/stm32l4xx_hal_msp.c ****     __HAL_RCC_GPIOD_CLK_ENABLE();
 436:../../core/platform/octa/src/stm32l4xx_hal_msp.c ****     /**USART3 GPIO Configuration    
 437:../../core/platform/octa/src/stm32l4xx_hal_msp.c ****     PD8     ------> USART3_TX
 438:../../core/platform/octa/src/stm32l4xx_hal_msp.c ****     PD9     ------> USART3_RX 
 439:../../core/platform/octa/src/stm32l4xx_hal_msp.c ****     */
 440:../../core/platform/octa/src/stm32l4xx_hal_msp.c ****     GPIO_InitStruct.Pin = GPIO_PIN_8|GPIO_PIN_9;
 441:../../core/platform/octa/src/stm32l4xx_hal_msp.c ****     GPIO_InitStruct.Mode = GPIO_MODE_AF_PP;
 442:../../core/platform/octa/src/stm32l4xx_hal_msp.c ****     GPIO_InitStruct.Pull = GPIO_NOPULL;
 443:../../core/platform/octa/src/stm32l4xx_hal_msp.c ****     GPIO_InitStruct.Speed = GPIO_SPEED_FREQ_VERY_HIGH;
 444:../../core/platform/octa/src/stm32l4xx_hal_msp.c ****     GPIO_InitStruct.Alternate = GPIO_AF7_USART3;
 445:../../core/platform/octa/src/stm32l4xx_hal_msp.c ****     HAL_GPIO_Init(GPIOD, &GPIO_InitStruct);
 446:../../core/platform/octa/src/stm32l4xx_hal_msp.c **** 
 447:../../core/platform/octa/src/stm32l4xx_hal_msp.c ****   /* USER CODE BEGIN USART3_MspInit 1 */
 448:../../core/platform/octa/src/stm32l4xx_hal_msp.c **** 
 449:../../core/platform/octa/src/stm32l4xx_hal_msp.c ****   /* USER CODE END USART3_MspInit 1 */
 450:../../core/platform/octa/src/stm32l4xx_hal_msp.c ****   }
 451:../../core/platform/octa/src/stm32l4xx_hal_msp.c **** 
 452:../../core/platform/octa/src/stm32l4xx_hal_msp.c **** }
 625              		.loc 1 452 1 view .LVU171
 626 002c 10B0     		add	sp, sp, #64
 627              	.LCFI10:
 628              		.cfi_remember_state
 629              		.cfi_def_cfa_offset 16
 630              		@ sp needed
 631 002e 70BD     		pop	{r4, r5, r6, pc}
 632              	.LVL27:
 633              	.L35:
 634              	.LCFI11:
 635              		.cfi_restore_state
 332:../../core/platform/octa/src/stm32l4xx_hal_msp.c ****   
 636              		.loc 1 332 5 is_stmt 1 view .LVU172
ARM GAS  C:\Users\yvesk\AppData\Local\Temp\ccDdTYOB.s 			page 22


 637              	.LBB13:
 332:../../core/platform/octa/src/stm32l4xx_hal_msp.c ****   
 638              		.loc 1 332 5 view .LVU173
 332:../../core/platform/octa/src/stm32l4xx_hal_msp.c ****   
 639              		.loc 1 332 5 view .LVU174
 640 0030 564B     		ldr	r3, .L39+16
 641 0032 DA6D     		ldr	r2, [r3, #92]
 642 0034 42F00102 		orr	r2, r2, #1
 643 0038 DA65     		str	r2, [r3, #92]
 332:../../core/platform/octa/src/stm32l4xx_hal_msp.c ****   
 644              		.loc 1 332 5 view .LVU175
 645 003a DA6D     		ldr	r2, [r3, #92]
 646 003c 02F00102 		and	r2, r2, #1
 647 0040 0192     		str	r2, [sp, #4]
 332:../../core/platform/octa/src/stm32l4xx_hal_msp.c ****   
 648              		.loc 1 332 5 view .LVU176
 649 0042 019A     		ldr	r2, [sp, #4]
 650              	.LBE13:
 334:../../core/platform/octa/src/stm32l4xx_hal_msp.c ****     HAL_PWREx_EnableVddIO2();
 651              		.loc 1 334 5 view .LVU177
 652              	.LBB14:
 334:../../core/platform/octa/src/stm32l4xx_hal_msp.c ****     HAL_PWREx_EnableVddIO2();
 653              		.loc 1 334 5 view .LVU178
 334:../../core/platform/octa/src/stm32l4xx_hal_msp.c ****     HAL_PWREx_EnableVddIO2();
 654              		.loc 1 334 5 view .LVU179
 655 0044 DA6C     		ldr	r2, [r3, #76]
 656 0046 42F04002 		orr	r2, r2, #64
 657 004a DA64     		str	r2, [r3, #76]
 334:../../core/platform/octa/src/stm32l4xx_hal_msp.c ****     HAL_PWREx_EnableVddIO2();
 658              		.loc 1 334 5 view .LVU180
 659 004c DB6C     		ldr	r3, [r3, #76]
 660 004e 03F04003 		and	r3, r3, #64
 661 0052 0293     		str	r3, [sp, #8]
 334:../../core/platform/octa/src/stm32l4xx_hal_msp.c ****     HAL_PWREx_EnableVddIO2();
 662              		.loc 1 334 5 view .LVU181
 663 0054 029B     		ldr	r3, [sp, #8]
 664              	.LBE14:
 335:../../core/platform/octa/src/stm32l4xx_hal_msp.c ****     /**LPUART1 GPIO Configuration    
 665              		.loc 1 335 5 view .LVU182
 666 0056 FFF7FEFF 		bl	HAL_PWREx_EnableVddIO2
 667              	.LVL28:
 340:../../core/platform/octa/src/stm32l4xx_hal_msp.c ****     GPIO_InitStruct.Mode = GPIO_MODE_AF_PP;
 668              		.loc 1 340 5 view .LVU183
 340:../../core/platform/octa/src/stm32l4xx_hal_msp.c ****     GPIO_InitStruct.Mode = GPIO_MODE_AF_PP;
 669              		.loc 1 340 25 is_stmt 0 view .LVU184
 670 005a 4FF4C073 		mov	r3, #384
 671 005e 0B93     		str	r3, [sp, #44]
 341:../../core/platform/octa/src/stm32l4xx_hal_msp.c ****     GPIO_InitStruct.Pull = GPIO_NOPULL;
 672              		.loc 1 341 5 is_stmt 1 view .LVU185
 341:../../core/platform/octa/src/stm32l4xx_hal_msp.c ****     GPIO_InitStruct.Pull = GPIO_NOPULL;
 673              		.loc 1 341 26 is_stmt 0 view .LVU186
 674 0060 0223     		movs	r3, #2
 675 0062 0C93     		str	r3, [sp, #48]
 342:../../core/platform/octa/src/stm32l4xx_hal_msp.c ****     GPIO_InitStruct.Speed = GPIO_SPEED_FREQ_VERY_HIGH;
 676              		.loc 1 342 5 is_stmt 1 view .LVU187
 342:../../core/platform/octa/src/stm32l4xx_hal_msp.c ****     GPIO_InitStruct.Speed = GPIO_SPEED_FREQ_VERY_HIGH;
 677              		.loc 1 342 26 is_stmt 0 view .LVU188
ARM GAS  C:\Users\yvesk\AppData\Local\Temp\ccDdTYOB.s 			page 23


 678 0064 0023     		movs	r3, #0
 679 0066 0D93     		str	r3, [sp, #52]
 343:../../core/platform/octa/src/stm32l4xx_hal_msp.c ****     GPIO_InitStruct.Alternate = GPIO_AF8_LPUART1;
 680              		.loc 1 343 5 is_stmt 1 view .LVU189
 343:../../core/platform/octa/src/stm32l4xx_hal_msp.c ****     GPIO_InitStruct.Alternate = GPIO_AF8_LPUART1;
 681              		.loc 1 343 27 is_stmt 0 view .LVU190
 682 0068 0323     		movs	r3, #3
 683 006a 0E93     		str	r3, [sp, #56]
 344:../../core/platform/octa/src/stm32l4xx_hal_msp.c ****     HAL_GPIO_Init(GPIOG, &GPIO_InitStruct);
 684              		.loc 1 344 5 is_stmt 1 view .LVU191
 344:../../core/platform/octa/src/stm32l4xx_hal_msp.c ****     HAL_GPIO_Init(GPIOG, &GPIO_InitStruct);
 685              		.loc 1 344 31 is_stmt 0 view .LVU192
 686 006c 0823     		movs	r3, #8
 687 006e 0F93     		str	r3, [sp, #60]
 345:../../core/platform/octa/src/stm32l4xx_hal_msp.c **** 
 688              		.loc 1 345 5 is_stmt 1 view .LVU193
 689 0070 0BA9     		add	r1, sp, #44
 690 0072 4748     		ldr	r0, .L39+20
 691 0074 FFF7FEFF 		bl	HAL_GPIO_Init
 692              	.LVL29:
 693 0078 D8E7     		b	.L29
 694              	.LVL30:
 695              	.L36:
 357:../../core/platform/octa/src/stm32l4xx_hal_msp.c ****   
 696              		.loc 1 357 5 view .LVU194
 697              	.LBB15:
 357:../../core/platform/octa/src/stm32l4xx_hal_msp.c ****   
 698              		.loc 1 357 5 view .LVU195
 357:../../core/platform/octa/src/stm32l4xx_hal_msp.c ****   
 699              		.loc 1 357 5 view .LVU196
 700 007a 444B     		ldr	r3, .L39+16
 701 007c 9A6D     		ldr	r2, [r3, #88]
 702 007e 42F48012 		orr	r2, r2, #1048576
 703 0082 9A65     		str	r2, [r3, #88]
 357:../../core/platform/octa/src/stm32l4xx_hal_msp.c ****   
 704              		.loc 1 357 5 view .LVU197
 705 0084 9A6D     		ldr	r2, [r3, #88]
 706 0086 02F48012 		and	r2, r2, #1048576
 707 008a 0392     		str	r2, [sp, #12]
 357:../../core/platform/octa/src/stm32l4xx_hal_msp.c ****   
 708              		.loc 1 357 5 view .LVU198
 709 008c 039A     		ldr	r2, [sp, #12]
 710              	.LBE15:
 359:../../core/platform/octa/src/stm32l4xx_hal_msp.c ****     __HAL_RCC_GPIOD_CLK_ENABLE();
 711              		.loc 1 359 5 view .LVU199
 712              	.LBB16:
 359:../../core/platform/octa/src/stm32l4xx_hal_msp.c ****     __HAL_RCC_GPIOD_CLK_ENABLE();
 713              		.loc 1 359 5 view .LVU200
 359:../../core/platform/octa/src/stm32l4xx_hal_msp.c ****     __HAL_RCC_GPIOD_CLK_ENABLE();
 714              		.loc 1 359 5 view .LVU201
 715 008e DA6C     		ldr	r2, [r3, #76]
 716 0090 42F00402 		orr	r2, r2, #4
 717 0094 DA64     		str	r2, [r3, #76]
 359:../../core/platform/octa/src/stm32l4xx_hal_msp.c ****     __HAL_RCC_GPIOD_CLK_ENABLE();
 718              		.loc 1 359 5 view .LVU202
 719 0096 DA6C     		ldr	r2, [r3, #76]
 720 0098 02F00402 		and	r2, r2, #4
ARM GAS  C:\Users\yvesk\AppData\Local\Temp\ccDdTYOB.s 			page 24


 721 009c 0492     		str	r2, [sp, #16]
 359:../../core/platform/octa/src/stm32l4xx_hal_msp.c ****     __HAL_RCC_GPIOD_CLK_ENABLE();
 722              		.loc 1 359 5 view .LVU203
 723 009e 049A     		ldr	r2, [sp, #16]
 724              	.LBE16:
 360:../../core/platform/octa/src/stm32l4xx_hal_msp.c ****     /**UART5 GPIO Configuration    
 725              		.loc 1 360 5 view .LVU204
 726              	.LBB17:
 360:../../core/platform/octa/src/stm32l4xx_hal_msp.c ****     /**UART5 GPIO Configuration    
 727              		.loc 1 360 5 view .LVU205
 360:../../core/platform/octa/src/stm32l4xx_hal_msp.c ****     /**UART5 GPIO Configuration    
 728              		.loc 1 360 5 view .LVU206
 729 00a0 DA6C     		ldr	r2, [r3, #76]
 730 00a2 42F00802 		orr	r2, r2, #8
 731 00a6 DA64     		str	r2, [r3, #76]
 360:../../core/platform/octa/src/stm32l4xx_hal_msp.c ****     /**UART5 GPIO Configuration    
 732              		.loc 1 360 5 view .LVU207
 733 00a8 DB6C     		ldr	r3, [r3, #76]
 734 00aa 03F00803 		and	r3, r3, #8
 735 00ae 0593     		str	r3, [sp, #20]
 360:../../core/platform/octa/src/stm32l4xx_hal_msp.c ****     /**UART5 GPIO Configuration    
 736              		.loc 1 360 5 view .LVU208
 737 00b0 059B     		ldr	r3, [sp, #20]
 738              	.LBE17:
 365:../../core/platform/octa/src/stm32l4xx_hal_msp.c ****     GPIO_InitStruct.Mode = GPIO_MODE_AF_PP;
 739              		.loc 1 365 5 view .LVU209
 365:../../core/platform/octa/src/stm32l4xx_hal_msp.c ****     GPIO_InitStruct.Mode = GPIO_MODE_AF_PP;
 740              		.loc 1 365 25 is_stmt 0 view .LVU210
 741 00b2 4FF48053 		mov	r3, #4096
 742 00b6 0B93     		str	r3, [sp, #44]
 366:../../core/platform/octa/src/stm32l4xx_hal_msp.c ****     GPIO_InitStruct.Pull = GPIO_NOPULL;
 743              		.loc 1 366 5 is_stmt 1 view .LVU211
 366:../../core/platform/octa/src/stm32l4xx_hal_msp.c ****     GPIO_InitStruct.Pull = GPIO_NOPULL;
 744              		.loc 1 366 26 is_stmt 0 view .LVU212
 745 00b8 0226     		movs	r6, #2
 746 00ba 0C96     		str	r6, [sp, #48]
 367:../../core/platform/octa/src/stm32l4xx_hal_msp.c ****     GPIO_InitStruct.Speed = GPIO_SPEED_FREQ_VERY_HIGH;
 747              		.loc 1 367 5 is_stmt 1 view .LVU213
 368:../../core/platform/octa/src/stm32l4xx_hal_msp.c ****     GPIO_InitStruct.Alternate = GPIO_AF8_UART5;
 748              		.loc 1 368 5 view .LVU214
 368:../../core/platform/octa/src/stm32l4xx_hal_msp.c ****     GPIO_InitStruct.Alternate = GPIO_AF8_UART5;
 749              		.loc 1 368 27 is_stmt 0 view .LVU215
 750 00bc 0325     		movs	r5, #3
 751 00be 0E95     		str	r5, [sp, #56]
 369:../../core/platform/octa/src/stm32l4xx_hal_msp.c ****     HAL_GPIO_Init(GPIOC, &GPIO_InitStruct);
 752              		.loc 1 369 5 is_stmt 1 view .LVU216
 369:../../core/platform/octa/src/stm32l4xx_hal_msp.c ****     HAL_GPIO_Init(GPIOC, &GPIO_InitStruct);
 753              		.loc 1 369 31 is_stmt 0 view .LVU217
 754 00c0 0824     		movs	r4, #8
 755 00c2 0F94     		str	r4, [sp, #60]
 370:../../core/platform/octa/src/stm32l4xx_hal_msp.c **** 
 756              		.loc 1 370 5 is_stmt 1 view .LVU218
 757 00c4 0BA9     		add	r1, sp, #44
 758 00c6 3348     		ldr	r0, .L39+24
 759              	.LVL31:
 370:../../core/platform/octa/src/stm32l4xx_hal_msp.c **** 
 760              		.loc 1 370 5 is_stmt 0 view .LVU219
ARM GAS  C:\Users\yvesk\AppData\Local\Temp\ccDdTYOB.s 			page 25


 761 00c8 FFF7FEFF 		bl	HAL_GPIO_Init
 762              	.LVL32:
 372:../../core/platform/octa/src/stm32l4xx_hal_msp.c ****     GPIO_InitStruct.Mode = GPIO_MODE_AF_PP;
 763              		.loc 1 372 5 is_stmt 1 view .LVU220
 372:../../core/platform/octa/src/stm32l4xx_hal_msp.c ****     GPIO_InitStruct.Mode = GPIO_MODE_AF_PP;
 764              		.loc 1 372 25 is_stmt 0 view .LVU221
 765 00cc 0423     		movs	r3, #4
 766 00ce 0B93     		str	r3, [sp, #44]
 373:../../core/platform/octa/src/stm32l4xx_hal_msp.c ****     GPIO_InitStruct.Pull = GPIO_NOPULL;
 767              		.loc 1 373 5 is_stmt 1 view .LVU222
 373:../../core/platform/octa/src/stm32l4xx_hal_msp.c ****     GPIO_InitStruct.Pull = GPIO_NOPULL;
 768              		.loc 1 373 26 is_stmt 0 view .LVU223
 769 00d0 0C96     		str	r6, [sp, #48]
 374:../../core/platform/octa/src/stm32l4xx_hal_msp.c ****     GPIO_InitStruct.Speed = GPIO_SPEED_FREQ_VERY_HIGH;
 770              		.loc 1 374 5 is_stmt 1 view .LVU224
 374:../../core/platform/octa/src/stm32l4xx_hal_msp.c ****     GPIO_InitStruct.Speed = GPIO_SPEED_FREQ_VERY_HIGH;
 771              		.loc 1 374 26 is_stmt 0 view .LVU225
 772 00d2 0023     		movs	r3, #0
 773 00d4 0D93     		str	r3, [sp, #52]
 375:../../core/platform/octa/src/stm32l4xx_hal_msp.c ****     GPIO_InitStruct.Alternate = GPIO_AF8_UART5;
 774              		.loc 1 375 5 is_stmt 1 view .LVU226
 375:../../core/platform/octa/src/stm32l4xx_hal_msp.c ****     GPIO_InitStruct.Alternate = GPIO_AF8_UART5;
 775              		.loc 1 375 27 is_stmt 0 view .LVU227
 776 00d6 0E95     		str	r5, [sp, #56]
 376:../../core/platform/octa/src/stm32l4xx_hal_msp.c ****     HAL_GPIO_Init(GPIOD, &GPIO_InitStruct);
 777              		.loc 1 376 5 is_stmt 1 view .LVU228
 376:../../core/platform/octa/src/stm32l4xx_hal_msp.c ****     HAL_GPIO_Init(GPIOD, &GPIO_InitStruct);
 778              		.loc 1 376 31 is_stmt 0 view .LVU229
 779 00d8 0F94     		str	r4, [sp, #60]
 377:../../core/platform/octa/src/stm32l4xx_hal_msp.c **** 
 780              		.loc 1 377 5 is_stmt 1 view .LVU230
 781 00da 0BA9     		add	r1, sp, #44
 782 00dc 2E48     		ldr	r0, .L39+28
 783 00de FFF7FEFF 		bl	HAL_GPIO_Init
 784              	.LVL33:
 785 00e2 A3E7     		b	.L29
 786              	.LVL34:
 787              	.L37:
 389:../../core/platform/octa/src/stm32l4xx_hal_msp.c **** 
 788              		.loc 1 389 5 view .LVU231
 789              	.LBB18:
 389:../../core/platform/octa/src/stm32l4xx_hal_msp.c **** 
 790              		.loc 1 389 5 view .LVU232
 389:../../core/platform/octa/src/stm32l4xx_hal_msp.c **** 
 791              		.loc 1 389 5 view .LVU233
 792 00e4 294B     		ldr	r3, .L39+16
 793 00e6 9A6D     		ldr	r2, [r3, #88]
 794 00e8 42F40032 		orr	r2, r2, #131072
 795 00ec 9A65     		str	r2, [r3, #88]
 389:../../core/platform/octa/src/stm32l4xx_hal_msp.c **** 
 796              		.loc 1 389 5 view .LVU234
 797 00ee 9A6D     		ldr	r2, [r3, #88]
 798 00f0 02F40032 		and	r2, r2, #131072
 799 00f4 0692     		str	r2, [sp, #24]
 389:../../core/platform/octa/src/stm32l4xx_hal_msp.c **** 
 800              		.loc 1 389 5 view .LVU235
 801 00f6 069A     		ldr	r2, [sp, #24]
ARM GAS  C:\Users\yvesk\AppData\Local\Temp\ccDdTYOB.s 			page 26


 802              	.LBE18:
 391:../../core/platform/octa/src/stm32l4xx_hal_msp.c ****   
 803              		.loc 1 391 5 view .LVU236
 804              	.LBB19:
 391:../../core/platform/octa/src/stm32l4xx_hal_msp.c ****   
 805              		.loc 1 391 5 view .LVU237
 391:../../core/platform/octa/src/stm32l4xx_hal_msp.c ****   
 806              		.loc 1 391 5 view .LVU238
 807 00f8 DA6C     		ldr	r2, [r3, #76]
 808 00fa 42F00802 		orr	r2, r2, #8
 809 00fe DA64     		str	r2, [r3, #76]
 391:../../core/platform/octa/src/stm32l4xx_hal_msp.c ****   
 810              		.loc 1 391 5 view .LVU239
 811 0100 DA6C     		ldr	r2, [r3, #76]
 812 0102 02F00802 		and	r2, r2, #8
 813 0106 0792     		str	r2, [sp, #28]
 391:../../core/platform/octa/src/stm32l4xx_hal_msp.c ****   
 814              		.loc 1 391 5 view .LVU240
 815 0108 079A     		ldr	r2, [sp, #28]
 816              	.LBE19:
 394:../../core/platform/octa/src/stm32l4xx_hal_msp.c **** 
 817              		.loc 1 394 7 view .LVU241
 818              	.LBB20:
 394:../../core/platform/octa/src/stm32l4xx_hal_msp.c **** 
 819              		.loc 1 394 7 view .LVU242
 394:../../core/platform/octa/src/stm32l4xx_hal_msp.c **** 
 820              		.loc 1 394 7 view .LVU243
 821 010a DA6C     		ldr	r2, [r3, #76]
 822 010c 42F00802 		orr	r2, r2, #8
 823 0110 DA64     		str	r2, [r3, #76]
 394:../../core/platform/octa/src/stm32l4xx_hal_msp.c **** 
 824              		.loc 1 394 7 view .LVU244
 825 0112 DB6C     		ldr	r3, [r3, #76]
 826 0114 03F00803 		and	r3, r3, #8
 827 0118 0893     		str	r3, [sp, #32]
 394:../../core/platform/octa/src/stm32l4xx_hal_msp.c **** 
 828              		.loc 1 394 7 view .LVU245
 829 011a 089B     		ldr	r3, [sp, #32]
 830              	.LBE20:
 402:../../core/platform/octa/src/stm32l4xx_hal_msp.c ****       GPIO_InitStruct.Mode      = GPIO_MODE_AF_PP;
 831              		.loc 1 402 7 view .LVU246
 402:../../core/platform/octa/src/stm32l4xx_hal_msp.c ****       GPIO_InitStruct.Mode      = GPIO_MODE_AF_PP;
 832              		.loc 1 402 33 is_stmt 0 view .LVU247
 833 011c 6023     		movs	r3, #96
 834 011e 0B93     		str	r3, [sp, #44]
 403:../../core/platform/octa/src/stm32l4xx_hal_msp.c ****       GPIO_InitStruct.Pull      = GPIO_PULLUP;
 835              		.loc 1 403 7 is_stmt 1 view .LVU248
 403:../../core/platform/octa/src/stm32l4xx_hal_msp.c ****       GPIO_InitStruct.Pull      = GPIO_PULLUP;
 836              		.loc 1 403 33 is_stmt 0 view .LVU249
 837 0120 0223     		movs	r3, #2
 838 0122 0C93     		str	r3, [sp, #48]
 404:../../core/platform/octa/src/stm32l4xx_hal_msp.c ****       GPIO_InitStruct.Speed     = GPIO_SPEED_FREQ_HIGH;
 839              		.loc 1 404 7 is_stmt 1 view .LVU250
 404:../../core/platform/octa/src/stm32l4xx_hal_msp.c ****       GPIO_InitStruct.Speed     = GPIO_SPEED_FREQ_HIGH;
 840              		.loc 1 404 33 is_stmt 0 view .LVU251
 841 0124 0122     		movs	r2, #1
 842 0126 0D92     		str	r2, [sp, #52]
ARM GAS  C:\Users\yvesk\AppData\Local\Temp\ccDdTYOB.s 			page 27


 405:../../core/platform/octa/src/stm32l4xx_hal_msp.c ****       GPIO_InitStruct.Alternate = GPIO_AF7_USART2;
 843              		.loc 1 405 7 is_stmt 1 view .LVU252
 405:../../core/platform/octa/src/stm32l4xx_hal_msp.c ****       GPIO_InitStruct.Alternate = GPIO_AF7_USART2;
 844              		.loc 1 405 33 is_stmt 0 view .LVU253
 845 0128 0E93     		str	r3, [sp, #56]
 406:../../core/platform/octa/src/stm32l4xx_hal_msp.c **** 
 846              		.loc 1 406 7 is_stmt 1 view .LVU254
 406:../../core/platform/octa/src/stm32l4xx_hal_msp.c **** 
 847              		.loc 1 406 33 is_stmt 0 view .LVU255
 848 012a 0723     		movs	r3, #7
 849 012c 0F93     		str	r3, [sp, #60]
 408:../../core/platform/octa/src/stm32l4xx_hal_msp.c ****    /*  #else
 850              		.loc 1 408 7 is_stmt 1 view .LVU256
 851 012e 0BA9     		add	r1, sp, #44
 852 0130 1948     		ldr	r0, .L39+28
 853              	.LVL35:
 408:../../core/platform/octa/src/stm32l4xx_hal_msp.c ****    /*  #else
 854              		.loc 1 408 7 is_stmt 0 view .LVU257
 855 0132 FFF7FEFF 		bl	HAL_GPIO_Init
 856              	.LVL36:
 857 0136 79E7     		b	.L29
 858              	.LVL37:
 859              	.L38:
 433:../../core/platform/octa/src/stm32l4xx_hal_msp.c ****   
 860              		.loc 1 433 5 is_stmt 1 view .LVU258
 861              	.LBB21:
 433:../../core/platform/octa/src/stm32l4xx_hal_msp.c ****   
 862              		.loc 1 433 5 view .LVU259
 433:../../core/platform/octa/src/stm32l4xx_hal_msp.c ****   
 863              		.loc 1 433 5 view .LVU260
 864 0138 144B     		ldr	r3, .L39+16
 865 013a 9A6D     		ldr	r2, [r3, #88]
 866 013c 42F48022 		orr	r2, r2, #262144
 867 0140 9A65     		str	r2, [r3, #88]
 433:../../core/platform/octa/src/stm32l4xx_hal_msp.c ****   
 868              		.loc 1 433 5 view .LVU261
 869 0142 9A6D     		ldr	r2, [r3, #88]
 870 0144 02F48022 		and	r2, r2, #262144
 871 0148 0992     		str	r2, [sp, #36]
 433:../../core/platform/octa/src/stm32l4xx_hal_msp.c ****   
 872              		.loc 1 433 5 view .LVU262
 873 014a 099A     		ldr	r2, [sp, #36]
 874              	.LBE21:
 435:../../core/platform/octa/src/stm32l4xx_hal_msp.c ****     /**USART3 GPIO Configuration    
 875              		.loc 1 435 5 view .LVU263
 876              	.LBB22:
 435:../../core/platform/octa/src/stm32l4xx_hal_msp.c ****     /**USART3 GPIO Configuration    
 877              		.loc 1 435 5 view .LVU264
 435:../../core/platform/octa/src/stm32l4xx_hal_msp.c ****     /**USART3 GPIO Configuration    
 878              		.loc 1 435 5 view .LVU265
 879 014c DA6C     		ldr	r2, [r3, #76]
 880 014e 42F00802 		orr	r2, r2, #8
 881 0152 DA64     		str	r2, [r3, #76]
 435:../../core/platform/octa/src/stm32l4xx_hal_msp.c ****     /**USART3 GPIO Configuration    
 882              		.loc 1 435 5 view .LVU266
 883 0154 DB6C     		ldr	r3, [r3, #76]
 884 0156 03F00803 		and	r3, r3, #8
ARM GAS  C:\Users\yvesk\AppData\Local\Temp\ccDdTYOB.s 			page 28


 885 015a 0A93     		str	r3, [sp, #40]
 435:../../core/platform/octa/src/stm32l4xx_hal_msp.c ****     /**USART3 GPIO Configuration    
 886              		.loc 1 435 5 view .LVU267
 887 015c 0A9B     		ldr	r3, [sp, #40]
 888              	.LBE22:
 440:../../core/platform/octa/src/stm32l4xx_hal_msp.c ****     GPIO_InitStruct.Mode = GPIO_MODE_AF_PP;
 889              		.loc 1 440 5 view .LVU268
 440:../../core/platform/octa/src/stm32l4xx_hal_msp.c ****     GPIO_InitStruct.Mode = GPIO_MODE_AF_PP;
 890              		.loc 1 440 25 is_stmt 0 view .LVU269
 891 015e 4FF44073 		mov	r3, #768
 892 0162 0B93     		str	r3, [sp, #44]
 441:../../core/platform/octa/src/stm32l4xx_hal_msp.c ****     GPIO_InitStruct.Pull = GPIO_NOPULL;
 893              		.loc 1 441 5 is_stmt 1 view .LVU270
 441:../../core/platform/octa/src/stm32l4xx_hal_msp.c ****     GPIO_InitStruct.Pull = GPIO_NOPULL;
 894              		.loc 1 441 26 is_stmt 0 view .LVU271
 895 0164 0223     		movs	r3, #2
 896 0166 0C93     		str	r3, [sp, #48]
 442:../../core/platform/octa/src/stm32l4xx_hal_msp.c ****     GPIO_InitStruct.Speed = GPIO_SPEED_FREQ_VERY_HIGH;
 897              		.loc 1 442 5 is_stmt 1 view .LVU272
 443:../../core/platform/octa/src/stm32l4xx_hal_msp.c ****     GPIO_InitStruct.Alternate = GPIO_AF7_USART3;
 898              		.loc 1 443 5 view .LVU273
 443:../../core/platform/octa/src/stm32l4xx_hal_msp.c ****     GPIO_InitStruct.Alternate = GPIO_AF7_USART3;
 899              		.loc 1 443 27 is_stmt 0 view .LVU274
 900 0168 0323     		movs	r3, #3
 901 016a 0E93     		str	r3, [sp, #56]
 444:../../core/platform/octa/src/stm32l4xx_hal_msp.c ****     HAL_GPIO_Init(GPIOD, &GPIO_InitStruct);
 902              		.loc 1 444 5 is_stmt 1 view .LVU275
 444:../../core/platform/octa/src/stm32l4xx_hal_msp.c ****     HAL_GPIO_Init(GPIOD, &GPIO_InitStruct);
 903              		.loc 1 444 31 is_stmt 0 view .LVU276
 904 016c 0723     		movs	r3, #7
 905 016e 0F93     		str	r3, [sp, #60]
 445:../../core/platform/octa/src/stm32l4xx_hal_msp.c **** 
 906              		.loc 1 445 5 is_stmt 1 view .LVU277
 907 0170 0BA9     		add	r1, sp, #44
 908 0172 0948     		ldr	r0, .L39+28
 909              	.LVL38:
 445:../../core/platform/octa/src/stm32l4xx_hal_msp.c **** 
 910              		.loc 1 445 5 is_stmt 0 view .LVU278
 911 0174 FFF7FEFF 		bl	HAL_GPIO_Init
 912              	.LVL39:
 913              		.loc 1 452 1 view .LVU279
 914 0178 58E7     		b	.L29
 915              	.L40:
 916 017a 00BF     		.align	2
 917              	.L39:
 918 017c 00800040 		.word	1073774592
 919 0180 00500040 		.word	1073762304
 920 0184 00440040 		.word	1073759232
 921 0188 00480040 		.word	1073760256
 922 018c 00100240 		.word	1073876992
 923 0190 00180048 		.word	1207965696
 924 0194 00080048 		.word	1207961600
 925 0198 000C0048 		.word	1207962624
 926              		.cfi_endproc
 927              	.LFE126:
 929              		.section	.text.HAL_UART_MspDeInit,"ax",%progbits
 930              		.align	1
ARM GAS  C:\Users\yvesk\AppData\Local\Temp\ccDdTYOB.s 			page 29


 931              		.global	HAL_UART_MspDeInit
 932              		.syntax unified
 933              		.thumb
 934              		.thumb_func
 935              		.fpu fpv4-sp-d16
 937              	HAL_UART_MspDeInit:
 938              	.LVL40:
 939              	.LFB127:
 453:../../core/platform/octa/src/stm32l4xx_hal_msp.c **** 
 454:../../core/platform/octa/src/stm32l4xx_hal_msp.c **** /**
 455:../../core/platform/octa/src/stm32l4xx_hal_msp.c **** * @brief UART MSP De-Initialization
 456:../../core/platform/octa/src/stm32l4xx_hal_msp.c **** * This function freeze the hardware resources used in this example
 457:../../core/platform/octa/src/stm32l4xx_hal_msp.c **** * @param huart: UART handle pointer
 458:../../core/platform/octa/src/stm32l4xx_hal_msp.c **** * @retval None
 459:../../core/platform/octa/src/stm32l4xx_hal_msp.c **** */
 460:../../core/platform/octa/src/stm32l4xx_hal_msp.c **** 
 461:../../core/platform/octa/src/stm32l4xx_hal_msp.c **** void HAL_UART_MspDeInit(UART_HandleTypeDef* huart)
 462:../../core/platform/octa/src/stm32l4xx_hal_msp.c **** {
 940              		.loc 1 462 1 is_stmt 1 view -0
 941              		.cfi_startproc
 942              		@ args = 0, pretend = 0, frame = 0
 943              		@ frame_needed = 0, uses_anonymous_args = 0
 944              		.loc 1 462 1 is_stmt 0 view .LVU281
 945 0000 08B5     		push	{r3, lr}
 946              	.LCFI12:
 947              		.cfi_def_cfa_offset 8
 948              		.cfi_offset 3, -8
 949              		.cfi_offset 14, -4
 463:../../core/platform/octa/src/stm32l4xx_hal_msp.c **** 
 464:../../core/platform/octa/src/stm32l4xx_hal_msp.c ****   if(huart->Instance==LPUART1)
 950              		.loc 1 464 3 is_stmt 1 view .LVU282
 951              		.loc 1 464 11 is_stmt 0 view .LVU283
 952 0002 0368     		ldr	r3, [r0]
 953              		.loc 1 464 5 view .LVU284
 954 0004 204A     		ldr	r2, .L51
 955 0006 9342     		cmp	r3, r2
 956 0008 09D0     		beq	.L47
 465:../../core/platform/octa/src/stm32l4xx_hal_msp.c ****   {
 466:../../core/platform/octa/src/stm32l4xx_hal_msp.c ****   /* USER CODE BEGIN LPUART1_MspDeInit 0 */
 467:../../core/platform/octa/src/stm32l4xx_hal_msp.c **** 
 468:../../core/platform/octa/src/stm32l4xx_hal_msp.c ****   /* USER CODE END LPUART1_MspDeInit 0 */
 469:../../core/platform/octa/src/stm32l4xx_hal_msp.c ****     /* Peripheral clock disable */
 470:../../core/platform/octa/src/stm32l4xx_hal_msp.c ****     __HAL_RCC_LPUART1_CLK_DISABLE();
 471:../../core/platform/octa/src/stm32l4xx_hal_msp.c ****   
 472:../../core/platform/octa/src/stm32l4xx_hal_msp.c ****     /**LPUART1 GPIO Configuration    
 473:../../core/platform/octa/src/stm32l4xx_hal_msp.c ****     PG7     ------> LPUART1_TX
 474:../../core/platform/octa/src/stm32l4xx_hal_msp.c ****     PG8     ------> LPUART1_RX 
 475:../../core/platform/octa/src/stm32l4xx_hal_msp.c ****     */
 476:../../core/platform/octa/src/stm32l4xx_hal_msp.c ****     HAL_GPIO_DeInit(GPIOG, GPIO_PIN_7|GPIO_PIN_8);
 477:../../core/platform/octa/src/stm32l4xx_hal_msp.c **** 
 478:../../core/platform/octa/src/stm32l4xx_hal_msp.c ****   /* USER CODE BEGIN LPUART1_MspDeInit 1 */
 479:../../core/platform/octa/src/stm32l4xx_hal_msp.c **** 
 480:../../core/platform/octa/src/stm32l4xx_hal_msp.c ****   /* USER CODE END LPUART1_MspDeInit 1 */
 481:../../core/platform/octa/src/stm32l4xx_hal_msp.c ****   }
 482:../../core/platform/octa/src/stm32l4xx_hal_msp.c ****   else if(huart->Instance==UART5)
 957              		.loc 1 482 8 is_stmt 1 view .LVU285
 958              		.loc 1 482 10 is_stmt 0 view .LVU286
ARM GAS  C:\Users\yvesk\AppData\Local\Temp\ccDdTYOB.s 			page 30


 959 000a 204A     		ldr	r2, .L51+4
 960 000c 9342     		cmp	r3, r2
 961 000e 12D0     		beq	.L48
 483:../../core/platform/octa/src/stm32l4xx_hal_msp.c ****   {
 484:../../core/platform/octa/src/stm32l4xx_hal_msp.c ****   /* USER CODE BEGIN UART5_MspDeInit 0 */
 485:../../core/platform/octa/src/stm32l4xx_hal_msp.c **** 
 486:../../core/platform/octa/src/stm32l4xx_hal_msp.c ****   /* USER CODE END UART5_MspDeInit 0 */
 487:../../core/platform/octa/src/stm32l4xx_hal_msp.c ****     /* Peripheral clock disable */
 488:../../core/platform/octa/src/stm32l4xx_hal_msp.c ****     __HAL_RCC_UART5_CLK_DISABLE();
 489:../../core/platform/octa/src/stm32l4xx_hal_msp.c ****   
 490:../../core/platform/octa/src/stm32l4xx_hal_msp.c ****     /**UART5 GPIO Configuration    
 491:../../core/platform/octa/src/stm32l4xx_hal_msp.c ****     PC12     ------> UART5_TX
 492:../../core/platform/octa/src/stm32l4xx_hal_msp.c ****     PD2     ------> UART5_RX 
 493:../../core/platform/octa/src/stm32l4xx_hal_msp.c ****     */
 494:../../core/platform/octa/src/stm32l4xx_hal_msp.c ****     HAL_GPIO_DeInit(GPIOC, GPIO_PIN_12);
 495:../../core/platform/octa/src/stm32l4xx_hal_msp.c **** 
 496:../../core/platform/octa/src/stm32l4xx_hal_msp.c ****     HAL_GPIO_DeInit(GPIOD, GPIO_PIN_2);
 497:../../core/platform/octa/src/stm32l4xx_hal_msp.c **** 
 498:../../core/platform/octa/src/stm32l4xx_hal_msp.c ****   /* USER CODE BEGIN UART5_MspDeInit 1 */
 499:../../core/platform/octa/src/stm32l4xx_hal_msp.c **** 
 500:../../core/platform/octa/src/stm32l4xx_hal_msp.c ****   /* USER CODE END UART5_MspDeInit 1 */
 501:../../core/platform/octa/src/stm32l4xx_hal_msp.c ****   }
 502:../../core/platform/octa/src/stm32l4xx_hal_msp.c ****   else if(huart->Instance==USART2)
 962              		.loc 1 502 8 is_stmt 1 view .LVU287
 963              		.loc 1 502 10 is_stmt 0 view .LVU288
 964 0010 1F4A     		ldr	r2, .L51+8
 965 0012 9342     		cmp	r3, r2
 966 0014 1FD0     		beq	.L49
 503:../../core/platform/octa/src/stm32l4xx_hal_msp.c ****   {
 504:../../core/platform/octa/src/stm32l4xx_hal_msp.c ****   /* USER CODE BEGIN USART2_MspDeInit 0 */
 505:../../core/platform/octa/src/stm32l4xx_hal_msp.c **** 
 506:../../core/platform/octa/src/stm32l4xx_hal_msp.c ****   /* USER CODE END USART2_MspDeInit 0 */
 507:../../core/platform/octa/src/stm32l4xx_hal_msp.c ****     /* Peripheral clock disable */
 508:../../core/platform/octa/src/stm32l4xx_hal_msp.c ****     __HAL_RCC_USART2_CLK_DISABLE();
 509:../../core/platform/octa/src/stm32l4xx_hal_msp.c ****   
 510:../../core/platform/octa/src/stm32l4xx_hal_msp.c ****     
 511:../../core/platform/octa/src/stm32l4xx_hal_msp.c ****     #if USE_BOOTLOADER
 512:../../core/platform/octa/src/stm32l4xx_hal_msp.c ****       /**USART2 BLE GPIO Configuration    
 513:../../core/platform/octa/src/stm32l4xx_hal_msp.c ****       PD5     ------> USART2_TX
 514:../../core/platform/octa/src/stm32l4xx_hal_msp.c ****       PD6     ------> USART2_RX 
 515:../../core/platform/octa/src/stm32l4xx_hal_msp.c ****       */
 516:../../core/platform/octa/src/stm32l4xx_hal_msp.c ****       HAL_GPIO_DeInit(GPIOD, GPIO_PIN_5|GPIO_PIN_6);
 517:../../core/platform/octa/src/stm32l4xx_hal_msp.c ****     #else
 518:../../core/platform/octa/src/stm32l4xx_hal_msp.c ****       /**USART2 GPIO Configuration    
 519:../../core/platform/octa/src/stm32l4xx_hal_msp.c ****       PA2     ------> USART2_TX
 520:../../core/platform/octa/src/stm32l4xx_hal_msp.c ****       PA3     ------> USART2_RX 
 521:../../core/platform/octa/src/stm32l4xx_hal_msp.c ****       */
 522:../../core/platform/octa/src/stm32l4xx_hal_msp.c ****       HAL_GPIO_DeInit(GPIOA, GPIO_PIN_2|GPIO_PIN_3);
 523:../../core/platform/octa/src/stm32l4xx_hal_msp.c ****     #endif
 524:../../core/platform/octa/src/stm32l4xx_hal_msp.c ****   /* USER CODE BEGIN USART2_MspDeInit 1 */
 525:../../core/platform/octa/src/stm32l4xx_hal_msp.c **** 
 526:../../core/platform/octa/src/stm32l4xx_hal_msp.c ****   /* USER CODE END USART2_MspDeInit 1 */
 527:../../core/platform/octa/src/stm32l4xx_hal_msp.c ****   }
 528:../../core/platform/octa/src/stm32l4xx_hal_msp.c ****   else if(huart->Instance==USART3)
 967              		.loc 1 528 8 is_stmt 1 view .LVU289
 968              		.loc 1 528 10 is_stmt 0 view .LVU290
 969 0016 1F4A     		ldr	r2, .L51+12
ARM GAS  C:\Users\yvesk\AppData\Local\Temp\ccDdTYOB.s 			page 31


 970 0018 9342     		cmp	r3, r2
 971 001a 28D0     		beq	.L50
 972              	.LVL41:
 973              	.L41:
 529:../../core/platform/octa/src/stm32l4xx_hal_msp.c ****   {
 530:../../core/platform/octa/src/stm32l4xx_hal_msp.c ****   /* USER CODE BEGIN USART3_MspDeInit 0 */
 531:../../core/platform/octa/src/stm32l4xx_hal_msp.c **** 
 532:../../core/platform/octa/src/stm32l4xx_hal_msp.c ****   /* USER CODE END USART3_MspDeInit 0 */
 533:../../core/platform/octa/src/stm32l4xx_hal_msp.c ****     /* Peripheral clock disable */
 534:../../core/platform/octa/src/stm32l4xx_hal_msp.c ****     __HAL_RCC_USART3_CLK_DISABLE();
 535:../../core/platform/octa/src/stm32l4xx_hal_msp.c ****   
 536:../../core/platform/octa/src/stm32l4xx_hal_msp.c ****     /**USART3 GPIO Configuration    
 537:../../core/platform/octa/src/stm32l4xx_hal_msp.c ****     PD8     ------> USART3_TX
 538:../../core/platform/octa/src/stm32l4xx_hal_msp.c ****     PD9     ------> USART3_RX 
 539:../../core/platform/octa/src/stm32l4xx_hal_msp.c ****     */
 540:../../core/platform/octa/src/stm32l4xx_hal_msp.c ****     HAL_GPIO_DeInit(GPIOD, GPIO_PIN_8|GPIO_PIN_9);
 541:../../core/platform/octa/src/stm32l4xx_hal_msp.c **** 
 542:../../core/platform/octa/src/stm32l4xx_hal_msp.c ****   /* USER CODE BEGIN USART3_MspDeInit 1 */
 543:../../core/platform/octa/src/stm32l4xx_hal_msp.c **** 
 544:../../core/platform/octa/src/stm32l4xx_hal_msp.c ****   /* USER CODE END USART3_MspDeInit 1 */
 545:../../core/platform/octa/src/stm32l4xx_hal_msp.c ****   }
 546:../../core/platform/octa/src/stm32l4xx_hal_msp.c **** 
 547:../../core/platform/octa/src/stm32l4xx_hal_msp.c **** }
 974              		.loc 1 547 1 view .LVU291
 975 001c 08BD     		pop	{r3, pc}
 976              	.LVL42:
 977              	.L47:
 470:../../core/platform/octa/src/stm32l4xx_hal_msp.c ****   
 978              		.loc 1 470 5 is_stmt 1 view .LVU292
 979 001e 02F5C832 		add	r2, r2, #102400
 980 0022 D36D     		ldr	r3, [r2, #92]
 981 0024 23F00103 		bic	r3, r3, #1
 982 0028 D365     		str	r3, [r2, #92]
 476:../../core/platform/octa/src/stm32l4xx_hal_msp.c **** 
 983              		.loc 1 476 5 view .LVU293
 984 002a 4FF4C071 		mov	r1, #384
 985 002e 1A48     		ldr	r0, .L51+16
 986              	.LVL43:
 476:../../core/platform/octa/src/stm32l4xx_hal_msp.c **** 
 987              		.loc 1 476 5 is_stmt 0 view .LVU294
 988 0030 FFF7FEFF 		bl	HAL_GPIO_DeInit
 989              	.LVL44:
 990 0034 F2E7     		b	.L41
 991              	.LVL45:
 992              	.L48:
 488:../../core/platform/octa/src/stm32l4xx_hal_msp.c ****   
 993              		.loc 1 488 5 is_stmt 1 view .LVU295
 994 0036 02F5E032 		add	r2, r2, #114688
 995 003a 936D     		ldr	r3, [r2, #88]
 996 003c 23F48013 		bic	r3, r3, #1048576
 997 0040 9365     		str	r3, [r2, #88]
 494:../../core/platform/octa/src/stm32l4xx_hal_msp.c **** 
 998              		.loc 1 494 5 view .LVU296
 999 0042 4FF48051 		mov	r1, #4096
 1000 0046 1548     		ldr	r0, .L51+20
 1001              	.LVL46:
 494:../../core/platform/octa/src/stm32l4xx_hal_msp.c **** 
ARM GAS  C:\Users\yvesk\AppData\Local\Temp\ccDdTYOB.s 			page 32


 1002              		.loc 1 494 5 is_stmt 0 view .LVU297
 1003 0048 FFF7FEFF 		bl	HAL_GPIO_DeInit
 1004              	.LVL47:
 496:../../core/platform/octa/src/stm32l4xx_hal_msp.c **** 
 1005              		.loc 1 496 5 is_stmt 1 view .LVU298
 1006 004c 0421     		movs	r1, #4
 1007 004e 1448     		ldr	r0, .L51+24
 1008 0050 FFF7FEFF 		bl	HAL_GPIO_DeInit
 1009              	.LVL48:
 1010 0054 E2E7     		b	.L41
 1011              	.LVL49:
 1012              	.L49:
 508:../../core/platform/octa/src/stm32l4xx_hal_msp.c ****   
 1013              		.loc 1 508 5 view .LVU299
 1014 0056 02F5E632 		add	r2, r2, #117760
 1015 005a 936D     		ldr	r3, [r2, #88]
 1016 005c 23F40033 		bic	r3, r3, #131072
 1017 0060 9365     		str	r3, [r2, #88]
 522:../../core/platform/octa/src/stm32l4xx_hal_msp.c ****     #endif
 1018              		.loc 1 522 7 view .LVU300
 1019 0062 0C21     		movs	r1, #12
 1020 0064 4FF09040 		mov	r0, #1207959552
 1021              	.LVL50:
 522:../../core/platform/octa/src/stm32l4xx_hal_msp.c ****     #endif
 1022              		.loc 1 522 7 is_stmt 0 view .LVU301
 1023 0068 FFF7FEFF 		bl	HAL_GPIO_DeInit
 1024              	.LVL51:
 1025 006c D6E7     		b	.L41
 1026              	.LVL52:
 1027              	.L50:
 534:../../core/platform/octa/src/stm32l4xx_hal_msp.c ****   
 1028              		.loc 1 534 5 is_stmt 1 view .LVU302
 1029 006e 02F5E432 		add	r2, r2, #116736
 1030 0072 936D     		ldr	r3, [r2, #88]
 1031 0074 23F48023 		bic	r3, r3, #262144
 1032 0078 9365     		str	r3, [r2, #88]
 540:../../core/platform/octa/src/stm32l4xx_hal_msp.c **** 
 1033              		.loc 1 540 5 view .LVU303
 1034 007a 4FF44071 		mov	r1, #768
 1035 007e 0848     		ldr	r0, .L51+24
 1036              	.LVL53:
 540:../../core/platform/octa/src/stm32l4xx_hal_msp.c **** 
 1037              		.loc 1 540 5 is_stmt 0 view .LVU304
 1038 0080 FFF7FEFF 		bl	HAL_GPIO_DeInit
 1039              	.LVL54:
 1040              		.loc 1 547 1 view .LVU305
 1041 0084 CAE7     		b	.L41
 1042              	.L52:
 1043 0086 00BF     		.align	2
 1044              	.L51:
 1045 0088 00800040 		.word	1073774592
 1046 008c 00500040 		.word	1073762304
 1047 0090 00440040 		.word	1073759232
 1048 0094 00480040 		.word	1073760256
 1049 0098 00180048 		.word	1207965696
 1050 009c 00080048 		.word	1207961600
 1051 00a0 000C0048 		.word	1207962624
ARM GAS  C:\Users\yvesk\AppData\Local\Temp\ccDdTYOB.s 			page 33


 1052              		.cfi_endproc
 1053              	.LFE127:
 1055              		.section	.text.HAL_SPI_MspInit,"ax",%progbits
 1056              		.align	1
 1057              		.global	HAL_SPI_MspInit
 1058              		.syntax unified
 1059              		.thumb
 1060              		.thumb_func
 1061              		.fpu fpv4-sp-d16
 1063              	HAL_SPI_MspInit:
 1064              	.LVL55:
 1065              	.LFB128:
 548:../../core/platform/octa/src/stm32l4xx_hal_msp.c **** 
 549:../../core/platform/octa/src/stm32l4xx_hal_msp.c **** /**
 550:../../core/platform/octa/src/stm32l4xx_hal_msp.c **** * @brief SPI MSP Initialization
 551:../../core/platform/octa/src/stm32l4xx_hal_msp.c **** * This function configures the hardware resources used in this example
 552:../../core/platform/octa/src/stm32l4xx_hal_msp.c **** * @param hspi: SPI handle pointer
 553:../../core/platform/octa/src/stm32l4xx_hal_msp.c **** * @retval None
 554:../../core/platform/octa/src/stm32l4xx_hal_msp.c **** */
 555:../../core/platform/octa/src/stm32l4xx_hal_msp.c **** void HAL_SPI_MspInit(SPI_HandleTypeDef* hspi)
 556:../../core/platform/octa/src/stm32l4xx_hal_msp.c **** {
 1066              		.loc 1 556 1 is_stmt 1 view -0
 1067              		.cfi_startproc
 1068              		@ args = 0, pretend = 0, frame = 48
 1069              		@ frame_needed = 0, uses_anonymous_args = 0
 1070              		.loc 1 556 1 is_stmt 0 view .LVU307
 1071 0000 70B5     		push	{r4, r5, r6, lr}
 1072              	.LCFI13:
 1073              		.cfi_def_cfa_offset 16
 1074              		.cfi_offset 4, -16
 1075              		.cfi_offset 5, -12
 1076              		.cfi_offset 6, -8
 1077              		.cfi_offset 14, -4
 1078 0002 8CB0     		sub	sp, sp, #48
 1079              	.LCFI14:
 1080              		.cfi_def_cfa_offset 64
 557:../../core/platform/octa/src/stm32l4xx_hal_msp.c **** 
 558:../../core/platform/octa/src/stm32l4xx_hal_msp.c ****   GPIO_InitTypeDef GPIO_InitStruct = {0};
 1081              		.loc 1 558 3 is_stmt 1 view .LVU308
 1082              		.loc 1 558 20 is_stmt 0 view .LVU309
 1083 0004 0023     		movs	r3, #0
 1084 0006 0793     		str	r3, [sp, #28]
 1085 0008 0893     		str	r3, [sp, #32]
 1086 000a 0993     		str	r3, [sp, #36]
 1087 000c 0A93     		str	r3, [sp, #40]
 1088 000e 0B93     		str	r3, [sp, #44]
 559:../../core/platform/octa/src/stm32l4xx_hal_msp.c ****   if(hspi->Instance==SPI1)
 1089              		.loc 1 559 3 is_stmt 1 view .LVU310
 1090              		.loc 1 559 10 is_stmt 0 view .LVU311
 1091 0010 0368     		ldr	r3, [r0]
 1092              		.loc 1 559 5 view .LVU312
 1093 0012 4C4A     		ldr	r2, .L61
 1094 0014 9342     		cmp	r3, r2
 1095 0016 07D0     		beq	.L58
 560:../../core/platform/octa/src/stm32l4xx_hal_msp.c ****   {
 561:../../core/platform/octa/src/stm32l4xx_hal_msp.c ****   /* USER CODE BEGIN SPI1_MspInit 0 */
 562:../../core/platform/octa/src/stm32l4xx_hal_msp.c **** 
ARM GAS  C:\Users\yvesk\AppData\Local\Temp\ccDdTYOB.s 			page 34


 563:../../core/platform/octa/src/stm32l4xx_hal_msp.c ****   /* USER CODE END SPI1_MspInit 0 */
 564:../../core/platform/octa/src/stm32l4xx_hal_msp.c ****     /* Peripheral clock enable */
 565:../../core/platform/octa/src/stm32l4xx_hal_msp.c ****     __HAL_RCC_SPI1_CLK_ENABLE();
 566:../../core/platform/octa/src/stm32l4xx_hal_msp.c ****   
 567:../../core/platform/octa/src/stm32l4xx_hal_msp.c ****     __HAL_RCC_GPIOE_CLK_ENABLE();
 568:../../core/platform/octa/src/stm32l4xx_hal_msp.c ****     /**SPI1 GPIO Configuration    
 569:../../core/platform/octa/src/stm32l4xx_hal_msp.c ****     PE12     ------> SPI1_NSS
 570:../../core/platform/octa/src/stm32l4xx_hal_msp.c ****     PE13     ------> SPI1_SCK
 571:../../core/platform/octa/src/stm32l4xx_hal_msp.c ****     PE14     ------> SPI1_MISO
 572:../../core/platform/octa/src/stm32l4xx_hal_msp.c ****     PE15     ------> SPI1_MOSI 
 573:../../core/platform/octa/src/stm32l4xx_hal_msp.c ****     */
 574:../../core/platform/octa/src/stm32l4xx_hal_msp.c ****     GPIO_InitStruct.Pin = GPIO_PIN_12|GPIO_PIN_13|GPIO_PIN_14|GPIO_PIN_15;
 575:../../core/platform/octa/src/stm32l4xx_hal_msp.c ****     GPIO_InitStruct.Mode = GPIO_MODE_AF_PP;
 576:../../core/platform/octa/src/stm32l4xx_hal_msp.c ****     GPIO_InitStruct.Pull = GPIO_NOPULL;
 577:../../core/platform/octa/src/stm32l4xx_hal_msp.c ****     GPIO_InitStruct.Speed = GPIO_SPEED_FREQ_VERY_HIGH;
 578:../../core/platform/octa/src/stm32l4xx_hal_msp.c ****     GPIO_InitStruct.Alternate = GPIO_AF5_SPI1;
 579:../../core/platform/octa/src/stm32l4xx_hal_msp.c ****     HAL_GPIO_Init(GPIOE, &GPIO_InitStruct);
 580:../../core/platform/octa/src/stm32l4xx_hal_msp.c **** 
 581:../../core/platform/octa/src/stm32l4xx_hal_msp.c ****     /* SPI1 interrupt Init */
 582:../../core/platform/octa/src/stm32l4xx_hal_msp.c ****     HAL_NVIC_SetPriority(SPI1_IRQn, 0, 0);
 583:../../core/platform/octa/src/stm32l4xx_hal_msp.c ****     HAL_NVIC_EnableIRQ(SPI1_IRQn);
 584:../../core/platform/octa/src/stm32l4xx_hal_msp.c ****   /* USER CODE BEGIN SPI1_MspInit 1 */
 585:../../core/platform/octa/src/stm32l4xx_hal_msp.c **** 
 586:../../core/platform/octa/src/stm32l4xx_hal_msp.c ****   /* USER CODE END SPI1_MspInit 1 */
 587:../../core/platform/octa/src/stm32l4xx_hal_msp.c ****   }
 588:../../core/platform/octa/src/stm32l4xx_hal_msp.c ****   else if(hspi->Instance==SPI2)
 1096              		.loc 1 588 8 is_stmt 1 view .LVU313
 1097              		.loc 1 588 10 is_stmt 0 view .LVU314
 1098 0018 4B4A     		ldr	r2, .L61+4
 1099 001a 9342     		cmp	r3, r2
 1100 001c 2DD0     		beq	.L59
 589:../../core/platform/octa/src/stm32l4xx_hal_msp.c ****   {
 590:../../core/platform/octa/src/stm32l4xx_hal_msp.c ****   /* USER CODE BEGIN SPI2_MspInit 0 */
 591:../../core/platform/octa/src/stm32l4xx_hal_msp.c **** 
 592:../../core/platform/octa/src/stm32l4xx_hal_msp.c ****   /* USER CODE END SPI2_MspInit 0 */
 593:../../core/platform/octa/src/stm32l4xx_hal_msp.c ****     /* Peripheral clock enable */
 594:../../core/platform/octa/src/stm32l4xx_hal_msp.c ****     __HAL_RCC_SPI2_CLK_ENABLE();
 595:../../core/platform/octa/src/stm32l4xx_hal_msp.c ****   
 596:../../core/platform/octa/src/stm32l4xx_hal_msp.c ****     __HAL_RCC_GPIOD_CLK_ENABLE();
 597:../../core/platform/octa/src/stm32l4xx_hal_msp.c ****     /**SPI2 GPIO Configuration    
 598:../../core/platform/octa/src/stm32l4xx_hal_msp.c ****     PD0     ------> SPI2_NSS
 599:../../core/platform/octa/src/stm32l4xx_hal_msp.c ****     PD1     ------> SPI2_SCK
 600:../../core/platform/octa/src/stm32l4xx_hal_msp.c ****     PD3     ------> SPI2_MISO
 601:../../core/platform/octa/src/stm32l4xx_hal_msp.c ****     PD4     ------> SPI2_MOSI 
 602:../../core/platform/octa/src/stm32l4xx_hal_msp.c ****     */
 603:../../core/platform/octa/src/stm32l4xx_hal_msp.c ****     GPIO_InitStruct.Pin = GPIO_PIN_0|GPIO_PIN_1|GPIO_PIN_3|GPIO_PIN_4;
 604:../../core/platform/octa/src/stm32l4xx_hal_msp.c ****     GPIO_InitStruct.Mode = GPIO_MODE_AF_PP;
 605:../../core/platform/octa/src/stm32l4xx_hal_msp.c ****     GPIO_InitStruct.Pull = GPIO_NOPULL;
 606:../../core/platform/octa/src/stm32l4xx_hal_msp.c ****     GPIO_InitStruct.Speed = GPIO_SPEED_FREQ_VERY_HIGH;
 607:../../core/platform/octa/src/stm32l4xx_hal_msp.c ****     GPIO_InitStruct.Alternate = GPIO_AF5_SPI2;
 608:../../core/platform/octa/src/stm32l4xx_hal_msp.c ****     HAL_GPIO_Init(GPIOD, &GPIO_InitStruct);
 609:../../core/platform/octa/src/stm32l4xx_hal_msp.c **** 
 610:../../core/platform/octa/src/stm32l4xx_hal_msp.c ****     /* SPI2 interrupt Init */
 611:../../core/platform/octa/src/stm32l4xx_hal_msp.c ****     HAL_NVIC_SetPriority(SPI2_IRQn, 0, 0);
 612:../../core/platform/octa/src/stm32l4xx_hal_msp.c ****     HAL_NVIC_EnableIRQ(SPI2_IRQn);
 613:../../core/platform/octa/src/stm32l4xx_hal_msp.c ****   /* USER CODE BEGIN SPI2_MspInit 1 */
 614:../../core/platform/octa/src/stm32l4xx_hal_msp.c **** 
ARM GAS  C:\Users\yvesk\AppData\Local\Temp\ccDdTYOB.s 			page 35


 615:../../core/platform/octa/src/stm32l4xx_hal_msp.c ****   /* USER CODE END SPI2_MspInit 1 */
 616:../../core/platform/octa/src/stm32l4xx_hal_msp.c ****   }
 617:../../core/platform/octa/src/stm32l4xx_hal_msp.c ****   else if(hspi->Instance==SPI3)
 1101              		.loc 1 617 8 is_stmt 1 view .LVU315
 1102              		.loc 1 617 10 is_stmt 0 view .LVU316
 1103 001e 4B4A     		ldr	r2, .L61+8
 1104 0020 9342     		cmp	r3, r2
 1105 0022 52D0     		beq	.L60
 1106              	.LVL56:
 1107              	.L53:
 618:../../core/platform/octa/src/stm32l4xx_hal_msp.c ****   {
 619:../../core/platform/octa/src/stm32l4xx_hal_msp.c ****   /* USER CODE BEGIN SPI3_MspInit 0 */
 620:../../core/platform/octa/src/stm32l4xx_hal_msp.c **** 
 621:../../core/platform/octa/src/stm32l4xx_hal_msp.c ****   /* USER CODE END SPI3_MspInit 0 */
 622:../../core/platform/octa/src/stm32l4xx_hal_msp.c ****     /* Peripheral clock enable */
 623:../../core/platform/octa/src/stm32l4xx_hal_msp.c ****     __HAL_RCC_SPI3_CLK_ENABLE();
 624:../../core/platform/octa/src/stm32l4xx_hal_msp.c ****   
 625:../../core/platform/octa/src/stm32l4xx_hal_msp.c ****     __HAL_RCC_GPIOA_CLK_ENABLE();
 626:../../core/platform/octa/src/stm32l4xx_hal_msp.c ****     __HAL_RCC_GPIOB_CLK_ENABLE();
 627:../../core/platform/octa/src/stm32l4xx_hal_msp.c ****     /**SPI3 GPIO Configuration    
 628:../../core/platform/octa/src/stm32l4xx_hal_msp.c ****     PA4     ------> SPI3_NSS
 629:../../core/platform/octa/src/stm32l4xx_hal_msp.c ****     PB3 (JTDO/TRACESWO)     ------> SPI3_SCK
 630:../../core/platform/octa/src/stm32l4xx_hal_msp.c ****     PB4 (NJTRST)     ------> SPI3_MISO
 631:../../core/platform/octa/src/stm32l4xx_hal_msp.c ****     PB5     ------> SPI3_MOSI 
 632:../../core/platform/octa/src/stm32l4xx_hal_msp.c ****     */
 633:../../core/platform/octa/src/stm32l4xx_hal_msp.c ****     GPIO_InitStruct.Pin = GPIO_PIN_4;
 634:../../core/platform/octa/src/stm32l4xx_hal_msp.c ****     GPIO_InitStruct.Mode = GPIO_MODE_AF_PP;
 635:../../core/platform/octa/src/stm32l4xx_hal_msp.c ****     GPIO_InitStruct.Pull = GPIO_NOPULL;
 636:../../core/platform/octa/src/stm32l4xx_hal_msp.c ****     GPIO_InitStruct.Speed = GPIO_SPEED_FREQ_VERY_HIGH;
 637:../../core/platform/octa/src/stm32l4xx_hal_msp.c ****     GPIO_InitStruct.Alternate = GPIO_AF6_SPI3;
 638:../../core/platform/octa/src/stm32l4xx_hal_msp.c ****     HAL_GPIO_Init(GPIOA, &GPIO_InitStruct);
 639:../../core/platform/octa/src/stm32l4xx_hal_msp.c **** 
 640:../../core/platform/octa/src/stm32l4xx_hal_msp.c ****     GPIO_InitStruct.Pin = GPIO_PIN_3|GPIO_PIN_4|GPIO_PIN_5;
 641:../../core/platform/octa/src/stm32l4xx_hal_msp.c ****     GPIO_InitStruct.Mode = GPIO_MODE_AF_PP;
 642:../../core/platform/octa/src/stm32l4xx_hal_msp.c ****     GPIO_InitStruct.Pull = GPIO_NOPULL;
 643:../../core/platform/octa/src/stm32l4xx_hal_msp.c ****     GPIO_InitStruct.Speed = GPIO_SPEED_FREQ_VERY_HIGH;
 644:../../core/platform/octa/src/stm32l4xx_hal_msp.c ****     GPIO_InitStruct.Alternate = GPIO_AF6_SPI3;
 645:../../core/platform/octa/src/stm32l4xx_hal_msp.c ****     HAL_GPIO_Init(GPIOB, &GPIO_InitStruct);
 646:../../core/platform/octa/src/stm32l4xx_hal_msp.c **** 
 647:../../core/platform/octa/src/stm32l4xx_hal_msp.c ****     /* SPI3 interrupt Init */
 648:../../core/platform/octa/src/stm32l4xx_hal_msp.c ****     HAL_NVIC_SetPriority(SPI3_IRQn, 0, 0);
 649:../../core/platform/octa/src/stm32l4xx_hal_msp.c ****     HAL_NVIC_EnableIRQ(SPI3_IRQn);
 650:../../core/platform/octa/src/stm32l4xx_hal_msp.c ****   /* USER CODE BEGIN SPI3_MspInit 1 */
 651:../../core/platform/octa/src/stm32l4xx_hal_msp.c **** 
 652:../../core/platform/octa/src/stm32l4xx_hal_msp.c ****   /* USER CODE END SPI3_MspInit 1 */
 653:../../core/platform/octa/src/stm32l4xx_hal_msp.c ****   }
 654:../../core/platform/octa/src/stm32l4xx_hal_msp.c **** 
 655:../../core/platform/octa/src/stm32l4xx_hal_msp.c **** }
 1108              		.loc 1 655 1 view .LVU317
 1109 0024 0CB0     		add	sp, sp, #48
 1110              	.LCFI15:
 1111              		.cfi_remember_state
 1112              		.cfi_def_cfa_offset 16
 1113              		@ sp needed
 1114 0026 70BD     		pop	{r4, r5, r6, pc}
 1115              	.LVL57:
 1116              	.L58:
ARM GAS  C:\Users\yvesk\AppData\Local\Temp\ccDdTYOB.s 			page 36


 1117              	.LCFI16:
 1118              		.cfi_restore_state
 565:../../core/platform/octa/src/stm32l4xx_hal_msp.c ****   
 1119              		.loc 1 565 5 is_stmt 1 view .LVU318
 1120              	.LBB23:
 565:../../core/platform/octa/src/stm32l4xx_hal_msp.c ****   
 1121              		.loc 1 565 5 view .LVU319
 565:../../core/platform/octa/src/stm32l4xx_hal_msp.c ****   
 1122              		.loc 1 565 5 view .LVU320
 1123 0028 494B     		ldr	r3, .L61+12
 1124 002a 1A6E     		ldr	r2, [r3, #96]
 1125 002c 42F48052 		orr	r2, r2, #4096
 1126 0030 1A66     		str	r2, [r3, #96]
 565:../../core/platform/octa/src/stm32l4xx_hal_msp.c ****   
 1127              		.loc 1 565 5 view .LVU321
 1128 0032 1A6E     		ldr	r2, [r3, #96]
 1129 0034 02F48052 		and	r2, r2, #4096
 1130 0038 0092     		str	r2, [sp]
 565:../../core/platform/octa/src/stm32l4xx_hal_msp.c ****   
 1131              		.loc 1 565 5 view .LVU322
 1132 003a 009A     		ldr	r2, [sp]
 1133              	.LBE23:
 567:../../core/platform/octa/src/stm32l4xx_hal_msp.c ****     /**SPI1 GPIO Configuration    
 1134              		.loc 1 567 5 view .LVU323
 1135              	.LBB24:
 567:../../core/platform/octa/src/stm32l4xx_hal_msp.c ****     /**SPI1 GPIO Configuration    
 1136              		.loc 1 567 5 view .LVU324
 567:../../core/platform/octa/src/stm32l4xx_hal_msp.c ****     /**SPI1 GPIO Configuration    
 1137              		.loc 1 567 5 view .LVU325
 1138 003c DA6C     		ldr	r2, [r3, #76]
 1139 003e 42F01002 		orr	r2, r2, #16
 1140 0042 DA64     		str	r2, [r3, #76]
 567:../../core/platform/octa/src/stm32l4xx_hal_msp.c ****     /**SPI1 GPIO Configuration    
 1141              		.loc 1 567 5 view .LVU326
 1142 0044 DB6C     		ldr	r3, [r3, #76]
 1143 0046 03F01003 		and	r3, r3, #16
 1144 004a 0193     		str	r3, [sp, #4]
 567:../../core/platform/octa/src/stm32l4xx_hal_msp.c ****     /**SPI1 GPIO Configuration    
 1145              		.loc 1 567 5 view .LVU327
 1146 004c 019B     		ldr	r3, [sp, #4]
 1147              	.LBE24:
 574:../../core/platform/octa/src/stm32l4xx_hal_msp.c ****     GPIO_InitStruct.Mode = GPIO_MODE_AF_PP;
 1148              		.loc 1 574 5 view .LVU328
 574:../../core/platform/octa/src/stm32l4xx_hal_msp.c ****     GPIO_InitStruct.Mode = GPIO_MODE_AF_PP;
 1149              		.loc 1 574 25 is_stmt 0 view .LVU329
 1150 004e 4FF47043 		mov	r3, #61440
 1151 0052 0793     		str	r3, [sp, #28]
 575:../../core/platform/octa/src/stm32l4xx_hal_msp.c ****     GPIO_InitStruct.Pull = GPIO_NOPULL;
 1152              		.loc 1 575 5 is_stmt 1 view .LVU330
 575:../../core/platform/octa/src/stm32l4xx_hal_msp.c ****     GPIO_InitStruct.Pull = GPIO_NOPULL;
 1153              		.loc 1 575 26 is_stmt 0 view .LVU331
 1154 0054 0223     		movs	r3, #2
 1155 0056 0893     		str	r3, [sp, #32]
 576:../../core/platform/octa/src/stm32l4xx_hal_msp.c ****     GPIO_InitStruct.Speed = GPIO_SPEED_FREQ_VERY_HIGH;
 1156              		.loc 1 576 5 is_stmt 1 view .LVU332
 577:../../core/platform/octa/src/stm32l4xx_hal_msp.c ****     GPIO_InitStruct.Alternate = GPIO_AF5_SPI1;
 1157              		.loc 1 577 5 view .LVU333
ARM GAS  C:\Users\yvesk\AppData\Local\Temp\ccDdTYOB.s 			page 37


 577:../../core/platform/octa/src/stm32l4xx_hal_msp.c ****     GPIO_InitStruct.Alternate = GPIO_AF5_SPI1;
 1158              		.loc 1 577 27 is_stmt 0 view .LVU334
 1159 0058 0323     		movs	r3, #3
 1160 005a 0A93     		str	r3, [sp, #40]
 578:../../core/platform/octa/src/stm32l4xx_hal_msp.c ****     HAL_GPIO_Init(GPIOE, &GPIO_InitStruct);
 1161              		.loc 1 578 5 is_stmt 1 view .LVU335
 578:../../core/platform/octa/src/stm32l4xx_hal_msp.c ****     HAL_GPIO_Init(GPIOE, &GPIO_InitStruct);
 1162              		.loc 1 578 31 is_stmt 0 view .LVU336
 1163 005c 0523     		movs	r3, #5
 1164 005e 0B93     		str	r3, [sp, #44]
 579:../../core/platform/octa/src/stm32l4xx_hal_msp.c **** 
 1165              		.loc 1 579 5 is_stmt 1 view .LVU337
 1166 0060 07A9     		add	r1, sp, #28
 1167 0062 3C48     		ldr	r0, .L61+16
 1168              	.LVL58:
 579:../../core/platform/octa/src/stm32l4xx_hal_msp.c **** 
 1169              		.loc 1 579 5 is_stmt 0 view .LVU338
 1170 0064 FFF7FEFF 		bl	HAL_GPIO_Init
 1171              	.LVL59:
 582:../../core/platform/octa/src/stm32l4xx_hal_msp.c ****     HAL_NVIC_EnableIRQ(SPI1_IRQn);
 1172              		.loc 1 582 5 is_stmt 1 view .LVU339
 1173 0068 0022     		movs	r2, #0
 1174 006a 1146     		mov	r1, r2
 1175 006c 2320     		movs	r0, #35
 1176 006e FFF7FEFF 		bl	HAL_NVIC_SetPriority
 1177              	.LVL60:
 583:../../core/platform/octa/src/stm32l4xx_hal_msp.c ****   /* USER CODE BEGIN SPI1_MspInit 1 */
 1178              		.loc 1 583 5 view .LVU340
 1179 0072 2320     		movs	r0, #35
 1180 0074 FFF7FEFF 		bl	HAL_NVIC_EnableIRQ
 1181              	.LVL61:
 1182 0078 D4E7     		b	.L53
 1183              	.LVL62:
 1184              	.L59:
 594:../../core/platform/octa/src/stm32l4xx_hal_msp.c ****   
 1185              		.loc 1 594 5 view .LVU341
 1186              	.LBB25:
 594:../../core/platform/octa/src/stm32l4xx_hal_msp.c ****   
 1187              		.loc 1 594 5 view .LVU342
 594:../../core/platform/octa/src/stm32l4xx_hal_msp.c ****   
 1188              		.loc 1 594 5 view .LVU343
 1189 007a 354B     		ldr	r3, .L61+12
 1190 007c 9A6D     		ldr	r2, [r3, #88]
 1191 007e 42F48042 		orr	r2, r2, #16384
 1192 0082 9A65     		str	r2, [r3, #88]
 594:../../core/platform/octa/src/stm32l4xx_hal_msp.c ****   
 1193              		.loc 1 594 5 view .LVU344
 1194 0084 9A6D     		ldr	r2, [r3, #88]
 1195 0086 02F48042 		and	r2, r2, #16384
 1196 008a 0292     		str	r2, [sp, #8]
 594:../../core/platform/octa/src/stm32l4xx_hal_msp.c ****   
 1197              		.loc 1 594 5 view .LVU345
 1198 008c 029A     		ldr	r2, [sp, #8]
 1199              	.LBE25:
 596:../../core/platform/octa/src/stm32l4xx_hal_msp.c ****     /**SPI2 GPIO Configuration    
 1200              		.loc 1 596 5 view .LVU346
 1201              	.LBB26:
ARM GAS  C:\Users\yvesk\AppData\Local\Temp\ccDdTYOB.s 			page 38


 596:../../core/platform/octa/src/stm32l4xx_hal_msp.c ****     /**SPI2 GPIO Configuration    
 1202              		.loc 1 596 5 view .LVU347
 596:../../core/platform/octa/src/stm32l4xx_hal_msp.c ****     /**SPI2 GPIO Configuration    
 1203              		.loc 1 596 5 view .LVU348
 1204 008e DA6C     		ldr	r2, [r3, #76]
 1205 0090 42F00802 		orr	r2, r2, #8
 1206 0094 DA64     		str	r2, [r3, #76]
 596:../../core/platform/octa/src/stm32l4xx_hal_msp.c ****     /**SPI2 GPIO Configuration    
 1207              		.loc 1 596 5 view .LVU349
 1208 0096 DB6C     		ldr	r3, [r3, #76]
 1209 0098 03F00803 		and	r3, r3, #8
 1210 009c 0393     		str	r3, [sp, #12]
 596:../../core/platform/octa/src/stm32l4xx_hal_msp.c ****     /**SPI2 GPIO Configuration    
 1211              		.loc 1 596 5 view .LVU350
 1212 009e 039B     		ldr	r3, [sp, #12]
 1213              	.LBE26:
 603:../../core/platform/octa/src/stm32l4xx_hal_msp.c ****     GPIO_InitStruct.Mode = GPIO_MODE_AF_PP;
 1214              		.loc 1 603 5 view .LVU351
 603:../../core/platform/octa/src/stm32l4xx_hal_msp.c ****     GPIO_InitStruct.Mode = GPIO_MODE_AF_PP;
 1215              		.loc 1 603 25 is_stmt 0 view .LVU352
 1216 00a0 1B23     		movs	r3, #27
 1217 00a2 0793     		str	r3, [sp, #28]
 604:../../core/platform/octa/src/stm32l4xx_hal_msp.c ****     GPIO_InitStruct.Pull = GPIO_NOPULL;
 1218              		.loc 1 604 5 is_stmt 1 view .LVU353
 604:../../core/platform/octa/src/stm32l4xx_hal_msp.c ****     GPIO_InitStruct.Pull = GPIO_NOPULL;
 1219              		.loc 1 604 26 is_stmt 0 view .LVU354
 1220 00a4 0223     		movs	r3, #2
 1221 00a6 0893     		str	r3, [sp, #32]
 605:../../core/platform/octa/src/stm32l4xx_hal_msp.c ****     GPIO_InitStruct.Speed = GPIO_SPEED_FREQ_VERY_HIGH;
 1222              		.loc 1 605 5 is_stmt 1 view .LVU355
 606:../../core/platform/octa/src/stm32l4xx_hal_msp.c ****     GPIO_InitStruct.Alternate = GPIO_AF5_SPI2;
 1223              		.loc 1 606 5 view .LVU356
 606:../../core/platform/octa/src/stm32l4xx_hal_msp.c ****     GPIO_InitStruct.Alternate = GPIO_AF5_SPI2;
 1224              		.loc 1 606 27 is_stmt 0 view .LVU357
 1225 00a8 0323     		movs	r3, #3
 1226 00aa 0A93     		str	r3, [sp, #40]
 607:../../core/platform/octa/src/stm32l4xx_hal_msp.c ****     HAL_GPIO_Init(GPIOD, &GPIO_InitStruct);
 1227              		.loc 1 607 5 is_stmt 1 view .LVU358
 607:../../core/platform/octa/src/stm32l4xx_hal_msp.c ****     HAL_GPIO_Init(GPIOD, &GPIO_InitStruct);
 1228              		.loc 1 607 31 is_stmt 0 view .LVU359
 1229 00ac 0523     		movs	r3, #5
 1230 00ae 0B93     		str	r3, [sp, #44]
 608:../../core/platform/octa/src/stm32l4xx_hal_msp.c **** 
 1231              		.loc 1 608 5 is_stmt 1 view .LVU360
 1232 00b0 07A9     		add	r1, sp, #28
 1233 00b2 2948     		ldr	r0, .L61+20
 1234              	.LVL63:
 608:../../core/platform/octa/src/stm32l4xx_hal_msp.c **** 
 1235              		.loc 1 608 5 is_stmt 0 view .LVU361
 1236 00b4 FFF7FEFF 		bl	HAL_GPIO_Init
 1237              	.LVL64:
 611:../../core/platform/octa/src/stm32l4xx_hal_msp.c ****     HAL_NVIC_EnableIRQ(SPI2_IRQn);
 1238              		.loc 1 611 5 is_stmt 1 view .LVU362
 1239 00b8 0022     		movs	r2, #0
 1240 00ba 1146     		mov	r1, r2
 1241 00bc 2420     		movs	r0, #36
 1242 00be FFF7FEFF 		bl	HAL_NVIC_SetPriority
ARM GAS  C:\Users\yvesk\AppData\Local\Temp\ccDdTYOB.s 			page 39


 1243              	.LVL65:
 612:../../core/platform/octa/src/stm32l4xx_hal_msp.c ****   /* USER CODE BEGIN SPI2_MspInit 1 */
 1244              		.loc 1 612 5 view .LVU363
 1245 00c2 2420     		movs	r0, #36
 1246 00c4 FFF7FEFF 		bl	HAL_NVIC_EnableIRQ
 1247              	.LVL66:
 1248 00c8 ACE7     		b	.L53
 1249              	.LVL67:
 1250              	.L60:
 623:../../core/platform/octa/src/stm32l4xx_hal_msp.c ****   
 1251              		.loc 1 623 5 view .LVU364
 1252              	.LBB27:
 623:../../core/platform/octa/src/stm32l4xx_hal_msp.c ****   
 1253              		.loc 1 623 5 view .LVU365
 623:../../core/platform/octa/src/stm32l4xx_hal_msp.c ****   
 1254              		.loc 1 623 5 view .LVU366
 1255 00ca 214B     		ldr	r3, .L61+12
 1256 00cc 9A6D     		ldr	r2, [r3, #88]
 1257 00ce 42F40042 		orr	r2, r2, #32768
 1258 00d2 9A65     		str	r2, [r3, #88]
 623:../../core/platform/octa/src/stm32l4xx_hal_msp.c ****   
 1259              		.loc 1 623 5 view .LVU367
 1260 00d4 9A6D     		ldr	r2, [r3, #88]
 1261 00d6 02F40042 		and	r2, r2, #32768
 1262 00da 0492     		str	r2, [sp, #16]
 623:../../core/platform/octa/src/stm32l4xx_hal_msp.c ****   
 1263              		.loc 1 623 5 view .LVU368
 1264 00dc 049A     		ldr	r2, [sp, #16]
 1265              	.LBE27:
 625:../../core/platform/octa/src/stm32l4xx_hal_msp.c ****     __HAL_RCC_GPIOB_CLK_ENABLE();
 1266              		.loc 1 625 5 view .LVU369
 1267              	.LBB28:
 625:../../core/platform/octa/src/stm32l4xx_hal_msp.c ****     __HAL_RCC_GPIOB_CLK_ENABLE();
 1268              		.loc 1 625 5 view .LVU370
 625:../../core/platform/octa/src/stm32l4xx_hal_msp.c ****     __HAL_RCC_GPIOB_CLK_ENABLE();
 1269              		.loc 1 625 5 view .LVU371
 1270 00de DA6C     		ldr	r2, [r3, #76]
 1271 00e0 42F00102 		orr	r2, r2, #1
 1272 00e4 DA64     		str	r2, [r3, #76]
 625:../../core/platform/octa/src/stm32l4xx_hal_msp.c ****     __HAL_RCC_GPIOB_CLK_ENABLE();
 1273              		.loc 1 625 5 view .LVU372
 1274 00e6 DA6C     		ldr	r2, [r3, #76]
 1275 00e8 02F00102 		and	r2, r2, #1
 1276 00ec 0592     		str	r2, [sp, #20]
 625:../../core/platform/octa/src/stm32l4xx_hal_msp.c ****     __HAL_RCC_GPIOB_CLK_ENABLE();
 1277              		.loc 1 625 5 view .LVU373
 1278 00ee 059A     		ldr	r2, [sp, #20]
 1279              	.LBE28:
 626:../../core/platform/octa/src/stm32l4xx_hal_msp.c ****     /**SPI3 GPIO Configuration    
 1280              		.loc 1 626 5 view .LVU374
 1281              	.LBB29:
 626:../../core/platform/octa/src/stm32l4xx_hal_msp.c ****     /**SPI3 GPIO Configuration    
 1282              		.loc 1 626 5 view .LVU375
 626:../../core/platform/octa/src/stm32l4xx_hal_msp.c ****     /**SPI3 GPIO Configuration    
 1283              		.loc 1 626 5 view .LVU376
 1284 00f0 DA6C     		ldr	r2, [r3, #76]
 1285 00f2 42F00202 		orr	r2, r2, #2
ARM GAS  C:\Users\yvesk\AppData\Local\Temp\ccDdTYOB.s 			page 40


 1286 00f6 DA64     		str	r2, [r3, #76]
 626:../../core/platform/octa/src/stm32l4xx_hal_msp.c ****     /**SPI3 GPIO Configuration    
 1287              		.loc 1 626 5 view .LVU377
 1288 00f8 DB6C     		ldr	r3, [r3, #76]
 1289 00fa 03F00203 		and	r3, r3, #2
 1290 00fe 0693     		str	r3, [sp, #24]
 626:../../core/platform/octa/src/stm32l4xx_hal_msp.c ****     /**SPI3 GPIO Configuration    
 1291              		.loc 1 626 5 view .LVU378
 1292 0100 069B     		ldr	r3, [sp, #24]
 1293              	.LBE29:
 633:../../core/platform/octa/src/stm32l4xx_hal_msp.c ****     GPIO_InitStruct.Mode = GPIO_MODE_AF_PP;
 1294              		.loc 1 633 5 view .LVU379
 633:../../core/platform/octa/src/stm32l4xx_hal_msp.c ****     GPIO_InitStruct.Mode = GPIO_MODE_AF_PP;
 1295              		.loc 1 633 25 is_stmt 0 view .LVU380
 1296 0102 1023     		movs	r3, #16
 1297 0104 0793     		str	r3, [sp, #28]
 634:../../core/platform/octa/src/stm32l4xx_hal_msp.c ****     GPIO_InitStruct.Pull = GPIO_NOPULL;
 1298              		.loc 1 634 5 is_stmt 1 view .LVU381
 634:../../core/platform/octa/src/stm32l4xx_hal_msp.c ****     GPIO_InitStruct.Pull = GPIO_NOPULL;
 1299              		.loc 1 634 26 is_stmt 0 view .LVU382
 1300 0106 0224     		movs	r4, #2
 1301 0108 0894     		str	r4, [sp, #32]
 635:../../core/platform/octa/src/stm32l4xx_hal_msp.c ****     GPIO_InitStruct.Speed = GPIO_SPEED_FREQ_VERY_HIGH;
 1302              		.loc 1 635 5 is_stmt 1 view .LVU383
 636:../../core/platform/octa/src/stm32l4xx_hal_msp.c ****     GPIO_InitStruct.Alternate = GPIO_AF6_SPI3;
 1303              		.loc 1 636 5 view .LVU384
 636:../../core/platform/octa/src/stm32l4xx_hal_msp.c ****     GPIO_InitStruct.Alternate = GPIO_AF6_SPI3;
 1304              		.loc 1 636 27 is_stmt 0 view .LVU385
 1305 010a 0326     		movs	r6, #3
 1306 010c 0A96     		str	r6, [sp, #40]
 637:../../core/platform/octa/src/stm32l4xx_hal_msp.c ****     HAL_GPIO_Init(GPIOA, &GPIO_InitStruct);
 1307              		.loc 1 637 5 is_stmt 1 view .LVU386
 637:../../core/platform/octa/src/stm32l4xx_hal_msp.c ****     HAL_GPIO_Init(GPIOA, &GPIO_InitStruct);
 1308              		.loc 1 637 31 is_stmt 0 view .LVU387
 1309 010e 0625     		movs	r5, #6
 1310 0110 0B95     		str	r5, [sp, #44]
 638:../../core/platform/octa/src/stm32l4xx_hal_msp.c **** 
 1311              		.loc 1 638 5 is_stmt 1 view .LVU388
 1312 0112 07A9     		add	r1, sp, #28
 1313 0114 4FF09040 		mov	r0, #1207959552
 1314              	.LVL68:
 638:../../core/platform/octa/src/stm32l4xx_hal_msp.c **** 
 1315              		.loc 1 638 5 is_stmt 0 view .LVU389
 1316 0118 FFF7FEFF 		bl	HAL_GPIO_Init
 1317              	.LVL69:
 640:../../core/platform/octa/src/stm32l4xx_hal_msp.c ****     GPIO_InitStruct.Mode = GPIO_MODE_AF_PP;
 1318              		.loc 1 640 5 is_stmt 1 view .LVU390
 640:../../core/platform/octa/src/stm32l4xx_hal_msp.c ****     GPIO_InitStruct.Mode = GPIO_MODE_AF_PP;
 1319              		.loc 1 640 25 is_stmt 0 view .LVU391
 1320 011c 3823     		movs	r3, #56
 1321 011e 0793     		str	r3, [sp, #28]
 641:../../core/platform/octa/src/stm32l4xx_hal_msp.c ****     GPIO_InitStruct.Pull = GPIO_NOPULL;
 1322              		.loc 1 641 5 is_stmt 1 view .LVU392
 641:../../core/platform/octa/src/stm32l4xx_hal_msp.c ****     GPIO_InitStruct.Pull = GPIO_NOPULL;
 1323              		.loc 1 641 26 is_stmt 0 view .LVU393
 1324 0120 0894     		str	r4, [sp, #32]
 642:../../core/platform/octa/src/stm32l4xx_hal_msp.c ****     GPIO_InitStruct.Speed = GPIO_SPEED_FREQ_VERY_HIGH;
ARM GAS  C:\Users\yvesk\AppData\Local\Temp\ccDdTYOB.s 			page 41


 1325              		.loc 1 642 5 is_stmt 1 view .LVU394
 642:../../core/platform/octa/src/stm32l4xx_hal_msp.c ****     GPIO_InitStruct.Speed = GPIO_SPEED_FREQ_VERY_HIGH;
 1326              		.loc 1 642 26 is_stmt 0 view .LVU395
 1327 0122 0024     		movs	r4, #0
 1328 0124 0994     		str	r4, [sp, #36]
 643:../../core/platform/octa/src/stm32l4xx_hal_msp.c ****     GPIO_InitStruct.Alternate = GPIO_AF6_SPI3;
 1329              		.loc 1 643 5 is_stmt 1 view .LVU396
 643:../../core/platform/octa/src/stm32l4xx_hal_msp.c ****     GPIO_InitStruct.Alternate = GPIO_AF6_SPI3;
 1330              		.loc 1 643 27 is_stmt 0 view .LVU397
 1331 0126 0A96     		str	r6, [sp, #40]
 644:../../core/platform/octa/src/stm32l4xx_hal_msp.c ****     HAL_GPIO_Init(GPIOB, &GPIO_InitStruct);
 1332              		.loc 1 644 5 is_stmt 1 view .LVU398
 644:../../core/platform/octa/src/stm32l4xx_hal_msp.c ****     HAL_GPIO_Init(GPIOB, &GPIO_InitStruct);
 1333              		.loc 1 644 31 is_stmt 0 view .LVU399
 1334 0128 0B95     		str	r5, [sp, #44]
 645:../../core/platform/octa/src/stm32l4xx_hal_msp.c **** 
 1335              		.loc 1 645 5 is_stmt 1 view .LVU400
 1336 012a 07A9     		add	r1, sp, #28
 1337 012c 0B48     		ldr	r0, .L61+24
 1338 012e FFF7FEFF 		bl	HAL_GPIO_Init
 1339              	.LVL70:
 648:../../core/platform/octa/src/stm32l4xx_hal_msp.c ****     HAL_NVIC_EnableIRQ(SPI3_IRQn);
 1340              		.loc 1 648 5 view .LVU401
 1341 0132 2246     		mov	r2, r4
 1342 0134 2146     		mov	r1, r4
 1343 0136 3320     		movs	r0, #51
 1344 0138 FFF7FEFF 		bl	HAL_NVIC_SetPriority
 1345              	.LVL71:
 649:../../core/platform/octa/src/stm32l4xx_hal_msp.c ****   /* USER CODE BEGIN SPI3_MspInit 1 */
 1346              		.loc 1 649 5 view .LVU402
 1347 013c 3320     		movs	r0, #51
 1348 013e FFF7FEFF 		bl	HAL_NVIC_EnableIRQ
 1349              	.LVL72:
 1350              		.loc 1 655 1 is_stmt 0 view .LVU403
 1351 0142 6FE7     		b	.L53
 1352              	.L62:
 1353              		.align	2
 1354              	.L61:
 1355 0144 00300140 		.word	1073819648
 1356 0148 00380040 		.word	1073756160
 1357 014c 003C0040 		.word	1073757184
 1358 0150 00100240 		.word	1073876992
 1359 0154 00100048 		.word	1207963648
 1360 0158 000C0048 		.word	1207962624
 1361 015c 00040048 		.word	1207960576
 1362              		.cfi_endproc
 1363              	.LFE128:
 1365              		.section	.text.HAL_SPI_MspDeInit,"ax",%progbits
 1366              		.align	1
 1367              		.global	HAL_SPI_MspDeInit
 1368              		.syntax unified
 1369              		.thumb
 1370              		.thumb_func
 1371              		.fpu fpv4-sp-d16
 1373              	HAL_SPI_MspDeInit:
 1374              	.LVL73:
 1375              	.LFB129:
ARM GAS  C:\Users\yvesk\AppData\Local\Temp\ccDdTYOB.s 			page 42


 656:../../core/platform/octa/src/stm32l4xx_hal_msp.c **** 
 657:../../core/platform/octa/src/stm32l4xx_hal_msp.c **** /**
 658:../../core/platform/octa/src/stm32l4xx_hal_msp.c **** * @brief SPI MSP De-Initialization
 659:../../core/platform/octa/src/stm32l4xx_hal_msp.c **** * This function freeze the hardware resources used in this example
 660:../../core/platform/octa/src/stm32l4xx_hal_msp.c **** * @param hspi: SPI handle pointer
 661:../../core/platform/octa/src/stm32l4xx_hal_msp.c **** * @retval None
 662:../../core/platform/octa/src/stm32l4xx_hal_msp.c **** */
 663:../../core/platform/octa/src/stm32l4xx_hal_msp.c **** 
 664:../../core/platform/octa/src/stm32l4xx_hal_msp.c **** void HAL_SPI_MspDeInit(SPI_HandleTypeDef* hspi)
 665:../../core/platform/octa/src/stm32l4xx_hal_msp.c **** {
 1376              		.loc 1 665 1 is_stmt 1 view -0
 1377              		.cfi_startproc
 1378              		@ args = 0, pretend = 0, frame = 0
 1379              		@ frame_needed = 0, uses_anonymous_args = 0
 1380              		.loc 1 665 1 is_stmt 0 view .LVU405
 1381 0000 08B5     		push	{r3, lr}
 1382              	.LCFI17:
 1383              		.cfi_def_cfa_offset 8
 1384              		.cfi_offset 3, -8
 1385              		.cfi_offset 14, -4
 666:../../core/platform/octa/src/stm32l4xx_hal_msp.c **** 
 667:../../core/platform/octa/src/stm32l4xx_hal_msp.c ****   if(hspi->Instance==SPI1)
 1386              		.loc 1 667 3 is_stmt 1 view .LVU406
 1387              		.loc 1 667 10 is_stmt 0 view .LVU407
 1388 0002 0368     		ldr	r3, [r0]
 1389              		.loc 1 667 5 view .LVU408
 1390 0004 1C4A     		ldr	r2, .L71
 1391 0006 9342     		cmp	r3, r2
 1392 0008 06D0     		beq	.L68
 668:../../core/platform/octa/src/stm32l4xx_hal_msp.c ****   {
 669:../../core/platform/octa/src/stm32l4xx_hal_msp.c ****   /* USER CODE BEGIN SPI1_MspDeInit 0 */
 670:../../core/platform/octa/src/stm32l4xx_hal_msp.c **** 
 671:../../core/platform/octa/src/stm32l4xx_hal_msp.c ****   /* USER CODE END SPI1_MspDeInit 0 */
 672:../../core/platform/octa/src/stm32l4xx_hal_msp.c ****     /* Peripheral clock disable */
 673:../../core/platform/octa/src/stm32l4xx_hal_msp.c ****     __HAL_RCC_SPI1_CLK_DISABLE();
 674:../../core/platform/octa/src/stm32l4xx_hal_msp.c ****   
 675:../../core/platform/octa/src/stm32l4xx_hal_msp.c ****     /**SPI1 GPIO Configuration    
 676:../../core/platform/octa/src/stm32l4xx_hal_msp.c ****     PE12     ------> SPI1_NSS
 677:../../core/platform/octa/src/stm32l4xx_hal_msp.c ****     PE13     ------> SPI1_SCK
 678:../../core/platform/octa/src/stm32l4xx_hal_msp.c ****     PE14     ------> SPI1_MISO
 679:../../core/platform/octa/src/stm32l4xx_hal_msp.c ****     PE15     ------> SPI1_MOSI 
 680:../../core/platform/octa/src/stm32l4xx_hal_msp.c ****     */
 681:../../core/platform/octa/src/stm32l4xx_hal_msp.c ****     HAL_GPIO_DeInit(GPIOE, GPIO_PIN_12|GPIO_PIN_13|GPIO_PIN_14|GPIO_PIN_15);
 682:../../core/platform/octa/src/stm32l4xx_hal_msp.c **** 
 683:../../core/platform/octa/src/stm32l4xx_hal_msp.c ****     /* SPI1 interrupt DeInit */
 684:../../core/platform/octa/src/stm32l4xx_hal_msp.c ****     HAL_NVIC_DisableIRQ(SPI1_IRQn);
 685:../../core/platform/octa/src/stm32l4xx_hal_msp.c ****   /* USER CODE BEGIN SPI1_MspDeInit 1 */
 686:../../core/platform/octa/src/stm32l4xx_hal_msp.c **** 
 687:../../core/platform/octa/src/stm32l4xx_hal_msp.c ****   /* USER CODE END SPI1_MspDeInit 1 */
 688:../../core/platform/octa/src/stm32l4xx_hal_msp.c ****   }
 689:../../core/platform/octa/src/stm32l4xx_hal_msp.c ****   else if(hspi->Instance==SPI2)
 1393              		.loc 1 689 8 is_stmt 1 view .LVU409
 1394              		.loc 1 689 10 is_stmt 0 view .LVU410
 1395 000a 1C4A     		ldr	r2, .L71+4
 1396 000c 9342     		cmp	r3, r2
 1397 000e 12D0     		beq	.L69
 690:../../core/platform/octa/src/stm32l4xx_hal_msp.c ****   {
ARM GAS  C:\Users\yvesk\AppData\Local\Temp\ccDdTYOB.s 			page 43


 691:../../core/platform/octa/src/stm32l4xx_hal_msp.c ****   /* USER CODE BEGIN SPI2_MspDeInit 0 */
 692:../../core/platform/octa/src/stm32l4xx_hal_msp.c **** 
 693:../../core/platform/octa/src/stm32l4xx_hal_msp.c ****   /* USER CODE END SPI2_MspDeInit 0 */
 694:../../core/platform/octa/src/stm32l4xx_hal_msp.c ****     /* Peripheral clock disable */
 695:../../core/platform/octa/src/stm32l4xx_hal_msp.c ****     __HAL_RCC_SPI2_CLK_DISABLE();
 696:../../core/platform/octa/src/stm32l4xx_hal_msp.c ****   
 697:../../core/platform/octa/src/stm32l4xx_hal_msp.c ****     /**SPI2 GPIO Configuration    
 698:../../core/platform/octa/src/stm32l4xx_hal_msp.c ****     PD0     ------> SPI2_NSS
 699:../../core/platform/octa/src/stm32l4xx_hal_msp.c ****     PD1     ------> SPI2_SCK
 700:../../core/platform/octa/src/stm32l4xx_hal_msp.c ****     PD3     ------> SPI2_MISO
 701:../../core/platform/octa/src/stm32l4xx_hal_msp.c ****     PD4     ------> SPI2_MOSI 
 702:../../core/platform/octa/src/stm32l4xx_hal_msp.c ****     */
 703:../../core/platform/octa/src/stm32l4xx_hal_msp.c ****     HAL_GPIO_DeInit(GPIOD, GPIO_PIN_0|GPIO_PIN_1|GPIO_PIN_3|GPIO_PIN_4);
 704:../../core/platform/octa/src/stm32l4xx_hal_msp.c **** 
 705:../../core/platform/octa/src/stm32l4xx_hal_msp.c ****     /* SPI2 interrupt DeInit */
 706:../../core/platform/octa/src/stm32l4xx_hal_msp.c ****     HAL_NVIC_DisableIRQ(SPI2_IRQn);
 707:../../core/platform/octa/src/stm32l4xx_hal_msp.c ****   /* USER CODE BEGIN SPI2_MspDeInit 1 */
 708:../../core/platform/octa/src/stm32l4xx_hal_msp.c **** 
 709:../../core/platform/octa/src/stm32l4xx_hal_msp.c ****   /* USER CODE END SPI2_MspDeInit 1 */
 710:../../core/platform/octa/src/stm32l4xx_hal_msp.c ****   }
 711:../../core/platform/octa/src/stm32l4xx_hal_msp.c ****   else if(hspi->Instance==SPI3)
 1398              		.loc 1 711 8 is_stmt 1 view .LVU411
 1399              		.loc 1 711 10 is_stmt 0 view .LVU412
 1400 0010 1B4A     		ldr	r2, .L71+8
 1401 0012 9342     		cmp	r3, r2
 1402 0014 1DD0     		beq	.L70
 1403              	.LVL74:
 1404              	.L63:
 712:../../core/platform/octa/src/stm32l4xx_hal_msp.c ****   {
 713:../../core/platform/octa/src/stm32l4xx_hal_msp.c ****   /* USER CODE BEGIN SPI3_MspDeInit 0 */
 714:../../core/platform/octa/src/stm32l4xx_hal_msp.c **** 
 715:../../core/platform/octa/src/stm32l4xx_hal_msp.c ****   /* USER CODE END SPI3_MspDeInit 0 */
 716:../../core/platform/octa/src/stm32l4xx_hal_msp.c ****     /* Peripheral clock disable */
 717:../../core/platform/octa/src/stm32l4xx_hal_msp.c ****     __HAL_RCC_SPI3_CLK_DISABLE();
 718:../../core/platform/octa/src/stm32l4xx_hal_msp.c ****   
 719:../../core/platform/octa/src/stm32l4xx_hal_msp.c ****     /**SPI3 GPIO Configuration    
 720:../../core/platform/octa/src/stm32l4xx_hal_msp.c ****     PA4     ------> SPI3_NSS
 721:../../core/platform/octa/src/stm32l4xx_hal_msp.c ****     PB3 (JTDO/TRACESWO)     ------> SPI3_SCK
 722:../../core/platform/octa/src/stm32l4xx_hal_msp.c ****     PB4 (NJTRST)     ------> SPI3_MISO
 723:../../core/platform/octa/src/stm32l4xx_hal_msp.c ****     PB5     ------> SPI3_MOSI 
 724:../../core/platform/octa/src/stm32l4xx_hal_msp.c ****     */
 725:../../core/platform/octa/src/stm32l4xx_hal_msp.c ****     HAL_GPIO_DeInit(GPIOA, GPIO_PIN_4);
 726:../../core/platform/octa/src/stm32l4xx_hal_msp.c **** 
 727:../../core/platform/octa/src/stm32l4xx_hal_msp.c ****     HAL_GPIO_DeInit(GPIOB, GPIO_PIN_3|GPIO_PIN_4|GPIO_PIN_5);
 728:../../core/platform/octa/src/stm32l4xx_hal_msp.c **** 
 729:../../core/platform/octa/src/stm32l4xx_hal_msp.c ****     /* SPI3 interrupt DeInit */
 730:../../core/platform/octa/src/stm32l4xx_hal_msp.c ****     HAL_NVIC_DisableIRQ(SPI3_IRQn);
 731:../../core/platform/octa/src/stm32l4xx_hal_msp.c ****   /* USER CODE BEGIN SPI3_MspDeInit 1 */
 732:../../core/platform/octa/src/stm32l4xx_hal_msp.c **** 
 733:../../core/platform/octa/src/stm32l4xx_hal_msp.c ****   /* USER CODE END SPI3_MspDeInit 1 */
 734:../../core/platform/octa/src/stm32l4xx_hal_msp.c ****   }
 735:../../core/platform/octa/src/stm32l4xx_hal_msp.c **** 
 736:../../core/platform/octa/src/stm32l4xx_hal_msp.c **** }
 1405              		.loc 1 736 1 view .LVU413
 1406 0016 08BD     		pop	{r3, pc}
 1407              	.LVL75:
 1408              	.L68:
ARM GAS  C:\Users\yvesk\AppData\Local\Temp\ccDdTYOB.s 			page 44


 673:../../core/platform/octa/src/stm32l4xx_hal_msp.c ****   
 1409              		.loc 1 673 5 is_stmt 1 view .LVU414
 1410 0018 02F56042 		add	r2, r2, #57344
 1411 001c 136E     		ldr	r3, [r2, #96]
 1412 001e 23F48053 		bic	r3, r3, #4096
 1413 0022 1366     		str	r3, [r2, #96]
 681:../../core/platform/octa/src/stm32l4xx_hal_msp.c **** 
 1414              		.loc 1 681 5 view .LVU415
 1415 0024 4FF47041 		mov	r1, #61440
 1416 0028 1648     		ldr	r0, .L71+12
 1417              	.LVL76:
 681:../../core/platform/octa/src/stm32l4xx_hal_msp.c **** 
 1418              		.loc 1 681 5 is_stmt 0 view .LVU416
 1419 002a FFF7FEFF 		bl	HAL_GPIO_DeInit
 1420              	.LVL77:
 684:../../core/platform/octa/src/stm32l4xx_hal_msp.c ****   /* USER CODE BEGIN SPI1_MspDeInit 1 */
 1421              		.loc 1 684 5 is_stmt 1 view .LVU417
 1422 002e 2320     		movs	r0, #35
 1423 0030 FFF7FEFF 		bl	HAL_NVIC_DisableIRQ
 1424              	.LVL78:
 1425 0034 EFE7     		b	.L63
 1426              	.LVL79:
 1427              	.L69:
 695:../../core/platform/octa/src/stm32l4xx_hal_msp.c ****   
 1428              		.loc 1 695 5 view .LVU418
 1429 0036 02F5EC32 		add	r2, r2, #120832
 1430 003a 936D     		ldr	r3, [r2, #88]
 1431 003c 23F48043 		bic	r3, r3, #16384
 1432 0040 9365     		str	r3, [r2, #88]
 703:../../core/platform/octa/src/stm32l4xx_hal_msp.c **** 
 1433              		.loc 1 703 5 view .LVU419
 1434 0042 1B21     		movs	r1, #27
 1435 0044 1048     		ldr	r0, .L71+16
 1436              	.LVL80:
 703:../../core/platform/octa/src/stm32l4xx_hal_msp.c **** 
 1437              		.loc 1 703 5 is_stmt 0 view .LVU420
 1438 0046 FFF7FEFF 		bl	HAL_GPIO_DeInit
 1439              	.LVL81:
 706:../../core/platform/octa/src/stm32l4xx_hal_msp.c ****   /* USER CODE BEGIN SPI2_MspDeInit 1 */
 1440              		.loc 1 706 5 is_stmt 1 view .LVU421
 1441 004a 2420     		movs	r0, #36
 1442 004c FFF7FEFF 		bl	HAL_NVIC_DisableIRQ
 1443              	.LVL82:
 1444 0050 E1E7     		b	.L63
 1445              	.LVL83:
 1446              	.L70:
 717:../../core/platform/octa/src/stm32l4xx_hal_msp.c ****   
 1447              		.loc 1 717 5 view .LVU422
 1448 0052 02F5EA32 		add	r2, r2, #119808
 1449 0056 936D     		ldr	r3, [r2, #88]
 1450 0058 23F40043 		bic	r3, r3, #32768
 1451 005c 9365     		str	r3, [r2, #88]
 725:../../core/platform/octa/src/stm32l4xx_hal_msp.c **** 
 1452              		.loc 1 725 5 view .LVU423
 1453 005e 1021     		movs	r1, #16
 1454 0060 4FF09040 		mov	r0, #1207959552
 1455              	.LVL84:
ARM GAS  C:\Users\yvesk\AppData\Local\Temp\ccDdTYOB.s 			page 45


 725:../../core/platform/octa/src/stm32l4xx_hal_msp.c **** 
 1456              		.loc 1 725 5 is_stmt 0 view .LVU424
 1457 0064 FFF7FEFF 		bl	HAL_GPIO_DeInit
 1458              	.LVL85:
 727:../../core/platform/octa/src/stm32l4xx_hal_msp.c **** 
 1459              		.loc 1 727 5 is_stmt 1 view .LVU425
 1460 0068 3821     		movs	r1, #56
 1461 006a 0848     		ldr	r0, .L71+20
 1462 006c FFF7FEFF 		bl	HAL_GPIO_DeInit
 1463              	.LVL86:
 730:../../core/platform/octa/src/stm32l4xx_hal_msp.c ****   /* USER CODE BEGIN SPI3_MspDeInit 1 */
 1464              		.loc 1 730 5 view .LVU426
 1465 0070 3320     		movs	r0, #51
 1466 0072 FFF7FEFF 		bl	HAL_NVIC_DisableIRQ
 1467              	.LVL87:
 1468              		.loc 1 736 1 is_stmt 0 view .LVU427
 1469 0076 CEE7     		b	.L63
 1470              	.L72:
 1471              		.align	2
 1472              	.L71:
 1473 0078 00300140 		.word	1073819648
 1474 007c 00380040 		.word	1073756160
 1475 0080 003C0040 		.word	1073757184
 1476 0084 00100048 		.word	1207963648
 1477 0088 000C0048 		.word	1207962624
 1478 008c 00040048 		.word	1207960576
 1479              		.cfi_endproc
 1480              	.LFE129:
 1482              		.text
 1483              	.Letext0:
 1484              		.file 2 "c:\\program files (x86)\\gnu tools arm embedded\\8 2019-q3-update\\arm-none-eabi\\include
 1485              		.file 3 "c:\\program files (x86)\\gnu tools arm embedded\\8 2019-q3-update\\arm-none-eabi\\include
 1486              		.file 4 "../../core/ST/CMSIS/Include/core_cm4.h"
 1487              		.file 5 "../../core/ST/CMSIS/Device/ST/STM32L4xx/Include/system_stm32l4xx.h"
 1488              		.file 6 "../../core/ST/CMSIS/Device/ST/STM32L4xx/Include/stm32l496xx.h"
 1489              		.file 7 "../../core/ST/STM32L4xx_HAL_Driver/Inc/stm32l4xx_hal_def.h"
 1490              		.file 8 "../../core/ST/STM32L4xx_HAL_Driver/Inc/stm32l4xx_hal_gpio.h"
 1491              		.file 9 "../../core/ST/STM32L4xx_HAL_Driver/Inc/stm32l4xx_hal_dma.h"
 1492              		.file 10 "../../core/ST/STM32L4xx_HAL_Driver/Inc/stm32l4xx_hal_i2c.h"
 1493              		.file 11 "../../core/ST/STM32L4xx_HAL_Driver/Inc/stm32l4xx_hal_spi.h"
 1494              		.file 12 "../../core/ST/STM32L4xx_HAL_Driver/Inc/stm32l4xx_hal_uart.h"
 1495              		.file 13 "../../core/ST/STM32L4xx_HAL_Driver/Inc/stm32l4xx_hal.h"
 1496              		.file 14 "../../core/ST/STM32L4xx_HAL_Driver/Inc/stm32l4xx_hal_cortex.h"
 1497              		.file 15 "../../core/ST/STM32L4xx_HAL_Driver/Inc/stm32l4xx_hal_pwr_ex.h"
ARM GAS  C:\Users\yvesk\AppData\Local\Temp\ccDdTYOB.s 			page 46

