ARM GAS  C:\Users\yvesk\AppData\Local\Temp\ccEdRFGi.s 			page 1


   1              		.cpu cortex-m4
   2              		.eabi_attribute 27, 1
   3              		.eabi_attribute 28, 1
   4              		.eabi_attribute 20, 1
   5              		.eabi_attribute 21, 1
   6              		.eabi_attribute 23, 3
   7              		.eabi_attribute 24, 1
   8              		.eabi_attribute 25, 1
   9              		.eabi_attribute 26, 1
  10              		.eabi_attribute 30, 1
  11              		.eabi_attribute 34, 1
  12              		.eabi_attribute 18, 4
  13              		.file	"LSM303AGRSensor.c"
  14              		.text
  15              	.Ltext0:
  16              		.cfi_sections	.debug_frame
  17              		.section	.text.LSM303AGR_setI2CInterface,"ax",%progbits
  18              		.align	1
  19              		.global	LSM303AGR_setI2CInterface
  20              		.arch armv7e-m
  21              		.syntax unified
  22              		.thumb
  23              		.thumb_func
  24              		.fpu fpv4-sp-d16
  26              	LSM303AGR_setI2CInterface:
  27              	.LVL0:
  28              	.LFB123:
  29              		.file 1 "../../core/drivers/LSM303AGR/src/LSM303AGRSensor.c"
   1:../../core/drivers/LSM303AGR/src/LSM303AGRSensor.c **** #include "LSM303AGRSensor.h"
   2:../../core/drivers/LSM303AGR/src/LSM303AGRSensor.c **** 
   3:../../core/drivers/LSM303AGR/src/LSM303AGRSensor.c **** 
   4:../../core/drivers/LSM303AGR/src/LSM303AGRSensor.c **** /**
   5:../../core/drivers/LSM303AGR/src/LSM303AGRSensor.c ****  * Sets the I2C interface for the LSM303AGR
   6:../../core/drivers/LSM303AGR/src/LSM303AGRSensor.c ****  * @param hi2c: the I2C interface
   7:../../core/drivers/LSM303AGR/src/LSM303AGRSensor.c ****  */
   8:../../core/drivers/LSM303AGR/src/LSM303AGRSensor.c **** void LSM303AGR_setI2CInterface(I2C_HandleTypeDef *hi2c) {
  30              		.loc 1 8 57 view -0
  31              		.cfi_startproc
  32              		@ args = 0, pretend = 0, frame = 0
  33              		@ frame_needed = 0, uses_anonymous_args = 0
  34              		@ link register save eliminated.
   9:../../core/drivers/LSM303AGR/src/LSM303AGRSensor.c **** 
  10:../../core/drivers/LSM303AGR/src/LSM303AGRSensor.c **** 	LSM303AGR_hi2c = hi2c;
  35              		.loc 1 10 2 view .LVU1
  36              		.loc 1 10 17 is_stmt 0 view .LVU2
  37 0000 014B     		ldr	r3, .L2
  38 0002 1860     		str	r0, [r3]
  11:../../core/drivers/LSM303AGR/src/LSM303AGRSensor.c **** }
  39              		.loc 1 11 1 view .LVU3
  40 0004 7047     		bx	lr
  41              	.L3:
  42 0006 00BF     		.align	2
  43              	.L2:
  44 0008 00000000 		.word	LSM303AGR_hi2c
  45              		.cfi_endproc
  46              	.LFE123:
  48              		.section	.text.LSM303AGR_readRegister,"ax",%progbits
ARM GAS  C:\Users\yvesk\AppData\Local\Temp\ccEdRFGi.s 			page 2


  49              		.align	1
  50              		.global	LSM303AGR_readRegister
  51              		.syntax unified
  52              		.thumb
  53              		.thumb_func
  54              		.fpu fpv4-sp-d16
  56              	LSM303AGR_readRegister:
  57              	.LVL1:
  58              	.LFB124:
  12:../../core/drivers/LSM303AGR/src/LSM303AGRSensor.c **** 
  13:../../core/drivers/LSM303AGR/src/LSM303AGRSensor.c **** /**
  14:../../core/drivers/LSM303AGR/src/LSM303AGRSensor.c ****  * Read a certain register of the LSM303AGR depending on the value of ACC_MAG:
  15:../../core/drivers/LSM303AGR/src/LSM303AGRSensor.c ****  * 		- if this value is 0: read out a register of the accelerometer
  16:../../core/drivers/LSM303AGR/src/LSM303AGRSensor.c ****  * 		- if this value is 1: read out a register of the magnetormeter
  17:../../core/drivers/LSM303AGR/src/LSM303AGRSensor.c ****  * The standard HAL library values are used for the size of the register and time-out.
  18:../../core/drivers/LSM303AGR/src/LSM303AGRSensor.c ****  * @param LSM303AGR_reg: the register that needs to be read of the LSM303AGR
  19:../../core/drivers/LSM303AGR/src/LSM303AGRSensor.c ****  * @param LSM303AGR_data: a pointer where the data of the register needs to be stored
  20:../../core/drivers/LSM303AGR/src/LSM303AGRSensor.c ****  * @param ACC_MAG: depending on the value a value a register of the accelerometer of magnetometer a
  21:../../core/drivers/LSM303AGR/src/LSM303AGRSensor.c ****  * @return returns the status of the I2C transfer
  22:../../core/drivers/LSM303AGR/src/LSM303AGRSensor.c ****  */
  23:../../core/drivers/LSM303AGR/src/LSM303AGRSensor.c **** HAL_StatusTypeDef LSM303AGR_readRegister(uint8_t LSM303AGR_reg,
  24:../../core/drivers/LSM303AGR/src/LSM303AGRSensor.c **** 		uint8_t LSM303AGR_data, uint8_t ACC_MAG) {
  59              		.loc 1 24 44 is_stmt 1 view -0
  60              		.cfi_startproc
  61              		@ args = 0, pretend = 0, frame = 8
  62              		@ frame_needed = 0, uses_anonymous_args = 0
  63              		.loc 1 24 44 is_stmt 0 view .LVU5
  64 0000 00B5     		push	{lr}
  65              	.LCFI0:
  66              		.cfi_def_cfa_offset 4
  67              		.cfi_offset 14, -4
  68 0002 87B0     		sub	sp, sp, #28
  69              	.LCFI1:
  70              		.cfi_def_cfa_offset 32
  71 0004 8DF81710 		strb	r1, [sp, #23]
  25:../../core/drivers/LSM303AGR/src/LSM303AGRSensor.c **** 
  26:../../core/drivers/LSM303AGR/src/LSM303AGRSensor.c **** 	if (ACC_MAG == 0) {
  72              		.loc 1 26 2 is_stmt 1 view .LVU6
  73              		.loc 1 26 5 is_stmt 0 view .LVU7
  74 0008 8AB9     		cbnz	r2, .L5
  27:../../core/drivers/LSM303AGR/src/LSM303AGRSensor.c **** 		HAL_I2C_Mem_Read(LSM303AGR_hi2c, LSM303AGR_ACC_I2C_ADDRESS,
  75              		.loc 1 27 3 is_stmt 1 view .LVU8
  76 000a 4FF0FF33 		mov	r3, #-1
  77 000e 0293     		str	r3, [sp, #8]
  78 0010 0123     		movs	r3, #1
  79 0012 0193     		str	r3, [sp, #4]
  80 0014 0DF11702 		add	r2, sp, #23
  81              	.LVL2:
  82              		.loc 1 27 3 is_stmt 0 view .LVU9
  83 0018 0092     		str	r2, [sp]
  84 001a 0246     		mov	r2, r0
  85 001c 3221     		movs	r1, #50
  86              	.LVL3:
  87              		.loc 1 27 3 view .LVU10
  88 001e 0B48     		ldr	r0, .L8
  89              	.LVL4:
  90              		.loc 1 27 3 view .LVU11
ARM GAS  C:\Users\yvesk\AppData\Local\Temp\ccEdRFGi.s 			page 3


  91 0020 0068     		ldr	r0, [r0]
  92 0022 FFF7FEFF 		bl	HAL_I2C_Mem_Read
  93              	.LVL5:
  94              	.L6:
  28:../../core/drivers/LSM303AGR/src/LSM303AGRSensor.c **** 				LSM303AGR_reg, I2C_MEMADD_SIZE_8BIT, &LSM303AGR_data,
  29:../../core/drivers/LSM303AGR/src/LSM303AGRSensor.c **** 				sizeof(LSM303AGR_data), HAL_MAX_DELAY);
  30:../../core/drivers/LSM303AGR/src/LSM303AGRSensor.c **** 	} else {
  31:../../core/drivers/LSM303AGR/src/LSM303AGRSensor.c **** 		HAL_I2C_Mem_Read(LSM303AGR_hi2c, LSM303AGR_MAG_I2C_ADDRESS,
  32:../../core/drivers/LSM303AGR/src/LSM303AGRSensor.c **** 				LSM303AGR_reg, I2C_MEMADD_SIZE_8BIT, &LSM303AGR_data,
  33:../../core/drivers/LSM303AGR/src/LSM303AGRSensor.c **** 				sizeof(LSM303AGR_data), HAL_MAX_DELAY);
  34:../../core/drivers/LSM303AGR/src/LSM303AGRSensor.c **** 	}
  35:../../core/drivers/LSM303AGR/src/LSM303AGRSensor.c **** 
  36:../../core/drivers/LSM303AGR/src/LSM303AGRSensor.c **** 	return HAL_OK;
  95              		.loc 1 36 2 is_stmt 1 view .LVU12
  37:../../core/drivers/LSM303AGR/src/LSM303AGRSensor.c **** }
  96              		.loc 1 37 1 is_stmt 0 view .LVU13
  97 0026 0020     		movs	r0, #0
  98 0028 07B0     		add	sp, sp, #28
  99              	.LCFI2:
 100              		.cfi_remember_state
 101              		.cfi_def_cfa_offset 4
 102              		@ sp needed
 103 002a 5DF804FB 		ldr	pc, [sp], #4
 104              	.LVL6:
 105              	.L5:
 106              	.LCFI3:
 107              		.cfi_restore_state
  31:../../core/drivers/LSM303AGR/src/LSM303AGRSensor.c **** 				LSM303AGR_reg, I2C_MEMADD_SIZE_8BIT, &LSM303AGR_data,
 108              		.loc 1 31 3 is_stmt 1 view .LVU14
 109 002e 4FF0FF33 		mov	r3, #-1
 110 0032 0293     		str	r3, [sp, #8]
 111 0034 0123     		movs	r3, #1
 112 0036 0193     		str	r3, [sp, #4]
 113 0038 0DF11702 		add	r2, sp, #23
 114              	.LVL7:
  31:../../core/drivers/LSM303AGR/src/LSM303AGRSensor.c **** 				LSM303AGR_reg, I2C_MEMADD_SIZE_8BIT, &LSM303AGR_data,
 115              		.loc 1 31 3 is_stmt 0 view .LVU15
 116 003c 0092     		str	r2, [sp]
 117 003e 0246     		mov	r2, r0
 118 0040 3C21     		movs	r1, #60
 119              	.LVL8:
  31:../../core/drivers/LSM303AGR/src/LSM303AGRSensor.c **** 				LSM303AGR_reg, I2C_MEMADD_SIZE_8BIT, &LSM303AGR_data,
 120              		.loc 1 31 3 view .LVU16
 121 0042 0248     		ldr	r0, .L8
 122              	.LVL9:
  31:../../core/drivers/LSM303AGR/src/LSM303AGRSensor.c **** 				LSM303AGR_reg, I2C_MEMADD_SIZE_8BIT, &LSM303AGR_data,
 123              		.loc 1 31 3 view .LVU17
 124 0044 0068     		ldr	r0, [r0]
 125 0046 FFF7FEFF 		bl	HAL_I2C_Mem_Read
 126              	.LVL10:
  31:../../core/drivers/LSM303AGR/src/LSM303AGRSensor.c **** 				LSM303AGR_reg, I2C_MEMADD_SIZE_8BIT, &LSM303AGR_data,
 127              		.loc 1 31 3 view .LVU18
 128 004a ECE7     		b	.L6
 129              	.L9:
 130              		.align	2
 131              	.L8:
 132 004c 00000000 		.word	LSM303AGR_hi2c
ARM GAS  C:\Users\yvesk\AppData\Local\Temp\ccEdRFGi.s 			page 4


 133              		.cfi_endproc
 134              	.LFE124:
 136              		.section	.text.LSM303AGR_writeRegister,"ax",%progbits
 137              		.align	1
 138              		.global	LSM303AGR_writeRegister
 139              		.syntax unified
 140              		.thumb
 141              		.thumb_func
 142              		.fpu fpv4-sp-d16
 144              	LSM303AGR_writeRegister:
 145              	.LVL11:
 146              	.LFB125:
  38:../../core/drivers/LSM303AGR/src/LSM303AGRSensor.c **** 
  39:../../core/drivers/LSM303AGR/src/LSM303AGRSensor.c **** /**
  40:../../core/drivers/LSM303AGR/src/LSM303AGRSensor.c ****  * Writes a cerain value to a certain register of the LSM303AGR depending on the value of ACC_MAG:
  41:../../core/drivers/LSM303AGR/src/LSM303AGRSensor.c ****  *   	- if this value is 0: write to a register of the accelerometer
  42:../../core/drivers/LSM303AGR/src/LSM303AGRSensor.c ****  * 		- if this value is 1: write to a register of the magnetormeter
  43:../../core/drivers/LSM303AGR/src/LSM303AGRSensor.c ****  * the standard HAL library values are used for the size of the register and time-out.
  44:../../core/drivers/LSM303AGR/src/LSM303AGRSensor.c ****  * @param LSM303AGR_reg: the register where data needs to be written to
  45:../../core/drivers/LSM303AGR/src/LSM303AGRSensor.c ****  * @param LSM303AGR_data: a pointer to the data that needs to be written
  46:../../core/drivers/LSM303AGR/src/LSM303AGRSensor.c ****  * @param ACC_MAG: depending on the value, a write is performed to the accelerometer of magnetomete
  47:../../core/drivers/LSM303AGR/src/LSM303AGRSensor.c ****  * @return returns the status of the I2C transfer
  48:../../core/drivers/LSM303AGR/src/LSM303AGRSensor.c ****  */
  49:../../core/drivers/LSM303AGR/src/LSM303AGRSensor.c **** HAL_StatusTypeDef LSM303AGR_writeRegister(uint8_t LSM303AGR_reg,
  50:../../core/drivers/LSM303AGR/src/LSM303AGRSensor.c **** 		uint8_t LSM303AGR_data, uint8_t ACC_MAG) {
 147              		.loc 1 50 44 is_stmt 1 view -0
 148              		.cfi_startproc
 149              		@ args = 0, pretend = 0, frame = 8
 150              		@ frame_needed = 0, uses_anonymous_args = 0
 151              		.loc 1 50 44 is_stmt 0 view .LVU20
 152 0000 00B5     		push	{lr}
 153              	.LCFI4:
 154              		.cfi_def_cfa_offset 4
 155              		.cfi_offset 14, -4
 156 0002 87B0     		sub	sp, sp, #28
 157              	.LCFI5:
 158              		.cfi_def_cfa_offset 32
 159 0004 8DF81710 		strb	r1, [sp, #23]
  51:../../core/drivers/LSM303AGR/src/LSM303AGRSensor.c **** 
  52:../../core/drivers/LSM303AGR/src/LSM303AGRSensor.c **** 	if (ACC_MAG == 0) {
 160              		.loc 1 52 2 is_stmt 1 view .LVU21
 161              		.loc 1 52 5 is_stmt 0 view .LVU22
 162 0008 8AB9     		cbnz	r2, .L11
  53:../../core/drivers/LSM303AGR/src/LSM303AGRSensor.c **** 		HAL_I2C_Mem_Write(LSM303AGR_hi2c, LSM303AGR_ACC_I2C_ADDRESS,
 163              		.loc 1 53 3 is_stmt 1 view .LVU23
 164 000a 4FF0FF33 		mov	r3, #-1
 165 000e 0293     		str	r3, [sp, #8]
 166 0010 0123     		movs	r3, #1
 167 0012 0193     		str	r3, [sp, #4]
 168 0014 0DF11702 		add	r2, sp, #23
 169              	.LVL12:
 170              		.loc 1 53 3 is_stmt 0 view .LVU24
 171 0018 0092     		str	r2, [sp]
 172 001a 0246     		mov	r2, r0
 173 001c 3221     		movs	r1, #50
 174              	.LVL13:
 175              		.loc 1 53 3 view .LVU25
ARM GAS  C:\Users\yvesk\AppData\Local\Temp\ccEdRFGi.s 			page 5


 176 001e 0B48     		ldr	r0, .L14
 177              	.LVL14:
 178              		.loc 1 53 3 view .LVU26
 179 0020 0068     		ldr	r0, [r0]
 180 0022 FFF7FEFF 		bl	HAL_I2C_Mem_Write
 181              	.LVL15:
 182              	.L12:
  54:../../core/drivers/LSM303AGR/src/LSM303AGRSensor.c **** 				LSM303AGR_reg, I2C_MEMADD_SIZE_8BIT, &LSM303AGR_data,
  55:../../core/drivers/LSM303AGR/src/LSM303AGRSensor.c **** 				sizeof(LSM303AGR_data), HAL_MAX_DELAY);
  56:../../core/drivers/LSM303AGR/src/LSM303AGRSensor.c **** 	} else {
  57:../../core/drivers/LSM303AGR/src/LSM303AGRSensor.c **** 		HAL_I2C_Mem_Write(LSM303AGR_hi2c, LSM303AGR_MAG_I2C_ADDRESS,
  58:../../core/drivers/LSM303AGR/src/LSM303AGRSensor.c **** 				LSM303AGR_reg, I2C_MEMADD_SIZE_8BIT, &LSM303AGR_data,
  59:../../core/drivers/LSM303AGR/src/LSM303AGRSensor.c **** 				sizeof(LSM303AGR_setting), HAL_MAX_DELAY);
  60:../../core/drivers/LSM303AGR/src/LSM303AGRSensor.c **** 	}
  61:../../core/drivers/LSM303AGR/src/LSM303AGRSensor.c **** 
  62:../../core/drivers/LSM303AGR/src/LSM303AGRSensor.c **** 	return HAL_OK;
 183              		.loc 1 62 2 is_stmt 1 view .LVU27
  63:../../core/drivers/LSM303AGR/src/LSM303AGRSensor.c **** 
  64:../../core/drivers/LSM303AGR/src/LSM303AGRSensor.c **** }
 184              		.loc 1 64 1 is_stmt 0 view .LVU28
 185 0026 0020     		movs	r0, #0
 186 0028 07B0     		add	sp, sp, #28
 187              	.LCFI6:
 188              		.cfi_remember_state
 189              		.cfi_def_cfa_offset 4
 190              		@ sp needed
 191 002a 5DF804FB 		ldr	pc, [sp], #4
 192              	.LVL16:
 193              	.L11:
 194              	.LCFI7:
 195              		.cfi_restore_state
  57:../../core/drivers/LSM303AGR/src/LSM303AGRSensor.c **** 				LSM303AGR_reg, I2C_MEMADD_SIZE_8BIT, &LSM303AGR_data,
 196              		.loc 1 57 3 is_stmt 1 view .LVU29
 197 002e 4FF0FF33 		mov	r3, #-1
 198 0032 0293     		str	r3, [sp, #8]
 199 0034 0123     		movs	r3, #1
 200 0036 0193     		str	r3, [sp, #4]
 201 0038 0DF11702 		add	r2, sp, #23
 202              	.LVL17:
  57:../../core/drivers/LSM303AGR/src/LSM303AGRSensor.c **** 				LSM303AGR_reg, I2C_MEMADD_SIZE_8BIT, &LSM303AGR_data,
 203              		.loc 1 57 3 is_stmt 0 view .LVU30
 204 003c 0092     		str	r2, [sp]
 205 003e 0246     		mov	r2, r0
 206 0040 3C21     		movs	r1, #60
 207              	.LVL18:
  57:../../core/drivers/LSM303AGR/src/LSM303AGRSensor.c **** 				LSM303AGR_reg, I2C_MEMADD_SIZE_8BIT, &LSM303AGR_data,
 208              		.loc 1 57 3 view .LVU31
 209 0042 0248     		ldr	r0, .L14
 210              	.LVL19:
  57:../../core/drivers/LSM303AGR/src/LSM303AGRSensor.c **** 				LSM303AGR_reg, I2C_MEMADD_SIZE_8BIT, &LSM303AGR_data,
 211              		.loc 1 57 3 view .LVU32
 212 0044 0068     		ldr	r0, [r0]
 213 0046 FFF7FEFF 		bl	HAL_I2C_Mem_Write
 214              	.LVL20:
  57:../../core/drivers/LSM303AGR/src/LSM303AGRSensor.c **** 				LSM303AGR_reg, I2C_MEMADD_SIZE_8BIT, &LSM303AGR_data,
 215              		.loc 1 57 3 view .LVU33
 216 004a ECE7     		b	.L12
ARM GAS  C:\Users\yvesk\AppData\Local\Temp\ccEdRFGi.s 			page 6


 217              	.L15:
 218              		.align	2
 219              	.L14:
 220 004c 00000000 		.word	LSM303AGR_hi2c
 221              		.cfi_endproc
 222              	.LFE125:
 224              		.section	.text.LSM303AGR_init,"ax",%progbits
 225              		.align	1
 226              		.global	LSM303AGR_init
 227              		.syntax unified
 228              		.thumb
 229              		.thumb_func
 230              		.fpu fpv4-sp-d16
 232              	LSM303AGR_init:
 233              	.LFB126:
  65:../../core/drivers/LSM303AGR/src/LSM303AGRSensor.c **** 
  66:../../core/drivers/LSM303AGR/src/LSM303AGRSensor.c **** /**
  67:../../core/drivers/LSM303AGR/src/LSM303AGRSensor.c ****  * Initialization of the LSM303AGR accelerometer and magnetometer.
  68:../../core/drivers/LSM303AGR/src/LSM303AGRSensor.c ****  * The accelerometer is initialized with the following values:
  69:../../core/drivers/LSM303AGR/src/LSM303AGRSensor.c ****  * 		- Powerdown,
  70:../../core/drivers/LSM303AGR/src/LSM303AGRSensor.c ****  * 		- X, Y and Z-axes enabled
  71:../../core/drivers/LSM303AGR/src/LSM303AGRSensor.c ****  * 		- BDU enabled (output registers are not updated until the MSB and LSB have been read)
  72:../../core/drivers/LSM303AGR/src/LSM303AGRSensor.c ****  *
  73:../../core/drivers/LSM303AGR/src/LSM303AGRSensor.c ****  * The magnetometer is initialized with the following values:
  74:../../core/drivers/LSM303AGR/src/LSM303AGRSensor.c ****  * 		- Idle mode,
  75:../../core/drivers/LSM303AGR/src/LSM303AGRSensor.c ****  * 		- Temperature compensation enabled,
  76:../../core/drivers/LSM303AGR/src/LSM303AGRSensor.c ****  * 		- Low-power mode enabled,
  77:../../core/drivers/LSM303AGR/src/LSM303AGRSensor.c ****  * 		- Offset cancelation enabled,
  78:../../core/drivers/LSM303AGR/src/LSM303AGRSensor.c ****  * 		- Low pass filter enabled,
  79:../../core/drivers/LSM303AGR/src/LSM303AGRSensor.c ****  * 		- BDU enabled
  80:../../core/drivers/LSM303AGR/src/LSM303AGRSensor.c ****  */
  81:../../core/drivers/LSM303AGR/src/LSM303AGRSensor.c **** void LSM303AGR_init() {
 234              		.loc 1 81 23 is_stmt 1 view -0
 235              		.cfi_startproc
 236              		@ args = 0, pretend = 0, frame = 0
 237              		@ frame_needed = 0, uses_anonymous_args = 0
 238 0000 08B5     		push	{r3, lr}
 239              	.LCFI8:
 240              		.cfi_def_cfa_offset 8
 241              		.cfi_offset 3, -8
 242              		.cfi_offset 14, -4
  82:../../core/drivers/LSM303AGR/src/LSM303AGRSensor.c **** 
  83:../../core/drivers/LSM303AGR/src/LSM303AGRSensor.c **** 	//ga naar de application node op de site en daar staat alle registers die je moet instellen voor i
  84:../../core/drivers/LSM303AGR/src/LSM303AGRSensor.c **** 
  85:../../core/drivers/LSM303AGR/src/LSM303AGRSensor.c **** 	//normal interrupt
  86:../../core/drivers/LSM303AGR/src/LSM303AGRSensor.c **** 
  87:../../core/drivers/LSM303AGR/src/LSM303AGRSensor.c **** 	/* LSM303AGR_writeRegister(LSM303AGR_ACC_CTRL_REG1, 0xA7, 0);  //enable/turn on xyz, ODR = 100Hz (
  88:../../core/drivers/LSM303AGR/src/LSM303AGRSensor.c **** 
  89:../../core/drivers/LSM303AGR/src/LSM303AGRSensor.c **** 	LSM303AGR_writeRegister(LSM303AGR_ACC_CTRL_REG2, 0x00 , 0); //highpass filter disable (got undesir
  90:../../core/drivers/LSM303AGR/src/LSM303AGRSensor.c **** 
  91:../../core/drivers/LSM303AGR/src/LSM303AGRSensor.c **** 	LSM303AGR_writeRegister(LSM303AGR_ACC_CTRL_REG3, 0x40 , 0); //gewone interrupt op int lijn 1 zette
  92:../../core/drivers/LSM303AGR/src/LSM303AGRSensor.c **** 
  93:../../core/drivers/LSM303AGR/src/LSM303AGRSensor.c **** 	LSM303AGR_writeRegister(LSM303AGR_ACC_CTRL_REG4, 0x00 , 0); //FS=2G, wil zeggen laagste treshold, 
  94:../../core/drivers/LSM303AGR/src/LSM303AGRSensor.c **** 
  95:../../core/drivers/LSM303AGR/src/LSM303AGRSensor.c **** 	LSM303AGR_writeRegister(LSM303AGR_ACC_CTRL_REG5, 0x00 , 0); //no latching, alles disablen
  96:../../core/drivers/LSM303AGR/src/LSM303AGRSensor.c **** 
  97:../../core/drivers/LSM303AGR/src/LSM303AGRSensor.c **** 	LSM303AGR_writeRegister(LSM303AGR_ACC_INT1_THS, 0x10 , 0);	//set treshold, maximum threshold en de
ARM GAS  C:\Users\yvesk\AppData\Local\Temp\ccEdRFGi.s 			page 7


  98:../../core/drivers/LSM303AGR/src/LSM303AGRSensor.c **** 
  99:../../core/drivers/LSM303AGR/src/LSM303AGRSensor.c **** 	LSM303AGR_writeRegister(LSM303AGR_ACC_INT1_DUR, 0x7F , 0);  //duration van de interrupt. Ook weer 
 100:../../core/drivers/LSM303AGR/src/LSM303AGRSensor.c **** 
 101:../../core/drivers/LSM303AGR/src/LSM303AGRSensor.c **** 	LSM303AGR_writeRegister(LSM303AGR_ACC_INT1_CFG, 0x0A , 0);  //INT1_CFG_A enable xh & yH interrupt 
 102:../../core/drivers/LSM303AGR/src/LSM303AGRSensor.c **** 
 103:../../core/drivers/LSM303AGR/src/LSM303AGRSensor.c **** 
 104:../../core/drivers/LSM303AGR/src/LSM303AGRSensor.c **** 	/* //click single interrupt
 105:../../core/drivers/LSM303AGR/src/LSM303AGRSensor.c **** 
 106:../../core/drivers/LSM303AGR/src/LSM303AGRSensor.c **** 	LSM303AGR_writeRegister(LSM303AGR_ACC_CTRL_REG1, 0x2F, 0);  //enable/turn on xyz, ODR = 10Hz (norm
 107:../../core/drivers/LSM303AGR/src/LSM303AGRSensor.c **** 
 108:../../core/drivers/LSM303AGR/src/LSM303AGRSensor.c **** 	LSM303AGR_writeRegister(LSM303AGR_ACC_CTRL_REG2, 0x00 , 0); //highpass filter disable (got undesir
 109:../../core/drivers/LSM303AGR/src/LSM303AGRSensor.c **** 
 110:../../core/drivers/LSM303AGR/src/LSM303AGRSensor.c **** 	LSM303AGR_writeRegister(LSM303AGR_ACC_CTRL_REG3, 0x80 , 0); //put de click interrupt on int line 1
 111:../../core/drivers/LSM303AGR/src/LSM303AGRSensor.c **** 
 112:../../core/drivers/LSM303AGR/src/LSM303AGRSensor.c **** 	LSM303AGR_writeRegister(LSM303AGR_ACC_CTRL_REG4, 0x00 , 0); //FS=2G, wil zeggen laagste treshold, 
 113:../../core/drivers/LSM303AGR/src/LSM303AGRSensor.c **** 
 114:../../core/drivers/LSM303AGR/src/LSM303AGRSensor.c **** 	LSM303AGR_writeRegister(LSM303AGR_ACC_CTRL_REG5, 0x00 , 0); //no latching, alles disablen
 115:../../core/drivers/LSM303AGR/src/LSM303AGRSensor.c **** 
 116:../../core/drivers/LSM303AGR/src/LSM303AGRSensor.c **** 	LSM303AGR_writeRegister(LSM303AGR_ACC_CLICK_CFG, 0x01 , 0); //enablen single click on x-axis
 117:../../core/drivers/LSM303AGR/src/LSM303AGRSensor.c **** 
 118:../../core/drivers/LSM303AGR/src/LSM303AGRSensor.c **** 	LSM303AGR_writeRegister(LSM303AGR_ACC_CLICK_SRC, 0x10 , 0); //single click enable
 119:../../core/drivers/LSM303AGR/src/LSM303AGRSensor.c **** 
 120:../../core/drivers/LSM303AGR/src/LSM303AGRSensor.c **** 	LSM303AGR_writeRegister(LSM303AGR_ACC_CLICK_THS, 0x20 , 0);	//set treshold  
 121:../../core/drivers/LSM303AGR/src/LSM303AGRSensor.c **** 
 122:../../core/drivers/LSM303AGR/src/LSM303AGRSensor.c **** 	LSM303AGR_writeRegister(LSM303AGR_ACC_CLICK_LATENCY, 0x00 , 0);  //set how long the interrupt last
 123:../../core/drivers/LSM303AGR/src/LSM303AGRSensor.c **** 
 124:../../core/drivers/LSM303AGR/src/LSM303AGRSensor.c **** 	LSM303AGR_writeRegister(LSM303AGR_ACC_CLICK_TIME, 0x7F , 0);  	 //time limiit = value * 1/ODR so m
 125:../../core/drivers/LSM303AGR/src/LSM303AGRSensor.c **** 
 126:../../core/drivers/LSM303AGR/src/LSM303AGRSensor.c **** 
 127:../../core/drivers/LSM303AGR/src/LSM303AGRSensor.c **** 
 128:../../core/drivers/LSM303AGR/src/LSM303AGRSensor.c **** 	//click double interrupt
 129:../../core/drivers/LSM303AGR/src/LSM303AGRSensor.c **** 
 130:../../core/drivers/LSM303AGR/src/LSM303AGRSensor.c **** 	LSM303AGR_writeRegister(LSM303AGR_ACC_CTRL_REG1, 0x2F, 0);  //enable/turn on xyz, ODR = 10Hz (norm
 243              		.loc 1 130 2 view .LVU35
 244 0002 0022     		movs	r2, #0
 245 0004 2F21     		movs	r1, #47
 246 0006 2020     		movs	r0, #32
 247 0008 FFF7FEFF 		bl	LSM303AGR_writeRegister
 248              	.LVL21:
 131:../../core/drivers/LSM303AGR/src/LSM303AGRSensor.c **** 
 132:../../core/drivers/LSM303AGR/src/LSM303AGRSensor.c **** 	LSM303AGR_writeRegister(LSM303AGR_ACC_CTRL_REG2, 0x00 , 0); //highpass filter disable (got undesir
 249              		.loc 1 132 2 view .LVU36
 250 000c 0022     		movs	r2, #0
 251 000e 1146     		mov	r1, r2
 252 0010 2120     		movs	r0, #33
 253 0012 FFF7FEFF 		bl	LSM303AGR_writeRegister
 254              	.LVL22:
 133:../../core/drivers/LSM303AGR/src/LSM303AGRSensor.c **** 
 134:../../core/drivers/LSM303AGR/src/LSM303AGRSensor.c **** 	LSM303AGR_writeRegister(LSM303AGR_ACC_CTRL_REG3, 0x80 , 0); //put de click interrupt on int line 1
 255              		.loc 1 134 2 view .LVU37
 256 0016 0022     		movs	r2, #0
 257 0018 8021     		movs	r1, #128
 258 001a 2220     		movs	r0, #34
 259 001c FFF7FEFF 		bl	LSM303AGR_writeRegister
 260              	.LVL23:
 135:../../core/drivers/LSM303AGR/src/LSM303AGRSensor.c **** 
 136:../../core/drivers/LSM303AGR/src/LSM303AGRSensor.c **** 	LSM303AGR_writeRegister(LSM303AGR_ACC_CTRL_REG4, 0x00 , 0); //FS=2G, wil zeggen laagste treshold, 
ARM GAS  C:\Users\yvesk\AppData\Local\Temp\ccEdRFGi.s 			page 8


 261              		.loc 1 136 2 view .LVU38
 262 0020 0022     		movs	r2, #0
 263 0022 1146     		mov	r1, r2
 264 0024 2320     		movs	r0, #35
 265 0026 FFF7FEFF 		bl	LSM303AGR_writeRegister
 266              	.LVL24:
 137:../../core/drivers/LSM303AGR/src/LSM303AGRSensor.c **** 
 138:../../core/drivers/LSM303AGR/src/LSM303AGRSensor.c **** 	LSM303AGR_writeRegister(LSM303AGR_ACC_CTRL_REG5, 0x00 , 0); //no latching, alles disablen
 267              		.loc 1 138 2 view .LVU39
 268 002a 0022     		movs	r2, #0
 269 002c 1146     		mov	r1, r2
 270 002e 2420     		movs	r0, #36
 271 0030 FFF7FEFF 		bl	LSM303AGR_writeRegister
 272              	.LVL25:
 139:../../core/drivers/LSM303AGR/src/LSM303AGRSensor.c **** 
 140:../../core/drivers/LSM303AGR/src/LSM303AGRSensor.c **** 	LSM303AGR_writeRegister(LSM303AGR_ACC_CLICK_CFG, 0x02 , 0); //enablen double click on x-axis
 273              		.loc 1 140 2 view .LVU40
 274 0034 0022     		movs	r2, #0
 275 0036 0221     		movs	r1, #2
 276 0038 3820     		movs	r0, #56
 277 003a FFF7FEFF 		bl	LSM303AGR_writeRegister
 278              	.LVL26:
 141:../../core/drivers/LSM303AGR/src/LSM303AGRSensor.c **** 
 142:../../core/drivers/LSM303AGR/src/LSM303AGRSensor.c **** 	LSM303AGR_writeRegister(LSM303AGR_ACC_CLICK_SRC, 0x20 , 0); //double click enable
 279              		.loc 1 142 2 view .LVU41
 280 003e 0022     		movs	r2, #0
 281 0040 2021     		movs	r1, #32
 282 0042 3920     		movs	r0, #57
 283 0044 FFF7FEFF 		bl	LSM303AGR_writeRegister
 284              	.LVL27:
 143:../../core/drivers/LSM303AGR/src/LSM303AGRSensor.c **** 
 144:../../core/drivers/LSM303AGR/src/LSM303AGRSensor.c **** 	LSM303AGR_writeRegister(LSM303AGR_ACC_CLICK_THS, 0x20 , 0);	//set treshold  
 285              		.loc 1 144 2 view .LVU42
 286 0048 0022     		movs	r2, #0
 287 004a 2021     		movs	r1, #32
 288 004c 3A20     		movs	r0, #58
 289 004e FFF7FEFF 		bl	LSM303AGR_writeRegister
 290              	.LVL28:
 145:../../core/drivers/LSM303AGR/src/LSM303AGRSensor.c **** 
 146:../../core/drivers/LSM303AGR/src/LSM303AGRSensor.c **** 	LSM303AGR_writeRegister(LSM303AGR_ACC_CLICK_LATENCY, 0x00 , 0);  //set how long the interrupt last
 291              		.loc 1 146 2 view .LVU43
 292 0052 0022     		movs	r2, #0
 293 0054 1146     		mov	r1, r2
 294 0056 3C20     		movs	r0, #60
 295 0058 FFF7FEFF 		bl	LSM303AGR_writeRegister
 296              	.LVL29:
 147:../../core/drivers/LSM303AGR/src/LSM303AGRSensor.c **** 
 148:../../core/drivers/LSM303AGR/src/LSM303AGRSensor.c **** 	LSM303AGR_writeRegister(LSM303AGR_ACC_CLICK_TIME, 0x7F , 0);  	 //time limiit = value * 1/ODR so m
 297              		.loc 1 148 2 view .LVU44
 298 005c 0022     		movs	r2, #0
 299 005e 7F21     		movs	r1, #127
 300 0060 3B20     		movs	r0, #59
 301 0062 FFF7FEFF 		bl	LSM303AGR_writeRegister
 302              	.LVL30:
 149:../../core/drivers/LSM303AGR/src/LSM303AGRSensor.c **** 
 150:../../core/drivers/LSM303AGR/src/LSM303AGRSensor.c **** 	LSM303AGR_writeRegister(LSM303AGR_ACC_CLICK_WINDOW, 0x0A , 0);  	 //max time in between 2 clicks. 
 303              		.loc 1 150 2 view .LVU45
ARM GAS  C:\Users\yvesk\AppData\Local\Temp\ccEdRFGi.s 			page 9


 304 0066 0022     		movs	r2, #0
 305 0068 0A21     		movs	r1, #10
 306 006a 3D20     		movs	r0, #61
 307 006c FFF7FEFF 		bl	LSM303AGR_writeRegister
 308              	.LVL31:
 151:../../core/drivers/LSM303AGR/src/LSM303AGRSensor.c **** 
 152:../../core/drivers/LSM303AGR/src/LSM303AGRSensor.c **** 
 153:../../core/drivers/LSM303AGR/src/LSM303AGRSensor.c **** }
 309              		.loc 1 153 1 is_stmt 0 view .LVU46
 310 0070 08BD     		pop	{r3, pc}
 311              		.cfi_endproc
 312              	.LFE126:
 314              		.section	.text.LSM303AGR_ACC_reset,"ax",%progbits
 315              		.align	1
 316              		.global	LSM303AGR_ACC_reset
 317              		.syntax unified
 318              		.thumb
 319              		.thumb_func
 320              		.fpu fpv4-sp-d16
 322              	LSM303AGR_ACC_reset:
 323              	.LFB127:
 154:../../core/drivers/LSM303AGR/src/LSM303AGRSensor.c **** 
 155:../../core/drivers/LSM303AGR/src/LSM303AGRSensor.c **** /**
 156:../../core/drivers/LSM303AGR/src/LSM303AGRSensor.c ****  * Resets the LSM303AGR accelerometer
 157:../../core/drivers/LSM303AGR/src/LSM303AGRSensor.c ****  */
 158:../../core/drivers/LSM303AGR/src/LSM303AGRSensor.c **** void LSM303AGR_ACC_reset() {
 324              		.loc 1 158 28 is_stmt 1 view -0
 325              		.cfi_startproc
 326              		@ args = 0, pretend = 0, frame = 0
 327              		@ frame_needed = 0, uses_anonymous_args = 0
 328 0000 08B5     		push	{r3, lr}
 329              	.LCFI9:
 330              		.cfi_def_cfa_offset 8
 331              		.cfi_offset 3, -8
 332              		.cfi_offset 14, -4
 159:../../core/drivers/LSM303AGR/src/LSM303AGRSensor.c **** 	LSM303AGR_setting = LSM303AGR_ACC_BOOT;
 333              		.loc 1 159 2 view .LVU48
 334              		.loc 1 159 20 is_stmt 0 view .LVU49
 335 0002 8021     		movs	r1, #128
 336 0004 034B     		ldr	r3, .L20
 337 0006 1970     		strb	r1, [r3]
 160:../../core/drivers/LSM303AGR/src/LSM303AGRSensor.c **** 	LSM303AGR_writeRegister(LSM303AGR_ACC_CTRL_REG5, LSM303AGR_setting, 0);
 338              		.loc 1 160 2 is_stmt 1 view .LVU50
 339 0008 0022     		movs	r2, #0
 340 000a 2420     		movs	r0, #36
 341 000c FFF7FEFF 		bl	LSM303AGR_writeRegister
 342              	.LVL32:
 161:../../core/drivers/LSM303AGR/src/LSM303AGRSensor.c **** }
 343              		.loc 1 161 1 is_stmt 0 view .LVU51
 344 0010 08BD     		pop	{r3, pc}
 345              	.L21:
 346 0012 00BF     		.align	2
 347              	.L20:
 348 0014 00000000 		.word	LSM303AGR_setting
 349              		.cfi_endproc
 350              	.LFE127:
 352              		.section	.text.LSM303AGR_MAG_reset,"ax",%progbits
ARM GAS  C:\Users\yvesk\AppData\Local\Temp\ccEdRFGi.s 			page 10


 353              		.align	1
 354              		.global	LSM303AGR_MAG_reset
 355              		.syntax unified
 356              		.thumb
 357              		.thumb_func
 358              		.fpu fpv4-sp-d16
 360              	LSM303AGR_MAG_reset:
 361              	.LFB128:
 162:../../core/drivers/LSM303AGR/src/LSM303AGRSensor.c **** 
 163:../../core/drivers/LSM303AGR/src/LSM303AGRSensor.c **** /**
 164:../../core/drivers/LSM303AGR/src/LSM303AGRSensor.c ****  * Resets the LSM303AGR magnetometer
 165:../../core/drivers/LSM303AGR/src/LSM303AGRSensor.c ****  */
 166:../../core/drivers/LSM303AGR/src/LSM303AGRSensor.c **** void LSM303AGR_MAG_reset() {
 362              		.loc 1 166 28 is_stmt 1 view -0
 363              		.cfi_startproc
 364              		@ args = 0, pretend = 0, frame = 0
 365              		@ frame_needed = 0, uses_anonymous_args = 0
 366 0000 08B5     		push	{r3, lr}
 367              	.LCFI10:
 368              		.cfi_def_cfa_offset 8
 369              		.cfi_offset 3, -8
 370              		.cfi_offset 14, -4
 167:../../core/drivers/LSM303AGR/src/LSM303AGRSensor.c **** 
 168:../../core/drivers/LSM303AGR/src/LSM303AGRSensor.c **** 	LSM303AGR_setting = LSM303AGR_MAG_SOFT_RST;
 371              		.loc 1 168 2 view .LVU53
 372              		.loc 1 168 20 is_stmt 0 view .LVU54
 373 0002 2021     		movs	r1, #32
 374 0004 034B     		ldr	r3, .L24
 375 0006 1970     		strb	r1, [r3]
 169:../../core/drivers/LSM303AGR/src/LSM303AGRSensor.c **** 	LSM303AGR_writeRegister(LSM303AGR_MAG_CFG_REG_A, LSM303AGR_setting, 1);
 376              		.loc 1 169 2 is_stmt 1 view .LVU55
 377 0008 0122     		movs	r2, #1
 378 000a 6020     		movs	r0, #96
 379 000c FFF7FEFF 		bl	LSM303AGR_writeRegister
 380              	.LVL33:
 170:../../core/drivers/LSM303AGR/src/LSM303AGRSensor.c **** 
 171:../../core/drivers/LSM303AGR/src/LSM303AGRSensor.c **** }
 381              		.loc 1 171 1 is_stmt 0 view .LVU56
 382 0010 08BD     		pop	{r3, pc}
 383              	.L25:
 384 0012 00BF     		.align	2
 385              	.L24:
 386 0014 00000000 		.word	LSM303AGR_setting
 387              		.cfi_endproc
 388              	.LFE128:
 390              		.section	.text.LSM303AGR_powerDownAccelerometer,"ax",%progbits
 391              		.align	1
 392              		.global	LSM303AGR_powerDownAccelerometer
 393              		.syntax unified
 394              		.thumb
 395              		.thumb_func
 396              		.fpu fpv4-sp-d16
 398              	LSM303AGR_powerDownAccelerometer:
 399              	.LFB129:
 172:../../core/drivers/LSM303AGR/src/LSM303AGRSensor.c **** 
 173:../../core/drivers/LSM303AGR/src/LSM303AGRSensor.c **** /**
 174:../../core/drivers/LSM303AGR/src/LSM303AGRSensor.c ****  * Put the accelerometer in power-down mode
ARM GAS  C:\Users\yvesk\AppData\Local\Temp\ccEdRFGi.s 			page 11


 175:../../core/drivers/LSM303AGR/src/LSM303AGRSensor.c ****  */
 176:../../core/drivers/LSM303AGR/src/LSM303AGRSensor.c **** void LSM303AGR_powerDownAccelerometer() {
 400              		.loc 1 176 41 is_stmt 1 view -0
 401              		.cfi_startproc
 402              		@ args = 0, pretend = 0, frame = 0
 403              		@ frame_needed = 0, uses_anonymous_args = 0
 404 0000 08B5     		push	{r3, lr}
 405              	.LCFI11:
 406              		.cfi_def_cfa_offset 8
 407              		.cfi_offset 3, -8
 408              		.cfi_offset 14, -4
 177:../../core/drivers/LSM303AGR/src/LSM303AGRSensor.c **** 
 178:../../core/drivers/LSM303AGR/src/LSM303AGRSensor.c **** 	LSM303AGR_setting = LSM303AGR_ACC_ODR_POWERDOWN | LSM303AGR_ACC_X_EN
 409              		.loc 1 178 2 view .LVU58
 410              		.loc 1 178 20 is_stmt 0 view .LVU59
 411 0002 0721     		movs	r1, #7
 412 0004 034B     		ldr	r3, .L28
 413 0006 1970     		strb	r1, [r3]
 179:../../core/drivers/LSM303AGR/src/LSM303AGRSensor.c **** 			| LSM303AGR_ACC_Y_EN | LSM303AGR_ACC_Z_EN;
 180:../../core/drivers/LSM303AGR/src/LSM303AGRSensor.c **** 	LSM303AGR_writeRegister(LSM303AGR_ACC_CTRL_REG1, LSM303AGR_setting, 0);
 414              		.loc 1 180 2 is_stmt 1 view .LVU60
 415 0008 0022     		movs	r2, #0
 416 000a 2020     		movs	r0, #32
 417 000c FFF7FEFF 		bl	LSM303AGR_writeRegister
 418              	.LVL34:
 181:../../core/drivers/LSM303AGR/src/LSM303AGRSensor.c **** 
 182:../../core/drivers/LSM303AGR/src/LSM303AGRSensor.c **** }
 419              		.loc 1 182 1 is_stmt 0 view .LVU61
 420 0010 08BD     		pop	{r3, pc}
 421              	.L29:
 422 0012 00BF     		.align	2
 423              	.L28:
 424 0014 00000000 		.word	LSM303AGR_setting
 425              		.cfi_endproc
 426              	.LFE129:
 428              		.section	.text.LSM303AGR_powerDownMagnetometer,"ax",%progbits
 429              		.align	1
 430              		.global	LSM303AGR_powerDownMagnetometer
 431              		.syntax unified
 432              		.thumb
 433              		.thumb_func
 434              		.fpu fpv4-sp-d16
 436              	LSM303AGR_powerDownMagnetometer:
 437              	.LFB130:
 183:../../core/drivers/LSM303AGR/src/LSM303AGRSensor.c **** 
 184:../../core/drivers/LSM303AGR/src/LSM303AGRSensor.c **** /**
 185:../../core/drivers/LSM303AGR/src/LSM303AGRSensor.c ****  * Put the magnetometer in idle mode
 186:../../core/drivers/LSM303AGR/src/LSM303AGRSensor.c ****  */
 187:../../core/drivers/LSM303AGR/src/LSM303AGRSensor.c **** void LSM303AGR_powerDownMagnetometer() {
 438              		.loc 1 187 40 is_stmt 1 view -0
 439              		.cfi_startproc
 440              		@ args = 0, pretend = 0, frame = 0
 441              		@ frame_needed = 0, uses_anonymous_args = 0
 442 0000 08B5     		push	{r3, lr}
 443              	.LCFI12:
 444              		.cfi_def_cfa_offset 8
 445              		.cfi_offset 3, -8
ARM GAS  C:\Users\yvesk\AppData\Local\Temp\ccEdRFGi.s 			page 12


 446              		.cfi_offset 14, -4
 188:../../core/drivers/LSM303AGR/src/LSM303AGRSensor.c **** 
 189:../../core/drivers/LSM303AGR/src/LSM303AGRSensor.c **** 	LSM303AGR_setting = LSM303AGR_MAG_COMP_TEMP_EN | LSM303AGR_MAG_LP_EN
 447              		.loc 1 189 2 view .LVU63
 448              		.loc 1 189 20 is_stmt 0 view .LVU64
 449 0002 9221     		movs	r1, #146
 450 0004 034B     		ldr	r3, .L32
 451 0006 1970     		strb	r1, [r3]
 190:../../core/drivers/LSM303AGR/src/LSM303AGRSensor.c **** 			| LSM303AGR_MAG_ODR_10HZ | LSM303AGR_MAG_MD_IDLE;
 191:../../core/drivers/LSM303AGR/src/LSM303AGRSensor.c **** 	LSM303AGR_writeRegister(LSM303AGR_MAG_CFG_REG_A, LSM303AGR_setting, 1);
 452              		.loc 1 191 2 is_stmt 1 view .LVU65
 453 0008 0122     		movs	r2, #1
 454 000a 6020     		movs	r0, #96
 455 000c FFF7FEFF 		bl	LSM303AGR_writeRegister
 456              	.LVL35:
 192:../../core/drivers/LSM303AGR/src/LSM303AGRSensor.c **** }
 457              		.loc 1 192 1 is_stmt 0 view .LVU66
 458 0010 08BD     		pop	{r3, pc}
 459              	.L33:
 460 0012 00BF     		.align	2
 461              	.L32:
 462 0014 00000000 		.word	LSM303AGR_setting
 463              		.cfi_endproc
 464              	.LFE130:
 466              		.section	.text.LSM303AGR_wakeUpAccelerometer,"ax",%progbits
 467              		.align	1
 468              		.global	LSM303AGR_wakeUpAccelerometer
 469              		.syntax unified
 470              		.thumb
 471              		.thumb_func
 472              		.fpu fpv4-sp-d16
 474              	LSM303AGR_wakeUpAccelerometer:
 475              	.LFB131:
 193:../../core/drivers/LSM303AGR/src/LSM303AGRSensor.c **** 
 194:../../core/drivers/LSM303AGR/src/LSM303AGRSensor.c **** /**
 195:../../core/drivers/LSM303AGR/src/LSM303AGRSensor.c ****  * Wake up the accelerometer from powerdown mode
 196:../../core/drivers/LSM303AGR/src/LSM303AGRSensor.c ****  */
 197:../../core/drivers/LSM303AGR/src/LSM303AGRSensor.c **** void LSM303AGR_wakeUpAccelerometer() {
 476              		.loc 1 197 38 is_stmt 1 view -0
 477              		.cfi_startproc
 478              		@ args = 0, pretend = 0, frame = 0
 479              		@ frame_needed = 0, uses_anonymous_args = 0
 480 0000 08B5     		push	{r3, lr}
 481              	.LCFI13:
 482              		.cfi_def_cfa_offset 8
 483              		.cfi_offset 3, -8
 484              		.cfi_offset 14, -4
 198:../../core/drivers/LSM303AGR/src/LSM303AGRSensor.c **** 
 199:../../core/drivers/LSM303AGR/src/LSM303AGRSensor.c **** 	LSM303AGR_setting = LSM303AGR_ACC_ODR_10HZ | LSM303AGR_ACC_X_EN
 485              		.loc 1 199 2 view .LVU68
 486              		.loc 1 199 20 is_stmt 0 view .LVU69
 487 0002 2721     		movs	r1, #39
 488 0004 034B     		ldr	r3, .L36
 489 0006 1970     		strb	r1, [r3]
 200:../../core/drivers/LSM303AGR/src/LSM303AGRSensor.c **** 			| LSM303AGR_ACC_Y_EN | LSM303AGR_ACC_Z_EN;
 201:../../core/drivers/LSM303AGR/src/LSM303AGRSensor.c **** 	LSM303AGR_writeRegister(LSM303AGR_ACC_CTRL_REG1, LSM303AGR_setting, 0);
 490              		.loc 1 201 2 is_stmt 1 view .LVU70
ARM GAS  C:\Users\yvesk\AppData\Local\Temp\ccEdRFGi.s 			page 13


 491 0008 0022     		movs	r2, #0
 492 000a 2020     		movs	r0, #32
 493 000c FFF7FEFF 		bl	LSM303AGR_writeRegister
 494              	.LVL36:
 202:../../core/drivers/LSM303AGR/src/LSM303AGRSensor.c **** 
 203:../../core/drivers/LSM303AGR/src/LSM303AGRSensor.c **** }
 495              		.loc 1 203 1 is_stmt 0 view .LVU71
 496 0010 08BD     		pop	{r3, pc}
 497              	.L37:
 498 0012 00BF     		.align	2
 499              	.L36:
 500 0014 00000000 		.word	LSM303AGR_setting
 501              		.cfi_endproc
 502              	.LFE131:
 504              		.section	.text.LSM303AGR_wakeUpMagnetometer,"ax",%progbits
 505              		.align	1
 506              		.global	LSM303AGR_wakeUpMagnetometer
 507              		.syntax unified
 508              		.thumb
 509              		.thumb_func
 510              		.fpu fpv4-sp-d16
 512              	LSM303AGR_wakeUpMagnetometer:
 513              	.LFB132:
 204:../../core/drivers/LSM303AGR/src/LSM303AGRSensor.c **** 
 205:../../core/drivers/LSM303AGR/src/LSM303AGRSensor.c **** /**
 206:../../core/drivers/LSM303AGR/src/LSM303AGRSensor.c ****  * Wake up the magnetometer from idle mode
 207:../../core/drivers/LSM303AGR/src/LSM303AGRSensor.c ****  */
 208:../../core/drivers/LSM303AGR/src/LSM303AGRSensor.c **** void LSM303AGR_wakeUpMagnetometer() {
 514              		.loc 1 208 37 is_stmt 1 view -0
 515              		.cfi_startproc
 516              		@ args = 0, pretend = 0, frame = 0
 517              		@ frame_needed = 0, uses_anonymous_args = 0
 518 0000 08B5     		push	{r3, lr}
 519              	.LCFI14:
 520              		.cfi_def_cfa_offset 8
 521              		.cfi_offset 3, -8
 522              		.cfi_offset 14, -4
 209:../../core/drivers/LSM303AGR/src/LSM303AGRSensor.c **** 
 210:../../core/drivers/LSM303AGR/src/LSM303AGRSensor.c **** 	LSM303AGR_setting = LSM303AGR_MAG_COMP_TEMP_EN | LSM303AGR_MAG_LP_EN
 523              		.loc 1 210 2 view .LVU73
 524              		.loc 1 210 20 is_stmt 0 view .LVU74
 525 0002 9021     		movs	r1, #144
 526 0004 034B     		ldr	r3, .L40
 527 0006 1970     		strb	r1, [r3]
 211:../../core/drivers/LSM303AGR/src/LSM303AGRSensor.c **** 			| LSM303AGR_MAG_ODR_10HZ | LSM303AGR_MAG_MD_CONT;
 212:../../core/drivers/LSM303AGR/src/LSM303AGRSensor.c **** 	LSM303AGR_writeRegister(LSM303AGR_MAG_CFG_REG_A, LSM303AGR_setting, 1);
 528              		.loc 1 212 2 is_stmt 1 view .LVU75
 529 0008 0122     		movs	r2, #1
 530 000a 6020     		movs	r0, #96
 531 000c FFF7FEFF 		bl	LSM303AGR_writeRegister
 532              	.LVL37:
 213:../../core/drivers/LSM303AGR/src/LSM303AGRSensor.c **** 
 214:../../core/drivers/LSM303AGR/src/LSM303AGRSensor.c **** }
 533              		.loc 1 214 1 is_stmt 0 view .LVU76
 534 0010 08BD     		pop	{r3, pc}
 535              	.L41:
 536 0012 00BF     		.align	2
ARM GAS  C:\Users\yvesk\AppData\Local\Temp\ccEdRFGi.s 			page 14


 537              	.L40:
 538 0014 00000000 		.word	LSM303AGR_setting
 539              		.cfi_endproc
 540              	.LFE132:
 542              		.section	.text.LSM303AGR_ACC_readAccelerationData,"ax",%progbits
 543              		.align	1
 544              		.global	LSM303AGR_ACC_readAccelerationData
 545              		.syntax unified
 546              		.thumb
 547              		.thumb_func
 548              		.fpu fpv4-sp-d16
 550              	LSM303AGR_ACC_readAccelerationData:
 551              	.LVL38:
 552              	.LFB133:
 215:../../core/drivers/LSM303AGR/src/LSM303AGRSensor.c **** 
 216:../../core/drivers/LSM303AGR/src/LSM303AGRSensor.c **** /**
 217:../../core/drivers/LSM303AGR/src/LSM303AGRSensor.c ****  * Reads the output registers of the accelerometer
 218:../../core/drivers/LSM303AGR/src/LSM303AGRSensor.c ****  * @param pData: a pointer to where the data needs to be stored
 219:../../core/drivers/LSM303AGR/src/LSM303AGRSensor.c ****  */
 220:../../core/drivers/LSM303AGR/src/LSM303AGRSensor.c **** void LSM303AGR_ACC_readAccelerationData(int32_t *pData) {
 553              		.loc 1 220 57 is_stmt 1 view -0
 554              		.cfi_startproc
 555              		@ args = 0, pretend = 0, frame = 0
 556              		@ frame_needed = 0, uses_anonymous_args = 0
 557              		.loc 1 220 57 is_stmt 0 view .LVU78
 558 0000 30B5     		push	{r4, r5, lr}
 559              	.LCFI15:
 560              		.cfi_def_cfa_offset 12
 561              		.cfi_offset 4, -12
 562              		.cfi_offset 5, -8
 563              		.cfi_offset 14, -4
 564 0002 85B0     		sub	sp, sp, #20
 565              	.LCFI16:
 566              		.cfi_def_cfa_offset 32
 567 0004 0446     		mov	r4, r0
 221:../../core/drivers/LSM303AGR/src/LSM303AGRSensor.c **** 	//accRegisterData[6];
 222:../../core/drivers/LSM303AGR/src/LSM303AGRSensor.c **** 	//accRawData[3];
 223:../../core/drivers/LSM303AGR/src/LSM303AGRSensor.c **** 
 224:../../core/drivers/LSM303AGR/src/LSM303AGRSensor.c **** 	//magRegisterData[6];
 225:../../core/drivers/LSM303AGR/src/LSM303AGRSensor.c **** 	//magRawData[3];
 226:../../core/drivers/LSM303AGR/src/LSM303AGRSensor.c **** 	//LSM303AGR_ACC_TEMP_DATA rawData;
 227:../../core/drivers/LSM303AGR/src/LSM303AGRSensor.c **** 
 228:../../core/drivers/LSM303AGR/src/LSM303AGRSensor.c **** 	HAL_I2C_Mem_Read(LSM303AGR_hi2c, LSM303AGR_ACC_I2C_ADDRESS,	LSM303AGR_ACC_MULTI_READ, I2C_MEMADD_S
 568              		.loc 1 228 2 is_stmt 1 view .LVU79
 569 0006 4FF0FF33 		mov	r3, #-1
 570 000a 0293     		str	r3, [sp, #8]
 571 000c 0623     		movs	r3, #6
 572 000e 0193     		str	r3, [sp, #4]
 573 0010 214D     		ldr	r5, .L44
 574 0012 0095     		str	r5, [sp]
 575 0014 0123     		movs	r3, #1
 576 0016 A822     		movs	r2, #168
 577 0018 3221     		movs	r1, #50
 578 001a 2048     		ldr	r0, .L44+4
 579              	.LVL39:
 580              		.loc 1 228 2 is_stmt 0 view .LVU80
 581 001c 0068     		ldr	r0, [r0]
ARM GAS  C:\Users\yvesk\AppData\Local\Temp\ccEdRFGi.s 			page 15


 582 001e FFF7FEFF 		bl	HAL_I2C_Mem_Read
 583              	.LVL40:
 229:../../core/drivers/LSM303AGR/src/LSM303AGRSensor.c **** 
 230:../../core/drivers/LSM303AGR/src/LSM303AGRSensor.c **** 	accRawData[0] = (accRegisterData[1] << 8)	| accRegisterData[0];
 584              		.loc 1 230 2 is_stmt 1 view .LVU81
 585              		.loc 1 230 34 is_stmt 0 view .LVU82
 586 0022 6A78     		ldrb	r2, [r5, #1]	@ zero_extendqisi2
 587              		.loc 1 230 61 view .LVU83
 588 0024 2B78     		ldrb	r3, [r5]	@ zero_extendqisi2
 589              		.loc 1 230 44 view .LVU84
 590 0026 43EA0223 		orr	r3, r3, r2, lsl #8
 591 002a 1BB2     		sxth	r3, r3
 592              		.loc 1 230 16 view .LVU85
 593 002c 1C49     		ldr	r1, .L44+8
 594 002e 0B80     		strh	r3, [r1]	@ movhi
 231:../../core/drivers/LSM303AGR/src/LSM303AGRSensor.c **** 	accRawData[1] = (accRegisterData[3] << 8)| accRegisterData[2];
 595              		.loc 1 231 2 is_stmt 1 view .LVU86
 596              		.loc 1 231 34 is_stmt 0 view .LVU87
 597 0030 E878     		ldrb	r0, [r5, #3]	@ zero_extendqisi2
 598              		.loc 1 231 60 view .LVU88
 599 0032 AA78     		ldrb	r2, [r5, #2]	@ zero_extendqisi2
 600              		.loc 1 231 43 view .LVU89
 601 0034 42EA0022 		orr	r2, r2, r0, lsl #8
 602              		.loc 1 231 16 view .LVU90
 603 0038 4A80     		strh	r2, [r1, #2]	@ movhi
 232:../../core/drivers/LSM303AGR/src/LSM303AGRSensor.c **** 	accRawData[2] = (accRegisterData[5] << 8)| accRegisterData[4];
 604              		.loc 1 232 2 is_stmt 1 view .LVU91
 605              		.loc 1 232 34 is_stmt 0 view .LVU92
 606 003a 6879     		ldrb	r0, [r5, #5]	@ zero_extendqisi2
 607              		.loc 1 232 60 view .LVU93
 608 003c 2A79     		ldrb	r2, [r5, #4]	@ zero_extendqisi2
 609              		.loc 1 232 43 view .LVU94
 610 003e 42EA0022 		orr	r2, r2, r0, lsl #8
 611              		.loc 1 232 16 view .LVU95
 612 0042 8A80     		strh	r2, [r1, #4]	@ movhi
 233:../../core/drivers/LSM303AGR/src/LSM303AGRSensor.c **** 
 234:../../core/drivers/LSM303AGR/src/LSM303AGRSensor.c **** 	/* Apply proper shift and sensitivity */
 235:../../core/drivers/LSM303AGR/src/LSM303AGRSensor.c **** 	// Normal mode 10-bit, shift = 6 and FS = 2
 236:../../core/drivers/LSM303AGR/src/LSM303AGRSensor.c **** 	pData[0] = (int32_t) (((accRawData[0] >> 6) * 3900 + 500) / 1000);
 613              		.loc 1 236 2 is_stmt 1 view .LVU96
 614              		.loc 1 236 40 is_stmt 0 view .LVU97
 615 0044 9B11     		asrs	r3, r3, #6
 616              		.loc 1 236 46 view .LVU98
 617 0046 40F63C72 		movw	r2, #3900
 618 004a 02FB03F3 		mul	r3, r2, r3
 619              		.loc 1 236 53 view .LVU99
 620 004e 03F5FA73 		add	r3, r3, #500
 621              		.loc 1 236 60 view .LVU100
 622 0052 1448     		ldr	r0, .L44+12
 623 0054 80FB03C5 		smull	ip, r5, r0, r3
 624 0058 DB17     		asrs	r3, r3, #31
 625 005a C3EBA513 		rsb	r3, r3, r5, asr #6
 626              		.loc 1 236 11 view .LVU101
 627 005e 2360     		str	r3, [r4]
 237:../../core/drivers/LSM303AGR/src/LSM303AGRSensor.c **** 	pData[1] = (int32_t) (((accRawData[1] >> 6) * 3900 + 500) / 1000);
 628              		.loc 1 237 2 is_stmt 1 view .LVU102
 629              		.loc 1 237 36 is_stmt 0 view .LVU103
ARM GAS  C:\Users\yvesk\AppData\Local\Temp\ccEdRFGi.s 			page 16


 630 0060 B1F90230 		ldrsh	r3, [r1, #2]
 631              		.loc 1 237 40 view .LVU104
 632 0064 9B11     		asrs	r3, r3, #6
 633              		.loc 1 237 46 view .LVU105
 634 0066 02FB03F3 		mul	r3, r2, r3
 635              		.loc 1 237 53 view .LVU106
 636 006a 03F5FA73 		add	r3, r3, #500
 637              		.loc 1 237 60 view .LVU107
 638 006e 80FB03C5 		smull	ip, r5, r0, r3
 639 0072 DB17     		asrs	r3, r3, #31
 640 0074 C3EBA513 		rsb	r3, r3, r5, asr #6
 641              		.loc 1 237 11 view .LVU108
 642 0078 6360     		str	r3, [r4, #4]
 238:../../core/drivers/LSM303AGR/src/LSM303AGRSensor.c **** 	pData[2] = (int32_t) (((accRawData[2] >> 6) * 3900 + 500) / 1000);
 643              		.loc 1 238 2 is_stmt 1 view .LVU109
 644              		.loc 1 238 36 is_stmt 0 view .LVU110
 645 007a B1F90430 		ldrsh	r3, [r1, #4]
 646              		.loc 1 238 40 view .LVU111
 647 007e 9B11     		asrs	r3, r3, #6
 648              		.loc 1 238 46 view .LVU112
 649 0080 02FB03F2 		mul	r2, r2, r3
 650              		.loc 1 238 53 view .LVU113
 651 0084 02F5FA72 		add	r2, r2, #500
 652              		.loc 1 238 60 view .LVU114
 653 0088 80FB0230 		smull	r3, r0, r0, r2
 654 008c D217     		asrs	r2, r2, #31
 655 008e C2EBA012 		rsb	r2, r2, r0, asr #6
 656              		.loc 1 238 11 view .LVU115
 657 0092 A260     		str	r2, [r4, #8]
 239:../../core/drivers/LSM303AGR/src/LSM303AGRSensor.c **** 
 240:../../core/drivers/LSM303AGR/src/LSM303AGRSensor.c **** }
 658              		.loc 1 240 1 view .LVU116
 659 0094 05B0     		add	sp, sp, #20
 660              	.LCFI17:
 661              		.cfi_def_cfa_offset 12
 662              		@ sp needed
 663 0096 30BD     		pop	{r4, r5, pc}
 664              	.LVL41:
 665              	.L45:
 666              		.loc 1 240 1 view .LVU117
 667              		.align	2
 668              	.L44:
 669 0098 00000000 		.word	accRegisterData
 670 009c 00000000 		.word	LSM303AGR_hi2c
 671 00a0 00000000 		.word	accRawData
 672 00a4 D34D6210 		.word	274877907
 673              		.cfi_endproc
 674              	.LFE133:
 676              		.section	.text.LSM303AGR_MAG_readMagneticData,"ax",%progbits
 677              		.align	1
 678              		.global	LSM303AGR_MAG_readMagneticData
 679              		.syntax unified
 680              		.thumb
 681              		.thumb_func
 682              		.fpu fpv4-sp-d16
 684              	LSM303AGR_MAG_readMagneticData:
 685              	.LVL42:
ARM GAS  C:\Users\yvesk\AppData\Local\Temp\ccEdRFGi.s 			page 17


 686              	.LFB134:
 241:../../core/drivers/LSM303AGR/src/LSM303AGRSensor.c **** 
 242:../../core/drivers/LSM303AGR/src/LSM303AGRSensor.c **** /**
 243:../../core/drivers/LSM303AGR/src/LSM303AGRSensor.c ****  * Reads the output registers of the magnetometer and applies the sensitivity
 244:../../core/drivers/LSM303AGR/src/LSM303AGRSensor.c ****  * @param pData: a pointer to where the data needs to be stored
 245:../../core/drivers/LSM303AGR/src/LSM303AGRSensor.c ****  */
 246:../../core/drivers/LSM303AGR/src/LSM303AGRSensor.c **** void LSM303AGR_MAG_readMagneticData(int32_t *pData) {
 687              		.loc 1 246 53 is_stmt 1 view -0
 688              		.cfi_startproc
 689              		@ args = 0, pretend = 0, frame = 0
 690              		@ frame_needed = 0, uses_anonymous_args = 0
 691              		.loc 1 246 53 is_stmt 0 view .LVU119
 692 0000 30B5     		push	{r4, r5, lr}
 693              	.LCFI18:
 694              		.cfi_def_cfa_offset 12
 695              		.cfi_offset 4, -12
 696              		.cfi_offset 5, -8
 697              		.cfi_offset 14, -4
 698 0002 85B0     		sub	sp, sp, #20
 699              	.LCFI19:
 700              		.cfi_def_cfa_offset 32
 701 0004 0446     		mov	r4, r0
 247:../../core/drivers/LSM303AGR/src/LSM303AGRSensor.c **** 	//magRegisterData[6];
 248:../../core/drivers/LSM303AGR/src/LSM303AGRSensor.c **** 		//magRawData[3];
 249:../../core/drivers/LSM303AGR/src/LSM303AGRSensor.c **** 		//LSM303AGR_ACC_TEMP_DATA rawData;
 250:../../core/drivers/LSM303AGR/src/LSM303AGRSensor.c **** 
 251:../../core/drivers/LSM303AGR/src/LSM303AGRSensor.c **** 	//LSM303AGR_MAG_TEMP_DATA rawData;
 252:../../core/drivers/LSM303AGR/src/LSM303AGRSensor.c **** 
 253:../../core/drivers/LSM303AGR/src/LSM303AGRSensor.c **** 	HAL_I2C_Mem_Read(LSM303AGR_hi2c, LSM303AGR_MAG_I2C_ADDRESS,
 702              		.loc 1 253 2 is_stmt 1 view .LVU120
 703 0006 4FF0FF33 		mov	r3, #-1
 704 000a 0293     		str	r3, [sp, #8]
 705 000c 0623     		movs	r3, #6
 706 000e 0193     		str	r3, [sp, #4]
 707 0010 1F4D     		ldr	r5, .L48
 708 0012 0095     		str	r5, [sp]
 709 0014 0123     		movs	r3, #1
 710 0016 E822     		movs	r2, #232
 711 0018 3C21     		movs	r1, #60
 712 001a 1E48     		ldr	r0, .L48+4
 713              	.LVL43:
 714              		.loc 1 253 2 is_stmt 0 view .LVU121
 715 001c 0068     		ldr	r0, [r0]
 716 001e FFF7FEFF 		bl	HAL_I2C_Mem_Read
 717              	.LVL44:
 254:../../core/drivers/LSM303AGR/src/LSM303AGRSensor.c **** 	LSM303AGR_MAG_MULTI_READ, I2C_MEMADD_SIZE_8BIT, magRegisterData,
 255:../../core/drivers/LSM303AGR/src/LSM303AGRSensor.c **** 			sizeof(magRegisterData), HAL_MAX_DELAY);
 256:../../core/drivers/LSM303AGR/src/LSM303AGRSensor.c **** 
 257:../../core/drivers/LSM303AGR/src/LSM303AGRSensor.c **** 	magRawData[0] = (magRegisterData[1] << 8)
 718              		.loc 1 257 2 is_stmt 1 view .LVU122
 719              		.loc 1 257 34 is_stmt 0 view .LVU123
 720 0022 6A78     		ldrb	r2, [r5, #1]	@ zero_extendqisi2
 258:../../core/drivers/LSM303AGR/src/LSM303AGRSensor.c **** 			| magRegisterData[0];
 721              		.loc 1 258 21 view .LVU124
 722 0024 2B78     		ldrb	r3, [r5]	@ zero_extendqisi2
 723              		.loc 1 258 4 view .LVU125
 724 0026 43EA0223 		orr	r3, r3, r2, lsl #8
ARM GAS  C:\Users\yvesk\AppData\Local\Temp\ccEdRFGi.s 			page 18


 725 002a 1BB2     		sxth	r3, r3
 257:../../core/drivers/LSM303AGR/src/LSM303AGRSensor.c **** 			| magRegisterData[0];
 726              		.loc 1 257 16 view .LVU126
 727 002c 1A4A     		ldr	r2, .L48+8
 728 002e 1380     		strh	r3, [r2]	@ movhi
 259:../../core/drivers/LSM303AGR/src/LSM303AGRSensor.c **** 	magRawData[1] = (magRegisterData[3] << 8)
 729              		.loc 1 259 2 is_stmt 1 view .LVU127
 730              		.loc 1 259 34 is_stmt 0 view .LVU128
 731 0030 E878     		ldrb	r0, [r5, #3]	@ zero_extendqisi2
 260:../../core/drivers/LSM303AGR/src/LSM303AGRSensor.c **** 			| magRegisterData[2];
 732              		.loc 1 260 21 view .LVU129
 733 0032 A978     		ldrb	r1, [r5, #2]	@ zero_extendqisi2
 734              		.loc 1 260 4 view .LVU130
 735 0034 41EA0021 		orr	r1, r1, r0, lsl #8
 259:../../core/drivers/LSM303AGR/src/LSM303AGRSensor.c **** 	magRawData[1] = (magRegisterData[3] << 8)
 736              		.loc 1 259 16 view .LVU131
 737 0038 5180     		strh	r1, [r2, #2]	@ movhi
 261:../../core/drivers/LSM303AGR/src/LSM303AGRSensor.c **** 	magRawData[2] = (magRegisterData[5] << 8)
 738              		.loc 1 261 2 is_stmt 1 view .LVU132
 739              		.loc 1 261 34 is_stmt 0 view .LVU133
 740 003a 6879     		ldrb	r0, [r5, #5]	@ zero_extendqisi2
 262:../../core/drivers/LSM303AGR/src/LSM303AGRSensor.c **** 			| magRegisterData[4];
 741              		.loc 1 262 21 view .LVU134
 742 003c 2979     		ldrb	r1, [r5, #4]	@ zero_extendqisi2
 743              		.loc 1 262 4 view .LVU135
 744 003e 41EA0021 		orr	r1, r1, r0, lsl #8
 261:../../core/drivers/LSM303AGR/src/LSM303AGRSensor.c **** 	magRawData[2] = (magRegisterData[5] << 8)
 745              		.loc 1 261 16 view .LVU136
 746 0042 9180     		strh	r1, [r2, #4]	@ movhi
 263:../../core/drivers/LSM303AGR/src/LSM303AGRSensor.c **** 
 264:../../core/drivers/LSM303AGR/src/LSM303AGRSensor.c **** 	/* Calculate the data. */
 265:../../core/drivers/LSM303AGR/src/LSM303AGRSensor.c **** 	pData[0] = (int32_t) (magRawData[0] * 1.5f);
 747              		.loc 1 265 2 is_stmt 1 view .LVU137
 748              		.loc 1 265 38 is_stmt 0 view .LVU138
 749 0044 07EE903A 		vmov	s15, r3	@ int
 750 0048 F8EEE77A 		vcvt.f32.s32	s15, s15
 751 004c F7EE086A 		vmov.f32	s13, #1.5e+0
 752 0050 67EEA67A 		vmul.f32	s15, s15, s13
 753              		.loc 1 265 13 view .LVU139
 754 0054 FDEEE77A 		vcvt.s32.f32	s15, s15
 755              		.loc 1 265 11 view .LVU140
 756 0058 C4ED007A 		vstr.32	s15, [r4]	@ int
 266:../../core/drivers/LSM303AGR/src/LSM303AGRSensor.c **** 	pData[1] = (int32_t) (magRawData[1] * 1.5f);
 757              		.loc 1 266 2 is_stmt 1 view .LVU141
 758              		.loc 1 266 34 is_stmt 0 view .LVU142
 759 005c B2F90230 		ldrsh	r3, [r2, #2]
 760 0060 07EE103A 		vmov	s14, r3	@ int
 761              		.loc 1 266 38 view .LVU143
 762 0064 B8EEC77A 		vcvt.f32.s32	s14, s14
 763 0068 27EE267A 		vmul.f32	s14, s14, s13
 764              		.loc 1 266 13 view .LVU144
 765 006c BDEEC77A 		vcvt.s32.f32	s14, s14
 766              		.loc 1 266 11 view .LVU145
 767 0070 84ED017A 		vstr.32	s14, [r4, #4]	@ int
 267:../../core/drivers/LSM303AGR/src/LSM303AGRSensor.c **** 	pData[2] = (int32_t) (magRawData[2] * 1.5f);
 768              		.loc 1 267 2 is_stmt 1 view .LVU146
 769              		.loc 1 267 34 is_stmt 0 view .LVU147
ARM GAS  C:\Users\yvesk\AppData\Local\Temp\ccEdRFGi.s 			page 19


 770 0074 B2F90430 		ldrsh	r3, [r2, #4]
 771 0078 07EE903A 		vmov	s15, r3	@ int
 772              		.loc 1 267 38 view .LVU148
 773 007c F8EEE77A 		vcvt.f32.s32	s15, s15
 774 0080 67EEA67A 		vmul.f32	s15, s15, s13
 775              		.loc 1 267 13 view .LVU149
 776 0084 FDEEE77A 		vcvt.s32.f32	s15, s15
 777              		.loc 1 267 11 view .LVU150
 778 0088 C4ED027A 		vstr.32	s15, [r4, #8]	@ int
 268:../../core/drivers/LSM303AGR/src/LSM303AGRSensor.c **** 
 269:../../core/drivers/LSM303AGR/src/LSM303AGRSensor.c **** }
 779              		.loc 1 269 1 view .LVU151
 780 008c 05B0     		add	sp, sp, #20
 781              	.LCFI20:
 782              		.cfi_def_cfa_offset 12
 783              		@ sp needed
 784 008e 30BD     		pop	{r4, r5, pc}
 785              	.LVL45:
 786              	.L49:
 787              		.loc 1 269 1 view .LVU152
 788              		.align	2
 789              	.L48:
 790 0090 00000000 		.word	magRegisterData
 791 0094 00000000 		.word	LSM303AGR_hi2c
 792 0098 00000000 		.word	magRawData
 793              		.cfi_endproc
 794              	.LFE134:
 796              		.section	.text.LSM303AGR_MAG_readMagneticRawData,"ax",%progbits
 797              		.align	1
 798              		.global	LSM303AGR_MAG_readMagneticRawData
 799              		.syntax unified
 800              		.thumb
 801              		.thumb_func
 802              		.fpu fpv4-sp-d16
 804              	LSM303AGR_MAG_readMagneticRawData:
 805              	.LVL46:
 806              	.LFB135:
 270:../../core/drivers/LSM303AGR/src/LSM303AGRSensor.c **** 
 271:../../core/drivers/LSM303AGR/src/LSM303AGRSensor.c **** /**
 272:../../core/drivers/LSM303AGR/src/LSM303AGRSensor.c ****  * Read the output registers of the magnetometer
 273:../../core/drivers/LSM303AGR/src/LSM303AGRSensor.c ****  * @param pData: a pointer to where the data needs to be stored
 274:../../core/drivers/LSM303AGR/src/LSM303AGRSensor.c ****  */
 275:../../core/drivers/LSM303AGR/src/LSM303AGRSensor.c **** void LSM303AGR_MAG_readMagneticRawData(uint16_t *pData) {
 807              		.loc 1 275 57 is_stmt 1 view -0
 808              		.cfi_startproc
 809              		@ args = 0, pretend = 0, frame = 0
 810              		@ frame_needed = 0, uses_anonymous_args = 0
 811              		.loc 1 275 57 is_stmt 0 view .LVU154
 812 0000 30B5     		push	{r4, r5, lr}
 813              	.LCFI21:
 814              		.cfi_def_cfa_offset 12
 815              		.cfi_offset 4, -12
 816              		.cfi_offset 5, -8
 817              		.cfi_offset 14, -4
 818 0002 85B0     		sub	sp, sp, #20
 819              	.LCFI22:
 820              		.cfi_def_cfa_offset 32
ARM GAS  C:\Users\yvesk\AppData\Local\Temp\ccEdRFGi.s 			page 20


 821 0004 0546     		mov	r5, r0
 276:../../core/drivers/LSM303AGR/src/LSM303AGRSensor.c **** 	//magRegisterData[6];
 277:../../core/drivers/LSM303AGR/src/LSM303AGRSensor.c **** 			//magRawData[3];
 278:../../core/drivers/LSM303AGR/src/LSM303AGRSensor.c **** 	//LSM303AGR_MAG_TEMP_DATA rawData;
 279:../../core/drivers/LSM303AGR/src/LSM303AGRSensor.c **** 
 280:../../core/drivers/LSM303AGR/src/LSM303AGRSensor.c **** 	HAL_I2C_Mem_Read(LSM303AGR_hi2c, LSM303AGR_MAG_I2C_ADDRESS,
 822              		.loc 1 280 2 is_stmt 1 view .LVU155
 823 0006 4FF0FF33 		mov	r3, #-1
 824 000a 0293     		str	r3, [sp, #8]
 825 000c 0623     		movs	r3, #6
 826 000e 0193     		str	r3, [sp, #4]
 827 0010 0C4C     		ldr	r4, .L52
 828 0012 0094     		str	r4, [sp]
 829 0014 0123     		movs	r3, #1
 830 0016 E822     		movs	r2, #232
 831 0018 3C21     		movs	r1, #60
 832 001a 0B48     		ldr	r0, .L52+4
 833              	.LVL47:
 834              		.loc 1 280 2 is_stmt 0 view .LVU156
 835 001c 0068     		ldr	r0, [r0]
 836 001e FFF7FEFF 		bl	HAL_I2C_Mem_Read
 837              	.LVL48:
 281:../../core/drivers/LSM303AGR/src/LSM303AGRSensor.c **** 	LSM303AGR_MAG_MULTI_READ, I2C_MEMADD_SIZE_8BIT, magRegisterData,
 282:../../core/drivers/LSM303AGR/src/LSM303AGRSensor.c **** 			sizeof(magRegisterData), HAL_MAX_DELAY);
 283:../../core/drivers/LSM303AGR/src/LSM303AGRSensor.c **** 
 284:../../core/drivers/LSM303AGR/src/LSM303AGRSensor.c **** 	pData[0] = (magRegisterData[1] << 8)
 838              		.loc 1 284 2 is_stmt 1 view .LVU157
 839              		.loc 1 284 29 is_stmt 0 view .LVU158
 840 0022 6278     		ldrb	r2, [r4, #1]	@ zero_extendqisi2
 285:../../core/drivers/LSM303AGR/src/LSM303AGRSensor.c **** 			| magRegisterData[0];
 841              		.loc 1 285 21 view .LVU159
 842 0024 2378     		ldrb	r3, [r4]	@ zero_extendqisi2
 843              		.loc 1 285 4 view .LVU160
 844 0026 43EA0223 		orr	r3, r3, r2, lsl #8
 284:../../core/drivers/LSM303AGR/src/LSM303AGRSensor.c **** 			| magRegisterData[0];
 845              		.loc 1 284 11 view .LVU161
 846 002a 2B80     		strh	r3, [r5]	@ movhi
 286:../../core/drivers/LSM303AGR/src/LSM303AGRSensor.c **** 	pData[1] = (magRegisterData[3] << 8)
 847              		.loc 1 286 2 is_stmt 1 view .LVU162
 848              		.loc 1 286 29 is_stmt 0 view .LVU163
 849 002c E278     		ldrb	r2, [r4, #3]	@ zero_extendqisi2
 287:../../core/drivers/LSM303AGR/src/LSM303AGRSensor.c **** 			| magRegisterData[2];
 850              		.loc 1 287 21 view .LVU164
 851 002e A378     		ldrb	r3, [r4, #2]	@ zero_extendqisi2
 852              		.loc 1 287 4 view .LVU165
 853 0030 43EA0223 		orr	r3, r3, r2, lsl #8
 286:../../core/drivers/LSM303AGR/src/LSM303AGRSensor.c **** 	pData[1] = (magRegisterData[3] << 8)
 854              		.loc 1 286 11 view .LVU166
 855 0034 6B80     		strh	r3, [r5, #2]	@ movhi
 288:../../core/drivers/LSM303AGR/src/LSM303AGRSensor.c **** 	pData[2] = (magRegisterData[5] << 8)
 856              		.loc 1 288 2 is_stmt 1 view .LVU167
 857              		.loc 1 288 29 is_stmt 0 view .LVU168
 858 0036 6279     		ldrb	r2, [r4, #5]	@ zero_extendqisi2
 289:../../core/drivers/LSM303AGR/src/LSM303AGRSensor.c **** 			| magRegisterData[4];
 859              		.loc 1 289 21 view .LVU169
 860 0038 2379     		ldrb	r3, [r4, #4]	@ zero_extendqisi2
 861              		.loc 1 289 4 view .LVU170
ARM GAS  C:\Users\yvesk\AppData\Local\Temp\ccEdRFGi.s 			page 21


 862 003a 43EA0223 		orr	r3, r3, r2, lsl #8
 288:../../core/drivers/LSM303AGR/src/LSM303AGRSensor.c **** 	pData[2] = (magRegisterData[5] << 8)
 863              		.loc 1 288 11 view .LVU171
 864 003e AB80     		strh	r3, [r5, #4]	@ movhi
 290:../../core/drivers/LSM303AGR/src/LSM303AGRSensor.c **** 
 291:../../core/drivers/LSM303AGR/src/LSM303AGRSensor.c **** 
 292:../../core/drivers/LSM303AGR/src/LSM303AGRSensor.c **** }
 865              		.loc 1 292 1 view .LVU172
 866 0040 05B0     		add	sp, sp, #20
 867              	.LCFI23:
 868              		.cfi_def_cfa_offset 12
 869              		@ sp needed
 870 0042 30BD     		pop	{r4, r5, pc}
 871              	.LVL49:
 872              	.L53:
 873              		.loc 1 292 1 view .LVU173
 874              		.align	2
 875              	.L52:
 876 0044 00000000 		.word	magRegisterData
 877 0048 00000000 		.word	LSM303AGR_hi2c
 878              		.cfi_endproc
 879              	.LFE135:
 881              		.section	.text.LSM303AGR_ACC_readAccelerationRawData,"ax",%progbits
 882              		.align	1
 883              		.global	LSM303AGR_ACC_readAccelerationRawData
 884              		.syntax unified
 885              		.thumb
 886              		.thumb_func
 887              		.fpu fpv4-sp-d16
 889              	LSM303AGR_ACC_readAccelerationRawData:
 890              	.LVL50:
 891              	.LFB136:
 293:../../core/drivers/LSM303AGR/src/LSM303AGRSensor.c **** 
 294:../../core/drivers/LSM303AGR/src/LSM303AGRSensor.c **** void LSM303AGR_ACC_readAccelerationRawData(uint16_t *pData) {
 892              		.loc 1 294 61 is_stmt 1 view -0
 893              		.cfi_startproc
 894              		@ args = 0, pretend = 0, frame = 0
 895              		@ frame_needed = 0, uses_anonymous_args = 0
 896              		.loc 1 294 61 is_stmt 0 view .LVU175
 897 0000 30B5     		push	{r4, r5, lr}
 898              	.LCFI24:
 899              		.cfi_def_cfa_offset 12
 900              		.cfi_offset 4, -12
 901              		.cfi_offset 5, -8
 902              		.cfi_offset 14, -4
 903 0002 85B0     		sub	sp, sp, #20
 904              	.LCFI25:
 905              		.cfi_def_cfa_offset 32
 906 0004 0546     		mov	r5, r0
 295:../../core/drivers/LSM303AGR/src/LSM303AGRSensor.c **** 	//accRegisterData[6];
 296:../../core/drivers/LSM303AGR/src/LSM303AGRSensor.c **** 	//accRawData[3];
 297:../../core/drivers/LSM303AGR/src/LSM303AGRSensor.c **** 
 298:../../core/drivers/LSM303AGR/src/LSM303AGRSensor.c **** 	//magRegisterData[6];
 299:../../core/drivers/LSM303AGR/src/LSM303AGRSensor.c **** 	//magRawData[3];
 300:../../core/drivers/LSM303AGR/src/LSM303AGRSensor.c **** 	//LSM303AGR_ACC_TEMP_DATA rawData;
 301:../../core/drivers/LSM303AGR/src/LSM303AGRSensor.c **** 
 302:../../core/drivers/LSM303AGR/src/LSM303AGRSensor.c **** 	HAL_I2C_Mem_Read(LSM303AGR_hi2c, LSM303AGR_ACC_I2C_ADDRESS,	LSM303AGR_ACC_MULTI_READ, I2C_MEMADD_S
ARM GAS  C:\Users\yvesk\AppData\Local\Temp\ccEdRFGi.s 			page 22


 907              		.loc 1 302 2 is_stmt 1 view .LVU176
 908 0006 4FF0FF33 		mov	r3, #-1
 909 000a 0293     		str	r3, [sp, #8]
 910 000c 0623     		movs	r3, #6
 911 000e 0193     		str	r3, [sp, #4]
 912 0010 0C4C     		ldr	r4, .L56
 913 0012 0094     		str	r4, [sp]
 914 0014 0123     		movs	r3, #1
 915 0016 A822     		movs	r2, #168
 916 0018 3221     		movs	r1, #50
 917 001a 0B48     		ldr	r0, .L56+4
 918              	.LVL51:
 919              		.loc 1 302 2 is_stmt 0 view .LVU177
 920 001c 0068     		ldr	r0, [r0]
 921 001e FFF7FEFF 		bl	HAL_I2C_Mem_Read
 922              	.LVL52:
 303:../../core/drivers/LSM303AGR/src/LSM303AGRSensor.c **** 
 304:../../core/drivers/LSM303AGR/src/LSM303AGRSensor.c **** 	pData[0] = (accRegisterData[1] << 8)	| accRegisterData[0];
 923              		.loc 1 304 2 is_stmt 1 view .LVU178
 924              		.loc 1 304 29 is_stmt 0 view .LVU179
 925 0022 6278     		ldrb	r2, [r4, #1]	@ zero_extendqisi2
 926              		.loc 1 304 56 view .LVU180
 927 0024 2378     		ldrb	r3, [r4]	@ zero_extendqisi2
 928              		.loc 1 304 39 view .LVU181
 929 0026 43EA0223 		orr	r3, r3, r2, lsl #8
 930              		.loc 1 304 11 view .LVU182
 931 002a 2B80     		strh	r3, [r5]	@ movhi
 305:../../core/drivers/LSM303AGR/src/LSM303AGRSensor.c **** 	pData[1] = (accRegisterData[3] << 8)| accRegisterData[2];
 932              		.loc 1 305 2 is_stmt 1 view .LVU183
 933              		.loc 1 305 29 is_stmt 0 view .LVU184
 934 002c E278     		ldrb	r2, [r4, #3]	@ zero_extendqisi2
 935              		.loc 1 305 55 view .LVU185
 936 002e A378     		ldrb	r3, [r4, #2]	@ zero_extendqisi2
 937              		.loc 1 305 38 view .LVU186
 938 0030 43EA0223 		orr	r3, r3, r2, lsl #8
 939              		.loc 1 305 11 view .LVU187
 940 0034 6B80     		strh	r3, [r5, #2]	@ movhi
 306:../../core/drivers/LSM303AGR/src/LSM303AGRSensor.c **** 	pData[2] = (accRegisterData[5] << 8)| accRegisterData[4];
 941              		.loc 1 306 2 is_stmt 1 view .LVU188
 942              		.loc 1 306 29 is_stmt 0 view .LVU189
 943 0036 6279     		ldrb	r2, [r4, #5]	@ zero_extendqisi2
 944              		.loc 1 306 55 view .LVU190
 945 0038 2379     		ldrb	r3, [r4, #4]	@ zero_extendqisi2
 946              		.loc 1 306 38 view .LVU191
 947 003a 43EA0223 		orr	r3, r3, r2, lsl #8
 948              		.loc 1 306 11 view .LVU192
 949 003e AB80     		strh	r3, [r5, #4]	@ movhi
 307:../../core/drivers/LSM303AGR/src/LSM303AGRSensor.c **** 
 308:../../core/drivers/LSM303AGR/src/LSM303AGRSensor.c **** 	/* Apply proper shift and sensitivity */
 309:../../core/drivers/LSM303AGR/src/LSM303AGRSensor.c **** 	// Normal mode 10-bit, shift = 6 and FS = 2
 310:../../core/drivers/LSM303AGR/src/LSM303AGRSensor.c **** 	//pData[0] = (int32_t) (((accRawData[0] >> 6) * 3900 + 500) / 1000);
 311:../../core/drivers/LSM303AGR/src/LSM303AGRSensor.c **** 	//pData[1] = (int32_t) (((accRawData[1] >> 6) * 3900 + 500) / 1000);
 312:../../core/drivers/LSM303AGR/src/LSM303AGRSensor.c **** 	//pData[2] = (int32_t) (((accRawData[2] >> 6) * 3900 + 500) / 1000);
 313:../../core/drivers/LSM303AGR/src/LSM303AGRSensor.c **** 
 314:../../core/drivers/LSM303AGR/src/LSM303AGRSensor.c **** }
 950              		.loc 1 314 1 view .LVU193
 951 0040 05B0     		add	sp, sp, #20
ARM GAS  C:\Users\yvesk\AppData\Local\Temp\ccEdRFGi.s 			page 23


 952              	.LCFI26:
 953              		.cfi_def_cfa_offset 12
 954              		@ sp needed
 955 0042 30BD     		pop	{r4, r5, pc}
 956              	.LVL53:
 957              	.L57:
 958              		.loc 1 314 1 view .LVU194
 959              		.align	2
 960              	.L56:
 961 0044 00000000 		.word	accRegisterData
 962 0048 00000000 		.word	LSM303AGR_hi2c
 963              		.cfi_endproc
 964              	.LFE136:
 966              		.comm	magRawData,6,4
 967              		.comm	magRegisterData,6,4
 968              		.comm	accRawData,6,4
 969              		.comm	accRegisterData,6,4
 970              		.comm	LSM303AGR_hi2c,4,4
 971              		.comm	LSM303AGR_setting,1,1
 972              		.text
 973              	.Letext0:
 974              		.file 2 "c:\\program files (x86)\\gnu tools arm embedded\\8 2019-q3-update\\arm-none-eabi\\include
 975              		.file 3 "c:\\program files (x86)\\gnu tools arm embedded\\8 2019-q3-update\\arm-none-eabi\\include
 976              		.file 4 "../../core/ST/CMSIS/Include/core_cm4.h"
 977              		.file 5 "../../core/ST/CMSIS/Device/ST/STM32L4xx/Include/system_stm32l4xx.h"
 978              		.file 6 "../../core/ST/CMSIS/Device/ST/STM32L4xx/Include/stm32l496xx.h"
 979              		.file 7 "../../core/ST/STM32L4xx_HAL_Driver/Inc/stm32l4xx_hal_def.h"
 980              		.file 8 "../../core/ST/STM32L4xx_HAL_Driver/Inc/stm32l4xx_hal_dma.h"
 981              		.file 9 "../../core/ST/STM32L4xx_HAL_Driver/Inc/stm32l4xx_hal_i2c.h"
 982              		.file 10 "../../core/ST/STM32L4xx_HAL_Driver/Inc/stm32l4xx_hal.h"
 983              		.file 11 "../../core/drivers/LSM303AGR/inc/LSM303AGRSensor.h"
ARM GAS  C:\Users\yvesk\AppData\Local\Temp\ccEdRFGi.s 			page 24


DEFINED SYMBOLS
                            *ABS*:00000000 LSM303AGRSensor.c
C:\Users\yvesk\AppData\Local\Temp\ccEdRFGi.s:18     .text.LSM303AGR_setI2CInterface:00000000 $t
C:\Users\yvesk\AppData\Local\Temp\ccEdRFGi.s:26     .text.LSM303AGR_setI2CInterface:00000000 LSM303AGR_setI2CInterface
C:\Users\yvesk\AppData\Local\Temp\ccEdRFGi.s:44     .text.LSM303AGR_setI2CInterface:00000008 $d
                            *COM*:00000004 LSM303AGR_hi2c
C:\Users\yvesk\AppData\Local\Temp\ccEdRFGi.s:49     .text.LSM303AGR_readRegister:00000000 $t
C:\Users\yvesk\AppData\Local\Temp\ccEdRFGi.s:56     .text.LSM303AGR_readRegister:00000000 LSM303AGR_readRegister
C:\Users\yvesk\AppData\Local\Temp\ccEdRFGi.s:132    .text.LSM303AGR_readRegister:0000004c $d
C:\Users\yvesk\AppData\Local\Temp\ccEdRFGi.s:137    .text.LSM303AGR_writeRegister:00000000 $t
C:\Users\yvesk\AppData\Local\Temp\ccEdRFGi.s:144    .text.LSM303AGR_writeRegister:00000000 LSM303AGR_writeRegister
C:\Users\yvesk\AppData\Local\Temp\ccEdRFGi.s:220    .text.LSM303AGR_writeRegister:0000004c $d
C:\Users\yvesk\AppData\Local\Temp\ccEdRFGi.s:225    .text.LSM303AGR_init:00000000 $t
C:\Users\yvesk\AppData\Local\Temp\ccEdRFGi.s:232    .text.LSM303AGR_init:00000000 LSM303AGR_init
C:\Users\yvesk\AppData\Local\Temp\ccEdRFGi.s:315    .text.LSM303AGR_ACC_reset:00000000 $t
C:\Users\yvesk\AppData\Local\Temp\ccEdRFGi.s:322    .text.LSM303AGR_ACC_reset:00000000 LSM303AGR_ACC_reset
C:\Users\yvesk\AppData\Local\Temp\ccEdRFGi.s:348    .text.LSM303AGR_ACC_reset:00000014 $d
                            *COM*:00000001 LSM303AGR_setting
C:\Users\yvesk\AppData\Local\Temp\ccEdRFGi.s:353    .text.LSM303AGR_MAG_reset:00000000 $t
C:\Users\yvesk\AppData\Local\Temp\ccEdRFGi.s:360    .text.LSM303AGR_MAG_reset:00000000 LSM303AGR_MAG_reset
C:\Users\yvesk\AppData\Local\Temp\ccEdRFGi.s:386    .text.LSM303AGR_MAG_reset:00000014 $d
C:\Users\yvesk\AppData\Local\Temp\ccEdRFGi.s:391    .text.LSM303AGR_powerDownAccelerometer:00000000 $t
C:\Users\yvesk\AppData\Local\Temp\ccEdRFGi.s:398    .text.LSM303AGR_powerDownAccelerometer:00000000 LSM303AGR_powerDownAccelerometer
C:\Users\yvesk\AppData\Local\Temp\ccEdRFGi.s:424    .text.LSM303AGR_powerDownAccelerometer:00000014 $d
C:\Users\yvesk\AppData\Local\Temp\ccEdRFGi.s:429    .text.LSM303AGR_powerDownMagnetometer:00000000 $t
C:\Users\yvesk\AppData\Local\Temp\ccEdRFGi.s:436    .text.LSM303AGR_powerDownMagnetometer:00000000 LSM303AGR_powerDownMagnetometer
C:\Users\yvesk\AppData\Local\Temp\ccEdRFGi.s:462    .text.LSM303AGR_powerDownMagnetometer:00000014 $d
C:\Users\yvesk\AppData\Local\Temp\ccEdRFGi.s:467    .text.LSM303AGR_wakeUpAccelerometer:00000000 $t
C:\Users\yvesk\AppData\Local\Temp\ccEdRFGi.s:474    .text.LSM303AGR_wakeUpAccelerometer:00000000 LSM303AGR_wakeUpAccelerometer
C:\Users\yvesk\AppData\Local\Temp\ccEdRFGi.s:500    .text.LSM303AGR_wakeUpAccelerometer:00000014 $d
C:\Users\yvesk\AppData\Local\Temp\ccEdRFGi.s:505    .text.LSM303AGR_wakeUpMagnetometer:00000000 $t
C:\Users\yvesk\AppData\Local\Temp\ccEdRFGi.s:512    .text.LSM303AGR_wakeUpMagnetometer:00000000 LSM303AGR_wakeUpMagnetometer
C:\Users\yvesk\AppData\Local\Temp\ccEdRFGi.s:538    .text.LSM303AGR_wakeUpMagnetometer:00000014 $d
C:\Users\yvesk\AppData\Local\Temp\ccEdRFGi.s:543    .text.LSM303AGR_ACC_readAccelerationData:00000000 $t
C:\Users\yvesk\AppData\Local\Temp\ccEdRFGi.s:550    .text.LSM303AGR_ACC_readAccelerationData:00000000 LSM303AGR_ACC_readAccelerationData
C:\Users\yvesk\AppData\Local\Temp\ccEdRFGi.s:669    .text.LSM303AGR_ACC_readAccelerationData:00000098 $d
                            *COM*:00000006 accRegisterData
                            *COM*:00000006 accRawData
C:\Users\yvesk\AppData\Local\Temp\ccEdRFGi.s:677    .text.LSM303AGR_MAG_readMagneticData:00000000 $t
C:\Users\yvesk\AppData\Local\Temp\ccEdRFGi.s:684    .text.LSM303AGR_MAG_readMagneticData:00000000 LSM303AGR_MAG_readMagneticData
C:\Users\yvesk\AppData\Local\Temp\ccEdRFGi.s:790    .text.LSM303AGR_MAG_readMagneticData:00000090 $d
                            *COM*:00000006 magRegisterData
                            *COM*:00000006 magRawData
C:\Users\yvesk\AppData\Local\Temp\ccEdRFGi.s:797    .text.LSM303AGR_MAG_readMagneticRawData:00000000 $t
C:\Users\yvesk\AppData\Local\Temp\ccEdRFGi.s:804    .text.LSM303AGR_MAG_readMagneticRawData:00000000 LSM303AGR_MAG_readMagneticRawData
C:\Users\yvesk\AppData\Local\Temp\ccEdRFGi.s:876    .text.LSM303AGR_MAG_readMagneticRawData:00000044 $d
C:\Users\yvesk\AppData\Local\Temp\ccEdRFGi.s:882    .text.LSM303AGR_ACC_readAccelerationRawData:00000000 $t
C:\Users\yvesk\AppData\Local\Temp\ccEdRFGi.s:889    .text.LSM303AGR_ACC_readAccelerationRawData:00000000 LSM303AGR_ACC_readAccelerationRawData
C:\Users\yvesk\AppData\Local\Temp\ccEdRFGi.s:961    .text.LSM303AGR_ACC_readAccelerationRawData:00000044 $d

UNDEFINED SYMBOLS
HAL_I2C_Mem_Read
HAL_I2C_Mem_Write
