ARM GAS  C:\Users\yvesk\AppData\Local\Temp\ccdu3E1X.s 			page 1


   1              		.cpu cortex-m4
   2              		.eabi_attribute 27, 1
   3              		.eabi_attribute 28, 1
   4              		.eabi_attribute 20, 1
   5              		.eabi_attribute 21, 1
   6              		.eabi_attribute 23, 3
   7              		.eabi_attribute 24, 1
   8              		.eabi_attribute 25, 1
   9              		.eabi_attribute 26, 1
  10              		.eabi_attribute 30, 1
  11              		.eabi_attribute 34, 1
  12              		.eabi_attribute 18, 4
  13              		.file	"LSM303AGRSensor.c"
  14              		.text
  15              	.Ltext0:
  16              		.cfi_sections	.debug_frame
  17              		.section	.text.LSM303AGR_setI2CInterface,"ax",%progbits
  18              		.align	1
  19              		.global	LSM303AGR_setI2CInterface
  20              		.arch armv7e-m
  21              		.syntax unified
  22              		.thumb
  23              		.thumb_func
  24              		.fpu fpv4-sp-d16
  26              	LSM303AGR_setI2CInterface:
  27              	.LVL0:
  28              	.LFB123:
  29              		.file 1 "../../core/drivers/LSM303AGR/src/LSM303AGRSensor.c"
   1:../../core/drivers/LSM303AGR/src/LSM303AGRSensor.c **** #include "LSM303AGRSensor.h"
   2:../../core/drivers/LSM303AGR/src/LSM303AGRSensor.c **** 
   3:../../core/drivers/LSM303AGR/src/LSM303AGRSensor.c **** 
   4:../../core/drivers/LSM303AGR/src/LSM303AGRSensor.c **** /**
   5:../../core/drivers/LSM303AGR/src/LSM303AGRSensor.c ****  * Sets the I2C interface for the LSM303AGR
   6:../../core/drivers/LSM303AGR/src/LSM303AGRSensor.c ****  * @param hi2c: the I2C interface
   7:../../core/drivers/LSM303AGR/src/LSM303AGRSensor.c ****  */
   8:../../core/drivers/LSM303AGR/src/LSM303AGRSensor.c **** void LSM303AGR_setI2CInterface(I2C_HandleTypeDef *hi2c) {
  30              		.loc 1 8 57 view -0
  31              		.cfi_startproc
  32              		@ args = 0, pretend = 0, frame = 0
  33              		@ frame_needed = 0, uses_anonymous_args = 0
  34              		@ link register save eliminated.
   9:../../core/drivers/LSM303AGR/src/LSM303AGRSensor.c **** 
  10:../../core/drivers/LSM303AGR/src/LSM303AGRSensor.c **** 	LSM303AGR_hi2c = hi2c;
  35              		.loc 1 10 2 view .LVU1
  36              		.loc 1 10 17 is_stmt 0 view .LVU2
  37 0000 014B     		ldr	r3, .L2
  38 0002 1860     		str	r0, [r3]
  11:../../core/drivers/LSM303AGR/src/LSM303AGRSensor.c **** }
  39              		.loc 1 11 1 view .LVU3
  40 0004 7047     		bx	lr
  41              	.L3:
  42 0006 00BF     		.align	2
  43              	.L2:
  44 0008 00000000 		.word	LSM303AGR_hi2c
  45              		.cfi_endproc
  46              	.LFE123:
  48              		.section	.text.LSM303AGR_readRegister,"ax",%progbits
ARM GAS  C:\Users\yvesk\AppData\Local\Temp\ccdu3E1X.s 			page 2


  49              		.align	1
  50              		.global	LSM303AGR_readRegister
  51              		.syntax unified
  52              		.thumb
  53              		.thumb_func
  54              		.fpu fpv4-sp-d16
  56              	LSM303AGR_readRegister:
  57              	.LVL1:
  58              	.LFB124:
  12:../../core/drivers/LSM303AGR/src/LSM303AGRSensor.c **** 
  13:../../core/drivers/LSM303AGR/src/LSM303AGRSensor.c **** /**
  14:../../core/drivers/LSM303AGR/src/LSM303AGRSensor.c ****  * Read a certain register of the LSM303AGR depending on the value of ACC_MAG:
  15:../../core/drivers/LSM303AGR/src/LSM303AGRSensor.c ****  * 		- if this value is 0: read out a register of the accelerometer
  16:../../core/drivers/LSM303AGR/src/LSM303AGRSensor.c ****  * 		- if this value is 1: read out a register of the magnetormeter
  17:../../core/drivers/LSM303AGR/src/LSM303AGRSensor.c ****  * The standard HAL library values are used for the size of the register and time-out.
  18:../../core/drivers/LSM303AGR/src/LSM303AGRSensor.c ****  * @param LSM303AGR_reg: the register that needs to be read of the LSM303AGR
  19:../../core/drivers/LSM303AGR/src/LSM303AGRSensor.c ****  * @param LSM303AGR_data: a pointer where the data of the register needs to be stored
  20:../../core/drivers/LSM303AGR/src/LSM303AGRSensor.c ****  * @param ACC_MAG: depending on the value a value a register of the accelerometer of magnetometer a
  21:../../core/drivers/LSM303AGR/src/LSM303AGRSensor.c ****  * @return returns the status of the I2C transfer
  22:../../core/drivers/LSM303AGR/src/LSM303AGRSensor.c ****  */
  23:../../core/drivers/LSM303AGR/src/LSM303AGRSensor.c **** HAL_StatusTypeDef LSM303AGR_readRegister(uint8_t LSM303AGR_reg,
  24:../../core/drivers/LSM303AGR/src/LSM303AGRSensor.c **** 		uint8_t LSM303AGR_data, uint8_t ACC_MAG) {
  59              		.loc 1 24 44 is_stmt 1 view -0
  60              		.cfi_startproc
  61              		@ args = 0, pretend = 0, frame = 8
  62              		@ frame_needed = 0, uses_anonymous_args = 0
  63              		.loc 1 24 44 is_stmt 0 view .LVU5
  64 0000 00B5     		push	{lr}
  65              	.LCFI0:
  66              		.cfi_def_cfa_offset 4
  67              		.cfi_offset 14, -4
  68 0002 87B0     		sub	sp, sp, #28
  69              	.LCFI1:
  70              		.cfi_def_cfa_offset 32
  71 0004 8DF81710 		strb	r1, [sp, #23]
  25:../../core/drivers/LSM303AGR/src/LSM303AGRSensor.c **** 
  26:../../core/drivers/LSM303AGR/src/LSM303AGRSensor.c **** 	if (ACC_MAG == 0) {
  72              		.loc 1 26 2 is_stmt 1 view .LVU6
  73              		.loc 1 26 5 is_stmt 0 view .LVU7
  74 0008 8AB9     		cbnz	r2, .L5
  27:../../core/drivers/LSM303AGR/src/LSM303AGRSensor.c **** 		HAL_I2C_Mem_Read(LSM303AGR_hi2c, LSM303AGR_ACC_I2C_ADDRESS,
  75              		.loc 1 27 3 is_stmt 1 view .LVU8
  76 000a 4FF0FF33 		mov	r3, #-1
  77 000e 0293     		str	r3, [sp, #8]
  78 0010 0123     		movs	r3, #1
  79 0012 0193     		str	r3, [sp, #4]
  80 0014 0DF11702 		add	r2, sp, #23
  81              	.LVL2:
  82              		.loc 1 27 3 is_stmt 0 view .LVU9
  83 0018 0092     		str	r2, [sp]
  84 001a 0246     		mov	r2, r0
  85 001c 3221     		movs	r1, #50
  86              	.LVL3:
  87              		.loc 1 27 3 view .LVU10
  88 001e 0B48     		ldr	r0, .L8
  89              	.LVL4:
  90              		.loc 1 27 3 view .LVU11
ARM GAS  C:\Users\yvesk\AppData\Local\Temp\ccdu3E1X.s 			page 3


  91 0020 0068     		ldr	r0, [r0]
  92 0022 FFF7FEFF 		bl	HAL_I2C_Mem_Read
  93              	.LVL5:
  94              	.L6:
  28:../../core/drivers/LSM303AGR/src/LSM303AGRSensor.c **** 				LSM303AGR_reg, I2C_MEMADD_SIZE_8BIT, &LSM303AGR_data,
  29:../../core/drivers/LSM303AGR/src/LSM303AGRSensor.c **** 				sizeof(LSM303AGR_data), HAL_MAX_DELAY);
  30:../../core/drivers/LSM303AGR/src/LSM303AGRSensor.c **** 	} else {
  31:../../core/drivers/LSM303AGR/src/LSM303AGRSensor.c **** 		HAL_I2C_Mem_Read(LSM303AGR_hi2c, LSM303AGR_MAG_I2C_ADDRESS,
  32:../../core/drivers/LSM303AGR/src/LSM303AGRSensor.c **** 				LSM303AGR_reg, I2C_MEMADD_SIZE_8BIT, &LSM303AGR_data,
  33:../../core/drivers/LSM303AGR/src/LSM303AGRSensor.c **** 				sizeof(LSM303AGR_data), HAL_MAX_DELAY);
  34:../../core/drivers/LSM303AGR/src/LSM303AGRSensor.c **** 	}
  35:../../core/drivers/LSM303AGR/src/LSM303AGRSensor.c **** 
  36:../../core/drivers/LSM303AGR/src/LSM303AGRSensor.c **** 	return HAL_OK;
  95              		.loc 1 36 2 is_stmt 1 view .LVU12
  37:../../core/drivers/LSM303AGR/src/LSM303AGRSensor.c **** }
  96              		.loc 1 37 1 is_stmt 0 view .LVU13
  97 0026 0020     		movs	r0, #0
  98 0028 07B0     		add	sp, sp, #28
  99              	.LCFI2:
 100              		.cfi_remember_state
 101              		.cfi_def_cfa_offset 4
 102              		@ sp needed
 103 002a 5DF804FB 		ldr	pc, [sp], #4
 104              	.LVL6:
 105              	.L5:
 106              	.LCFI3:
 107              		.cfi_restore_state
  31:../../core/drivers/LSM303AGR/src/LSM303AGRSensor.c **** 				LSM303AGR_reg, I2C_MEMADD_SIZE_8BIT, &LSM303AGR_data,
 108              		.loc 1 31 3 is_stmt 1 view .LVU14
 109 002e 4FF0FF33 		mov	r3, #-1
 110 0032 0293     		str	r3, [sp, #8]
 111 0034 0123     		movs	r3, #1
 112 0036 0193     		str	r3, [sp, #4]
 113 0038 0DF11702 		add	r2, sp, #23
 114              	.LVL7:
  31:../../core/drivers/LSM303AGR/src/LSM303AGRSensor.c **** 				LSM303AGR_reg, I2C_MEMADD_SIZE_8BIT, &LSM303AGR_data,
 115              		.loc 1 31 3 is_stmt 0 view .LVU15
 116 003c 0092     		str	r2, [sp]
 117 003e 0246     		mov	r2, r0
 118 0040 3C21     		movs	r1, #60
 119              	.LVL8:
  31:../../core/drivers/LSM303AGR/src/LSM303AGRSensor.c **** 				LSM303AGR_reg, I2C_MEMADD_SIZE_8BIT, &LSM303AGR_data,
 120              		.loc 1 31 3 view .LVU16
 121 0042 0248     		ldr	r0, .L8
 122              	.LVL9:
  31:../../core/drivers/LSM303AGR/src/LSM303AGRSensor.c **** 				LSM303AGR_reg, I2C_MEMADD_SIZE_8BIT, &LSM303AGR_data,
 123              		.loc 1 31 3 view .LVU17
 124 0044 0068     		ldr	r0, [r0]
 125 0046 FFF7FEFF 		bl	HAL_I2C_Mem_Read
 126              	.LVL10:
  31:../../core/drivers/LSM303AGR/src/LSM303AGRSensor.c **** 				LSM303AGR_reg, I2C_MEMADD_SIZE_8BIT, &LSM303AGR_data,
 127              		.loc 1 31 3 view .LVU18
 128 004a ECE7     		b	.L6
 129              	.L9:
 130              		.align	2
 131              	.L8:
 132 004c 00000000 		.word	LSM303AGR_hi2c
ARM GAS  C:\Users\yvesk\AppData\Local\Temp\ccdu3E1X.s 			page 4


 133              		.cfi_endproc
 134              	.LFE124:
 136              		.section	.text.LSM303AGR_writeRegister,"ax",%progbits
 137              		.align	1
 138              		.global	LSM303AGR_writeRegister
 139              		.syntax unified
 140              		.thumb
 141              		.thumb_func
 142              		.fpu fpv4-sp-d16
 144              	LSM303AGR_writeRegister:
 145              	.LVL11:
 146              	.LFB125:
  38:../../core/drivers/LSM303AGR/src/LSM303AGRSensor.c **** 
  39:../../core/drivers/LSM303AGR/src/LSM303AGRSensor.c **** /**
  40:../../core/drivers/LSM303AGR/src/LSM303AGRSensor.c ****  * Writes a cerain value to a certain register of the LSM303AGR depending on the value of ACC_MAG:
  41:../../core/drivers/LSM303AGR/src/LSM303AGRSensor.c ****  *   	- if this value is 0: write to a register of the accelerometer
  42:../../core/drivers/LSM303AGR/src/LSM303AGRSensor.c ****  * 		- if this value is 1: write to a register of the magnetormeter
  43:../../core/drivers/LSM303AGR/src/LSM303AGRSensor.c ****  * the standard HAL library values are used for the size of the register and time-out.
  44:../../core/drivers/LSM303AGR/src/LSM303AGRSensor.c ****  * @param LSM303AGR_reg: the register where data needs to be written to
  45:../../core/drivers/LSM303AGR/src/LSM303AGRSensor.c ****  * @param LSM303AGR_data: a pointer to the data that needs to be written
  46:../../core/drivers/LSM303AGR/src/LSM303AGRSensor.c ****  * @param ACC_MAG: depending on the value, a write is performed to the accelerometer of magnetomete
  47:../../core/drivers/LSM303AGR/src/LSM303AGRSensor.c ****  * @return returns the status of the I2C transfer
  48:../../core/drivers/LSM303AGR/src/LSM303AGRSensor.c ****  */
  49:../../core/drivers/LSM303AGR/src/LSM303AGRSensor.c **** HAL_StatusTypeDef LSM303AGR_writeRegister(uint8_t LSM303AGR_reg,
  50:../../core/drivers/LSM303AGR/src/LSM303AGRSensor.c **** 		uint8_t LSM303AGR_data, uint8_t ACC_MAG) {
 147              		.loc 1 50 44 is_stmt 1 view -0
 148              		.cfi_startproc
 149              		@ args = 0, pretend = 0, frame = 8
 150              		@ frame_needed = 0, uses_anonymous_args = 0
 151              		.loc 1 50 44 is_stmt 0 view .LVU20
 152 0000 00B5     		push	{lr}
 153              	.LCFI4:
 154              		.cfi_def_cfa_offset 4
 155              		.cfi_offset 14, -4
 156 0002 87B0     		sub	sp, sp, #28
 157              	.LCFI5:
 158              		.cfi_def_cfa_offset 32
 159 0004 8DF81710 		strb	r1, [sp, #23]
  51:../../core/drivers/LSM303AGR/src/LSM303AGRSensor.c **** 
  52:../../core/drivers/LSM303AGR/src/LSM303AGRSensor.c **** 	if (ACC_MAG == 0) {
 160              		.loc 1 52 2 is_stmt 1 view .LVU21
 161              		.loc 1 52 5 is_stmt 0 view .LVU22
 162 0008 8AB9     		cbnz	r2, .L11
  53:../../core/drivers/LSM303AGR/src/LSM303AGRSensor.c **** 		HAL_I2C_Mem_Write(LSM303AGR_hi2c, LSM303AGR_ACC_I2C_ADDRESS,
 163              		.loc 1 53 3 is_stmt 1 view .LVU23
 164 000a 4FF0FF33 		mov	r3, #-1
 165 000e 0293     		str	r3, [sp, #8]
 166 0010 0123     		movs	r3, #1
 167 0012 0193     		str	r3, [sp, #4]
 168 0014 0DF11702 		add	r2, sp, #23
 169              	.LVL12:
 170              		.loc 1 53 3 is_stmt 0 view .LVU24
 171 0018 0092     		str	r2, [sp]
 172 001a 0246     		mov	r2, r0
 173 001c 3221     		movs	r1, #50
 174              	.LVL13:
 175              		.loc 1 53 3 view .LVU25
ARM GAS  C:\Users\yvesk\AppData\Local\Temp\ccdu3E1X.s 			page 5


 176 001e 0B48     		ldr	r0, .L14
 177              	.LVL14:
 178              		.loc 1 53 3 view .LVU26
 179 0020 0068     		ldr	r0, [r0]
 180 0022 FFF7FEFF 		bl	HAL_I2C_Mem_Write
 181              	.LVL15:
 182              	.L12:
  54:../../core/drivers/LSM303AGR/src/LSM303AGRSensor.c **** 				LSM303AGR_reg, I2C_MEMADD_SIZE_8BIT, &LSM303AGR_data,
  55:../../core/drivers/LSM303AGR/src/LSM303AGRSensor.c **** 				sizeof(LSM303AGR_data), HAL_MAX_DELAY);
  56:../../core/drivers/LSM303AGR/src/LSM303AGRSensor.c **** 	} else {
  57:../../core/drivers/LSM303AGR/src/LSM303AGRSensor.c **** 		HAL_I2C_Mem_Write(LSM303AGR_hi2c, LSM303AGR_MAG_I2C_ADDRESS,
  58:../../core/drivers/LSM303AGR/src/LSM303AGRSensor.c **** 				LSM303AGR_reg, I2C_MEMADD_SIZE_8BIT, &LSM303AGR_data,
  59:../../core/drivers/LSM303AGR/src/LSM303AGRSensor.c **** 				sizeof(LSM303AGR_setting), HAL_MAX_DELAY);
  60:../../core/drivers/LSM303AGR/src/LSM303AGRSensor.c **** 	}
  61:../../core/drivers/LSM303AGR/src/LSM303AGRSensor.c **** 
  62:../../core/drivers/LSM303AGR/src/LSM303AGRSensor.c **** 	return HAL_OK;
 183              		.loc 1 62 2 is_stmt 1 view .LVU27
  63:../../core/drivers/LSM303AGR/src/LSM303AGRSensor.c **** 
  64:../../core/drivers/LSM303AGR/src/LSM303AGRSensor.c **** }
 184              		.loc 1 64 1 is_stmt 0 view .LVU28
 185 0026 0020     		movs	r0, #0
 186 0028 07B0     		add	sp, sp, #28
 187              	.LCFI6:
 188              		.cfi_remember_state
 189              		.cfi_def_cfa_offset 4
 190              		@ sp needed
 191 002a 5DF804FB 		ldr	pc, [sp], #4
 192              	.LVL16:
 193              	.L11:
 194              	.LCFI7:
 195              		.cfi_restore_state
  57:../../core/drivers/LSM303AGR/src/LSM303AGRSensor.c **** 				LSM303AGR_reg, I2C_MEMADD_SIZE_8BIT, &LSM303AGR_data,
 196              		.loc 1 57 3 is_stmt 1 view .LVU29
 197 002e 4FF0FF33 		mov	r3, #-1
 198 0032 0293     		str	r3, [sp, #8]
 199 0034 0123     		movs	r3, #1
 200 0036 0193     		str	r3, [sp, #4]
 201 0038 0DF11702 		add	r2, sp, #23
 202              	.LVL17:
  57:../../core/drivers/LSM303AGR/src/LSM303AGRSensor.c **** 				LSM303AGR_reg, I2C_MEMADD_SIZE_8BIT, &LSM303AGR_data,
 203              		.loc 1 57 3 is_stmt 0 view .LVU30
 204 003c 0092     		str	r2, [sp]
 205 003e 0246     		mov	r2, r0
 206 0040 3C21     		movs	r1, #60
 207              	.LVL18:
  57:../../core/drivers/LSM303AGR/src/LSM303AGRSensor.c **** 				LSM303AGR_reg, I2C_MEMADD_SIZE_8BIT, &LSM303AGR_data,
 208              		.loc 1 57 3 view .LVU31
 209 0042 0248     		ldr	r0, .L14
 210              	.LVL19:
  57:../../core/drivers/LSM303AGR/src/LSM303AGRSensor.c **** 				LSM303AGR_reg, I2C_MEMADD_SIZE_8BIT, &LSM303AGR_data,
 211              		.loc 1 57 3 view .LVU32
 212 0044 0068     		ldr	r0, [r0]
 213 0046 FFF7FEFF 		bl	HAL_I2C_Mem_Write
 214              	.LVL20:
  57:../../core/drivers/LSM303AGR/src/LSM303AGRSensor.c **** 				LSM303AGR_reg, I2C_MEMADD_SIZE_8BIT, &LSM303AGR_data,
 215              		.loc 1 57 3 view .LVU33
 216 004a ECE7     		b	.L12
ARM GAS  C:\Users\yvesk\AppData\Local\Temp\ccdu3E1X.s 			page 6


 217              	.L15:
 218              		.align	2
 219              	.L14:
 220 004c 00000000 		.word	LSM303AGR_hi2c
 221              		.cfi_endproc
 222              	.LFE125:
 224              		.section	.text.LSM303AGR_init,"ax",%progbits
 225              		.align	1
 226              		.global	LSM303AGR_init
 227              		.syntax unified
 228              		.thumb
 229              		.thumb_func
 230              		.fpu fpv4-sp-d16
 232              	LSM303AGR_init:
 233              	.LFB126:
  65:../../core/drivers/LSM303AGR/src/LSM303AGRSensor.c **** 
  66:../../core/drivers/LSM303AGR/src/LSM303AGRSensor.c **** /**
  67:../../core/drivers/LSM303AGR/src/LSM303AGRSensor.c ****  * Initialization of the LSM303AGR accelerometer and magnetometer.
  68:../../core/drivers/LSM303AGR/src/LSM303AGRSensor.c ****  * The accelerometer is initialized with the following values:
  69:../../core/drivers/LSM303AGR/src/LSM303AGRSensor.c ****  * 		- Powerdown,
  70:../../core/drivers/LSM303AGR/src/LSM303AGRSensor.c ****  * 		- X, Y and Z-axes enabled
  71:../../core/drivers/LSM303AGR/src/LSM303AGRSensor.c ****  * 		- BDU enabled (output registers are not updated until the MSB and LSB have been read)
  72:../../core/drivers/LSM303AGR/src/LSM303AGRSensor.c ****  *
  73:../../core/drivers/LSM303AGR/src/LSM303AGRSensor.c ****  * The magnetometer is initialized with the following values:
  74:../../core/drivers/LSM303AGR/src/LSM303AGRSensor.c ****  * 		- Idle mode,
  75:../../core/drivers/LSM303AGR/src/LSM303AGRSensor.c ****  * 		- Temperature compensation enabled,
  76:../../core/drivers/LSM303AGR/src/LSM303AGRSensor.c ****  * 		- Low-power mode enabled,
  77:../../core/drivers/LSM303AGR/src/LSM303AGRSensor.c ****  * 		- Offset cancelation enabled,
  78:../../core/drivers/LSM303AGR/src/LSM303AGRSensor.c ****  * 		- Low pass filter enabled,
  79:../../core/drivers/LSM303AGR/src/LSM303AGRSensor.c ****  * 		- BDU enabled
  80:../../core/drivers/LSM303AGR/src/LSM303AGRSensor.c ****  */
  81:../../core/drivers/LSM303AGR/src/LSM303AGRSensor.c **** void LSM303AGR_init() {
 234              		.loc 1 81 23 is_stmt 1 view -0
 235              		.cfi_startproc
 236              		@ args = 0, pretend = 0, frame = 0
 237              		@ frame_needed = 0, uses_anonymous_args = 0
 238 0000 10B5     		push	{r4, lr}
 239              	.LCFI8:
 240              		.cfi_def_cfa_offset 8
 241              		.cfi_offset 4, -8
 242              		.cfi_offset 14, -4
  82:../../core/drivers/LSM303AGR/src/LSM303AGRSensor.c **** 
  83:../../core/drivers/LSM303AGR/src/LSM303AGRSensor.c **** 	LSM303AGR_setting = LSM303AGR_ACC_ODR_100Hz | LSM303AGR_ACC_X_EN
 243              		.loc 1 83 2 view .LVU35
 244              		.loc 1 83 20 is_stmt 0 view .LVU36
 245 0002 104C     		ldr	r4, .L18
 246 0004 5721     		movs	r1, #87
 247 0006 2170     		strb	r1, [r4]
  84:../../core/drivers/LSM303AGR/src/LSM303AGRSensor.c **** 			| LSM303AGR_ACC_Y_EN | LSM303AGR_ACC_Z_EN;
  85:../../core/drivers/LSM303AGR/src/LSM303AGRSensor.c **** 	LSM303AGR_writeRegister(LSM303AGR_ACC_CTRL_REG1, LSM303AGR_setting, 0);
 248              		.loc 1 85 2 is_stmt 1 view .LVU37
 249 0008 0022     		movs	r2, #0
 250 000a 2020     		movs	r0, #32
 251 000c FFF7FEFF 		bl	LSM303AGR_writeRegister
 252              	.LVL21:
  86:../../core/drivers/LSM303AGR/src/LSM303AGRSensor.c **** 
  87:../../core/drivers/LSM303AGR/src/LSM303AGRSensor.c **** 	LSM303AGR_setting = LSM303AGR_ACC_BDU_EN;
ARM GAS  C:\Users\yvesk\AppData\Local\Temp\ccdu3E1X.s 			page 7


 253              		.loc 1 87 2 view .LVU38
 254              		.loc 1 87 20 is_stmt 0 view .LVU39
 255 0010 8021     		movs	r1, #128
 256 0012 2170     		strb	r1, [r4]
  88:../../core/drivers/LSM303AGR/src/LSM303AGRSensor.c **** 	LSM303AGR_writeRegister(LSM303AGR_ACC_CTRL_REG4, LSM303AGR_setting, 0);
 257              		.loc 1 88 2 is_stmt 1 view .LVU40
 258 0014 0022     		movs	r2, #0
 259 0016 2320     		movs	r0, #35
 260 0018 FFF7FEFF 		bl	LSM303AGR_writeRegister
 261              	.LVL22:
  89:../../core/drivers/LSM303AGR/src/LSM303AGRSensor.c **** 
  90:../../core/drivers/LSM303AGR/src/LSM303AGRSensor.c **** 	LSM303AGR_setting = LSM303AGR_MAG_COMP_TEMP_EN | LSM303AGR_MAG_LP_EN
 262              		.loc 1 90 2 view .LVU41
 263              		.loc 1 90 20 is_stmt 0 view .LVU42
 264 001c 9021     		movs	r1, #144
 265 001e 2170     		strb	r1, [r4]
  91:../../core/drivers/LSM303AGR/src/LSM303AGRSensor.c **** 			| LSM303AGR_MAG_ODR_10HZ;
  92:../../core/drivers/LSM303AGR/src/LSM303AGRSensor.c **** 	LSM303AGR_writeRegister(LSM303AGR_MAG_CFG_REG_A, LSM303AGR_setting, 1);
 266              		.loc 1 92 2 is_stmt 1 view .LVU43
 267 0020 0122     		movs	r2, #1
 268 0022 6020     		movs	r0, #96
 269 0024 FFF7FEFF 		bl	LSM303AGR_writeRegister
 270              	.LVL23:
  93:../../core/drivers/LSM303AGR/src/LSM303AGRSensor.c **** 
  94:../../core/drivers/LSM303AGR/src/LSM303AGRSensor.c **** 	LSM303AGR_setting = LSM303AGR_MAG_OFF_CANC | LSM303AGR_MAG_LPF;
 271              		.loc 1 94 2 view .LVU44
 272              		.loc 1 94 20 is_stmt 0 view .LVU45
 273 0028 0321     		movs	r1, #3
 274 002a 2170     		strb	r1, [r4]
  95:../../core/drivers/LSM303AGR/src/LSM303AGRSensor.c **** 	LSM303AGR_writeRegister(LSM303AGR_MAG_CFG_REG_B, LSM303AGR_setting, 1);
 275              		.loc 1 95 2 is_stmt 1 view .LVU46
 276 002c 0122     		movs	r2, #1
 277 002e 6120     		movs	r0, #97
 278 0030 FFF7FEFF 		bl	LSM303AGR_writeRegister
 279              	.LVL24:
  96:../../core/drivers/LSM303AGR/src/LSM303AGRSensor.c **** 
  97:../../core/drivers/LSM303AGR/src/LSM303AGRSensor.c **** 	LSM303AGR_setting = LSM303AGR_MAG_BDU;
 280              		.loc 1 97 2 view .LVU47
 281              		.loc 1 97 20 is_stmt 0 view .LVU48
 282 0034 1021     		movs	r1, #16
 283 0036 2170     		strb	r1, [r4]
  98:../../core/drivers/LSM303AGR/src/LSM303AGRSensor.c **** 	LSM303AGR_writeRegister(LSM303AGR_MAG_CFG_REG_C, LSM303AGR_setting, 1);
 284              		.loc 1 98 2 is_stmt 1 view .LVU49
 285 0038 0122     		movs	r2, #1
 286 003a 6220     		movs	r0, #98
 287 003c FFF7FEFF 		bl	LSM303AGR_writeRegister
 288              	.LVL25:
  99:../../core/drivers/LSM303AGR/src/LSM303AGRSensor.c **** 
 100:../../core/drivers/LSM303AGR/src/LSM303AGRSensor.c **** }
 289              		.loc 1 100 1 is_stmt 0 view .LVU50
 290 0040 10BD     		pop	{r4, pc}
 291              	.L19:
 292 0042 00BF     		.align	2
 293              	.L18:
 294 0044 00000000 		.word	LSM303AGR_setting
 295              		.cfi_endproc
 296              	.LFE126:
ARM GAS  C:\Users\yvesk\AppData\Local\Temp\ccdu3E1X.s 			page 8


 298              		.section	.text.LSM303AGR_ACC_reset,"ax",%progbits
 299              		.align	1
 300              		.global	LSM303AGR_ACC_reset
 301              		.syntax unified
 302              		.thumb
 303              		.thumb_func
 304              		.fpu fpv4-sp-d16
 306              	LSM303AGR_ACC_reset:
 307              	.LFB127:
 101:../../core/drivers/LSM303AGR/src/LSM303AGRSensor.c **** 
 102:../../core/drivers/LSM303AGR/src/LSM303AGRSensor.c **** /**
 103:../../core/drivers/LSM303AGR/src/LSM303AGRSensor.c ****  * Resets the LSM303AGR accelerometer
 104:../../core/drivers/LSM303AGR/src/LSM303AGRSensor.c ****  */
 105:../../core/drivers/LSM303AGR/src/LSM303AGRSensor.c **** void LSM303AGR_ACC_reset() {
 308              		.loc 1 105 28 is_stmt 1 view -0
 309              		.cfi_startproc
 310              		@ args = 0, pretend = 0, frame = 0
 311              		@ frame_needed = 0, uses_anonymous_args = 0
 312 0000 08B5     		push	{r3, lr}
 313              	.LCFI9:
 314              		.cfi_def_cfa_offset 8
 315              		.cfi_offset 3, -8
 316              		.cfi_offset 14, -4
 106:../../core/drivers/LSM303AGR/src/LSM303AGRSensor.c **** 	LSM303AGR_setting = LSM303AGR_ACC_BOOT;
 317              		.loc 1 106 2 view .LVU52
 318              		.loc 1 106 20 is_stmt 0 view .LVU53
 319 0002 8021     		movs	r1, #128
 320 0004 034B     		ldr	r3, .L22
 321 0006 1970     		strb	r1, [r3]
 107:../../core/drivers/LSM303AGR/src/LSM303AGRSensor.c **** 	LSM303AGR_writeRegister(LSM303AGR_ACC_CTRL_REG5, LSM303AGR_setting, 0);
 322              		.loc 1 107 2 is_stmt 1 view .LVU54
 323 0008 0022     		movs	r2, #0
 324 000a 2420     		movs	r0, #36
 325 000c FFF7FEFF 		bl	LSM303AGR_writeRegister
 326              	.LVL26:
 108:../../core/drivers/LSM303AGR/src/LSM303AGRSensor.c **** }
 327              		.loc 1 108 1 is_stmt 0 view .LVU55
 328 0010 08BD     		pop	{r3, pc}
 329              	.L23:
 330 0012 00BF     		.align	2
 331              	.L22:
 332 0014 00000000 		.word	LSM303AGR_setting
 333              		.cfi_endproc
 334              	.LFE127:
 336              		.section	.text.LSM303AGR_MAG_reset,"ax",%progbits
 337              		.align	1
 338              		.global	LSM303AGR_MAG_reset
 339              		.syntax unified
 340              		.thumb
 341              		.thumb_func
 342              		.fpu fpv4-sp-d16
 344              	LSM303AGR_MAG_reset:
 345              	.LFB128:
 109:../../core/drivers/LSM303AGR/src/LSM303AGRSensor.c **** 
 110:../../core/drivers/LSM303AGR/src/LSM303AGRSensor.c **** /**
 111:../../core/drivers/LSM303AGR/src/LSM303AGRSensor.c ****  * Resets the LSM303AGR magnetometer
 112:../../core/drivers/LSM303AGR/src/LSM303AGRSensor.c ****  */
ARM GAS  C:\Users\yvesk\AppData\Local\Temp\ccdu3E1X.s 			page 9


 113:../../core/drivers/LSM303AGR/src/LSM303AGRSensor.c **** void LSM303AGR_MAG_reset() {
 346              		.loc 1 113 28 is_stmt 1 view -0
 347              		.cfi_startproc
 348              		@ args = 0, pretend = 0, frame = 0
 349              		@ frame_needed = 0, uses_anonymous_args = 0
 350 0000 08B5     		push	{r3, lr}
 351              	.LCFI10:
 352              		.cfi_def_cfa_offset 8
 353              		.cfi_offset 3, -8
 354              		.cfi_offset 14, -4
 114:../../core/drivers/LSM303AGR/src/LSM303AGRSensor.c **** 
 115:../../core/drivers/LSM303AGR/src/LSM303AGRSensor.c **** 	LSM303AGR_setting = LSM303AGR_MAG_SOFT_RST;
 355              		.loc 1 115 2 view .LVU57
 356              		.loc 1 115 20 is_stmt 0 view .LVU58
 357 0002 2021     		movs	r1, #32
 358 0004 034B     		ldr	r3, .L26
 359 0006 1970     		strb	r1, [r3]
 116:../../core/drivers/LSM303AGR/src/LSM303AGRSensor.c **** 	LSM303AGR_writeRegister(LSM303AGR_MAG_CFG_REG_A, LSM303AGR_setting, 1);
 360              		.loc 1 116 2 is_stmt 1 view .LVU59
 361 0008 0122     		movs	r2, #1
 362 000a 6020     		movs	r0, #96
 363 000c FFF7FEFF 		bl	LSM303AGR_writeRegister
 364              	.LVL27:
 117:../../core/drivers/LSM303AGR/src/LSM303AGRSensor.c **** 
 118:../../core/drivers/LSM303AGR/src/LSM303AGRSensor.c **** }
 365              		.loc 1 118 1 is_stmt 0 view .LVU60
 366 0010 08BD     		pop	{r3, pc}
 367              	.L27:
 368 0012 00BF     		.align	2
 369              	.L26:
 370 0014 00000000 		.word	LSM303AGR_setting
 371              		.cfi_endproc
 372              	.LFE128:
 374              		.section	.text.LSM303AGR_powerDownAccelerometer,"ax",%progbits
 375              		.align	1
 376              		.global	LSM303AGR_powerDownAccelerometer
 377              		.syntax unified
 378              		.thumb
 379              		.thumb_func
 380              		.fpu fpv4-sp-d16
 382              	LSM303AGR_powerDownAccelerometer:
 383              	.LFB129:
 119:../../core/drivers/LSM303AGR/src/LSM303AGRSensor.c **** 
 120:../../core/drivers/LSM303AGR/src/LSM303AGRSensor.c **** /**
 121:../../core/drivers/LSM303AGR/src/LSM303AGRSensor.c ****  * Put the accelerometer in power-down mode
 122:../../core/drivers/LSM303AGR/src/LSM303AGRSensor.c ****  */
 123:../../core/drivers/LSM303AGR/src/LSM303AGRSensor.c **** void LSM303AGR_powerDownAccelerometer() {
 384              		.loc 1 123 41 is_stmt 1 view -0
 385              		.cfi_startproc
 386              		@ args = 0, pretend = 0, frame = 0
 387              		@ frame_needed = 0, uses_anonymous_args = 0
 388 0000 08B5     		push	{r3, lr}
 389              	.LCFI11:
 390              		.cfi_def_cfa_offset 8
 391              		.cfi_offset 3, -8
 392              		.cfi_offset 14, -4
 124:../../core/drivers/LSM303AGR/src/LSM303AGRSensor.c **** 
ARM GAS  C:\Users\yvesk\AppData\Local\Temp\ccdu3E1X.s 			page 10


 125:../../core/drivers/LSM303AGR/src/LSM303AGRSensor.c **** 	LSM303AGR_setting = LSM303AGR_ACC_ODR_POWERDOWN | LSM303AGR_ACC_X_EN
 393              		.loc 1 125 2 view .LVU62
 394              		.loc 1 125 20 is_stmt 0 view .LVU63
 395 0002 0721     		movs	r1, #7
 396 0004 034B     		ldr	r3, .L30
 397 0006 1970     		strb	r1, [r3]
 126:../../core/drivers/LSM303AGR/src/LSM303AGRSensor.c **** 			| LSM303AGR_ACC_Y_EN | LSM303AGR_ACC_Z_EN;
 127:../../core/drivers/LSM303AGR/src/LSM303AGRSensor.c **** 	LSM303AGR_writeRegister(LSM303AGR_ACC_CTRL_REG1, LSM303AGR_setting, 0);
 398              		.loc 1 127 2 is_stmt 1 view .LVU64
 399 0008 0022     		movs	r2, #0
 400 000a 2020     		movs	r0, #32
 401 000c FFF7FEFF 		bl	LSM303AGR_writeRegister
 402              	.LVL28:
 128:../../core/drivers/LSM303AGR/src/LSM303AGRSensor.c **** 
 129:../../core/drivers/LSM303AGR/src/LSM303AGRSensor.c **** }
 403              		.loc 1 129 1 is_stmt 0 view .LVU65
 404 0010 08BD     		pop	{r3, pc}
 405              	.L31:
 406 0012 00BF     		.align	2
 407              	.L30:
 408 0014 00000000 		.word	LSM303AGR_setting
 409              		.cfi_endproc
 410              	.LFE129:
 412              		.section	.text.LSM303AGR_powerDownMagnetometer,"ax",%progbits
 413              		.align	1
 414              		.global	LSM303AGR_powerDownMagnetometer
 415              		.syntax unified
 416              		.thumb
 417              		.thumb_func
 418              		.fpu fpv4-sp-d16
 420              	LSM303AGR_powerDownMagnetometer:
 421              	.LFB130:
 130:../../core/drivers/LSM303AGR/src/LSM303AGRSensor.c **** 
 131:../../core/drivers/LSM303AGR/src/LSM303AGRSensor.c **** /**
 132:../../core/drivers/LSM303AGR/src/LSM303AGRSensor.c ****  * Put the magnetometer in idle mode
 133:../../core/drivers/LSM303AGR/src/LSM303AGRSensor.c ****  */
 134:../../core/drivers/LSM303AGR/src/LSM303AGRSensor.c **** void LSM303AGR_powerDownMagnetometer() {
 422              		.loc 1 134 40 is_stmt 1 view -0
 423              		.cfi_startproc
 424              		@ args = 0, pretend = 0, frame = 0
 425              		@ frame_needed = 0, uses_anonymous_args = 0
 426 0000 08B5     		push	{r3, lr}
 427              	.LCFI12:
 428              		.cfi_def_cfa_offset 8
 429              		.cfi_offset 3, -8
 430              		.cfi_offset 14, -4
 135:../../core/drivers/LSM303AGR/src/LSM303AGRSensor.c **** 
 136:../../core/drivers/LSM303AGR/src/LSM303AGRSensor.c **** 	LSM303AGR_setting = LSM303AGR_MAG_COMP_TEMP_EN | LSM303AGR_MAG_LP_EN
 431              		.loc 1 136 2 view .LVU67
 432              		.loc 1 136 20 is_stmt 0 view .LVU68
 433 0002 9221     		movs	r1, #146
 434 0004 034B     		ldr	r3, .L34
 435 0006 1970     		strb	r1, [r3]
 137:../../core/drivers/LSM303AGR/src/LSM303AGRSensor.c **** 			| LSM303AGR_MAG_ODR_10HZ | LSM303AGR_MAG_MD_IDLE;
 138:../../core/drivers/LSM303AGR/src/LSM303AGRSensor.c **** 	LSM303AGR_writeRegister(LSM303AGR_MAG_CFG_REG_A, LSM303AGR_setting, 1);
 436              		.loc 1 138 2 is_stmt 1 view .LVU69
 437 0008 0122     		movs	r2, #1
ARM GAS  C:\Users\yvesk\AppData\Local\Temp\ccdu3E1X.s 			page 11


 438 000a 6020     		movs	r0, #96
 439 000c FFF7FEFF 		bl	LSM303AGR_writeRegister
 440              	.LVL29:
 139:../../core/drivers/LSM303AGR/src/LSM303AGRSensor.c **** }
 441              		.loc 1 139 1 is_stmt 0 view .LVU70
 442 0010 08BD     		pop	{r3, pc}
 443              	.L35:
 444 0012 00BF     		.align	2
 445              	.L34:
 446 0014 00000000 		.word	LSM303AGR_setting
 447              		.cfi_endproc
 448              	.LFE130:
 450              		.section	.text.LSM303AGR_wakeUpAccelerometer,"ax",%progbits
 451              		.align	1
 452              		.global	LSM303AGR_wakeUpAccelerometer
 453              		.syntax unified
 454              		.thumb
 455              		.thumb_func
 456              		.fpu fpv4-sp-d16
 458              	LSM303AGR_wakeUpAccelerometer:
 459              	.LFB131:
 140:../../core/drivers/LSM303AGR/src/LSM303AGRSensor.c **** 
 141:../../core/drivers/LSM303AGR/src/LSM303AGRSensor.c **** /**
 142:../../core/drivers/LSM303AGR/src/LSM303AGRSensor.c ****  * Wake up the accelerometer from powerdown mode
 143:../../core/drivers/LSM303AGR/src/LSM303AGRSensor.c ****  */
 144:../../core/drivers/LSM303AGR/src/LSM303AGRSensor.c **** void LSM303AGR_wakeUpAccelerometer() {
 460              		.loc 1 144 38 is_stmt 1 view -0
 461              		.cfi_startproc
 462              		@ args = 0, pretend = 0, frame = 0
 463              		@ frame_needed = 0, uses_anonymous_args = 0
 464 0000 08B5     		push	{r3, lr}
 465              	.LCFI13:
 466              		.cfi_def_cfa_offset 8
 467              		.cfi_offset 3, -8
 468              		.cfi_offset 14, -4
 145:../../core/drivers/LSM303AGR/src/LSM303AGRSensor.c **** 
 146:../../core/drivers/LSM303AGR/src/LSM303AGRSensor.c **** 	LSM303AGR_setting = LSM303AGR_ACC_ODR_10HZ | LSM303AGR_ACC_X_EN
 469              		.loc 1 146 2 view .LVU72
 470              		.loc 1 146 20 is_stmt 0 view .LVU73
 471 0002 2721     		movs	r1, #39
 472 0004 034B     		ldr	r3, .L38
 473 0006 1970     		strb	r1, [r3]
 147:../../core/drivers/LSM303AGR/src/LSM303AGRSensor.c **** 			| LSM303AGR_ACC_Y_EN | LSM303AGR_ACC_Z_EN;
 148:../../core/drivers/LSM303AGR/src/LSM303AGRSensor.c **** 	LSM303AGR_writeRegister(LSM303AGR_ACC_CTRL_REG1, LSM303AGR_setting, 0);
 474              		.loc 1 148 2 is_stmt 1 view .LVU74
 475 0008 0022     		movs	r2, #0
 476 000a 2020     		movs	r0, #32
 477 000c FFF7FEFF 		bl	LSM303AGR_writeRegister
 478              	.LVL30:
 149:../../core/drivers/LSM303AGR/src/LSM303AGRSensor.c **** 
 150:../../core/drivers/LSM303AGR/src/LSM303AGRSensor.c **** }
 479              		.loc 1 150 1 is_stmt 0 view .LVU75
 480 0010 08BD     		pop	{r3, pc}
 481              	.L39:
 482 0012 00BF     		.align	2
 483              	.L38:
 484 0014 00000000 		.word	LSM303AGR_setting
ARM GAS  C:\Users\yvesk\AppData\Local\Temp\ccdu3E1X.s 			page 12


 485              		.cfi_endproc
 486              	.LFE131:
 488              		.section	.text.LSM303AGR_wakeUpMagnetometer,"ax",%progbits
 489              		.align	1
 490              		.global	LSM303AGR_wakeUpMagnetometer
 491              		.syntax unified
 492              		.thumb
 493              		.thumb_func
 494              		.fpu fpv4-sp-d16
 496              	LSM303AGR_wakeUpMagnetometer:
 497              	.LFB132:
 151:../../core/drivers/LSM303AGR/src/LSM303AGRSensor.c **** 
 152:../../core/drivers/LSM303AGR/src/LSM303AGRSensor.c **** /**
 153:../../core/drivers/LSM303AGR/src/LSM303AGRSensor.c ****  * Wake up the magnetometer from idle mode
 154:../../core/drivers/LSM303AGR/src/LSM303AGRSensor.c ****  */
 155:../../core/drivers/LSM303AGR/src/LSM303AGRSensor.c **** void LSM303AGR_wakeUpMagnetometer() {
 498              		.loc 1 155 37 is_stmt 1 view -0
 499              		.cfi_startproc
 500              		@ args = 0, pretend = 0, frame = 0
 501              		@ frame_needed = 0, uses_anonymous_args = 0
 502 0000 08B5     		push	{r3, lr}
 503              	.LCFI14:
 504              		.cfi_def_cfa_offset 8
 505              		.cfi_offset 3, -8
 506              		.cfi_offset 14, -4
 156:../../core/drivers/LSM303AGR/src/LSM303AGRSensor.c **** 
 157:../../core/drivers/LSM303AGR/src/LSM303AGRSensor.c **** 	LSM303AGR_setting = LSM303AGR_MAG_COMP_TEMP_EN | LSM303AGR_MAG_LP_EN
 507              		.loc 1 157 2 view .LVU77
 508              		.loc 1 157 20 is_stmt 0 view .LVU78
 509 0002 9021     		movs	r1, #144
 510 0004 034B     		ldr	r3, .L42
 511 0006 1970     		strb	r1, [r3]
 158:../../core/drivers/LSM303AGR/src/LSM303AGRSensor.c **** 			| LSM303AGR_MAG_ODR_10HZ | LSM303AGR_MAG_MD_CONT;
 159:../../core/drivers/LSM303AGR/src/LSM303AGRSensor.c **** 	LSM303AGR_writeRegister(LSM303AGR_MAG_CFG_REG_A, LSM303AGR_setting, 1);
 512              		.loc 1 159 2 is_stmt 1 view .LVU79
 513 0008 0122     		movs	r2, #1
 514 000a 6020     		movs	r0, #96
 515 000c FFF7FEFF 		bl	LSM303AGR_writeRegister
 516              	.LVL31:
 160:../../core/drivers/LSM303AGR/src/LSM303AGRSensor.c **** 
 161:../../core/drivers/LSM303AGR/src/LSM303AGRSensor.c **** }
 517              		.loc 1 161 1 is_stmt 0 view .LVU80
 518 0010 08BD     		pop	{r3, pc}
 519              	.L43:
 520 0012 00BF     		.align	2
 521              	.L42:
 522 0014 00000000 		.word	LSM303AGR_setting
 523              		.cfi_endproc
 524              	.LFE132:
 526              		.section	.text.LSM303AGR_ACC_readAccelerationData,"ax",%progbits
 527              		.align	1
 528              		.global	LSM303AGR_ACC_readAccelerationData
 529              		.syntax unified
 530              		.thumb
 531              		.thumb_func
 532              		.fpu fpv4-sp-d16
 534              	LSM303AGR_ACC_readAccelerationData:
ARM GAS  C:\Users\yvesk\AppData\Local\Temp\ccdu3E1X.s 			page 13


 535              	.LVL32:
 536              	.LFB133:
 162:../../core/drivers/LSM303AGR/src/LSM303AGRSensor.c **** 
 163:../../core/drivers/LSM303AGR/src/LSM303AGRSensor.c **** /**
 164:../../core/drivers/LSM303AGR/src/LSM303AGRSensor.c ****  * Reads the output registers of the accelerometer
 165:../../core/drivers/LSM303AGR/src/LSM303AGRSensor.c ****  * @param pData: a pointer to where the data needs to be stored
 166:../../core/drivers/LSM303AGR/src/LSM303AGRSensor.c ****  */
 167:../../core/drivers/LSM303AGR/src/LSM303AGRSensor.c **** void LSM303AGR_ACC_readAccelerationData(int32_t *pData) {
 537              		.loc 1 167 57 is_stmt 1 view -0
 538              		.cfi_startproc
 539              		@ args = 0, pretend = 0, frame = 0
 540              		@ frame_needed = 0, uses_anonymous_args = 0
 541              		.loc 1 167 57 is_stmt 0 view .LVU82
 542 0000 30B5     		push	{r4, r5, lr}
 543              	.LCFI15:
 544              		.cfi_def_cfa_offset 12
 545              		.cfi_offset 4, -12
 546              		.cfi_offset 5, -8
 547              		.cfi_offset 14, -4
 548 0002 85B0     		sub	sp, sp, #20
 549              	.LCFI16:
 550              		.cfi_def_cfa_offset 32
 551 0004 0446     		mov	r4, r0
 168:../../core/drivers/LSM303AGR/src/LSM303AGRSensor.c **** 	//accRegisterData[6];
 169:../../core/drivers/LSM303AGR/src/LSM303AGRSensor.c **** 	//accRawData[3];
 170:../../core/drivers/LSM303AGR/src/LSM303AGRSensor.c **** 
 171:../../core/drivers/LSM303AGR/src/LSM303AGRSensor.c **** 	//magRegisterData[6];
 172:../../core/drivers/LSM303AGR/src/LSM303AGRSensor.c **** 	//magRawData[3];
 173:../../core/drivers/LSM303AGR/src/LSM303AGRSensor.c **** 	//LSM303AGR_ACC_TEMP_DATA rawData;
 174:../../core/drivers/LSM303AGR/src/LSM303AGRSensor.c **** 
 175:../../core/drivers/LSM303AGR/src/LSM303AGRSensor.c **** 	HAL_I2C_Mem_Read(LSM303AGR_hi2c, LSM303AGR_ACC_I2C_ADDRESS,	LSM303AGR_ACC_MULTI_READ, I2C_MEMADD_S
 552              		.loc 1 175 2 is_stmt 1 view .LVU83
 553 0006 4FF0FF33 		mov	r3, #-1
 554 000a 0293     		str	r3, [sp, #8]
 555 000c 0623     		movs	r3, #6
 556 000e 0193     		str	r3, [sp, #4]
 557 0010 214D     		ldr	r5, .L46
 558 0012 0095     		str	r5, [sp]
 559 0014 0123     		movs	r3, #1
 560 0016 A822     		movs	r2, #168
 561 0018 3221     		movs	r1, #50
 562 001a 2048     		ldr	r0, .L46+4
 563              	.LVL33:
 564              		.loc 1 175 2 is_stmt 0 view .LVU84
 565 001c 0068     		ldr	r0, [r0]
 566 001e FFF7FEFF 		bl	HAL_I2C_Mem_Read
 567              	.LVL34:
 176:../../core/drivers/LSM303AGR/src/LSM303AGRSensor.c **** 
 177:../../core/drivers/LSM303AGR/src/LSM303AGRSensor.c **** 	accRawData[0] = (accRegisterData[1] << 8)	| accRegisterData[0];
 568              		.loc 1 177 2 is_stmt 1 view .LVU85
 569              		.loc 1 177 34 is_stmt 0 view .LVU86
 570 0022 6A78     		ldrb	r2, [r5, #1]	@ zero_extendqisi2
 571              		.loc 1 177 61 view .LVU87
 572 0024 2B78     		ldrb	r3, [r5]	@ zero_extendqisi2
 573              		.loc 1 177 44 view .LVU88
 574 0026 43EA0223 		orr	r3, r3, r2, lsl #8
 575 002a 1BB2     		sxth	r3, r3
ARM GAS  C:\Users\yvesk\AppData\Local\Temp\ccdu3E1X.s 			page 14


 576              		.loc 1 177 16 view .LVU89
 577 002c 1C49     		ldr	r1, .L46+8
 578 002e 0B80     		strh	r3, [r1]	@ movhi
 178:../../core/drivers/LSM303AGR/src/LSM303AGRSensor.c **** 	accRawData[1] = (accRegisterData[3] << 8)| accRegisterData[2];
 579              		.loc 1 178 2 is_stmt 1 view .LVU90
 580              		.loc 1 178 34 is_stmt 0 view .LVU91
 581 0030 E878     		ldrb	r0, [r5, #3]	@ zero_extendqisi2
 582              		.loc 1 178 60 view .LVU92
 583 0032 AA78     		ldrb	r2, [r5, #2]	@ zero_extendqisi2
 584              		.loc 1 178 43 view .LVU93
 585 0034 42EA0022 		orr	r2, r2, r0, lsl #8
 586              		.loc 1 178 16 view .LVU94
 587 0038 4A80     		strh	r2, [r1, #2]	@ movhi
 179:../../core/drivers/LSM303AGR/src/LSM303AGRSensor.c **** 	accRawData[2] = (accRegisterData[5] << 8)| accRegisterData[4];
 588              		.loc 1 179 2 is_stmt 1 view .LVU95
 589              		.loc 1 179 34 is_stmt 0 view .LVU96
 590 003a 6879     		ldrb	r0, [r5, #5]	@ zero_extendqisi2
 591              		.loc 1 179 60 view .LVU97
 592 003c 2A79     		ldrb	r2, [r5, #4]	@ zero_extendqisi2
 593              		.loc 1 179 43 view .LVU98
 594 003e 42EA0022 		orr	r2, r2, r0, lsl #8
 595              		.loc 1 179 16 view .LVU99
 596 0042 8A80     		strh	r2, [r1, #4]	@ movhi
 180:../../core/drivers/LSM303AGR/src/LSM303AGRSensor.c **** 
 181:../../core/drivers/LSM303AGR/src/LSM303AGRSensor.c **** 	/* Apply proper shift and sensitivity */
 182:../../core/drivers/LSM303AGR/src/LSM303AGRSensor.c **** 	// Normal mode 10-bit, shift = 6 and FS = 2
 183:../../core/drivers/LSM303AGR/src/LSM303AGRSensor.c **** 	pData[0] = (int32_t) (((accRawData[0] >> 6) * 3900 + 500) / 1000);
 597              		.loc 1 183 2 is_stmt 1 view .LVU100
 598              		.loc 1 183 40 is_stmt 0 view .LVU101
 599 0044 9B11     		asrs	r3, r3, #6
 600              		.loc 1 183 46 view .LVU102
 601 0046 40F63C72 		movw	r2, #3900
 602 004a 02FB03F3 		mul	r3, r2, r3
 603              		.loc 1 183 53 view .LVU103
 604 004e 03F5FA73 		add	r3, r3, #500
 605              		.loc 1 183 60 view .LVU104
 606 0052 1448     		ldr	r0, .L46+12
 607 0054 80FB03C5 		smull	ip, r5, r0, r3
 608 0058 DB17     		asrs	r3, r3, #31
 609 005a C3EBA513 		rsb	r3, r3, r5, asr #6
 610              		.loc 1 183 11 view .LVU105
 611 005e 2360     		str	r3, [r4]
 184:../../core/drivers/LSM303AGR/src/LSM303AGRSensor.c **** 	pData[1] = (int32_t) (((accRawData[1] >> 6) * 3900 + 500) / 1000);
 612              		.loc 1 184 2 is_stmt 1 view .LVU106
 613              		.loc 1 184 36 is_stmt 0 view .LVU107
 614 0060 B1F90230 		ldrsh	r3, [r1, #2]
 615              		.loc 1 184 40 view .LVU108
 616 0064 9B11     		asrs	r3, r3, #6
 617              		.loc 1 184 46 view .LVU109
 618 0066 02FB03F3 		mul	r3, r2, r3
 619              		.loc 1 184 53 view .LVU110
 620 006a 03F5FA73 		add	r3, r3, #500
 621              		.loc 1 184 60 view .LVU111
 622 006e 80FB03C5 		smull	ip, r5, r0, r3
 623 0072 DB17     		asrs	r3, r3, #31
 624 0074 C3EBA513 		rsb	r3, r3, r5, asr #6
 625              		.loc 1 184 11 view .LVU112
ARM GAS  C:\Users\yvesk\AppData\Local\Temp\ccdu3E1X.s 			page 15


 626 0078 6360     		str	r3, [r4, #4]
 185:../../core/drivers/LSM303AGR/src/LSM303AGRSensor.c **** 	pData[2] = (int32_t) (((accRawData[2] >> 6) * 3900 + 500) / 1000);
 627              		.loc 1 185 2 is_stmt 1 view .LVU113
 628              		.loc 1 185 36 is_stmt 0 view .LVU114
 629 007a B1F90430 		ldrsh	r3, [r1, #4]
 630              		.loc 1 185 40 view .LVU115
 631 007e 9B11     		asrs	r3, r3, #6
 632              		.loc 1 185 46 view .LVU116
 633 0080 02FB03F2 		mul	r2, r2, r3
 634              		.loc 1 185 53 view .LVU117
 635 0084 02F5FA72 		add	r2, r2, #500
 636              		.loc 1 185 60 view .LVU118
 637 0088 80FB0230 		smull	r3, r0, r0, r2
 638 008c D217     		asrs	r2, r2, #31
 639 008e C2EBA012 		rsb	r2, r2, r0, asr #6
 640              		.loc 1 185 11 view .LVU119
 641 0092 A260     		str	r2, [r4, #8]
 186:../../core/drivers/LSM303AGR/src/LSM303AGRSensor.c **** 
 187:../../core/drivers/LSM303AGR/src/LSM303AGRSensor.c **** }
 642              		.loc 1 187 1 view .LVU120
 643 0094 05B0     		add	sp, sp, #20
 644              	.LCFI17:
 645              		.cfi_def_cfa_offset 12
 646              		@ sp needed
 647 0096 30BD     		pop	{r4, r5, pc}
 648              	.LVL35:
 649              	.L47:
 650              		.loc 1 187 1 view .LVU121
 651              		.align	2
 652              	.L46:
 653 0098 00000000 		.word	accRegisterData
 654 009c 00000000 		.word	LSM303AGR_hi2c
 655 00a0 00000000 		.word	accRawData
 656 00a4 D34D6210 		.word	274877907
 657              		.cfi_endproc
 658              	.LFE133:
 660              		.section	.text.LSM303AGR_MAG_readMagneticData,"ax",%progbits
 661              		.align	1
 662              		.global	LSM303AGR_MAG_readMagneticData
 663              		.syntax unified
 664              		.thumb
 665              		.thumb_func
 666              		.fpu fpv4-sp-d16
 668              	LSM303AGR_MAG_readMagneticData:
 669              	.LVL36:
 670              	.LFB134:
 188:../../core/drivers/LSM303AGR/src/LSM303AGRSensor.c **** 
 189:../../core/drivers/LSM303AGR/src/LSM303AGRSensor.c **** /**
 190:../../core/drivers/LSM303AGR/src/LSM303AGRSensor.c ****  * Reads the output registers of the magnetometer and applies the sensitivity
 191:../../core/drivers/LSM303AGR/src/LSM303AGRSensor.c ****  * @param pData: a pointer to where the data needs to be stored
 192:../../core/drivers/LSM303AGR/src/LSM303AGRSensor.c ****  */
 193:../../core/drivers/LSM303AGR/src/LSM303AGRSensor.c **** void LSM303AGR_MAG_readMagneticData(int32_t *pData) {
 671              		.loc 1 193 53 is_stmt 1 view -0
 672              		.cfi_startproc
 673              		@ args = 0, pretend = 0, frame = 0
 674              		@ frame_needed = 0, uses_anonymous_args = 0
 675              		.loc 1 193 53 is_stmt 0 view .LVU123
ARM GAS  C:\Users\yvesk\AppData\Local\Temp\ccdu3E1X.s 			page 16


 676 0000 30B5     		push	{r4, r5, lr}
 677              	.LCFI18:
 678              		.cfi_def_cfa_offset 12
 679              		.cfi_offset 4, -12
 680              		.cfi_offset 5, -8
 681              		.cfi_offset 14, -4
 682 0002 85B0     		sub	sp, sp, #20
 683              	.LCFI19:
 684              		.cfi_def_cfa_offset 32
 685 0004 0446     		mov	r4, r0
 194:../../core/drivers/LSM303AGR/src/LSM303AGRSensor.c **** 	//magRegisterData[6];
 195:../../core/drivers/LSM303AGR/src/LSM303AGRSensor.c **** 		//magRawData[3];
 196:../../core/drivers/LSM303AGR/src/LSM303AGRSensor.c **** 		//LSM303AGR_ACC_TEMP_DATA rawData;
 197:../../core/drivers/LSM303AGR/src/LSM303AGRSensor.c **** 
 198:../../core/drivers/LSM303AGR/src/LSM303AGRSensor.c **** 	//LSM303AGR_MAG_TEMP_DATA rawData;
 199:../../core/drivers/LSM303AGR/src/LSM303AGRSensor.c **** 
 200:../../core/drivers/LSM303AGR/src/LSM303AGRSensor.c **** 	HAL_I2C_Mem_Read(LSM303AGR_hi2c, LSM303AGR_MAG_I2C_ADDRESS,
 686              		.loc 1 200 2 is_stmt 1 view .LVU124
 687 0006 4FF0FF33 		mov	r3, #-1
 688 000a 0293     		str	r3, [sp, #8]
 689 000c 0623     		movs	r3, #6
 690 000e 0193     		str	r3, [sp, #4]
 691 0010 1F4D     		ldr	r5, .L50
 692 0012 0095     		str	r5, [sp]
 693 0014 0123     		movs	r3, #1
 694 0016 E822     		movs	r2, #232
 695 0018 3C21     		movs	r1, #60
 696 001a 1E48     		ldr	r0, .L50+4
 697              	.LVL37:
 698              		.loc 1 200 2 is_stmt 0 view .LVU125
 699 001c 0068     		ldr	r0, [r0]
 700 001e FFF7FEFF 		bl	HAL_I2C_Mem_Read
 701              	.LVL38:
 201:../../core/drivers/LSM303AGR/src/LSM303AGRSensor.c **** 	LSM303AGR_MAG_MULTI_READ, I2C_MEMADD_SIZE_8BIT, magRegisterData,
 202:../../core/drivers/LSM303AGR/src/LSM303AGRSensor.c **** 			sizeof(magRegisterData), HAL_MAX_DELAY);
 203:../../core/drivers/LSM303AGR/src/LSM303AGRSensor.c **** 
 204:../../core/drivers/LSM303AGR/src/LSM303AGRSensor.c **** 	magRawData[0] = (magRegisterData[1] << 8)
 702              		.loc 1 204 2 is_stmt 1 view .LVU126
 703              		.loc 1 204 34 is_stmt 0 view .LVU127
 704 0022 6A78     		ldrb	r2, [r5, #1]	@ zero_extendqisi2
 205:../../core/drivers/LSM303AGR/src/LSM303AGRSensor.c **** 			| magRegisterData[0];
 705              		.loc 1 205 21 view .LVU128
 706 0024 2B78     		ldrb	r3, [r5]	@ zero_extendqisi2
 707              		.loc 1 205 4 view .LVU129
 708 0026 43EA0223 		orr	r3, r3, r2, lsl #8
 709 002a 1BB2     		sxth	r3, r3
 204:../../core/drivers/LSM303AGR/src/LSM303AGRSensor.c **** 			| magRegisterData[0];
 710              		.loc 1 204 16 view .LVU130
 711 002c 1A4A     		ldr	r2, .L50+8
 712 002e 1380     		strh	r3, [r2]	@ movhi
 206:../../core/drivers/LSM303AGR/src/LSM303AGRSensor.c **** 	magRawData[1] = (magRegisterData[3] << 8)
 713              		.loc 1 206 2 is_stmt 1 view .LVU131
 714              		.loc 1 206 34 is_stmt 0 view .LVU132
 715 0030 E878     		ldrb	r0, [r5, #3]	@ zero_extendqisi2
 207:../../core/drivers/LSM303AGR/src/LSM303AGRSensor.c **** 			| magRegisterData[2];
 716              		.loc 1 207 21 view .LVU133
 717 0032 A978     		ldrb	r1, [r5, #2]	@ zero_extendqisi2
ARM GAS  C:\Users\yvesk\AppData\Local\Temp\ccdu3E1X.s 			page 17


 718              		.loc 1 207 4 view .LVU134
 719 0034 41EA0021 		orr	r1, r1, r0, lsl #8
 206:../../core/drivers/LSM303AGR/src/LSM303AGRSensor.c **** 	magRawData[1] = (magRegisterData[3] << 8)
 720              		.loc 1 206 16 view .LVU135
 721 0038 5180     		strh	r1, [r2, #2]	@ movhi
 208:../../core/drivers/LSM303AGR/src/LSM303AGRSensor.c **** 	magRawData[2] = (magRegisterData[5] << 8)
 722              		.loc 1 208 2 is_stmt 1 view .LVU136
 723              		.loc 1 208 34 is_stmt 0 view .LVU137
 724 003a 6879     		ldrb	r0, [r5, #5]	@ zero_extendqisi2
 209:../../core/drivers/LSM303AGR/src/LSM303AGRSensor.c **** 			| magRegisterData[4];
 725              		.loc 1 209 21 view .LVU138
 726 003c 2979     		ldrb	r1, [r5, #4]	@ zero_extendqisi2
 727              		.loc 1 209 4 view .LVU139
 728 003e 41EA0021 		orr	r1, r1, r0, lsl #8
 208:../../core/drivers/LSM303AGR/src/LSM303AGRSensor.c **** 	magRawData[2] = (magRegisterData[5] << 8)
 729              		.loc 1 208 16 view .LVU140
 730 0042 9180     		strh	r1, [r2, #4]	@ movhi
 210:../../core/drivers/LSM303AGR/src/LSM303AGRSensor.c **** 
 211:../../core/drivers/LSM303AGR/src/LSM303AGRSensor.c **** 	/* Calculate the data. */
 212:../../core/drivers/LSM303AGR/src/LSM303AGRSensor.c **** 	pData[0] = (int32_t) (magRawData[0] * 1.5f);
 731              		.loc 1 212 2 is_stmt 1 view .LVU141
 732              		.loc 1 212 38 is_stmt 0 view .LVU142
 733 0044 07EE903A 		vmov	s15, r3	@ int
 734 0048 F8EEE77A 		vcvt.f32.s32	s15, s15
 735 004c F7EE086A 		vmov.f32	s13, #1.5e+0
 736 0050 67EEA67A 		vmul.f32	s15, s15, s13
 737              		.loc 1 212 13 view .LVU143
 738 0054 FDEEE77A 		vcvt.s32.f32	s15, s15
 739              		.loc 1 212 11 view .LVU144
 740 0058 C4ED007A 		vstr.32	s15, [r4]	@ int
 213:../../core/drivers/LSM303AGR/src/LSM303AGRSensor.c **** 	pData[1] = (int32_t) (magRawData[1] * 1.5f);
 741              		.loc 1 213 2 is_stmt 1 view .LVU145
 742              		.loc 1 213 34 is_stmt 0 view .LVU146
 743 005c B2F90230 		ldrsh	r3, [r2, #2]
 744 0060 07EE103A 		vmov	s14, r3	@ int
 745              		.loc 1 213 38 view .LVU147
 746 0064 B8EEC77A 		vcvt.f32.s32	s14, s14
 747 0068 27EE267A 		vmul.f32	s14, s14, s13
 748              		.loc 1 213 13 view .LVU148
 749 006c BDEEC77A 		vcvt.s32.f32	s14, s14
 750              		.loc 1 213 11 view .LVU149
 751 0070 84ED017A 		vstr.32	s14, [r4, #4]	@ int
 214:../../core/drivers/LSM303AGR/src/LSM303AGRSensor.c **** 	pData[2] = (int32_t) (magRawData[2] * 1.5f);
 752              		.loc 1 214 2 is_stmt 1 view .LVU150
 753              		.loc 1 214 34 is_stmt 0 view .LVU151
 754 0074 B2F90430 		ldrsh	r3, [r2, #4]
 755 0078 07EE903A 		vmov	s15, r3	@ int
 756              		.loc 1 214 38 view .LVU152
 757 007c F8EEE77A 		vcvt.f32.s32	s15, s15
 758 0080 67EEA67A 		vmul.f32	s15, s15, s13
 759              		.loc 1 214 13 view .LVU153
 760 0084 FDEEE77A 		vcvt.s32.f32	s15, s15
 761              		.loc 1 214 11 view .LVU154
 762 0088 C4ED027A 		vstr.32	s15, [r4, #8]	@ int
 215:../../core/drivers/LSM303AGR/src/LSM303AGRSensor.c **** 
 216:../../core/drivers/LSM303AGR/src/LSM303AGRSensor.c **** }
 763              		.loc 1 216 1 view .LVU155
ARM GAS  C:\Users\yvesk\AppData\Local\Temp\ccdu3E1X.s 			page 18


 764 008c 05B0     		add	sp, sp, #20
 765              	.LCFI20:
 766              		.cfi_def_cfa_offset 12
 767              		@ sp needed
 768 008e 30BD     		pop	{r4, r5, pc}
 769              	.LVL39:
 770              	.L51:
 771              		.loc 1 216 1 view .LVU156
 772              		.align	2
 773              	.L50:
 774 0090 00000000 		.word	magRegisterData
 775 0094 00000000 		.word	LSM303AGR_hi2c
 776 0098 00000000 		.word	magRawData
 777              		.cfi_endproc
 778              	.LFE134:
 780              		.section	.text.LSM303AGR_MAG_readMagneticRawData,"ax",%progbits
 781              		.align	1
 782              		.global	LSM303AGR_MAG_readMagneticRawData
 783              		.syntax unified
 784              		.thumb
 785              		.thumb_func
 786              		.fpu fpv4-sp-d16
 788              	LSM303AGR_MAG_readMagneticRawData:
 789              	.LVL40:
 790              	.LFB135:
 217:../../core/drivers/LSM303AGR/src/LSM303AGRSensor.c **** 
 218:../../core/drivers/LSM303AGR/src/LSM303AGRSensor.c **** /**
 219:../../core/drivers/LSM303AGR/src/LSM303AGRSensor.c ****  * Read the output registers of the magnetometer
 220:../../core/drivers/LSM303AGR/src/LSM303AGRSensor.c ****  * @param pData: a pointer to where the data needs to be stored
 221:../../core/drivers/LSM303AGR/src/LSM303AGRSensor.c ****  */
 222:../../core/drivers/LSM303AGR/src/LSM303AGRSensor.c **** void LSM303AGR_MAG_readMagneticRawData(uint16_t *pData) {
 791              		.loc 1 222 57 is_stmt 1 view -0
 792              		.cfi_startproc
 793              		@ args = 0, pretend = 0, frame = 0
 794              		@ frame_needed = 0, uses_anonymous_args = 0
 795              		.loc 1 222 57 is_stmt 0 view .LVU158
 796 0000 30B5     		push	{r4, r5, lr}
 797              	.LCFI21:
 798              		.cfi_def_cfa_offset 12
 799              		.cfi_offset 4, -12
 800              		.cfi_offset 5, -8
 801              		.cfi_offset 14, -4
 802 0002 85B0     		sub	sp, sp, #20
 803              	.LCFI22:
 804              		.cfi_def_cfa_offset 32
 805 0004 0546     		mov	r5, r0
 223:../../core/drivers/LSM303AGR/src/LSM303AGRSensor.c **** 	//magRegisterData[6];
 224:../../core/drivers/LSM303AGR/src/LSM303AGRSensor.c **** 			//magRawData[3];
 225:../../core/drivers/LSM303AGR/src/LSM303AGRSensor.c **** 	//LSM303AGR_MAG_TEMP_DATA rawData;
 226:../../core/drivers/LSM303AGR/src/LSM303AGRSensor.c **** 
 227:../../core/drivers/LSM303AGR/src/LSM303AGRSensor.c **** 	HAL_I2C_Mem_Read(LSM303AGR_hi2c, LSM303AGR_MAG_I2C_ADDRESS,
 806              		.loc 1 227 2 is_stmt 1 view .LVU159
 807 0006 4FF0FF33 		mov	r3, #-1
 808 000a 0293     		str	r3, [sp, #8]
 809 000c 0623     		movs	r3, #6
 810 000e 0193     		str	r3, [sp, #4]
 811 0010 0C4C     		ldr	r4, .L54
ARM GAS  C:\Users\yvesk\AppData\Local\Temp\ccdu3E1X.s 			page 19


 812 0012 0094     		str	r4, [sp]
 813 0014 0123     		movs	r3, #1
 814 0016 E822     		movs	r2, #232
 815 0018 3C21     		movs	r1, #60
 816 001a 0B48     		ldr	r0, .L54+4
 817              	.LVL41:
 818              		.loc 1 227 2 is_stmt 0 view .LVU160
 819 001c 0068     		ldr	r0, [r0]
 820 001e FFF7FEFF 		bl	HAL_I2C_Mem_Read
 821              	.LVL42:
 228:../../core/drivers/LSM303AGR/src/LSM303AGRSensor.c **** 	LSM303AGR_MAG_MULTI_READ, I2C_MEMADD_SIZE_8BIT, magRegisterData,
 229:../../core/drivers/LSM303AGR/src/LSM303AGRSensor.c **** 			sizeof(magRegisterData), HAL_MAX_DELAY);
 230:../../core/drivers/LSM303AGR/src/LSM303AGRSensor.c **** 
 231:../../core/drivers/LSM303AGR/src/LSM303AGRSensor.c **** 	pData[0] = (magRegisterData[1] << 8)
 822              		.loc 1 231 2 is_stmt 1 view .LVU161
 823              		.loc 1 231 29 is_stmt 0 view .LVU162
 824 0022 6278     		ldrb	r2, [r4, #1]	@ zero_extendqisi2
 232:../../core/drivers/LSM303AGR/src/LSM303AGRSensor.c **** 			| magRegisterData[0];
 825              		.loc 1 232 21 view .LVU163
 826 0024 2378     		ldrb	r3, [r4]	@ zero_extendqisi2
 827              		.loc 1 232 4 view .LVU164
 828 0026 43EA0223 		orr	r3, r3, r2, lsl #8
 231:../../core/drivers/LSM303AGR/src/LSM303AGRSensor.c **** 			| magRegisterData[0];
 829              		.loc 1 231 11 view .LVU165
 830 002a 2B80     		strh	r3, [r5]	@ movhi
 233:../../core/drivers/LSM303AGR/src/LSM303AGRSensor.c **** 	pData[1] = (magRegisterData[3] << 8)
 831              		.loc 1 233 2 is_stmt 1 view .LVU166
 832              		.loc 1 233 29 is_stmt 0 view .LVU167
 833 002c E278     		ldrb	r2, [r4, #3]	@ zero_extendqisi2
 234:../../core/drivers/LSM303AGR/src/LSM303AGRSensor.c **** 			| magRegisterData[2];
 834              		.loc 1 234 21 view .LVU168
 835 002e A378     		ldrb	r3, [r4, #2]	@ zero_extendqisi2
 836              		.loc 1 234 4 view .LVU169
 837 0030 43EA0223 		orr	r3, r3, r2, lsl #8
 233:../../core/drivers/LSM303AGR/src/LSM303AGRSensor.c **** 	pData[1] = (magRegisterData[3] << 8)
 838              		.loc 1 233 11 view .LVU170
 839 0034 6B80     		strh	r3, [r5, #2]	@ movhi
 235:../../core/drivers/LSM303AGR/src/LSM303AGRSensor.c **** 	pData[2] = (magRegisterData[5] << 8)
 840              		.loc 1 235 2 is_stmt 1 view .LVU171
 841              		.loc 1 235 29 is_stmt 0 view .LVU172
 842 0036 6279     		ldrb	r2, [r4, #5]	@ zero_extendqisi2
 236:../../core/drivers/LSM303AGR/src/LSM303AGRSensor.c **** 			| magRegisterData[4];
 843              		.loc 1 236 21 view .LVU173
 844 0038 2379     		ldrb	r3, [r4, #4]	@ zero_extendqisi2
 845              		.loc 1 236 4 view .LVU174
 846 003a 43EA0223 		orr	r3, r3, r2, lsl #8
 235:../../core/drivers/LSM303AGR/src/LSM303AGRSensor.c **** 	pData[2] = (magRegisterData[5] << 8)
 847              		.loc 1 235 11 view .LVU175
 848 003e AB80     		strh	r3, [r5, #4]	@ movhi
 237:../../core/drivers/LSM303AGR/src/LSM303AGRSensor.c **** 
 238:../../core/drivers/LSM303AGR/src/LSM303AGRSensor.c **** 
 239:../../core/drivers/LSM303AGR/src/LSM303AGRSensor.c **** }
 849              		.loc 1 239 1 view .LVU176
 850 0040 05B0     		add	sp, sp, #20
 851              	.LCFI23:
 852              		.cfi_def_cfa_offset 12
 853              		@ sp needed
ARM GAS  C:\Users\yvesk\AppData\Local\Temp\ccdu3E1X.s 			page 20


 854 0042 30BD     		pop	{r4, r5, pc}
 855              	.LVL43:
 856              	.L55:
 857              		.loc 1 239 1 view .LVU177
 858              		.align	2
 859              	.L54:
 860 0044 00000000 		.word	magRegisterData
 861 0048 00000000 		.word	LSM303AGR_hi2c
 862              		.cfi_endproc
 863              	.LFE135:
 865              		.section	.text.LSM303AGR_ACC_readAccelerationRawData,"ax",%progbits
 866              		.align	1
 867              		.global	LSM303AGR_ACC_readAccelerationRawData
 868              		.syntax unified
 869              		.thumb
 870              		.thumb_func
 871              		.fpu fpv4-sp-d16
 873              	LSM303AGR_ACC_readAccelerationRawData:
 874              	.LVL44:
 875              	.LFB136:
 240:../../core/drivers/LSM303AGR/src/LSM303AGRSensor.c **** 
 241:../../core/drivers/LSM303AGR/src/LSM303AGRSensor.c **** void LSM303AGR_ACC_readAccelerationRawData(uint16_t *pData) {
 876              		.loc 1 241 61 is_stmt 1 view -0
 877              		.cfi_startproc
 878              		@ args = 0, pretend = 0, frame = 0
 879              		@ frame_needed = 0, uses_anonymous_args = 0
 880              		.loc 1 241 61 is_stmt 0 view .LVU179
 881 0000 30B5     		push	{r4, r5, lr}
 882              	.LCFI24:
 883              		.cfi_def_cfa_offset 12
 884              		.cfi_offset 4, -12
 885              		.cfi_offset 5, -8
 886              		.cfi_offset 14, -4
 887 0002 85B0     		sub	sp, sp, #20
 888              	.LCFI25:
 889              		.cfi_def_cfa_offset 32
 890 0004 0546     		mov	r5, r0
 242:../../core/drivers/LSM303AGR/src/LSM303AGRSensor.c **** 	//accRegisterData[6];
 243:../../core/drivers/LSM303AGR/src/LSM303AGRSensor.c **** 	//accRawData[3];
 244:../../core/drivers/LSM303AGR/src/LSM303AGRSensor.c **** 
 245:../../core/drivers/LSM303AGR/src/LSM303AGRSensor.c **** 	//magRegisterData[6];
 246:../../core/drivers/LSM303AGR/src/LSM303AGRSensor.c **** 	//magRawData[3];
 247:../../core/drivers/LSM303AGR/src/LSM303AGRSensor.c **** 	//LSM303AGR_ACC_TEMP_DATA rawData;
 248:../../core/drivers/LSM303AGR/src/LSM303AGRSensor.c **** 
 249:../../core/drivers/LSM303AGR/src/LSM303AGRSensor.c **** 	HAL_I2C_Mem_Read(LSM303AGR_hi2c, LSM303AGR_ACC_I2C_ADDRESS,	LSM303AGR_ACC_MULTI_READ, I2C_MEMADD_S
 891              		.loc 1 249 2 is_stmt 1 view .LVU180
 892 0006 4FF0FF33 		mov	r3, #-1
 893 000a 0293     		str	r3, [sp, #8]
 894 000c 0623     		movs	r3, #6
 895 000e 0193     		str	r3, [sp, #4]
 896 0010 0C4C     		ldr	r4, .L58
 897 0012 0094     		str	r4, [sp]
 898 0014 0123     		movs	r3, #1
 899 0016 A822     		movs	r2, #168
 900 0018 3221     		movs	r1, #50
 901 001a 0B48     		ldr	r0, .L58+4
 902              	.LVL45:
ARM GAS  C:\Users\yvesk\AppData\Local\Temp\ccdu3E1X.s 			page 21


 903              		.loc 1 249 2 is_stmt 0 view .LVU181
 904 001c 0068     		ldr	r0, [r0]
 905 001e FFF7FEFF 		bl	HAL_I2C_Mem_Read
 906              	.LVL46:
 250:../../core/drivers/LSM303AGR/src/LSM303AGRSensor.c **** 
 251:../../core/drivers/LSM303AGR/src/LSM303AGRSensor.c **** 	pData[0] = (accRegisterData[1] << 8)	| accRegisterData[0];
 907              		.loc 1 251 2 is_stmt 1 view .LVU182
 908              		.loc 1 251 29 is_stmt 0 view .LVU183
 909 0022 6278     		ldrb	r2, [r4, #1]	@ zero_extendqisi2
 910              		.loc 1 251 56 view .LVU184
 911 0024 2378     		ldrb	r3, [r4]	@ zero_extendqisi2
 912              		.loc 1 251 39 view .LVU185
 913 0026 43EA0223 		orr	r3, r3, r2, lsl #8
 914              		.loc 1 251 11 view .LVU186
 915 002a 2B80     		strh	r3, [r5]	@ movhi
 252:../../core/drivers/LSM303AGR/src/LSM303AGRSensor.c **** 	pData[1] = (accRegisterData[3] << 8)| accRegisterData[2];
 916              		.loc 1 252 2 is_stmt 1 view .LVU187
 917              		.loc 1 252 29 is_stmt 0 view .LVU188
 918 002c E278     		ldrb	r2, [r4, #3]	@ zero_extendqisi2
 919              		.loc 1 252 55 view .LVU189
 920 002e A378     		ldrb	r3, [r4, #2]	@ zero_extendqisi2
 921              		.loc 1 252 38 view .LVU190
 922 0030 43EA0223 		orr	r3, r3, r2, lsl #8
 923              		.loc 1 252 11 view .LVU191
 924 0034 6B80     		strh	r3, [r5, #2]	@ movhi
 253:../../core/drivers/LSM303AGR/src/LSM303AGRSensor.c **** 	pData[2] = (accRegisterData[5] << 8)| accRegisterData[4];
 925              		.loc 1 253 2 is_stmt 1 view .LVU192
 926              		.loc 1 253 29 is_stmt 0 view .LVU193
 927 0036 6279     		ldrb	r2, [r4, #5]	@ zero_extendqisi2
 928              		.loc 1 253 55 view .LVU194
 929 0038 2379     		ldrb	r3, [r4, #4]	@ zero_extendqisi2
 930              		.loc 1 253 38 view .LVU195
 931 003a 43EA0223 		orr	r3, r3, r2, lsl #8
 932              		.loc 1 253 11 view .LVU196
 933 003e AB80     		strh	r3, [r5, #4]	@ movhi
 254:../../core/drivers/LSM303AGR/src/LSM303AGRSensor.c **** 
 255:../../core/drivers/LSM303AGR/src/LSM303AGRSensor.c **** 	/* Apply proper shift and sensitivity */
 256:../../core/drivers/LSM303AGR/src/LSM303AGRSensor.c **** 	// Normal mode 10-bit, shift = 6 and FS = 2
 257:../../core/drivers/LSM303AGR/src/LSM303AGRSensor.c **** 	//pData[0] = (int32_t) (((accRawData[0] >> 6) * 3900 + 500) / 1000);
 258:../../core/drivers/LSM303AGR/src/LSM303AGRSensor.c **** 	//pData[1] = (int32_t) (((accRawData[1] >> 6) * 3900 + 500) / 1000);
 259:../../core/drivers/LSM303AGR/src/LSM303AGRSensor.c **** 	//pData[2] = (int32_t) (((accRawData[2] >> 6) * 3900 + 500) / 1000);
 260:../../core/drivers/LSM303AGR/src/LSM303AGRSensor.c **** 
 261:../../core/drivers/LSM303AGR/src/LSM303AGRSensor.c **** }
 934              		.loc 1 261 1 view .LVU197
 935 0040 05B0     		add	sp, sp, #20
 936              	.LCFI26:
 937              		.cfi_def_cfa_offset 12
 938              		@ sp needed
 939 0042 30BD     		pop	{r4, r5, pc}
 940              	.LVL47:
 941              	.L59:
 942              		.loc 1 261 1 view .LVU198
 943              		.align	2
 944              	.L58:
 945 0044 00000000 		.word	accRegisterData
 946 0048 00000000 		.word	LSM303AGR_hi2c
 947              		.cfi_endproc
ARM GAS  C:\Users\yvesk\AppData\Local\Temp\ccdu3E1X.s 			page 22


 948              	.LFE136:
 950              		.comm	magRawData,6,4
 951              		.comm	magRegisterData,6,4
 952              		.comm	accRawData,6,4
 953              		.comm	accRegisterData,6,4
 954              		.comm	LSM303AGR_hi2c,4,4
 955              		.comm	LSM303AGR_setting,1,1
 956              		.text
 957              	.Letext0:
 958              		.file 2 "c:\\program files (x86)\\gnu tools arm embedded\\8 2019-q3-update\\arm-none-eabi\\include
 959              		.file 3 "c:\\program files (x86)\\gnu tools arm embedded\\8 2019-q3-update\\arm-none-eabi\\include
 960              		.file 4 "../../core/ST/CMSIS/Include/core_cm4.h"
 961              		.file 5 "../../core/ST/CMSIS/Device/ST/STM32L4xx/Include/system_stm32l4xx.h"
 962              		.file 6 "../../core/ST/CMSIS/Device/ST/STM32L4xx/Include/stm32l496xx.h"
 963              		.file 7 "../../core/ST/STM32L4xx_HAL_Driver/Inc/stm32l4xx_hal_def.h"
 964              		.file 8 "../../core/ST/STM32L4xx_HAL_Driver/Inc/stm32l4xx_hal_dma.h"
 965              		.file 9 "../../core/ST/STM32L4xx_HAL_Driver/Inc/stm32l4xx_hal_i2c.h"
 966              		.file 10 "../../core/ST/STM32L4xx_HAL_Driver/Inc/stm32l4xx_hal.h"
 967              		.file 11 "../../core/drivers/LSM303AGR/inc/LSM303AGRSensor.h"
ARM GAS  C:\Users\yvesk\AppData\Local\Temp\ccdu3E1X.s 			page 23

