ARM GAS  C:\Users\yvesk\AppData\Local\Temp\ccYX5Txy.s 			page 1


   1              		.cpu cortex-m4
   2              		.eabi_attribute 27, 1
   3              		.eabi_attribute 28, 1
   4              		.eabi_attribute 20, 1
   5              		.eabi_attribute 21, 1
   6              		.eabi_attribute 23, 3
   7              		.eabi_attribute 24, 1
   8              		.eabi_attribute 25, 1
   9              		.eabi_attribute 26, 1
  10              		.eabi_attribute 30, 1
  11              		.eabi_attribute 34, 1
  12              		.eabi_attribute 18, 4
  13              		.file	"stm32l4xx_hal.c"
  14              		.text
  15              	.Ltext0:
  16              		.cfi_sections	.debug_frame
  17              		.section	.text.HAL_MspInit,"ax",%progbits
  18              		.align	1
  19              		.weak	HAL_MspInit
  20              		.arch armv7e-m
  21              		.syntax unified
  22              		.thumb
  23              		.thumb_func
  24              		.fpu fpv4-sp-d16
  26              	HAL_MspInit:
  27              	.LFB125:
  28              		.file 1 "../../core/ST/STM32L4xx_HAL_Driver/Src/stm32l4xx_hal.c"
   1:../../core/ST/STM32L4xx_HAL_Driver/Src/stm32l4xx_hal.c **** /**
   2:../../core/ST/STM32L4xx_HAL_Driver/Src/stm32l4xx_hal.c ****   ******************************************************************************
   3:../../core/ST/STM32L4xx_HAL_Driver/Src/stm32l4xx_hal.c ****   * @file    stm32l4xx_hal.c
   4:../../core/ST/STM32L4xx_HAL_Driver/Src/stm32l4xx_hal.c ****   * @author  MCD Application Team
   5:../../core/ST/STM32L4xx_HAL_Driver/Src/stm32l4xx_hal.c ****   * @brief   HAL module driver.
   6:../../core/ST/STM32L4xx_HAL_Driver/Src/stm32l4xx_hal.c ****   *          This is the common part of the HAL initialization
   7:../../core/ST/STM32L4xx_HAL_Driver/Src/stm32l4xx_hal.c ****   *
   8:../../core/ST/STM32L4xx_HAL_Driver/Src/stm32l4xx_hal.c ****   @verbatim
   9:../../core/ST/STM32L4xx_HAL_Driver/Src/stm32l4xx_hal.c ****   ==============================================================================
  10:../../core/ST/STM32L4xx_HAL_Driver/Src/stm32l4xx_hal.c ****                      ##### How to use this driver #####
  11:../../core/ST/STM32L4xx_HAL_Driver/Src/stm32l4xx_hal.c ****   ==============================================================================
  12:../../core/ST/STM32L4xx_HAL_Driver/Src/stm32l4xx_hal.c ****     [..]
  13:../../core/ST/STM32L4xx_HAL_Driver/Src/stm32l4xx_hal.c ****     The common HAL driver contains a set of generic and common APIs that can be
  14:../../core/ST/STM32L4xx_HAL_Driver/Src/stm32l4xx_hal.c ****     used by the PPP peripheral drivers and the user to start using the HAL.
  15:../../core/ST/STM32L4xx_HAL_Driver/Src/stm32l4xx_hal.c ****     [..]
  16:../../core/ST/STM32L4xx_HAL_Driver/Src/stm32l4xx_hal.c ****     The HAL contains two APIs' categories:
  17:../../core/ST/STM32L4xx_HAL_Driver/Src/stm32l4xx_hal.c ****          (+) Common HAL APIs
  18:../../core/ST/STM32L4xx_HAL_Driver/Src/stm32l4xx_hal.c ****          (+) Services HAL APIs
  19:../../core/ST/STM32L4xx_HAL_Driver/Src/stm32l4xx_hal.c **** 
  20:../../core/ST/STM32L4xx_HAL_Driver/Src/stm32l4xx_hal.c ****   @endverbatim
  21:../../core/ST/STM32L4xx_HAL_Driver/Src/stm32l4xx_hal.c ****   ******************************************************************************
  22:../../core/ST/STM32L4xx_HAL_Driver/Src/stm32l4xx_hal.c ****   * @attention
  23:../../core/ST/STM32L4xx_HAL_Driver/Src/stm32l4xx_hal.c ****   *
  24:../../core/ST/STM32L4xx_HAL_Driver/Src/stm32l4xx_hal.c ****   * <h2><center>&copy; COPYRIGHT(c) 2017 STMicroelectronics</center></h2>
  25:../../core/ST/STM32L4xx_HAL_Driver/Src/stm32l4xx_hal.c ****   *
  26:../../core/ST/STM32L4xx_HAL_Driver/Src/stm32l4xx_hal.c ****   * Redistribution and use in source and binary forms, with or without modification,
  27:../../core/ST/STM32L4xx_HAL_Driver/Src/stm32l4xx_hal.c ****   * are permitted provided that the following conditions are met:
  28:../../core/ST/STM32L4xx_HAL_Driver/Src/stm32l4xx_hal.c ****   *   1. Redistributions of source code must retain the above copyright notice,
  29:../../core/ST/STM32L4xx_HAL_Driver/Src/stm32l4xx_hal.c ****   *      this list of conditions and the following disclaimer.
  30:../../core/ST/STM32L4xx_HAL_Driver/Src/stm32l4xx_hal.c ****   *   2. Redistributions in binary form must reproduce the above copyright notice,
ARM GAS  C:\Users\yvesk\AppData\Local\Temp\ccYX5Txy.s 			page 2


  31:../../core/ST/STM32L4xx_HAL_Driver/Src/stm32l4xx_hal.c ****   *      this list of conditions and the following disclaimer in the documentation
  32:../../core/ST/STM32L4xx_HAL_Driver/Src/stm32l4xx_hal.c ****   *      and/or other materials provided with the distribution.
  33:../../core/ST/STM32L4xx_HAL_Driver/Src/stm32l4xx_hal.c ****   *   3. Neither the name of STMicroelectronics nor the names of its contributors
  34:../../core/ST/STM32L4xx_HAL_Driver/Src/stm32l4xx_hal.c ****   *      may be used to endorse or promote products derived from this software
  35:../../core/ST/STM32L4xx_HAL_Driver/Src/stm32l4xx_hal.c ****   *      without specific prior written permission.
  36:../../core/ST/STM32L4xx_HAL_Driver/Src/stm32l4xx_hal.c ****   *
  37:../../core/ST/STM32L4xx_HAL_Driver/Src/stm32l4xx_hal.c ****   * THIS SOFTWARE IS PROVIDED BY THE COPYRIGHT HOLDERS AND CONTRIBUTORS "AS IS"
  38:../../core/ST/STM32L4xx_HAL_Driver/Src/stm32l4xx_hal.c ****   * AND ANY EXPRESS OR IMPLIED WARRANTIES, INCLUDING, BUT NOT LIMITED TO, THE
  39:../../core/ST/STM32L4xx_HAL_Driver/Src/stm32l4xx_hal.c ****   * IMPLIED WARRANTIES OF MERCHANTABILITY AND FITNESS FOR A PARTICULAR PURPOSE ARE
  40:../../core/ST/STM32L4xx_HAL_Driver/Src/stm32l4xx_hal.c ****   * DISCLAIMED. IN NO EVENT SHALL THE COPYRIGHT HOLDER OR CONTRIBUTORS BE LIABLE
  41:../../core/ST/STM32L4xx_HAL_Driver/Src/stm32l4xx_hal.c ****   * FOR ANY DIRECT, INDIRECT, INCIDENTAL, SPECIAL, EXEMPLARY, OR CONSEQUENTIAL
  42:../../core/ST/STM32L4xx_HAL_Driver/Src/stm32l4xx_hal.c ****   * DAMAGES (INCLUDING, BUT NOT LIMITED TO, PROCUREMENT OF SUBSTITUTE GOODS OR
  43:../../core/ST/STM32L4xx_HAL_Driver/Src/stm32l4xx_hal.c ****   * SERVICES; LOSS OF USE, DATA, OR PROFITS; OR BUSINESS INTERRUPTION) HOWEVER
  44:../../core/ST/STM32L4xx_HAL_Driver/Src/stm32l4xx_hal.c ****   * CAUSED AND ON ANY THEORY OF LIABILITY, WHETHER IN CONTRACT, STRICT LIABILITY,
  45:../../core/ST/STM32L4xx_HAL_Driver/Src/stm32l4xx_hal.c ****   * OR TORT (INCLUDING NEGLIGENCE OR OTHERWISE) ARISING IN ANY WAY OUT OF THE USE
  46:../../core/ST/STM32L4xx_HAL_Driver/Src/stm32l4xx_hal.c ****   * OF THIS SOFTWARE, EVEN IF ADVISED OF THE POSSIBILITY OF SUCH DAMAGE.
  47:../../core/ST/STM32L4xx_HAL_Driver/Src/stm32l4xx_hal.c ****   *
  48:../../core/ST/STM32L4xx_HAL_Driver/Src/stm32l4xx_hal.c ****   ******************************************************************************
  49:../../core/ST/STM32L4xx_HAL_Driver/Src/stm32l4xx_hal.c ****   */
  50:../../core/ST/STM32L4xx_HAL_Driver/Src/stm32l4xx_hal.c **** 
  51:../../core/ST/STM32L4xx_HAL_Driver/Src/stm32l4xx_hal.c **** /* Includes ------------------------------------------------------------------*/
  52:../../core/ST/STM32L4xx_HAL_Driver/Src/stm32l4xx_hal.c **** #include "stm32l4xx_hal.h"
  53:../../core/ST/STM32L4xx_HAL_Driver/Src/stm32l4xx_hal.c **** 
  54:../../core/ST/STM32L4xx_HAL_Driver/Src/stm32l4xx_hal.c **** /** @addtogroup STM32L4xx_HAL_Driver
  55:../../core/ST/STM32L4xx_HAL_Driver/Src/stm32l4xx_hal.c ****   * @{
  56:../../core/ST/STM32L4xx_HAL_Driver/Src/stm32l4xx_hal.c ****   */
  57:../../core/ST/STM32L4xx_HAL_Driver/Src/stm32l4xx_hal.c **** 
  58:../../core/ST/STM32L4xx_HAL_Driver/Src/stm32l4xx_hal.c **** /** @defgroup HAL HAL
  59:../../core/ST/STM32L4xx_HAL_Driver/Src/stm32l4xx_hal.c ****   * @brief HAL module driver
  60:../../core/ST/STM32L4xx_HAL_Driver/Src/stm32l4xx_hal.c ****   * @{
  61:../../core/ST/STM32L4xx_HAL_Driver/Src/stm32l4xx_hal.c ****   */
  62:../../core/ST/STM32L4xx_HAL_Driver/Src/stm32l4xx_hal.c **** 
  63:../../core/ST/STM32L4xx_HAL_Driver/Src/stm32l4xx_hal.c **** #ifdef HAL_MODULE_ENABLED
  64:../../core/ST/STM32L4xx_HAL_Driver/Src/stm32l4xx_hal.c **** 
  65:../../core/ST/STM32L4xx_HAL_Driver/Src/stm32l4xx_hal.c **** /* Private typedef -----------------------------------------------------------*/
  66:../../core/ST/STM32L4xx_HAL_Driver/Src/stm32l4xx_hal.c **** /* Private define ------------------------------------------------------------*/
  67:../../core/ST/STM32L4xx_HAL_Driver/Src/stm32l4xx_hal.c **** /**
  68:../../core/ST/STM32L4xx_HAL_Driver/Src/stm32l4xx_hal.c ****  * @brief STM32L4xx HAL Driver version number
  69:../../core/ST/STM32L4xx_HAL_Driver/Src/stm32l4xx_hal.c ****    */
  70:../../core/ST/STM32L4xx_HAL_Driver/Src/stm32l4xx_hal.c **** #define STM32L4XX_HAL_VERSION_MAIN   (0x01U) /*!< [31:24] main version */
  71:../../core/ST/STM32L4xx_HAL_Driver/Src/stm32l4xx_hal.c **** #define STM32L4XX_HAL_VERSION_SUB1   (0x09U) /*!< [23:16] sub1 version */
  72:../../core/ST/STM32L4xx_HAL_Driver/Src/stm32l4xx_hal.c **** #define STM32L4XX_HAL_VERSION_SUB2   (0x00U) /*!< [15:8]  sub2 version */
  73:../../core/ST/STM32L4xx_HAL_Driver/Src/stm32l4xx_hal.c **** #define STM32L4XX_HAL_VERSION_RC     (0x00U) /*!< [7:0]  release candidate */
  74:../../core/ST/STM32L4xx_HAL_Driver/Src/stm32l4xx_hal.c **** #define STM32L4XX_HAL_VERSION        ((STM32L4XX_HAL_VERSION_MAIN  << 24U)\
  75:../../core/ST/STM32L4xx_HAL_Driver/Src/stm32l4xx_hal.c ****                                       |(STM32L4XX_HAL_VERSION_SUB1 << 16U)\
  76:../../core/ST/STM32L4xx_HAL_Driver/Src/stm32l4xx_hal.c ****                                       |(STM32L4XX_HAL_VERSION_SUB2 << 8U)\
  77:../../core/ST/STM32L4xx_HAL_Driver/Src/stm32l4xx_hal.c ****                                       |(STM32L4XX_HAL_VERSION_RC))
  78:../../core/ST/STM32L4xx_HAL_Driver/Src/stm32l4xx_hal.c **** 
  79:../../core/ST/STM32L4xx_HAL_Driver/Src/stm32l4xx_hal.c **** #if defined(VREFBUF)
  80:../../core/ST/STM32L4xx_HAL_Driver/Src/stm32l4xx_hal.c **** #define VREFBUF_TIMEOUT_VALUE     10U   /* 10 ms (to be confirmed) */
  81:../../core/ST/STM32L4xx_HAL_Driver/Src/stm32l4xx_hal.c **** #endif /* VREFBUF */
  82:../../core/ST/STM32L4xx_HAL_Driver/Src/stm32l4xx_hal.c **** 
  83:../../core/ST/STM32L4xx_HAL_Driver/Src/stm32l4xx_hal.c **** /* ------------ SYSCFG registers bit address in the alias region ------------ */
  84:../../core/ST/STM32L4xx_HAL_Driver/Src/stm32l4xx_hal.c **** #define SYSCFG_OFFSET             (SYSCFG_BASE - PERIPH_BASE)
  85:../../core/ST/STM32L4xx_HAL_Driver/Src/stm32l4xx_hal.c **** /* ---  MEMRMP Register ---*/
  86:../../core/ST/STM32L4xx_HAL_Driver/Src/stm32l4xx_hal.c **** /* Alias word address of FB_MODE bit */
  87:../../core/ST/STM32L4xx_HAL_Driver/Src/stm32l4xx_hal.c **** #define MEMRMP_OFFSET             SYSCFG_OFFSET
ARM GAS  C:\Users\yvesk\AppData\Local\Temp\ccYX5Txy.s 			page 3


  88:../../core/ST/STM32L4xx_HAL_Driver/Src/stm32l4xx_hal.c **** #define FB_MODE_BitNumber         8U
  89:../../core/ST/STM32L4xx_HAL_Driver/Src/stm32l4xx_hal.c **** #define FB_MODE_BB                (PERIPH_BB_BASE + (MEMRMP_OFFSET * 32U) + (FB_MODE_BitNumber * 4U
  90:../../core/ST/STM32L4xx_HAL_Driver/Src/stm32l4xx_hal.c **** 
  91:../../core/ST/STM32L4xx_HAL_Driver/Src/stm32l4xx_hal.c **** /* --- SCSR Register ---*/
  92:../../core/ST/STM32L4xx_HAL_Driver/Src/stm32l4xx_hal.c **** /* Alias word address of SRAM2ER bit */
  93:../../core/ST/STM32L4xx_HAL_Driver/Src/stm32l4xx_hal.c **** #define SCSR_OFFSET               (SYSCFG_OFFSET + 0x18U)
  94:../../core/ST/STM32L4xx_HAL_Driver/Src/stm32l4xx_hal.c **** #define BRER_BitNumber            0U
  95:../../core/ST/STM32L4xx_HAL_Driver/Src/stm32l4xx_hal.c **** #define SCSR_SRAM2ER_BB           (PERIPH_BB_BASE + (SCSR_OFFSET * 32U) + (BRER_BitNumber * 4U))
  96:../../core/ST/STM32L4xx_HAL_Driver/Src/stm32l4xx_hal.c **** 
  97:../../core/ST/STM32L4xx_HAL_Driver/Src/stm32l4xx_hal.c **** /* Private macro -------------------------------------------------------------*/
  98:../../core/ST/STM32L4xx_HAL_Driver/Src/stm32l4xx_hal.c **** /* Private variables ---------------------------------------------------------*/
  99:../../core/ST/STM32L4xx_HAL_Driver/Src/stm32l4xx_hal.c **** /* Private function prototypes -----------------------------------------------*/
 100:../../core/ST/STM32L4xx_HAL_Driver/Src/stm32l4xx_hal.c **** 
 101:../../core/ST/STM32L4xx_HAL_Driver/Src/stm32l4xx_hal.c **** /* Exported variables --------------------------------------------------------*/
 102:../../core/ST/STM32L4xx_HAL_Driver/Src/stm32l4xx_hal.c **** 
 103:../../core/ST/STM32L4xx_HAL_Driver/Src/stm32l4xx_hal.c **** /** @defgroup HAL_Exported_Variables HAL Exported Variables
 104:../../core/ST/STM32L4xx_HAL_Driver/Src/stm32l4xx_hal.c ****   * @{
 105:../../core/ST/STM32L4xx_HAL_Driver/Src/stm32l4xx_hal.c ****   */
 106:../../core/ST/STM32L4xx_HAL_Driver/Src/stm32l4xx_hal.c **** __IO uint32_t uwTick;
 107:../../core/ST/STM32L4xx_HAL_Driver/Src/stm32l4xx_hal.c **** /**
 108:../../core/ST/STM32L4xx_HAL_Driver/Src/stm32l4xx_hal.c ****   * @}
 109:../../core/ST/STM32L4xx_HAL_Driver/Src/stm32l4xx_hal.c ****   */
 110:../../core/ST/STM32L4xx_HAL_Driver/Src/stm32l4xx_hal.c **** 
 111:../../core/ST/STM32L4xx_HAL_Driver/Src/stm32l4xx_hal.c **** /* Exported functions --------------------------------------------------------*/
 112:../../core/ST/STM32L4xx_HAL_Driver/Src/stm32l4xx_hal.c **** 
 113:../../core/ST/STM32L4xx_HAL_Driver/Src/stm32l4xx_hal.c **** /** @defgroup HAL_Exported_Functions HAL Exported Functions
 114:../../core/ST/STM32L4xx_HAL_Driver/Src/stm32l4xx_hal.c ****   * @{
 115:../../core/ST/STM32L4xx_HAL_Driver/Src/stm32l4xx_hal.c ****   */
 116:../../core/ST/STM32L4xx_HAL_Driver/Src/stm32l4xx_hal.c **** 
 117:../../core/ST/STM32L4xx_HAL_Driver/Src/stm32l4xx_hal.c **** /** @defgroup HAL_Exported_Functions_Group1 Initialization and de-initialization Functions
 118:../../core/ST/STM32L4xx_HAL_Driver/Src/stm32l4xx_hal.c ****  *  @brief    Initialization and de-initialization functions
 119:../../core/ST/STM32L4xx_HAL_Driver/Src/stm32l4xx_hal.c ****  *
 120:../../core/ST/STM32L4xx_HAL_Driver/Src/stm32l4xx_hal.c **** @verbatim
 121:../../core/ST/STM32L4xx_HAL_Driver/Src/stm32l4xx_hal.c ****  ===============================================================================
 122:../../core/ST/STM32L4xx_HAL_Driver/Src/stm32l4xx_hal.c ****               ##### Initialization and de-initialization functions #####
 123:../../core/ST/STM32L4xx_HAL_Driver/Src/stm32l4xx_hal.c ****  ===============================================================================
 124:../../core/ST/STM32L4xx_HAL_Driver/Src/stm32l4xx_hal.c ****     [..]  This section provides functions allowing to:
 125:../../core/ST/STM32L4xx_HAL_Driver/Src/stm32l4xx_hal.c ****       (+) Initialize the Flash interface the NVIC allocation and initial time base
 126:../../core/ST/STM32L4xx_HAL_Driver/Src/stm32l4xx_hal.c ****           clock configuration.
 127:../../core/ST/STM32L4xx_HAL_Driver/Src/stm32l4xx_hal.c ****       (+) De-initialize common part of the HAL.
 128:../../core/ST/STM32L4xx_HAL_Driver/Src/stm32l4xx_hal.c ****       (+) Configure the time base source to have 1ms time base with a dedicated
 129:../../core/ST/STM32L4xx_HAL_Driver/Src/stm32l4xx_hal.c ****           Tick interrupt priority.
 130:../../core/ST/STM32L4xx_HAL_Driver/Src/stm32l4xx_hal.c ****         (++) SysTick timer is used by default as source of time base, but user
 131:../../core/ST/STM32L4xx_HAL_Driver/Src/stm32l4xx_hal.c ****              can eventually implement his proper time base source (a general purpose
 132:../../core/ST/STM32L4xx_HAL_Driver/Src/stm32l4xx_hal.c ****              timer for example or other time source), keeping in mind that Time base
 133:../../core/ST/STM32L4xx_HAL_Driver/Src/stm32l4xx_hal.c ****              duration should be kept 1ms since PPP_TIMEOUT_VALUEs are defined and
 134:../../core/ST/STM32L4xx_HAL_Driver/Src/stm32l4xx_hal.c ****              handled in milliseconds basis.
 135:../../core/ST/STM32L4xx_HAL_Driver/Src/stm32l4xx_hal.c ****         (++) Time base configuration function (HAL_InitTick ()) is called automatically
 136:../../core/ST/STM32L4xx_HAL_Driver/Src/stm32l4xx_hal.c ****              at the beginning of the program after reset by HAL_Init() or at any time
 137:../../core/ST/STM32L4xx_HAL_Driver/Src/stm32l4xx_hal.c ****              when clock is configured, by HAL_RCC_ClockConfig().
 138:../../core/ST/STM32L4xx_HAL_Driver/Src/stm32l4xx_hal.c ****         (++) Source of time base is configured  to generate interrupts at regular
 139:../../core/ST/STM32L4xx_HAL_Driver/Src/stm32l4xx_hal.c ****              time intervals. Care must be taken if HAL_Delay() is called from a
 140:../../core/ST/STM32L4xx_HAL_Driver/Src/stm32l4xx_hal.c ****              peripheral ISR process, the Tick interrupt line must have higher priority
 141:../../core/ST/STM32L4xx_HAL_Driver/Src/stm32l4xx_hal.c ****             (numerically lower) than the peripheral interrupt. Otherwise the caller
 142:../../core/ST/STM32L4xx_HAL_Driver/Src/stm32l4xx_hal.c ****             ISR process will be blocked.
 143:../../core/ST/STM32L4xx_HAL_Driver/Src/stm32l4xx_hal.c ****        (++) functions affecting time base configurations are declared as __weak
 144:../../core/ST/STM32L4xx_HAL_Driver/Src/stm32l4xx_hal.c ****              to make  override possible  in case of other  implementations in user file.
ARM GAS  C:\Users\yvesk\AppData\Local\Temp\ccYX5Txy.s 			page 4


 145:../../core/ST/STM32L4xx_HAL_Driver/Src/stm32l4xx_hal.c **** @endverbatim
 146:../../core/ST/STM32L4xx_HAL_Driver/Src/stm32l4xx_hal.c ****   * @{
 147:../../core/ST/STM32L4xx_HAL_Driver/Src/stm32l4xx_hal.c ****   */
 148:../../core/ST/STM32L4xx_HAL_Driver/Src/stm32l4xx_hal.c **** 
 149:../../core/ST/STM32L4xx_HAL_Driver/Src/stm32l4xx_hal.c **** /**
 150:../../core/ST/STM32L4xx_HAL_Driver/Src/stm32l4xx_hal.c ****   * @brief  Configure the Flash prefetch, the Instruction and Data caches,
 151:../../core/ST/STM32L4xx_HAL_Driver/Src/stm32l4xx_hal.c ****   *         the time base source, NVIC and any required global low level hardware
 152:../../core/ST/STM32L4xx_HAL_Driver/Src/stm32l4xx_hal.c ****   *         by calling the HAL_MspInit() callback function to be optionally defined in user file
 153:../../core/ST/STM32L4xx_HAL_Driver/Src/stm32l4xx_hal.c ****   *         stm32l4xx_hal_msp.c.
 154:../../core/ST/STM32L4xx_HAL_Driver/Src/stm32l4xx_hal.c ****   *
 155:../../core/ST/STM32L4xx_HAL_Driver/Src/stm32l4xx_hal.c ****   * @note   HAL_Init() function is called at the beginning of program after reset and before
 156:../../core/ST/STM32L4xx_HAL_Driver/Src/stm32l4xx_hal.c ****   *         the clock configuration.
 157:../../core/ST/STM32L4xx_HAL_Driver/Src/stm32l4xx_hal.c ****   *
 158:../../core/ST/STM32L4xx_HAL_Driver/Src/stm32l4xx_hal.c ****   * @note   In the default implementation the System Timer (Systick) is used as source of time base
 159:../../core/ST/STM32L4xx_HAL_Driver/Src/stm32l4xx_hal.c ****   *         The Systick configuration is based on MSI clock, as MSI is the clock
 160:../../core/ST/STM32L4xx_HAL_Driver/Src/stm32l4xx_hal.c ****   *         used after a system Reset and the NVIC configuration is set to Priority group 4.
 161:../../core/ST/STM32L4xx_HAL_Driver/Src/stm32l4xx_hal.c ****   *         Once done, time base tick starts incrementing: the tick variable counter is incremented
 162:../../core/ST/STM32L4xx_HAL_Driver/Src/stm32l4xx_hal.c ****   *         each 1ms in the SysTick_Handler() interrupt handler.
 163:../../core/ST/STM32L4xx_HAL_Driver/Src/stm32l4xx_hal.c ****   *
 164:../../core/ST/STM32L4xx_HAL_Driver/Src/stm32l4xx_hal.c ****   * @retval HAL status
 165:../../core/ST/STM32L4xx_HAL_Driver/Src/stm32l4xx_hal.c ****   */
 166:../../core/ST/STM32L4xx_HAL_Driver/Src/stm32l4xx_hal.c **** HAL_StatusTypeDef HAL_Init(void)
 167:../../core/ST/STM32L4xx_HAL_Driver/Src/stm32l4xx_hal.c **** {
 168:../../core/ST/STM32L4xx_HAL_Driver/Src/stm32l4xx_hal.c ****   HAL_StatusTypeDef  status = HAL_OK;
 169:../../core/ST/STM32L4xx_HAL_Driver/Src/stm32l4xx_hal.c **** 
 170:../../core/ST/STM32L4xx_HAL_Driver/Src/stm32l4xx_hal.c ****   /* Configure Flash prefetch, Instruction cache, Data cache */
 171:../../core/ST/STM32L4xx_HAL_Driver/Src/stm32l4xx_hal.c ****   /* Default configuration at reset is:                      */
 172:../../core/ST/STM32L4xx_HAL_Driver/Src/stm32l4xx_hal.c ****   /* - Prefetch disabled                                     */
 173:../../core/ST/STM32L4xx_HAL_Driver/Src/stm32l4xx_hal.c ****   /* - Instruction cache enabled                             */
 174:../../core/ST/STM32L4xx_HAL_Driver/Src/stm32l4xx_hal.c ****   /* - Data cache enabled                                    */
 175:../../core/ST/STM32L4xx_HAL_Driver/Src/stm32l4xx_hal.c **** #if (INSTRUCTION_CACHE_ENABLE == 0)
 176:../../core/ST/STM32L4xx_HAL_Driver/Src/stm32l4xx_hal.c ****    __HAL_FLASH_INSTRUCTION_CACHE_DISABLE();
 177:../../core/ST/STM32L4xx_HAL_Driver/Src/stm32l4xx_hal.c **** #endif /* INSTRUCTION_CACHE_ENABLE */
 178:../../core/ST/STM32L4xx_HAL_Driver/Src/stm32l4xx_hal.c **** 
 179:../../core/ST/STM32L4xx_HAL_Driver/Src/stm32l4xx_hal.c **** #if (DATA_CACHE_ENABLE == 0)
 180:../../core/ST/STM32L4xx_HAL_Driver/Src/stm32l4xx_hal.c ****    __HAL_FLASH_DATA_CACHE_DISABLE();
 181:../../core/ST/STM32L4xx_HAL_Driver/Src/stm32l4xx_hal.c **** #endif /* DATA_CACHE_ENABLE */
 182:../../core/ST/STM32L4xx_HAL_Driver/Src/stm32l4xx_hal.c **** 
 183:../../core/ST/STM32L4xx_HAL_Driver/Src/stm32l4xx_hal.c **** #if (PREFETCH_ENABLE != 0)
 184:../../core/ST/STM32L4xx_HAL_Driver/Src/stm32l4xx_hal.c ****   __HAL_FLASH_PREFETCH_BUFFER_ENABLE();
 185:../../core/ST/STM32L4xx_HAL_Driver/Src/stm32l4xx_hal.c **** #endif /* PREFETCH_ENABLE */
 186:../../core/ST/STM32L4xx_HAL_Driver/Src/stm32l4xx_hal.c **** 
 187:../../core/ST/STM32L4xx_HAL_Driver/Src/stm32l4xx_hal.c ****   /* Set Interrupt Group Priority */
 188:../../core/ST/STM32L4xx_HAL_Driver/Src/stm32l4xx_hal.c ****   HAL_NVIC_SetPriorityGrouping(NVIC_PRIORITYGROUP_4);
 189:../../core/ST/STM32L4xx_HAL_Driver/Src/stm32l4xx_hal.c **** 
 190:../../core/ST/STM32L4xx_HAL_Driver/Src/stm32l4xx_hal.c ****   /* Use SysTick as time base source and configure 1ms tick (default clock after Reset is MSI) */
 191:../../core/ST/STM32L4xx_HAL_Driver/Src/stm32l4xx_hal.c ****   if (HAL_InitTick(TICK_INT_PRIORITY) != HAL_OK)
 192:../../core/ST/STM32L4xx_HAL_Driver/Src/stm32l4xx_hal.c ****   {
 193:../../core/ST/STM32L4xx_HAL_Driver/Src/stm32l4xx_hal.c ****     status = HAL_ERROR;
 194:../../core/ST/STM32L4xx_HAL_Driver/Src/stm32l4xx_hal.c ****   }
 195:../../core/ST/STM32L4xx_HAL_Driver/Src/stm32l4xx_hal.c ****   else
 196:../../core/ST/STM32L4xx_HAL_Driver/Src/stm32l4xx_hal.c ****   {
 197:../../core/ST/STM32L4xx_HAL_Driver/Src/stm32l4xx_hal.c ****     /* Init the low level hardware */
 198:../../core/ST/STM32L4xx_HAL_Driver/Src/stm32l4xx_hal.c ****     HAL_MspInit();
 199:../../core/ST/STM32L4xx_HAL_Driver/Src/stm32l4xx_hal.c ****   }
 200:../../core/ST/STM32L4xx_HAL_Driver/Src/stm32l4xx_hal.c **** 
 201:../../core/ST/STM32L4xx_HAL_Driver/Src/stm32l4xx_hal.c ****   /* Return function status */
ARM GAS  C:\Users\yvesk\AppData\Local\Temp\ccYX5Txy.s 			page 5


 202:../../core/ST/STM32L4xx_HAL_Driver/Src/stm32l4xx_hal.c ****   return status;
 203:../../core/ST/STM32L4xx_HAL_Driver/Src/stm32l4xx_hal.c **** }
 204:../../core/ST/STM32L4xx_HAL_Driver/Src/stm32l4xx_hal.c **** 
 205:../../core/ST/STM32L4xx_HAL_Driver/Src/stm32l4xx_hal.c **** /**
 206:../../core/ST/STM32L4xx_HAL_Driver/Src/stm32l4xx_hal.c ****   * @brief De-initialize common part of the HAL and stop the source of time base.
 207:../../core/ST/STM32L4xx_HAL_Driver/Src/stm32l4xx_hal.c ****   * @note This function is optional.
 208:../../core/ST/STM32L4xx_HAL_Driver/Src/stm32l4xx_hal.c ****   * @retval HAL status
 209:../../core/ST/STM32L4xx_HAL_Driver/Src/stm32l4xx_hal.c ****   */
 210:../../core/ST/STM32L4xx_HAL_Driver/Src/stm32l4xx_hal.c **** HAL_StatusTypeDef HAL_DeInit(void)
 211:../../core/ST/STM32L4xx_HAL_Driver/Src/stm32l4xx_hal.c **** {
 212:../../core/ST/STM32L4xx_HAL_Driver/Src/stm32l4xx_hal.c ****   /* Reset of all peripherals */
 213:../../core/ST/STM32L4xx_HAL_Driver/Src/stm32l4xx_hal.c ****   __HAL_RCC_APB1_FORCE_RESET();
 214:../../core/ST/STM32L4xx_HAL_Driver/Src/stm32l4xx_hal.c ****   __HAL_RCC_APB1_RELEASE_RESET();
 215:../../core/ST/STM32L4xx_HAL_Driver/Src/stm32l4xx_hal.c **** 
 216:../../core/ST/STM32L4xx_HAL_Driver/Src/stm32l4xx_hal.c ****   __HAL_RCC_APB2_FORCE_RESET();
 217:../../core/ST/STM32L4xx_HAL_Driver/Src/stm32l4xx_hal.c ****   __HAL_RCC_APB2_RELEASE_RESET();
 218:../../core/ST/STM32L4xx_HAL_Driver/Src/stm32l4xx_hal.c **** 
 219:../../core/ST/STM32L4xx_HAL_Driver/Src/stm32l4xx_hal.c ****   __HAL_RCC_AHB1_FORCE_RESET();
 220:../../core/ST/STM32L4xx_HAL_Driver/Src/stm32l4xx_hal.c ****   __HAL_RCC_AHB1_RELEASE_RESET();
 221:../../core/ST/STM32L4xx_HAL_Driver/Src/stm32l4xx_hal.c **** 
 222:../../core/ST/STM32L4xx_HAL_Driver/Src/stm32l4xx_hal.c ****   __HAL_RCC_AHB2_FORCE_RESET();
 223:../../core/ST/STM32L4xx_HAL_Driver/Src/stm32l4xx_hal.c ****   __HAL_RCC_AHB2_RELEASE_RESET();
 224:../../core/ST/STM32L4xx_HAL_Driver/Src/stm32l4xx_hal.c **** 
 225:../../core/ST/STM32L4xx_HAL_Driver/Src/stm32l4xx_hal.c ****   __HAL_RCC_AHB3_FORCE_RESET();
 226:../../core/ST/STM32L4xx_HAL_Driver/Src/stm32l4xx_hal.c ****   __HAL_RCC_AHB3_RELEASE_RESET();
 227:../../core/ST/STM32L4xx_HAL_Driver/Src/stm32l4xx_hal.c **** 
 228:../../core/ST/STM32L4xx_HAL_Driver/Src/stm32l4xx_hal.c ****   /* De-Init the low level hardware */
 229:../../core/ST/STM32L4xx_HAL_Driver/Src/stm32l4xx_hal.c ****   HAL_MspDeInit();
 230:../../core/ST/STM32L4xx_HAL_Driver/Src/stm32l4xx_hal.c **** 
 231:../../core/ST/STM32L4xx_HAL_Driver/Src/stm32l4xx_hal.c ****   /* Return function status */
 232:../../core/ST/STM32L4xx_HAL_Driver/Src/stm32l4xx_hal.c ****   return HAL_OK;
 233:../../core/ST/STM32L4xx_HAL_Driver/Src/stm32l4xx_hal.c **** }
 234:../../core/ST/STM32L4xx_HAL_Driver/Src/stm32l4xx_hal.c **** 
 235:../../core/ST/STM32L4xx_HAL_Driver/Src/stm32l4xx_hal.c **** /**
 236:../../core/ST/STM32L4xx_HAL_Driver/Src/stm32l4xx_hal.c ****   * @brief  Initialize the MSP.
 237:../../core/ST/STM32L4xx_HAL_Driver/Src/stm32l4xx_hal.c ****   * @retval None
 238:../../core/ST/STM32L4xx_HAL_Driver/Src/stm32l4xx_hal.c ****   */
 239:../../core/ST/STM32L4xx_HAL_Driver/Src/stm32l4xx_hal.c **** __weak void HAL_MspInit(void)
 240:../../core/ST/STM32L4xx_HAL_Driver/Src/stm32l4xx_hal.c **** {
  29              		.loc 1 240 1 view -0
  30              		.cfi_startproc
  31              		@ args = 0, pretend = 0, frame = 0
  32              		@ frame_needed = 0, uses_anonymous_args = 0
  33              		@ link register save eliminated.
 241:../../core/ST/STM32L4xx_HAL_Driver/Src/stm32l4xx_hal.c ****   /* NOTE : This function should not be modified, when the callback is needed,
 242:../../core/ST/STM32L4xx_HAL_Driver/Src/stm32l4xx_hal.c ****             the HAL_MspInit could be implemented in the user file
 243:../../core/ST/STM32L4xx_HAL_Driver/Src/stm32l4xx_hal.c ****    */
 244:../../core/ST/STM32L4xx_HAL_Driver/Src/stm32l4xx_hal.c **** }
  34              		.loc 1 244 1 view .LVU1
  35 0000 7047     		bx	lr
  36              		.cfi_endproc
  37              	.LFE125:
  39              		.section	.text.HAL_MspDeInit,"ax",%progbits
  40              		.align	1
  41              		.weak	HAL_MspDeInit
  42              		.syntax unified
  43              		.thumb
ARM GAS  C:\Users\yvesk\AppData\Local\Temp\ccYX5Txy.s 			page 6


  44              		.thumb_func
  45              		.fpu fpv4-sp-d16
  47              	HAL_MspDeInit:
  48              	.LFB126:
 245:../../core/ST/STM32L4xx_HAL_Driver/Src/stm32l4xx_hal.c **** 
 246:../../core/ST/STM32L4xx_HAL_Driver/Src/stm32l4xx_hal.c **** /**
 247:../../core/ST/STM32L4xx_HAL_Driver/Src/stm32l4xx_hal.c ****   * @brief  DeInitialize the MSP.
 248:../../core/ST/STM32L4xx_HAL_Driver/Src/stm32l4xx_hal.c ****   * @retval None
 249:../../core/ST/STM32L4xx_HAL_Driver/Src/stm32l4xx_hal.c ****   */
 250:../../core/ST/STM32L4xx_HAL_Driver/Src/stm32l4xx_hal.c **** __weak void HAL_MspDeInit(void)
 251:../../core/ST/STM32L4xx_HAL_Driver/Src/stm32l4xx_hal.c **** {
  49              		.loc 1 251 1 view -0
  50              		.cfi_startproc
  51              		@ args = 0, pretend = 0, frame = 0
  52              		@ frame_needed = 0, uses_anonymous_args = 0
  53              		@ link register save eliminated.
 252:../../core/ST/STM32L4xx_HAL_Driver/Src/stm32l4xx_hal.c ****   /* NOTE : This function should not be modified, when the callback is needed,
 253:../../core/ST/STM32L4xx_HAL_Driver/Src/stm32l4xx_hal.c ****             the HAL_MspDeInit could be implemented in the user file
 254:../../core/ST/STM32L4xx_HAL_Driver/Src/stm32l4xx_hal.c ****    */
 255:../../core/ST/STM32L4xx_HAL_Driver/Src/stm32l4xx_hal.c **** }
  54              		.loc 1 255 1 view .LVU3
  55 0000 7047     		bx	lr
  56              		.cfi_endproc
  57              	.LFE126:
  59              		.section	.text.HAL_DeInit,"ax",%progbits
  60              		.align	1
  61              		.global	HAL_DeInit
  62              		.syntax unified
  63              		.thumb
  64              		.thumb_func
  65              		.fpu fpv4-sp-d16
  67              	HAL_DeInit:
  68              	.LFB124:
 211:../../core/ST/STM32L4xx_HAL_Driver/Src/stm32l4xx_hal.c ****   /* Reset of all peripherals */
  69              		.loc 1 211 1 view -0
  70              		.cfi_startproc
  71              		@ args = 0, pretend = 0, frame = 0
  72              		@ frame_needed = 0, uses_anonymous_args = 0
  73 0000 10B5     		push	{r4, lr}
  74              	.LCFI0:
  75              		.cfi_def_cfa_offset 8
  76              		.cfi_offset 4, -8
  77              		.cfi_offset 14, -4
 213:../../core/ST/STM32L4xx_HAL_Driver/Src/stm32l4xx_hal.c ****   __HAL_RCC_APB1_RELEASE_RESET();
  78              		.loc 1 213 3 view .LVU5
  79 0002 094B     		ldr	r3, .L5
  80 0004 4FF0FF32 		mov	r2, #-1
  81 0008 9A63     		str	r2, [r3, #56]
 214:../../core/ST/STM32L4xx_HAL_Driver/Src/stm32l4xx_hal.c **** 
  82              		.loc 1 214 3 view .LVU6
  83 000a 0024     		movs	r4, #0
  84 000c 9C63     		str	r4, [r3, #56]
 216:../../core/ST/STM32L4xx_HAL_Driver/Src/stm32l4xx_hal.c ****   __HAL_RCC_APB2_RELEASE_RESET();
  85              		.loc 1 216 3 view .LVU7
  86 000e 1A64     		str	r2, [r3, #64]
 217:../../core/ST/STM32L4xx_HAL_Driver/Src/stm32l4xx_hal.c **** 
  87              		.loc 1 217 3 view .LVU8
ARM GAS  C:\Users\yvesk\AppData\Local\Temp\ccYX5Txy.s 			page 7


  88 0010 1C64     		str	r4, [r3, #64]
 219:../../core/ST/STM32L4xx_HAL_Driver/Src/stm32l4xx_hal.c ****   __HAL_RCC_AHB1_RELEASE_RESET();
  89              		.loc 1 219 3 view .LVU9
  90 0012 9A62     		str	r2, [r3, #40]
 220:../../core/ST/STM32L4xx_HAL_Driver/Src/stm32l4xx_hal.c **** 
  91              		.loc 1 220 3 view .LVU10
  92 0014 9C62     		str	r4, [r3, #40]
 222:../../core/ST/STM32L4xx_HAL_Driver/Src/stm32l4xx_hal.c ****   __HAL_RCC_AHB2_RELEASE_RESET();
  93              		.loc 1 222 3 view .LVU11
  94 0016 DA62     		str	r2, [r3, #44]
 223:../../core/ST/STM32L4xx_HAL_Driver/Src/stm32l4xx_hal.c **** 
  95              		.loc 1 223 3 view .LVU12
  96 0018 DC62     		str	r4, [r3, #44]
 225:../../core/ST/STM32L4xx_HAL_Driver/Src/stm32l4xx_hal.c ****   __HAL_RCC_AHB3_RELEASE_RESET();
  97              		.loc 1 225 3 view .LVU13
  98 001a 1A63     		str	r2, [r3, #48]
 226:../../core/ST/STM32L4xx_HAL_Driver/Src/stm32l4xx_hal.c **** 
  99              		.loc 1 226 3 view .LVU14
 100 001c 1C63     		str	r4, [r3, #48]
 229:../../core/ST/STM32L4xx_HAL_Driver/Src/stm32l4xx_hal.c **** 
 101              		.loc 1 229 3 view .LVU15
 102 001e FFF7FEFF 		bl	HAL_MspDeInit
 103              	.LVL0:
 232:../../core/ST/STM32L4xx_HAL_Driver/Src/stm32l4xx_hal.c **** }
 104              		.loc 1 232 3 view .LVU16
 233:../../core/ST/STM32L4xx_HAL_Driver/Src/stm32l4xx_hal.c **** 
 105              		.loc 1 233 1 is_stmt 0 view .LVU17
 106 0022 2046     		mov	r0, r4
 107 0024 10BD     		pop	{r4, pc}
 108              	.L6:
 109 0026 00BF     		.align	2
 110              	.L5:
 111 0028 00100240 		.word	1073876992
 112              		.cfi_endproc
 113              	.LFE124:
 115              		.section	.text.HAL_InitTick,"ax",%progbits
 116              		.align	1
 117              		.weak	HAL_InitTick
 118              		.syntax unified
 119              		.thumb
 120              		.thumb_func
 121              		.fpu fpv4-sp-d16
 123              	HAL_InitTick:
 124              	.LVL1:
 125              	.LFB127:
 256:../../core/ST/STM32L4xx_HAL_Driver/Src/stm32l4xx_hal.c **** 
 257:../../core/ST/STM32L4xx_HAL_Driver/Src/stm32l4xx_hal.c **** /**
 258:../../core/ST/STM32L4xx_HAL_Driver/Src/stm32l4xx_hal.c ****   * @brief This function configures the source of the time base:
 259:../../core/ST/STM32L4xx_HAL_Driver/Src/stm32l4xx_hal.c ****   *        The time source is configured to have 1ms time base with a dedicated
 260:../../core/ST/STM32L4xx_HAL_Driver/Src/stm32l4xx_hal.c ****   *        Tick interrupt priority.
 261:../../core/ST/STM32L4xx_HAL_Driver/Src/stm32l4xx_hal.c ****   * @note This function is called  automatically at the beginning of program after
 262:../../core/ST/STM32L4xx_HAL_Driver/Src/stm32l4xx_hal.c ****   *       reset by HAL_Init() or at any time when clock is reconfigured  by HAL_RCC_ClockConfig().
 263:../../core/ST/STM32L4xx_HAL_Driver/Src/stm32l4xx_hal.c ****   * @note In the default implementation, SysTick timer is the source of time base.
 264:../../core/ST/STM32L4xx_HAL_Driver/Src/stm32l4xx_hal.c ****   *       It is used to generate interrupts at regular time intervals.
 265:../../core/ST/STM32L4xx_HAL_Driver/Src/stm32l4xx_hal.c ****   *       Care must be taken if HAL_Delay() is called from a peripheral ISR process,
 266:../../core/ST/STM32L4xx_HAL_Driver/Src/stm32l4xx_hal.c ****   *       The SysTick interrupt must have higher priority (numerically lower)
 267:../../core/ST/STM32L4xx_HAL_Driver/Src/stm32l4xx_hal.c ****   *       than the peripheral interrupt. Otherwise the caller ISR process will be blocked.
ARM GAS  C:\Users\yvesk\AppData\Local\Temp\ccYX5Txy.s 			page 8


 268:../../core/ST/STM32L4xx_HAL_Driver/Src/stm32l4xx_hal.c ****   *       The function is declared as __weak  to be overwritten  in case of other
 269:../../core/ST/STM32L4xx_HAL_Driver/Src/stm32l4xx_hal.c ****   *       implementation  in user file.
 270:../../core/ST/STM32L4xx_HAL_Driver/Src/stm32l4xx_hal.c ****   * @param TickPriority  Tick interrupt priority.
 271:../../core/ST/STM32L4xx_HAL_Driver/Src/stm32l4xx_hal.c ****   * @retval HAL status
 272:../../core/ST/STM32L4xx_HAL_Driver/Src/stm32l4xx_hal.c ****   */
 273:../../core/ST/STM32L4xx_HAL_Driver/Src/stm32l4xx_hal.c **** __weak HAL_StatusTypeDef HAL_InitTick(uint32_t TickPriority)
 274:../../core/ST/STM32L4xx_HAL_Driver/Src/stm32l4xx_hal.c **** {
 126              		.loc 1 274 1 is_stmt 1 view -0
 127              		.cfi_startproc
 128              		@ args = 0, pretend = 0, frame = 0
 129              		@ frame_needed = 0, uses_anonymous_args = 0
 130              		.loc 1 274 1 is_stmt 0 view .LVU19
 131 0000 10B5     		push	{r4, lr}
 132              	.LCFI1:
 133              		.cfi_def_cfa_offset 8
 134              		.cfi_offset 4, -8
 135              		.cfi_offset 14, -4
 136 0002 0446     		mov	r4, r0
 275:../../core/ST/STM32L4xx_HAL_Driver/Src/stm32l4xx_hal.c ****   HAL_StatusTypeDef  status = HAL_OK;
 137              		.loc 1 275 3 is_stmt 1 view .LVU20
 138              	.LVL2:
 276:../../core/ST/STM32L4xx_HAL_Driver/Src/stm32l4xx_hal.c **** 
 277:../../core/ST/STM32L4xx_HAL_Driver/Src/stm32l4xx_hal.c ****   /*Configure the SysTick to have interrupt in 1ms time basis*/
 278:../../core/ST/STM32L4xx_HAL_Driver/Src/stm32l4xx_hal.c ****   if (HAL_SYSTICK_Config(SystemCoreClock/1000UL) != 0U)
 139              		.loc 1 278 3 view .LVU21
 140              		.loc 1 278 7 is_stmt 0 view .LVU22
 141 0004 094B     		ldr	r3, .L12
 142 0006 1868     		ldr	r0, [r3]
 143              	.LVL3:
 144              		.loc 1 278 7 view .LVU23
 145 0008 094B     		ldr	r3, .L12+4
 146 000a A3FB0030 		umull	r3, r0, r3, r0
 147 000e 8009     		lsrs	r0, r0, #6
 148 0010 FFF7FEFF 		bl	HAL_SYSTICK_Config
 149              	.LVL4:
 150              		.loc 1 278 6 view .LVU24
 151 0014 08B1     		cbz	r0, .L11
 279:../../core/ST/STM32L4xx_HAL_Driver/Src/stm32l4xx_hal.c ****   {
 280:../../core/ST/STM32L4xx_HAL_Driver/Src/stm32l4xx_hal.c ****     status = HAL_ERROR;
 152              		.loc 1 280 12 view .LVU25
 153 0016 0120     		movs	r0, #1
 154              	.L8:
 155              	.LVL5:
 281:../../core/ST/STM32L4xx_HAL_Driver/Src/stm32l4xx_hal.c ****   }
 282:../../core/ST/STM32L4xx_HAL_Driver/Src/stm32l4xx_hal.c ****   else
 283:../../core/ST/STM32L4xx_HAL_Driver/Src/stm32l4xx_hal.c ****   {
 284:../../core/ST/STM32L4xx_HAL_Driver/Src/stm32l4xx_hal.c ****     /*Configure the SysTick IRQ priority */
 285:../../core/ST/STM32L4xx_HAL_Driver/Src/stm32l4xx_hal.c ****     HAL_NVIC_SetPriority(SysTick_IRQn, TickPriority, 0);
 286:../../core/ST/STM32L4xx_HAL_Driver/Src/stm32l4xx_hal.c ****   }
 287:../../core/ST/STM32L4xx_HAL_Driver/Src/stm32l4xx_hal.c **** 
 288:../../core/ST/STM32L4xx_HAL_Driver/Src/stm32l4xx_hal.c ****   /* Return function status */
 289:../../core/ST/STM32L4xx_HAL_Driver/Src/stm32l4xx_hal.c ****   return status;
 156              		.loc 1 289 3 is_stmt 1 view .LVU26
 290:../../core/ST/STM32L4xx_HAL_Driver/Src/stm32l4xx_hal.c **** }
 157              		.loc 1 290 1 is_stmt 0 view .LVU27
 158 0018 10BD     		pop	{r4, pc}
 159              	.LVL6:
ARM GAS  C:\Users\yvesk\AppData\Local\Temp\ccYX5Txy.s 			page 9


 160              	.L11:
 285:../../core/ST/STM32L4xx_HAL_Driver/Src/stm32l4xx_hal.c ****   }
 161              		.loc 1 285 5 is_stmt 1 view .LVU28
 162 001a 0022     		movs	r2, #0
 163 001c 2146     		mov	r1, r4
 164 001e 4FF0FF30 		mov	r0, #-1
 165 0022 FFF7FEFF 		bl	HAL_NVIC_SetPriority
 166              	.LVL7:
 275:../../core/ST/STM32L4xx_HAL_Driver/Src/stm32l4xx_hal.c **** 
 167              		.loc 1 275 22 is_stmt 0 view .LVU29
 168 0026 0020     		movs	r0, #0
 169 0028 F6E7     		b	.L8
 170              	.L13:
 171 002a 00BF     		.align	2
 172              	.L12:
 173 002c 00000000 		.word	SystemCoreClock
 174 0030 D34D6210 		.word	274877907
 175              		.cfi_endproc
 176              	.LFE127:
 178              		.section	.text.HAL_Init,"ax",%progbits
 179              		.align	1
 180              		.global	HAL_Init
 181              		.syntax unified
 182              		.thumb
 183              		.thumb_func
 184              		.fpu fpv4-sp-d16
 186              	HAL_Init:
 187              	.LFB123:
 167:../../core/ST/STM32L4xx_HAL_Driver/Src/stm32l4xx_hal.c ****   HAL_StatusTypeDef  status = HAL_OK;
 188              		.loc 1 167 1 is_stmt 1 view -0
 189              		.cfi_startproc
 190              		@ args = 0, pretend = 0, frame = 0
 191              		@ frame_needed = 0, uses_anonymous_args = 0
 192 0000 10B5     		push	{r4, lr}
 193              	.LCFI2:
 194              		.cfi_def_cfa_offset 8
 195              		.cfi_offset 4, -8
 196              		.cfi_offset 14, -4
 168:../../core/ST/STM32L4xx_HAL_Driver/Src/stm32l4xx_hal.c **** 
 197              		.loc 1 168 3 view .LVU31
 198              	.LVL8:
 188:../../core/ST/STM32L4xx_HAL_Driver/Src/stm32l4xx_hal.c **** 
 199              		.loc 1 188 3 view .LVU32
 200 0002 0320     		movs	r0, #3
 201 0004 FFF7FEFF 		bl	HAL_NVIC_SetPriorityGrouping
 202              	.LVL9:
 191:../../core/ST/STM32L4xx_HAL_Driver/Src/stm32l4xx_hal.c ****   {
 203              		.loc 1 191 3 view .LVU33
 191:../../core/ST/STM32L4xx_HAL_Driver/Src/stm32l4xx_hal.c ****   {
 204              		.loc 1 191 7 is_stmt 0 view .LVU34
 205 0008 0020     		movs	r0, #0
 206 000a FFF7FEFF 		bl	HAL_InitTick
 207              	.LVL10:
 191:../../core/ST/STM32L4xx_HAL_Driver/Src/stm32l4xx_hal.c ****   {
 208              		.loc 1 191 6 view .LVU35
 209 000e 10B1     		cbz	r0, .L18
 193:../../core/ST/STM32L4xx_HAL_Driver/Src/stm32l4xx_hal.c ****   }
ARM GAS  C:\Users\yvesk\AppData\Local\Temp\ccYX5Txy.s 			page 10


 210              		.loc 1 193 12 view .LVU36
 211 0010 0124     		movs	r4, #1
 212              	.L15:
 213              	.LVL11:
 202:../../core/ST/STM32L4xx_HAL_Driver/Src/stm32l4xx_hal.c **** }
 214              		.loc 1 202 3 is_stmt 1 view .LVU37
 203:../../core/ST/STM32L4xx_HAL_Driver/Src/stm32l4xx_hal.c **** 
 215              		.loc 1 203 1 is_stmt 0 view .LVU38
 216 0012 2046     		mov	r0, r4
 217 0014 10BD     		pop	{r4, pc}
 218              	.LVL12:
 219              	.L18:
 203:../../core/ST/STM32L4xx_HAL_Driver/Src/stm32l4xx_hal.c **** 
 220              		.loc 1 203 1 view .LVU39
 221 0016 0446     		mov	r4, r0
 198:../../core/ST/STM32L4xx_HAL_Driver/Src/stm32l4xx_hal.c ****   }
 222              		.loc 1 198 5 is_stmt 1 view .LVU40
 223 0018 FFF7FEFF 		bl	HAL_MspInit
 224              	.LVL13:
 225 001c F9E7     		b	.L15
 226              		.cfi_endproc
 227              	.LFE123:
 229              		.section	.text.HAL_IncTick,"ax",%progbits
 230              		.align	1
 231              		.weak	HAL_IncTick
 232              		.syntax unified
 233              		.thumb
 234              		.thumb_func
 235              		.fpu fpv4-sp-d16
 237              	HAL_IncTick:
 238              	.LFB128:
 291:../../core/ST/STM32L4xx_HAL_Driver/Src/stm32l4xx_hal.c **** 
 292:../../core/ST/STM32L4xx_HAL_Driver/Src/stm32l4xx_hal.c **** /**
 293:../../core/ST/STM32L4xx_HAL_Driver/Src/stm32l4xx_hal.c ****   * @}
 294:../../core/ST/STM32L4xx_HAL_Driver/Src/stm32l4xx_hal.c ****   */
 295:../../core/ST/STM32L4xx_HAL_Driver/Src/stm32l4xx_hal.c **** 
 296:../../core/ST/STM32L4xx_HAL_Driver/Src/stm32l4xx_hal.c **** /** @defgroup HAL_Exported_Functions_Group2 HAL Control functions
 297:../../core/ST/STM32L4xx_HAL_Driver/Src/stm32l4xx_hal.c ****  *  @brief    HAL Control functions
 298:../../core/ST/STM32L4xx_HAL_Driver/Src/stm32l4xx_hal.c ****  *
 299:../../core/ST/STM32L4xx_HAL_Driver/Src/stm32l4xx_hal.c **** @verbatim
 300:../../core/ST/STM32L4xx_HAL_Driver/Src/stm32l4xx_hal.c ****  ===============================================================================
 301:../../core/ST/STM32L4xx_HAL_Driver/Src/stm32l4xx_hal.c ****                       ##### HAL Control functions #####
 302:../../core/ST/STM32L4xx_HAL_Driver/Src/stm32l4xx_hal.c ****  ===============================================================================
 303:../../core/ST/STM32L4xx_HAL_Driver/Src/stm32l4xx_hal.c ****     [..]  This section provides functions allowing to:
 304:../../core/ST/STM32L4xx_HAL_Driver/Src/stm32l4xx_hal.c ****       (+) Provide a tick value in millisecond
 305:../../core/ST/STM32L4xx_HAL_Driver/Src/stm32l4xx_hal.c ****       (+) Provide a blocking delay in millisecond
 306:../../core/ST/STM32L4xx_HAL_Driver/Src/stm32l4xx_hal.c ****       (+) Suspend the time base source interrupt
 307:../../core/ST/STM32L4xx_HAL_Driver/Src/stm32l4xx_hal.c ****       (+) Resume the time base source interrupt
 308:../../core/ST/STM32L4xx_HAL_Driver/Src/stm32l4xx_hal.c ****       (+) Get the HAL API driver version
 309:../../core/ST/STM32L4xx_HAL_Driver/Src/stm32l4xx_hal.c ****       (+) Get the device identifier
 310:../../core/ST/STM32L4xx_HAL_Driver/Src/stm32l4xx_hal.c ****       (+) Get the device revision identifier
 311:../../core/ST/STM32L4xx_HAL_Driver/Src/stm32l4xx_hal.c **** 
 312:../../core/ST/STM32L4xx_HAL_Driver/Src/stm32l4xx_hal.c **** @endverbatim
 313:../../core/ST/STM32L4xx_HAL_Driver/Src/stm32l4xx_hal.c ****   * @{
 314:../../core/ST/STM32L4xx_HAL_Driver/Src/stm32l4xx_hal.c ****   */
 315:../../core/ST/STM32L4xx_HAL_Driver/Src/stm32l4xx_hal.c **** 
 316:../../core/ST/STM32L4xx_HAL_Driver/Src/stm32l4xx_hal.c **** /**
ARM GAS  C:\Users\yvesk\AppData\Local\Temp\ccYX5Txy.s 			page 11


 317:../../core/ST/STM32L4xx_HAL_Driver/Src/stm32l4xx_hal.c ****   * @brief This function is called to increment a global variable "uwTick"
 318:../../core/ST/STM32L4xx_HAL_Driver/Src/stm32l4xx_hal.c ****   *        used as application time base.
 319:../../core/ST/STM32L4xx_HAL_Driver/Src/stm32l4xx_hal.c ****   * @note In the default implementation, this variable is incremented each 1ms
 320:../../core/ST/STM32L4xx_HAL_Driver/Src/stm32l4xx_hal.c ****   *       in SysTick ISR.
 321:../../core/ST/STM32L4xx_HAL_Driver/Src/stm32l4xx_hal.c ****  * @note This function is declared as __weak to be overwritten in case of other
 322:../../core/ST/STM32L4xx_HAL_Driver/Src/stm32l4xx_hal.c ****   *      implementations in user file.
 323:../../core/ST/STM32L4xx_HAL_Driver/Src/stm32l4xx_hal.c ****   * @retval None
 324:../../core/ST/STM32L4xx_HAL_Driver/Src/stm32l4xx_hal.c ****   */
 325:../../core/ST/STM32L4xx_HAL_Driver/Src/stm32l4xx_hal.c **** __weak void HAL_IncTick(void)
 326:../../core/ST/STM32L4xx_HAL_Driver/Src/stm32l4xx_hal.c **** {
 239              		.loc 1 326 1 view -0
 240              		.cfi_startproc
 241              		@ args = 0, pretend = 0, frame = 0
 242              		@ frame_needed = 0, uses_anonymous_args = 0
 243              		@ link register save eliminated.
 327:../../core/ST/STM32L4xx_HAL_Driver/Src/stm32l4xx_hal.c ****   uwTick++;
 244              		.loc 1 327 3 view .LVU42
 245              		.loc 1 327 9 is_stmt 0 view .LVU43
 246 0000 024A     		ldr	r2, .L20
 247 0002 1368     		ldr	r3, [r2]
 248 0004 0133     		adds	r3, r3, #1
 249 0006 1360     		str	r3, [r2]
 328:../../core/ST/STM32L4xx_HAL_Driver/Src/stm32l4xx_hal.c **** }
 250              		.loc 1 328 1 view .LVU44
 251 0008 7047     		bx	lr
 252              	.L21:
 253 000a 00BF     		.align	2
 254              	.L20:
 255 000c 00000000 		.word	uwTick
 256              		.cfi_endproc
 257              	.LFE128:
 259              		.section	.text.HAL_GetTick,"ax",%progbits
 260              		.align	1
 261              		.weak	HAL_GetTick
 262              		.syntax unified
 263              		.thumb
 264              		.thumb_func
 265              		.fpu fpv4-sp-d16
 267              	HAL_GetTick:
 268              	.LFB129:
 329:../../core/ST/STM32L4xx_HAL_Driver/Src/stm32l4xx_hal.c **** 
 330:../../core/ST/STM32L4xx_HAL_Driver/Src/stm32l4xx_hal.c **** /**
 331:../../core/ST/STM32L4xx_HAL_Driver/Src/stm32l4xx_hal.c ****   * @brief Provide a tick value in millisecond.
 332:../../core/ST/STM32L4xx_HAL_Driver/Src/stm32l4xx_hal.c ****   * @note This function is declared as __weak to be overwritten in case of other
 333:../../core/ST/STM32L4xx_HAL_Driver/Src/stm32l4xx_hal.c ****   *       implementations in user file.
 334:../../core/ST/STM32L4xx_HAL_Driver/Src/stm32l4xx_hal.c ****   * @retval tick value
 335:../../core/ST/STM32L4xx_HAL_Driver/Src/stm32l4xx_hal.c ****   */
 336:../../core/ST/STM32L4xx_HAL_Driver/Src/stm32l4xx_hal.c **** __weak uint32_t HAL_GetTick(void)
 337:../../core/ST/STM32L4xx_HAL_Driver/Src/stm32l4xx_hal.c **** {
 269              		.loc 1 337 1 is_stmt 1 view -0
 270              		.cfi_startproc
 271              		@ args = 0, pretend = 0, frame = 0
 272              		@ frame_needed = 0, uses_anonymous_args = 0
 273              		@ link register save eliminated.
 338:../../core/ST/STM32L4xx_HAL_Driver/Src/stm32l4xx_hal.c ****   return uwTick;
 274              		.loc 1 338 3 view .LVU46
 275              		.loc 1 338 10 is_stmt 0 view .LVU47
ARM GAS  C:\Users\yvesk\AppData\Local\Temp\ccYX5Txy.s 			page 12


 276 0000 014B     		ldr	r3, .L23
 277 0002 1868     		ldr	r0, [r3]
 339:../../core/ST/STM32L4xx_HAL_Driver/Src/stm32l4xx_hal.c **** }
 278              		.loc 1 339 1 view .LVU48
 279 0004 7047     		bx	lr
 280              	.L24:
 281 0006 00BF     		.align	2
 282              	.L23:
 283 0008 00000000 		.word	uwTick
 284              		.cfi_endproc
 285              	.LFE129:
 287              		.section	.text.HAL_Delay,"ax",%progbits
 288              		.align	1
 289              		.weak	HAL_Delay
 290              		.syntax unified
 291              		.thumb
 292              		.thumb_func
 293              		.fpu fpv4-sp-d16
 295              	HAL_Delay:
 296              	.LVL14:
 297              	.LFB130:
 340:../../core/ST/STM32L4xx_HAL_Driver/Src/stm32l4xx_hal.c **** 
 341:../../core/ST/STM32L4xx_HAL_Driver/Src/stm32l4xx_hal.c **** /**
 342:../../core/ST/STM32L4xx_HAL_Driver/Src/stm32l4xx_hal.c ****   * @brief This function provides minimum delay (in milliseconds) based
 343:../../core/ST/STM32L4xx_HAL_Driver/Src/stm32l4xx_hal.c ****   *        on variable incremented.
 344:../../core/ST/STM32L4xx_HAL_Driver/Src/stm32l4xx_hal.c ****   * @note In the default implementation , SysTick timer is the source of time base.
 345:../../core/ST/STM32L4xx_HAL_Driver/Src/stm32l4xx_hal.c ****   *       It is used to generate interrupts at regular time intervals where uwTick
 346:../../core/ST/STM32L4xx_HAL_Driver/Src/stm32l4xx_hal.c ****   *       is incremented.
 347:../../core/ST/STM32L4xx_HAL_Driver/Src/stm32l4xx_hal.c ****   * @note This function is declared as __weak to be overwritten in case of other
 348:../../core/ST/STM32L4xx_HAL_Driver/Src/stm32l4xx_hal.c ****   *       implementations in user file.
 349:../../core/ST/STM32L4xx_HAL_Driver/Src/stm32l4xx_hal.c ****   * @param Delay  specifies the delay time length, in milliseconds.
 350:../../core/ST/STM32L4xx_HAL_Driver/Src/stm32l4xx_hal.c ****   * @retval None
 351:../../core/ST/STM32L4xx_HAL_Driver/Src/stm32l4xx_hal.c ****   */
 352:../../core/ST/STM32L4xx_HAL_Driver/Src/stm32l4xx_hal.c **** __weak void HAL_Delay(uint32_t Delay)
 353:../../core/ST/STM32L4xx_HAL_Driver/Src/stm32l4xx_hal.c **** {
 298              		.loc 1 353 1 is_stmt 1 view -0
 299              		.cfi_startproc
 300              		@ args = 0, pretend = 0, frame = 0
 301              		@ frame_needed = 0, uses_anonymous_args = 0
 302              		.loc 1 353 1 is_stmt 0 view .LVU50
 303 0000 38B5     		push	{r3, r4, r5, lr}
 304              	.LCFI3:
 305              		.cfi_def_cfa_offset 16
 306              		.cfi_offset 3, -16
 307              		.cfi_offset 4, -12
 308              		.cfi_offset 5, -8
 309              		.cfi_offset 14, -4
 310 0002 0446     		mov	r4, r0
 354:../../core/ST/STM32L4xx_HAL_Driver/Src/stm32l4xx_hal.c ****   uint32_t tickstart = HAL_GetTick();
 311              		.loc 1 354 3 is_stmt 1 view .LVU51
 312              		.loc 1 354 24 is_stmt 0 view .LVU52
 313 0004 FFF7FEFF 		bl	HAL_GetTick
 314              	.LVL15:
 315              		.loc 1 354 24 view .LVU53
 316 0008 0546     		mov	r5, r0
 317              	.LVL16:
 355:../../core/ST/STM32L4xx_HAL_Driver/Src/stm32l4xx_hal.c ****   uint32_t wait = Delay;
ARM GAS  C:\Users\yvesk\AppData\Local\Temp\ccYX5Txy.s 			page 13


 318              		.loc 1 355 3 is_stmt 1 view .LVU54
 356:../../core/ST/STM32L4xx_HAL_Driver/Src/stm32l4xx_hal.c **** 
 357:../../core/ST/STM32L4xx_HAL_Driver/Src/stm32l4xx_hal.c ****   /* Add a period to guaranty minimum wait */
 358:../../core/ST/STM32L4xx_HAL_Driver/Src/stm32l4xx_hal.c ****   if (wait < HAL_MAX_DELAY)
 319              		.loc 1 358 3 view .LVU55
 320              		.loc 1 358 6 is_stmt 0 view .LVU56
 321 000a B4F1FF3F 		cmp	r4, #-1
 322 000e 00D0     		beq	.L27
 359:../../core/ST/STM32L4xx_HAL_Driver/Src/stm32l4xx_hal.c ****   {
 360:../../core/ST/STM32L4xx_HAL_Driver/Src/stm32l4xx_hal.c ****     wait++;
 323              		.loc 1 360 5 is_stmt 1 view .LVU57
 324              		.loc 1 360 9 is_stmt 0 view .LVU58
 325 0010 0134     		adds	r4, r4, #1
 326              	.LVL17:
 327              	.L27:
 361:../../core/ST/STM32L4xx_HAL_Driver/Src/stm32l4xx_hal.c ****   }
 362:../../core/ST/STM32L4xx_HAL_Driver/Src/stm32l4xx_hal.c **** 
 363:../../core/ST/STM32L4xx_HAL_Driver/Src/stm32l4xx_hal.c ****   while((HAL_GetTick() - tickstart) < wait)
 364:../../core/ST/STM32L4xx_HAL_Driver/Src/stm32l4xx_hal.c ****   {
 365:../../core/ST/STM32L4xx_HAL_Driver/Src/stm32l4xx_hal.c ****   }
 328              		.loc 1 365 3 is_stmt 1 discriminator 1 view .LVU59
 363:../../core/ST/STM32L4xx_HAL_Driver/Src/stm32l4xx_hal.c ****   {
 329              		.loc 1 363 10 is_stmt 0 discriminator 1 view .LVU60
 330 0012 FFF7FEFF 		bl	HAL_GetTick
 331              	.LVL18:
 363:../../core/ST/STM32L4xx_HAL_Driver/Src/stm32l4xx_hal.c ****   {
 332              		.loc 1 363 24 discriminator 1 view .LVU61
 333 0016 401B     		subs	r0, r0, r5
 363:../../core/ST/STM32L4xx_HAL_Driver/Src/stm32l4xx_hal.c ****   {
 334              		.loc 1 363 8 discriminator 1 view .LVU62
 335 0018 A042     		cmp	r0, r4
 336 001a FAD3     		bcc	.L27
 366:../../core/ST/STM32L4xx_HAL_Driver/Src/stm32l4xx_hal.c **** }
 337              		.loc 1 366 1 view .LVU63
 338 001c 38BD     		pop	{r3, r4, r5, pc}
 339              		.loc 1 366 1 view .LVU64
 340              		.cfi_endproc
 341              	.LFE130:
 343              		.section	.text.HAL_SuspendTick,"ax",%progbits
 344              		.align	1
 345              		.weak	HAL_SuspendTick
 346              		.syntax unified
 347              		.thumb
 348              		.thumb_func
 349              		.fpu fpv4-sp-d16
 351              	HAL_SuspendTick:
 352              	.LFB131:
 367:../../core/ST/STM32L4xx_HAL_Driver/Src/stm32l4xx_hal.c **** 
 368:../../core/ST/STM32L4xx_HAL_Driver/Src/stm32l4xx_hal.c **** /**
 369:../../core/ST/STM32L4xx_HAL_Driver/Src/stm32l4xx_hal.c ****   * @brief Suspend Tick increment.
 370:../../core/ST/STM32L4xx_HAL_Driver/Src/stm32l4xx_hal.c ****   * @note In the default implementation , SysTick timer is the source of time base. It is
 371:../../core/ST/STM32L4xx_HAL_Driver/Src/stm32l4xx_hal.c ****   *       used to generate interrupts at regular time intervals. Once HAL_SuspendTick()
 372:../../core/ST/STM32L4xx_HAL_Driver/Src/stm32l4xx_hal.c ****   *       is called, the SysTick interrupt will be disabled and so Tick increment
 373:../../core/ST/STM32L4xx_HAL_Driver/Src/stm32l4xx_hal.c ****   *       is suspended.
 374:../../core/ST/STM32L4xx_HAL_Driver/Src/stm32l4xx_hal.c ****   * @note This function is declared as __weak to be overwritten in case of other
 375:../../core/ST/STM32L4xx_HAL_Driver/Src/stm32l4xx_hal.c ****   *       implementations in user file.
 376:../../core/ST/STM32L4xx_HAL_Driver/Src/stm32l4xx_hal.c ****   * @retval None
ARM GAS  C:\Users\yvesk\AppData\Local\Temp\ccYX5Txy.s 			page 14


 377:../../core/ST/STM32L4xx_HAL_Driver/Src/stm32l4xx_hal.c ****   */
 378:../../core/ST/STM32L4xx_HAL_Driver/Src/stm32l4xx_hal.c **** __weak void HAL_SuspendTick(void)
 379:../../core/ST/STM32L4xx_HAL_Driver/Src/stm32l4xx_hal.c **** {
 353              		.loc 1 379 1 is_stmt 1 view -0
 354              		.cfi_startproc
 355              		@ args = 0, pretend = 0, frame = 0
 356              		@ frame_needed = 0, uses_anonymous_args = 0
 357              		@ link register save eliminated.
 380:../../core/ST/STM32L4xx_HAL_Driver/Src/stm32l4xx_hal.c ****   /* Disable SysTick Interrupt */
 381:../../core/ST/STM32L4xx_HAL_Driver/Src/stm32l4xx_hal.c ****   SysTick->CTRL &= ~SysTick_CTRL_TICKINT_Msk;
 358              		.loc 1 381 3 view .LVU66
 359              		.loc 1 381 17 is_stmt 0 view .LVU67
 360 0000 024A     		ldr	r2, .L30
 361 0002 1368     		ldr	r3, [r2]
 362 0004 23F00203 		bic	r3, r3, #2
 363 0008 1360     		str	r3, [r2]
 382:../../core/ST/STM32L4xx_HAL_Driver/Src/stm32l4xx_hal.c **** }
 364              		.loc 1 382 1 view .LVU68
 365 000a 7047     		bx	lr
 366              	.L31:
 367              		.align	2
 368              	.L30:
 369 000c 10E000E0 		.word	-536813552
 370              		.cfi_endproc
 371              	.LFE131:
 373              		.section	.text.HAL_ResumeTick,"ax",%progbits
 374              		.align	1
 375              		.weak	HAL_ResumeTick
 376              		.syntax unified
 377              		.thumb
 378              		.thumb_func
 379              		.fpu fpv4-sp-d16
 381              	HAL_ResumeTick:
 382              	.LFB132:
 383:../../core/ST/STM32L4xx_HAL_Driver/Src/stm32l4xx_hal.c **** 
 384:../../core/ST/STM32L4xx_HAL_Driver/Src/stm32l4xx_hal.c **** /**
 385:../../core/ST/STM32L4xx_HAL_Driver/Src/stm32l4xx_hal.c ****   * @brief Resume Tick increment.
 386:../../core/ST/STM32L4xx_HAL_Driver/Src/stm32l4xx_hal.c ****   * @note In the default implementation , SysTick timer is the source of time base. It is
 387:../../core/ST/STM32L4xx_HAL_Driver/Src/stm32l4xx_hal.c ****   *       used to generate interrupts at regular time intervals. Once HAL_ResumeTick()
 388:../../core/ST/STM32L4xx_HAL_Driver/Src/stm32l4xx_hal.c ****   *       is called, the SysTick interrupt will be enabled and so Tick increment
 389:../../core/ST/STM32L4xx_HAL_Driver/Src/stm32l4xx_hal.c ****   *       is resumed.
 390:../../core/ST/STM32L4xx_HAL_Driver/Src/stm32l4xx_hal.c ****   * @note This function is declared as __weak to be overwritten in case of other
 391:../../core/ST/STM32L4xx_HAL_Driver/Src/stm32l4xx_hal.c ****   *       implementations in user file.
 392:../../core/ST/STM32L4xx_HAL_Driver/Src/stm32l4xx_hal.c ****   * @retval None
 393:../../core/ST/STM32L4xx_HAL_Driver/Src/stm32l4xx_hal.c ****   */
 394:../../core/ST/STM32L4xx_HAL_Driver/Src/stm32l4xx_hal.c **** __weak void HAL_ResumeTick(void)
 395:../../core/ST/STM32L4xx_HAL_Driver/Src/stm32l4xx_hal.c **** {
 383              		.loc 1 395 1 is_stmt 1 view -0
 384              		.cfi_startproc
 385              		@ args = 0, pretend = 0, frame = 0
 386              		@ frame_needed = 0, uses_anonymous_args = 0
 387              		@ link register save eliminated.
 396:../../core/ST/STM32L4xx_HAL_Driver/Src/stm32l4xx_hal.c ****   /* Enable SysTick Interrupt */
 397:../../core/ST/STM32L4xx_HAL_Driver/Src/stm32l4xx_hal.c ****   SysTick->CTRL  |= SysTick_CTRL_TICKINT_Msk;
 388              		.loc 1 397 3 view .LVU70
 389              		.loc 1 397 18 is_stmt 0 view .LVU71
 390 0000 024A     		ldr	r2, .L33
ARM GAS  C:\Users\yvesk\AppData\Local\Temp\ccYX5Txy.s 			page 15


 391 0002 1368     		ldr	r3, [r2]
 392 0004 43F00203 		orr	r3, r3, #2
 393 0008 1360     		str	r3, [r2]
 398:../../core/ST/STM32L4xx_HAL_Driver/Src/stm32l4xx_hal.c **** }
 394              		.loc 1 398 1 view .LVU72
 395 000a 7047     		bx	lr
 396              	.L34:
 397              		.align	2
 398              	.L33:
 399 000c 10E000E0 		.word	-536813552
 400              		.cfi_endproc
 401              	.LFE132:
 403              		.section	.text.HAL_GetHalVersion,"ax",%progbits
 404              		.align	1
 405              		.global	HAL_GetHalVersion
 406              		.syntax unified
 407              		.thumb
 408              		.thumb_func
 409              		.fpu fpv4-sp-d16
 411              	HAL_GetHalVersion:
 412              	.LFB133:
 399:../../core/ST/STM32L4xx_HAL_Driver/Src/stm32l4xx_hal.c **** 
 400:../../core/ST/STM32L4xx_HAL_Driver/Src/stm32l4xx_hal.c **** /**
 401:../../core/ST/STM32L4xx_HAL_Driver/Src/stm32l4xx_hal.c ****   * @brief  Return the HAL revision.
 402:../../core/ST/STM32L4xx_HAL_Driver/Src/stm32l4xx_hal.c ****   * @retval version : 0xXYZR (8bits for each decimal, R for RC)
 403:../../core/ST/STM32L4xx_HAL_Driver/Src/stm32l4xx_hal.c ****   */
 404:../../core/ST/STM32L4xx_HAL_Driver/Src/stm32l4xx_hal.c **** uint32_t HAL_GetHalVersion(void)
 405:../../core/ST/STM32L4xx_HAL_Driver/Src/stm32l4xx_hal.c **** {
 413              		.loc 1 405 1 is_stmt 1 view -0
 414              		.cfi_startproc
 415              		@ args = 0, pretend = 0, frame = 0
 416              		@ frame_needed = 0, uses_anonymous_args = 0
 417              		@ link register save eliminated.
 406:../../core/ST/STM32L4xx_HAL_Driver/Src/stm32l4xx_hal.c ****   return STM32L4XX_HAL_VERSION;
 418              		.loc 1 406 3 view .LVU74
 407:../../core/ST/STM32L4xx_HAL_Driver/Src/stm32l4xx_hal.c **** }
 419              		.loc 1 407 1 is_stmt 0 view .LVU75
 420 0000 0048     		ldr	r0, .L36
 421 0002 7047     		bx	lr
 422              	.L37:
 423              		.align	2
 424              	.L36:
 425 0004 00000901 		.word	17367040
 426              		.cfi_endproc
 427              	.LFE133:
 429              		.section	.text.HAL_GetREVID,"ax",%progbits
 430              		.align	1
 431              		.global	HAL_GetREVID
 432              		.syntax unified
 433              		.thumb
 434              		.thumb_func
 435              		.fpu fpv4-sp-d16
 437              	HAL_GetREVID:
 438              	.LFB134:
 408:../../core/ST/STM32L4xx_HAL_Driver/Src/stm32l4xx_hal.c **** 
 409:../../core/ST/STM32L4xx_HAL_Driver/Src/stm32l4xx_hal.c **** /**
 410:../../core/ST/STM32L4xx_HAL_Driver/Src/stm32l4xx_hal.c ****   * @brief  Return the device revision identifier.
ARM GAS  C:\Users\yvesk\AppData\Local\Temp\ccYX5Txy.s 			page 16


 411:../../core/ST/STM32L4xx_HAL_Driver/Src/stm32l4xx_hal.c ****   * @retval Device revision identifier
 412:../../core/ST/STM32L4xx_HAL_Driver/Src/stm32l4xx_hal.c ****   */
 413:../../core/ST/STM32L4xx_HAL_Driver/Src/stm32l4xx_hal.c **** uint32_t HAL_GetREVID(void)
 414:../../core/ST/STM32L4xx_HAL_Driver/Src/stm32l4xx_hal.c **** {
 439              		.loc 1 414 1 is_stmt 1 view -0
 440              		.cfi_startproc
 441              		@ args = 0, pretend = 0, frame = 0
 442              		@ frame_needed = 0, uses_anonymous_args = 0
 443              		@ link register save eliminated.
 415:../../core/ST/STM32L4xx_HAL_Driver/Src/stm32l4xx_hal.c ****   return((DBGMCU->IDCODE & DBGMCU_IDCODE_REV_ID) >> 16);
 444              		.loc 1 415 3 view .LVU77
 445              		.loc 1 415 17 is_stmt 0 view .LVU78
 446 0000 014B     		ldr	r3, .L39
 447 0002 1868     		ldr	r0, [r3]
 416:../../core/ST/STM32L4xx_HAL_Driver/Src/stm32l4xx_hal.c **** }
 448              		.loc 1 416 1 view .LVU79
 449 0004 000C     		lsrs	r0, r0, #16
 450 0006 7047     		bx	lr
 451              	.L40:
 452              		.align	2
 453              	.L39:
 454 0008 002004E0 		.word	-536600576
 455              		.cfi_endproc
 456              	.LFE134:
 458              		.section	.text.HAL_GetDEVID,"ax",%progbits
 459              		.align	1
 460              		.global	HAL_GetDEVID
 461              		.syntax unified
 462              		.thumb
 463              		.thumb_func
 464              		.fpu fpv4-sp-d16
 466              	HAL_GetDEVID:
 467              	.LFB135:
 417:../../core/ST/STM32L4xx_HAL_Driver/Src/stm32l4xx_hal.c **** 
 418:../../core/ST/STM32L4xx_HAL_Driver/Src/stm32l4xx_hal.c **** /**
 419:../../core/ST/STM32L4xx_HAL_Driver/Src/stm32l4xx_hal.c ****   * @brief  Return the device identifier.
 420:../../core/ST/STM32L4xx_HAL_Driver/Src/stm32l4xx_hal.c ****   * @retval Device identifier
 421:../../core/ST/STM32L4xx_HAL_Driver/Src/stm32l4xx_hal.c ****   */
 422:../../core/ST/STM32L4xx_HAL_Driver/Src/stm32l4xx_hal.c **** uint32_t HAL_GetDEVID(void)
 423:../../core/ST/STM32L4xx_HAL_Driver/Src/stm32l4xx_hal.c **** {
 468              		.loc 1 423 1 is_stmt 1 view -0
 469              		.cfi_startproc
 470              		@ args = 0, pretend = 0, frame = 0
 471              		@ frame_needed = 0, uses_anonymous_args = 0
 472              		@ link register save eliminated.
 424:../../core/ST/STM32L4xx_HAL_Driver/Src/stm32l4xx_hal.c ****   return(DBGMCU->IDCODE & DBGMCU_IDCODE_DEV_ID);
 473              		.loc 1 424 3 view .LVU81
 474              		.loc 1 424 16 is_stmt 0 view .LVU82
 475 0000 024B     		ldr	r3, .L42
 476 0002 1868     		ldr	r0, [r3]
 425:../../core/ST/STM32L4xx_HAL_Driver/Src/stm32l4xx_hal.c **** }
 477              		.loc 1 425 1 view .LVU83
 478 0004 C0F30B00 		ubfx	r0, r0, #0, #12
 479 0008 7047     		bx	lr
 480              	.L43:
 481 000a 00BF     		.align	2
 482              	.L42:
ARM GAS  C:\Users\yvesk\AppData\Local\Temp\ccYX5Txy.s 			page 17


 483 000c 002004E0 		.word	-536600576
 484              		.cfi_endproc
 485              	.LFE135:
 487              		.section	.text.HAL_GetUIDw0,"ax",%progbits
 488              		.align	1
 489              		.global	HAL_GetUIDw0
 490              		.syntax unified
 491              		.thumb
 492              		.thumb_func
 493              		.fpu fpv4-sp-d16
 495              	HAL_GetUIDw0:
 496              	.LFB136:
 426:../../core/ST/STM32L4xx_HAL_Driver/Src/stm32l4xx_hal.c **** 
 427:../../core/ST/STM32L4xx_HAL_Driver/Src/stm32l4xx_hal.c **** /**
 428:../../core/ST/STM32L4xx_HAL_Driver/Src/stm32l4xx_hal.c ****   * @brief  Return the first word of the unique device identifier (UID based on 96 bits)
 429:../../core/ST/STM32L4xx_HAL_Driver/Src/stm32l4xx_hal.c ****   * @retval Device identifier
 430:../../core/ST/STM32L4xx_HAL_Driver/Src/stm32l4xx_hal.c ****   */
 431:../../core/ST/STM32L4xx_HAL_Driver/Src/stm32l4xx_hal.c **** uint32_t HAL_GetUIDw0(void)
 432:../../core/ST/STM32L4xx_HAL_Driver/Src/stm32l4xx_hal.c **** {
 497              		.loc 1 432 1 is_stmt 1 view -0
 498              		.cfi_startproc
 499              		@ args = 0, pretend = 0, frame = 0
 500              		@ frame_needed = 0, uses_anonymous_args = 0
 501              		@ link register save eliminated.
 433:../../core/ST/STM32L4xx_HAL_Driver/Src/stm32l4xx_hal.c ****   return(READ_REG(*((uint32_t *)UID_BASE)));
 502              		.loc 1 433 3 view .LVU85
 434:../../core/ST/STM32L4xx_HAL_Driver/Src/stm32l4xx_hal.c **** }
 503              		.loc 1 434 1 is_stmt 0 view .LVU86
 504 0000 014B     		ldr	r3, .L45
 505 0002 1868     		ldr	r0, [r3]
 506 0004 7047     		bx	lr
 507              	.L46:
 508 0006 00BF     		.align	2
 509              	.L45:
 510 0008 9075FF1F 		.word	536835472
 511              		.cfi_endproc
 512              	.LFE136:
 514              		.section	.text.HAL_GetUIDw1,"ax",%progbits
 515              		.align	1
 516              		.global	HAL_GetUIDw1
 517              		.syntax unified
 518              		.thumb
 519              		.thumb_func
 520              		.fpu fpv4-sp-d16
 522              	HAL_GetUIDw1:
 523              	.LFB137:
 435:../../core/ST/STM32L4xx_HAL_Driver/Src/stm32l4xx_hal.c **** 
 436:../../core/ST/STM32L4xx_HAL_Driver/Src/stm32l4xx_hal.c **** /**
 437:../../core/ST/STM32L4xx_HAL_Driver/Src/stm32l4xx_hal.c ****   * @brief  Return the second word of the unique device identifier (UID based on 96 bits)
 438:../../core/ST/STM32L4xx_HAL_Driver/Src/stm32l4xx_hal.c ****   * @retval Device identifier
 439:../../core/ST/STM32L4xx_HAL_Driver/Src/stm32l4xx_hal.c ****   */
 440:../../core/ST/STM32L4xx_HAL_Driver/Src/stm32l4xx_hal.c **** uint32_t HAL_GetUIDw1(void)
 441:../../core/ST/STM32L4xx_HAL_Driver/Src/stm32l4xx_hal.c **** {
 524              		.loc 1 441 1 is_stmt 1 view -0
 525              		.cfi_startproc
 526              		@ args = 0, pretend = 0, frame = 0
 527              		@ frame_needed = 0, uses_anonymous_args = 0
ARM GAS  C:\Users\yvesk\AppData\Local\Temp\ccYX5Txy.s 			page 18


 528              		@ link register save eliminated.
 442:../../core/ST/STM32L4xx_HAL_Driver/Src/stm32l4xx_hal.c ****   return(READ_REG(*((uint32_t *)(UID_BASE + 4U))));
 529              		.loc 1 442 3 view .LVU88
 443:../../core/ST/STM32L4xx_HAL_Driver/Src/stm32l4xx_hal.c **** }
 530              		.loc 1 443 1 is_stmt 0 view .LVU89
 531 0000 014B     		ldr	r3, .L48
 532 0002 1868     		ldr	r0, [r3]
 533 0004 7047     		bx	lr
 534              	.L49:
 535 0006 00BF     		.align	2
 536              	.L48:
 537 0008 9475FF1F 		.word	536835476
 538              		.cfi_endproc
 539              	.LFE137:
 541              		.section	.text.HAL_GetUIDw2,"ax",%progbits
 542              		.align	1
 543              		.global	HAL_GetUIDw2
 544              		.syntax unified
 545              		.thumb
 546              		.thumb_func
 547              		.fpu fpv4-sp-d16
 549              	HAL_GetUIDw2:
 550              	.LFB138:
 444:../../core/ST/STM32L4xx_HAL_Driver/Src/stm32l4xx_hal.c **** 
 445:../../core/ST/STM32L4xx_HAL_Driver/Src/stm32l4xx_hal.c **** /**
 446:../../core/ST/STM32L4xx_HAL_Driver/Src/stm32l4xx_hal.c ****   * @brief  Return the third word of the unique device identifier (UID based on 96 bits)
 447:../../core/ST/STM32L4xx_HAL_Driver/Src/stm32l4xx_hal.c ****   * @retval Device identifier
 448:../../core/ST/STM32L4xx_HAL_Driver/Src/stm32l4xx_hal.c ****   */
 449:../../core/ST/STM32L4xx_HAL_Driver/Src/stm32l4xx_hal.c **** uint32_t HAL_GetUIDw2(void)
 450:../../core/ST/STM32L4xx_HAL_Driver/Src/stm32l4xx_hal.c **** {
 551              		.loc 1 450 1 is_stmt 1 view -0
 552              		.cfi_startproc
 553              		@ args = 0, pretend = 0, frame = 0
 554              		@ frame_needed = 0, uses_anonymous_args = 0
 555              		@ link register save eliminated.
 451:../../core/ST/STM32L4xx_HAL_Driver/Src/stm32l4xx_hal.c ****   return(READ_REG(*((uint32_t *)(UID_BASE + 8U))));
 556              		.loc 1 451 3 view .LVU91
 452:../../core/ST/STM32L4xx_HAL_Driver/Src/stm32l4xx_hal.c **** }
 557              		.loc 1 452 1 is_stmt 0 view .LVU92
 558 0000 014B     		ldr	r3, .L51
 559 0002 1868     		ldr	r0, [r3]
 560 0004 7047     		bx	lr
 561              	.L52:
 562 0006 00BF     		.align	2
 563              	.L51:
 564 0008 9875FF1F 		.word	536835480
 565              		.cfi_endproc
 566              	.LFE138:
 568              		.section	.text.HAL_DBGMCU_EnableDBGSleepMode,"ax",%progbits
 569              		.align	1
 570              		.global	HAL_DBGMCU_EnableDBGSleepMode
 571              		.syntax unified
 572              		.thumb
 573              		.thumb_func
 574              		.fpu fpv4-sp-d16
 576              	HAL_DBGMCU_EnableDBGSleepMode:
 577              	.LFB139:
ARM GAS  C:\Users\yvesk\AppData\Local\Temp\ccYX5Txy.s 			page 19


 453:../../core/ST/STM32L4xx_HAL_Driver/Src/stm32l4xx_hal.c **** 
 454:../../core/ST/STM32L4xx_HAL_Driver/Src/stm32l4xx_hal.c **** /**
 455:../../core/ST/STM32L4xx_HAL_Driver/Src/stm32l4xx_hal.c ****   * @}
 456:../../core/ST/STM32L4xx_HAL_Driver/Src/stm32l4xx_hal.c ****   */
 457:../../core/ST/STM32L4xx_HAL_Driver/Src/stm32l4xx_hal.c **** 
 458:../../core/ST/STM32L4xx_HAL_Driver/Src/stm32l4xx_hal.c **** /** @defgroup HAL_Exported_Functions_Group3 HAL Debug functions
 459:../../core/ST/STM32L4xx_HAL_Driver/Src/stm32l4xx_hal.c ****  *  @brief    HAL Debug functions
 460:../../core/ST/STM32L4xx_HAL_Driver/Src/stm32l4xx_hal.c ****  *
 461:../../core/ST/STM32L4xx_HAL_Driver/Src/stm32l4xx_hal.c **** @verbatim
 462:../../core/ST/STM32L4xx_HAL_Driver/Src/stm32l4xx_hal.c ****  ===============================================================================
 463:../../core/ST/STM32L4xx_HAL_Driver/Src/stm32l4xx_hal.c ****                       ##### HAL Debug functions #####
 464:../../core/ST/STM32L4xx_HAL_Driver/Src/stm32l4xx_hal.c ****  ===============================================================================
 465:../../core/ST/STM32L4xx_HAL_Driver/Src/stm32l4xx_hal.c ****     [..]  This section provides functions allowing to:
 466:../../core/ST/STM32L4xx_HAL_Driver/Src/stm32l4xx_hal.c ****       (+) Enable/Disable Debug module during SLEEP mode
 467:../../core/ST/STM32L4xx_HAL_Driver/Src/stm32l4xx_hal.c ****       (+) Enable/Disable Debug module during STOP0/STOP1/STOP2 modes
 468:../../core/ST/STM32L4xx_HAL_Driver/Src/stm32l4xx_hal.c ****       (+) Enable/Disable Debug module during STANDBY mode
 469:../../core/ST/STM32L4xx_HAL_Driver/Src/stm32l4xx_hal.c **** 
 470:../../core/ST/STM32L4xx_HAL_Driver/Src/stm32l4xx_hal.c **** @endverbatim
 471:../../core/ST/STM32L4xx_HAL_Driver/Src/stm32l4xx_hal.c ****   * @{
 472:../../core/ST/STM32L4xx_HAL_Driver/Src/stm32l4xx_hal.c ****   */
 473:../../core/ST/STM32L4xx_HAL_Driver/Src/stm32l4xx_hal.c **** 
 474:../../core/ST/STM32L4xx_HAL_Driver/Src/stm32l4xx_hal.c **** /**
 475:../../core/ST/STM32L4xx_HAL_Driver/Src/stm32l4xx_hal.c ****   * @brief  Enable the Debug Module during SLEEP mode.
 476:../../core/ST/STM32L4xx_HAL_Driver/Src/stm32l4xx_hal.c ****   * @retval None
 477:../../core/ST/STM32L4xx_HAL_Driver/Src/stm32l4xx_hal.c ****   */
 478:../../core/ST/STM32L4xx_HAL_Driver/Src/stm32l4xx_hal.c **** void HAL_DBGMCU_EnableDBGSleepMode(void)
 479:../../core/ST/STM32L4xx_HAL_Driver/Src/stm32l4xx_hal.c **** {
 578              		.loc 1 479 1 is_stmt 1 view -0
 579              		.cfi_startproc
 580              		@ args = 0, pretend = 0, frame = 0
 581              		@ frame_needed = 0, uses_anonymous_args = 0
 582              		@ link register save eliminated.
 480:../../core/ST/STM32L4xx_HAL_Driver/Src/stm32l4xx_hal.c ****   SET_BIT(DBGMCU->CR, DBGMCU_CR_DBG_SLEEP);
 583              		.loc 1 480 3 view .LVU94
 584 0000 024A     		ldr	r2, .L54
 585 0002 5368     		ldr	r3, [r2, #4]
 586 0004 43F00103 		orr	r3, r3, #1
 587 0008 5360     		str	r3, [r2, #4]
 481:../../core/ST/STM32L4xx_HAL_Driver/Src/stm32l4xx_hal.c **** }
 588              		.loc 1 481 1 is_stmt 0 view .LVU95
 589 000a 7047     		bx	lr
 590              	.L55:
 591              		.align	2
 592              	.L54:
 593 000c 002004E0 		.word	-536600576
 594              		.cfi_endproc
 595              	.LFE139:
 597              		.section	.text.HAL_DBGMCU_DisableDBGSleepMode,"ax",%progbits
 598              		.align	1
 599              		.global	HAL_DBGMCU_DisableDBGSleepMode
 600              		.syntax unified
 601              		.thumb
 602              		.thumb_func
 603              		.fpu fpv4-sp-d16
 605              	HAL_DBGMCU_DisableDBGSleepMode:
 606              	.LFB140:
 482:../../core/ST/STM32L4xx_HAL_Driver/Src/stm32l4xx_hal.c **** 
ARM GAS  C:\Users\yvesk\AppData\Local\Temp\ccYX5Txy.s 			page 20


 483:../../core/ST/STM32L4xx_HAL_Driver/Src/stm32l4xx_hal.c **** /**
 484:../../core/ST/STM32L4xx_HAL_Driver/Src/stm32l4xx_hal.c ****   * @brief  Disable the Debug Module during SLEEP mode.
 485:../../core/ST/STM32L4xx_HAL_Driver/Src/stm32l4xx_hal.c ****   * @retval None
 486:../../core/ST/STM32L4xx_HAL_Driver/Src/stm32l4xx_hal.c ****   */
 487:../../core/ST/STM32L4xx_HAL_Driver/Src/stm32l4xx_hal.c **** void HAL_DBGMCU_DisableDBGSleepMode(void)
 488:../../core/ST/STM32L4xx_HAL_Driver/Src/stm32l4xx_hal.c **** {
 607              		.loc 1 488 1 is_stmt 1 view -0
 608              		.cfi_startproc
 609              		@ args = 0, pretend = 0, frame = 0
 610              		@ frame_needed = 0, uses_anonymous_args = 0
 611              		@ link register save eliminated.
 489:../../core/ST/STM32L4xx_HAL_Driver/Src/stm32l4xx_hal.c ****   CLEAR_BIT(DBGMCU->CR, DBGMCU_CR_DBG_SLEEP);
 612              		.loc 1 489 3 view .LVU97
 613 0000 024A     		ldr	r2, .L57
 614 0002 5368     		ldr	r3, [r2, #4]
 615 0004 23F00103 		bic	r3, r3, #1
 616 0008 5360     		str	r3, [r2, #4]
 490:../../core/ST/STM32L4xx_HAL_Driver/Src/stm32l4xx_hal.c **** }
 617              		.loc 1 490 1 is_stmt 0 view .LVU98
 618 000a 7047     		bx	lr
 619              	.L58:
 620              		.align	2
 621              	.L57:
 622 000c 002004E0 		.word	-536600576
 623              		.cfi_endproc
 624              	.LFE140:
 626              		.section	.text.HAL_DBGMCU_EnableDBGStopMode,"ax",%progbits
 627              		.align	1
 628              		.global	HAL_DBGMCU_EnableDBGStopMode
 629              		.syntax unified
 630              		.thumb
 631              		.thumb_func
 632              		.fpu fpv4-sp-d16
 634              	HAL_DBGMCU_EnableDBGStopMode:
 635              	.LFB141:
 491:../../core/ST/STM32L4xx_HAL_Driver/Src/stm32l4xx_hal.c **** 
 492:../../core/ST/STM32L4xx_HAL_Driver/Src/stm32l4xx_hal.c **** /**
 493:../../core/ST/STM32L4xx_HAL_Driver/Src/stm32l4xx_hal.c ****   * @brief  Enable the Debug Module during STOP0/STOP1/STOP2 modes.
 494:../../core/ST/STM32L4xx_HAL_Driver/Src/stm32l4xx_hal.c ****   * @retval None
 495:../../core/ST/STM32L4xx_HAL_Driver/Src/stm32l4xx_hal.c ****   */
 496:../../core/ST/STM32L4xx_HAL_Driver/Src/stm32l4xx_hal.c **** void HAL_DBGMCU_EnableDBGStopMode(void)
 497:../../core/ST/STM32L4xx_HAL_Driver/Src/stm32l4xx_hal.c **** {
 636              		.loc 1 497 1 is_stmt 1 view -0
 637              		.cfi_startproc
 638              		@ args = 0, pretend = 0, frame = 0
 639              		@ frame_needed = 0, uses_anonymous_args = 0
 640              		@ link register save eliminated.
 498:../../core/ST/STM32L4xx_HAL_Driver/Src/stm32l4xx_hal.c ****   SET_BIT(DBGMCU->CR, DBGMCU_CR_DBG_STOP);
 641              		.loc 1 498 3 view .LVU100
 642 0000 024A     		ldr	r2, .L60
 643 0002 5368     		ldr	r3, [r2, #4]
 644 0004 43F00203 		orr	r3, r3, #2
 645 0008 5360     		str	r3, [r2, #4]
 499:../../core/ST/STM32L4xx_HAL_Driver/Src/stm32l4xx_hal.c **** }
 646              		.loc 1 499 1 is_stmt 0 view .LVU101
 647 000a 7047     		bx	lr
 648              	.L61:
ARM GAS  C:\Users\yvesk\AppData\Local\Temp\ccYX5Txy.s 			page 21


 649              		.align	2
 650              	.L60:
 651 000c 002004E0 		.word	-536600576
 652              		.cfi_endproc
 653              	.LFE141:
 655              		.section	.text.HAL_DBGMCU_DisableDBGStopMode,"ax",%progbits
 656              		.align	1
 657              		.global	HAL_DBGMCU_DisableDBGStopMode
 658              		.syntax unified
 659              		.thumb
 660              		.thumb_func
 661              		.fpu fpv4-sp-d16
 663              	HAL_DBGMCU_DisableDBGStopMode:
 664              	.LFB142:
 500:../../core/ST/STM32L4xx_HAL_Driver/Src/stm32l4xx_hal.c **** 
 501:../../core/ST/STM32L4xx_HAL_Driver/Src/stm32l4xx_hal.c **** /**
 502:../../core/ST/STM32L4xx_HAL_Driver/Src/stm32l4xx_hal.c ****   * @brief  Disable the Debug Module during STOP0/STOP1/STOP2 modes.
 503:../../core/ST/STM32L4xx_HAL_Driver/Src/stm32l4xx_hal.c ****   * @retval None
 504:../../core/ST/STM32L4xx_HAL_Driver/Src/stm32l4xx_hal.c ****   */
 505:../../core/ST/STM32L4xx_HAL_Driver/Src/stm32l4xx_hal.c **** void HAL_DBGMCU_DisableDBGStopMode(void)
 506:../../core/ST/STM32L4xx_HAL_Driver/Src/stm32l4xx_hal.c **** {
 665              		.loc 1 506 1 is_stmt 1 view -0
 666              		.cfi_startproc
 667              		@ args = 0, pretend = 0, frame = 0
 668              		@ frame_needed = 0, uses_anonymous_args = 0
 669              		@ link register save eliminated.
 507:../../core/ST/STM32L4xx_HAL_Driver/Src/stm32l4xx_hal.c ****   CLEAR_BIT(DBGMCU->CR, DBGMCU_CR_DBG_STOP);
 670              		.loc 1 507 3 view .LVU103
 671 0000 024A     		ldr	r2, .L63
 672 0002 5368     		ldr	r3, [r2, #4]
 673 0004 23F00203 		bic	r3, r3, #2
 674 0008 5360     		str	r3, [r2, #4]
 508:../../core/ST/STM32L4xx_HAL_Driver/Src/stm32l4xx_hal.c **** }
 675              		.loc 1 508 1 is_stmt 0 view .LVU104
 676 000a 7047     		bx	lr
 677              	.L64:
 678              		.align	2
 679              	.L63:
 680 000c 002004E0 		.word	-536600576
 681              		.cfi_endproc
 682              	.LFE142:
 684              		.section	.text.HAL_DBGMCU_EnableDBGStandbyMode,"ax",%progbits
 685              		.align	1
 686              		.global	HAL_DBGMCU_EnableDBGStandbyMode
 687              		.syntax unified
 688              		.thumb
 689              		.thumb_func
 690              		.fpu fpv4-sp-d16
 692              	HAL_DBGMCU_EnableDBGStandbyMode:
 693              	.LFB143:
 509:../../core/ST/STM32L4xx_HAL_Driver/Src/stm32l4xx_hal.c **** 
 510:../../core/ST/STM32L4xx_HAL_Driver/Src/stm32l4xx_hal.c **** /**
 511:../../core/ST/STM32L4xx_HAL_Driver/Src/stm32l4xx_hal.c ****   * @brief  Enable the Debug Module during STANDBY mode.
 512:../../core/ST/STM32L4xx_HAL_Driver/Src/stm32l4xx_hal.c ****   * @retval None
 513:../../core/ST/STM32L4xx_HAL_Driver/Src/stm32l4xx_hal.c ****   */
 514:../../core/ST/STM32L4xx_HAL_Driver/Src/stm32l4xx_hal.c **** void HAL_DBGMCU_EnableDBGStandbyMode(void)
 515:../../core/ST/STM32L4xx_HAL_Driver/Src/stm32l4xx_hal.c **** {
ARM GAS  C:\Users\yvesk\AppData\Local\Temp\ccYX5Txy.s 			page 22


 694              		.loc 1 515 1 is_stmt 1 view -0
 695              		.cfi_startproc
 696              		@ args = 0, pretend = 0, frame = 0
 697              		@ frame_needed = 0, uses_anonymous_args = 0
 698              		@ link register save eliminated.
 516:../../core/ST/STM32L4xx_HAL_Driver/Src/stm32l4xx_hal.c ****   SET_BIT(DBGMCU->CR, DBGMCU_CR_DBG_STANDBY);
 699              		.loc 1 516 3 view .LVU106
 700 0000 024A     		ldr	r2, .L66
 701 0002 5368     		ldr	r3, [r2, #4]
 702 0004 43F00403 		orr	r3, r3, #4
 703 0008 5360     		str	r3, [r2, #4]
 517:../../core/ST/STM32L4xx_HAL_Driver/Src/stm32l4xx_hal.c **** }
 704              		.loc 1 517 1 is_stmt 0 view .LVU107
 705 000a 7047     		bx	lr
 706              	.L67:
 707              		.align	2
 708              	.L66:
 709 000c 002004E0 		.word	-536600576
 710              		.cfi_endproc
 711              	.LFE143:
 713              		.section	.text.HAL_DBGMCU_DisableDBGStandbyMode,"ax",%progbits
 714              		.align	1
 715              		.global	HAL_DBGMCU_DisableDBGStandbyMode
 716              		.syntax unified
 717              		.thumb
 718              		.thumb_func
 719              		.fpu fpv4-sp-d16
 721              	HAL_DBGMCU_DisableDBGStandbyMode:
 722              	.LFB144:
 518:../../core/ST/STM32L4xx_HAL_Driver/Src/stm32l4xx_hal.c **** 
 519:../../core/ST/STM32L4xx_HAL_Driver/Src/stm32l4xx_hal.c **** /**
 520:../../core/ST/STM32L4xx_HAL_Driver/Src/stm32l4xx_hal.c ****   * @brief  Disable the Debug Module during STANDBY mode.
 521:../../core/ST/STM32L4xx_HAL_Driver/Src/stm32l4xx_hal.c ****   * @retval None
 522:../../core/ST/STM32L4xx_HAL_Driver/Src/stm32l4xx_hal.c ****   */
 523:../../core/ST/STM32L4xx_HAL_Driver/Src/stm32l4xx_hal.c **** void HAL_DBGMCU_DisableDBGStandbyMode(void)
 524:../../core/ST/STM32L4xx_HAL_Driver/Src/stm32l4xx_hal.c **** {
 723              		.loc 1 524 1 is_stmt 1 view -0
 724              		.cfi_startproc
 725              		@ args = 0, pretend = 0, frame = 0
 726              		@ frame_needed = 0, uses_anonymous_args = 0
 727              		@ link register save eliminated.
 525:../../core/ST/STM32L4xx_HAL_Driver/Src/stm32l4xx_hal.c ****   CLEAR_BIT(DBGMCU->CR, DBGMCU_CR_DBG_STANDBY);
 728              		.loc 1 525 3 view .LVU109
 729 0000 024A     		ldr	r2, .L69
 730 0002 5368     		ldr	r3, [r2, #4]
 731 0004 23F00403 		bic	r3, r3, #4
 732 0008 5360     		str	r3, [r2, #4]
 526:../../core/ST/STM32L4xx_HAL_Driver/Src/stm32l4xx_hal.c **** }
 733              		.loc 1 526 1 is_stmt 0 view .LVU110
 734 000a 7047     		bx	lr
 735              	.L70:
 736              		.align	2
 737              	.L69:
 738 000c 002004E0 		.word	-536600576
 739              		.cfi_endproc
 740              	.LFE144:
 742              		.section	.text.HAL_SYSCFG_SRAM2Erase,"ax",%progbits
ARM GAS  C:\Users\yvesk\AppData\Local\Temp\ccYX5Txy.s 			page 23


 743              		.align	1
 744              		.global	HAL_SYSCFG_SRAM2Erase
 745              		.syntax unified
 746              		.thumb
 747              		.thumb_func
 748              		.fpu fpv4-sp-d16
 750              	HAL_SYSCFG_SRAM2Erase:
 751              	.LFB145:
 527:../../core/ST/STM32L4xx_HAL_Driver/Src/stm32l4xx_hal.c **** 
 528:../../core/ST/STM32L4xx_HAL_Driver/Src/stm32l4xx_hal.c **** /**
 529:../../core/ST/STM32L4xx_HAL_Driver/Src/stm32l4xx_hal.c ****   * @}
 530:../../core/ST/STM32L4xx_HAL_Driver/Src/stm32l4xx_hal.c ****   */
 531:../../core/ST/STM32L4xx_HAL_Driver/Src/stm32l4xx_hal.c **** 
 532:../../core/ST/STM32L4xx_HAL_Driver/Src/stm32l4xx_hal.c **** /** @defgroup HAL_Exported_Functions_Group4 HAL SYSCFG configuration functions
 533:../../core/ST/STM32L4xx_HAL_Driver/Src/stm32l4xx_hal.c ****  *  @brief    HAL SYSCFG configuration functions
 534:../../core/ST/STM32L4xx_HAL_Driver/Src/stm32l4xx_hal.c ****  *
 535:../../core/ST/STM32L4xx_HAL_Driver/Src/stm32l4xx_hal.c **** @verbatim
 536:../../core/ST/STM32L4xx_HAL_Driver/Src/stm32l4xx_hal.c ****  ===============================================================================
 537:../../core/ST/STM32L4xx_HAL_Driver/Src/stm32l4xx_hal.c ****                       ##### HAL SYSCFG configuration functions #####
 538:../../core/ST/STM32L4xx_HAL_Driver/Src/stm32l4xx_hal.c ****  ===============================================================================
 539:../../core/ST/STM32L4xx_HAL_Driver/Src/stm32l4xx_hal.c ****     [..]  This section provides functions allowing to:
 540:../../core/ST/STM32L4xx_HAL_Driver/Src/stm32l4xx_hal.c ****       (+) Start a hardware SRAM2 erase operation
 541:../../core/ST/STM32L4xx_HAL_Driver/Src/stm32l4xx_hal.c ****       (+) Enable/Disable the Internal FLASH Bank Swapping
 542:../../core/ST/STM32L4xx_HAL_Driver/Src/stm32l4xx_hal.c ****       (+) Configure the Voltage reference buffer
 543:../../core/ST/STM32L4xx_HAL_Driver/Src/stm32l4xx_hal.c ****       (+) Enable/Disable the Voltage reference buffer
 544:../../core/ST/STM32L4xx_HAL_Driver/Src/stm32l4xx_hal.c ****       (+) Enable/Disable the I/O analog switch voltage booster
 545:../../core/ST/STM32L4xx_HAL_Driver/Src/stm32l4xx_hal.c **** 
 546:../../core/ST/STM32L4xx_HAL_Driver/Src/stm32l4xx_hal.c **** @endverbatim
 547:../../core/ST/STM32L4xx_HAL_Driver/Src/stm32l4xx_hal.c ****   * @{
 548:../../core/ST/STM32L4xx_HAL_Driver/Src/stm32l4xx_hal.c ****   */
 549:../../core/ST/STM32L4xx_HAL_Driver/Src/stm32l4xx_hal.c **** 
 550:../../core/ST/STM32L4xx_HAL_Driver/Src/stm32l4xx_hal.c **** /**
 551:../../core/ST/STM32L4xx_HAL_Driver/Src/stm32l4xx_hal.c ****   * @brief  Start a hardware SRAM2 erase operation.
 552:../../core/ST/STM32L4xx_HAL_Driver/Src/stm32l4xx_hal.c ****   * @note   As long as SRAM2 is not erased the SRAM2ER bit will be set.
 553:../../core/ST/STM32L4xx_HAL_Driver/Src/stm32l4xx_hal.c ****   *         This bit is automatically reset at the end of the SRAM2 erase operation.
 554:../../core/ST/STM32L4xx_HAL_Driver/Src/stm32l4xx_hal.c ****   * @retval None
 555:../../core/ST/STM32L4xx_HAL_Driver/Src/stm32l4xx_hal.c ****   */
 556:../../core/ST/STM32L4xx_HAL_Driver/Src/stm32l4xx_hal.c **** void HAL_SYSCFG_SRAM2Erase(void)
 557:../../core/ST/STM32L4xx_HAL_Driver/Src/stm32l4xx_hal.c **** {
 752              		.loc 1 557 1 is_stmt 1 view -0
 753              		.cfi_startproc
 754              		@ args = 0, pretend = 0, frame = 0
 755              		@ frame_needed = 0, uses_anonymous_args = 0
 756              		@ link register save eliminated.
 558:../../core/ST/STM32L4xx_HAL_Driver/Src/stm32l4xx_hal.c ****   /* unlock the write protection of the SRAM2ER bit */
 559:../../core/ST/STM32L4xx_HAL_Driver/Src/stm32l4xx_hal.c ****   SYSCFG->SKR = 0xCA;
 757              		.loc 1 559 3 view .LVU112
 758              		.loc 1 559 15 is_stmt 0 view .LVU113
 759 0000 054B     		ldr	r3, .L72
 760 0002 CA22     		movs	r2, #202
 761 0004 5A62     		str	r2, [r3, #36]
 560:../../core/ST/STM32L4xx_HAL_Driver/Src/stm32l4xx_hal.c ****   SYSCFG->SKR = 0x53;
 762              		.loc 1 560 3 is_stmt 1 view .LVU114
 763              		.loc 1 560 15 is_stmt 0 view .LVU115
 764 0006 5322     		movs	r2, #83
 765 0008 5A62     		str	r2, [r3, #36]
 561:../../core/ST/STM32L4xx_HAL_Driver/Src/stm32l4xx_hal.c ****   /* Starts a hardware SRAM2 erase operation*/
ARM GAS  C:\Users\yvesk\AppData\Local\Temp\ccYX5Txy.s 			page 24


 562:../../core/ST/STM32L4xx_HAL_Driver/Src/stm32l4xx_hal.c ****   *(__IO uint32_t *) SCSR_SRAM2ER_BB = 0x00000001UL;
 766              		.loc 1 562 3 is_stmt 1 view .LVU116
 767              		.loc 1 562 38 is_stmt 0 view .LVU117
 768 000a A3F1FD23 		sub	r3, r3, #-50266880
 769 000e A3F56003 		sub	r3, r3, #14680064
 770 0012 0122     		movs	r2, #1
 771 0014 1A60     		str	r2, [r3]
 563:../../core/ST/STM32L4xx_HAL_Driver/Src/stm32l4xx_hal.c **** }
 772              		.loc 1 563 1 view .LVU118
 773 0016 7047     		bx	lr
 774              	.L73:
 775              		.align	2
 776              	.L72:
 777 0018 00000140 		.word	1073807360
 778              		.cfi_endproc
 779              	.LFE145:
 781              		.section	.text.HAL_SYSCFG_EnableMemorySwappingBank,"ax",%progbits
 782              		.align	1
 783              		.global	HAL_SYSCFG_EnableMemorySwappingBank
 784              		.syntax unified
 785              		.thumb
 786              		.thumb_func
 787              		.fpu fpv4-sp-d16
 789              	HAL_SYSCFG_EnableMemorySwappingBank:
 790              	.LFB146:
 564:../../core/ST/STM32L4xx_HAL_Driver/Src/stm32l4xx_hal.c **** 
 565:../../core/ST/STM32L4xx_HAL_Driver/Src/stm32l4xx_hal.c **** /**
 566:../../core/ST/STM32L4xx_HAL_Driver/Src/stm32l4xx_hal.c ****   * @brief  Enable the Internal FLASH Bank Swapping.
 567:../../core/ST/STM32L4xx_HAL_Driver/Src/stm32l4xx_hal.c ****   *
 568:../../core/ST/STM32L4xx_HAL_Driver/Src/stm32l4xx_hal.c ****   * @note   This function can be used only for STM32L4xx devices.
 569:../../core/ST/STM32L4xx_HAL_Driver/Src/stm32l4xx_hal.c ****   *
 570:../../core/ST/STM32L4xx_HAL_Driver/Src/stm32l4xx_hal.c ****   * @note   Flash Bank2 mapped at 0x08000000 (and aliased @0x00000000)
 571:../../core/ST/STM32L4xx_HAL_Driver/Src/stm32l4xx_hal.c ****   *         and Flash Bank1 mapped at 0x08100000 (and aliased at 0x00100000)
 572:../../core/ST/STM32L4xx_HAL_Driver/Src/stm32l4xx_hal.c ****   *
 573:../../core/ST/STM32L4xx_HAL_Driver/Src/stm32l4xx_hal.c ****   * @retval None
 574:../../core/ST/STM32L4xx_HAL_Driver/Src/stm32l4xx_hal.c ****   */
 575:../../core/ST/STM32L4xx_HAL_Driver/Src/stm32l4xx_hal.c **** void HAL_SYSCFG_EnableMemorySwappingBank(void)
 576:../../core/ST/STM32L4xx_HAL_Driver/Src/stm32l4xx_hal.c **** {
 791              		.loc 1 576 1 is_stmt 1 view -0
 792              		.cfi_startproc
 793              		@ args = 0, pretend = 0, frame = 0
 794              		@ frame_needed = 0, uses_anonymous_args = 0
 795              		@ link register save eliminated.
 577:../../core/ST/STM32L4xx_HAL_Driver/Src/stm32l4xx_hal.c ****   *(__IO uint32_t *)FB_MODE_BB = 0x00000000UL;
 796              		.loc 1 577 3 view .LVU120
 797              		.loc 1 577 32 is_stmt 0 view .LVU121
 798 0000 014B     		ldr	r3, .L75
 799 0002 0022     		movs	r2, #0
 800 0004 1A60     		str	r2, [r3]
 578:../../core/ST/STM32L4xx_HAL_Driver/Src/stm32l4xx_hal.c **** }
 801              		.loc 1 578 1 view .LVU122
 802 0006 7047     		bx	lr
 803              	.L76:
 804              		.align	2
 805              	.L75:
 806 0008 20002042 		.word	1109393440
 807              		.cfi_endproc
ARM GAS  C:\Users\yvesk\AppData\Local\Temp\ccYX5Txy.s 			page 25


 808              	.LFE146:
 810              		.section	.text.HAL_SYSCFG_DisableMemorySwappingBank,"ax",%progbits
 811              		.align	1
 812              		.global	HAL_SYSCFG_DisableMemorySwappingBank
 813              		.syntax unified
 814              		.thumb
 815              		.thumb_func
 816              		.fpu fpv4-sp-d16
 818              	HAL_SYSCFG_DisableMemorySwappingBank:
 819              	.LFB147:
 579:../../core/ST/STM32L4xx_HAL_Driver/Src/stm32l4xx_hal.c **** 
 580:../../core/ST/STM32L4xx_HAL_Driver/Src/stm32l4xx_hal.c **** /**
 581:../../core/ST/STM32L4xx_HAL_Driver/Src/stm32l4xx_hal.c ****   * @brief  Disable the Internal FLASH Bank Swapping.
 582:../../core/ST/STM32L4xx_HAL_Driver/Src/stm32l4xx_hal.c ****   *
 583:../../core/ST/STM32L4xx_HAL_Driver/Src/stm32l4xx_hal.c ****   * @note   This function can be used only for STM32L4xx devices.
 584:../../core/ST/STM32L4xx_HAL_Driver/Src/stm32l4xx_hal.c ****   *
 585:../../core/ST/STM32L4xx_HAL_Driver/Src/stm32l4xx_hal.c ****   * @note   The default state : Flash Bank1 mapped at 0x08000000 (and aliased @0x0000 0000)
 586:../../core/ST/STM32L4xx_HAL_Driver/Src/stm32l4xx_hal.c ****   *         and Flash Bank2 mapped at 0x08100000 (and aliased at 0x00100000)
 587:../../core/ST/STM32L4xx_HAL_Driver/Src/stm32l4xx_hal.c ****   *
 588:../../core/ST/STM32L4xx_HAL_Driver/Src/stm32l4xx_hal.c ****   * @retval None
 589:../../core/ST/STM32L4xx_HAL_Driver/Src/stm32l4xx_hal.c ****   */
 590:../../core/ST/STM32L4xx_HAL_Driver/Src/stm32l4xx_hal.c **** void HAL_SYSCFG_DisableMemorySwappingBank(void)
 591:../../core/ST/STM32L4xx_HAL_Driver/Src/stm32l4xx_hal.c **** {
 820              		.loc 1 591 1 is_stmt 1 view -0
 821              		.cfi_startproc
 822              		@ args = 0, pretend = 0, frame = 0
 823              		@ frame_needed = 0, uses_anonymous_args = 0
 824              		@ link register save eliminated.
 592:../../core/ST/STM32L4xx_HAL_Driver/Src/stm32l4xx_hal.c **** 
 593:../../core/ST/STM32L4xx_HAL_Driver/Src/stm32l4xx_hal.c ****   *(__IO uint32_t *)FB_MODE_BB = 0x00000000UL;
 825              		.loc 1 593 3 view .LVU124
 826              		.loc 1 593 32 is_stmt 0 view .LVU125
 827 0000 014B     		ldr	r3, .L78
 828 0002 0022     		movs	r2, #0
 829 0004 1A60     		str	r2, [r3]
 594:../../core/ST/STM32L4xx_HAL_Driver/Src/stm32l4xx_hal.c **** }
 830              		.loc 1 594 1 view .LVU126
 831 0006 7047     		bx	lr
 832              	.L79:
 833              		.align	2
 834              	.L78:
 835 0008 20002042 		.word	1109393440
 836              		.cfi_endproc
 837              	.LFE147:
 839              		.section	.text.HAL_SYSCFG_VREFBUF_VoltageScalingConfig,"ax",%progbits
 840              		.align	1
 841              		.global	HAL_SYSCFG_VREFBUF_VoltageScalingConfig
 842              		.syntax unified
 843              		.thumb
 844              		.thumb_func
 845              		.fpu fpv4-sp-d16
 847              	HAL_SYSCFG_VREFBUF_VoltageScalingConfig:
 848              	.LVL19:
 849              	.LFB148:
 595:../../core/ST/STM32L4xx_HAL_Driver/Src/stm32l4xx_hal.c **** 
 596:../../core/ST/STM32L4xx_HAL_Driver/Src/stm32l4xx_hal.c **** #if defined(VREFBUF)
 597:../../core/ST/STM32L4xx_HAL_Driver/Src/stm32l4xx_hal.c **** /**
ARM GAS  C:\Users\yvesk\AppData\Local\Temp\ccYX5Txy.s 			page 26


 598:../../core/ST/STM32L4xx_HAL_Driver/Src/stm32l4xx_hal.c ****   * @brief Configure the internal voltage reference buffer voltage scale.
 599:../../core/ST/STM32L4xx_HAL_Driver/Src/stm32l4xx_hal.c ****   * @param VoltageScaling  specifies the output voltage to achieve
 600:../../core/ST/STM32L4xx_HAL_Driver/Src/stm32l4xx_hal.c ****   *          This parameter can be one of the following values:
 601:../../core/ST/STM32L4xx_HAL_Driver/Src/stm32l4xx_hal.c ****   *            @arg SYSCFG_VREFBUF_VOLTAGE_SCALE0: VREF_OUT1 around 2.048 V.
 602:../../core/ST/STM32L4xx_HAL_Driver/Src/stm32l4xx_hal.c ****   *                                                This requires VDDA equal to or higher than 2.4 V
 603:../../core/ST/STM32L4xx_HAL_Driver/Src/stm32l4xx_hal.c ****   *            @arg SYSCFG_VREFBUF_VOLTAGE_SCALE1: VREF_OUT2 around 2.5 V.
 604:../../core/ST/STM32L4xx_HAL_Driver/Src/stm32l4xx_hal.c ****   *                                                This requires VDDA equal to or higher than 2.8 V
 605:../../core/ST/STM32L4xx_HAL_Driver/Src/stm32l4xx_hal.c ****   * @retval None
 606:../../core/ST/STM32L4xx_HAL_Driver/Src/stm32l4xx_hal.c ****   */
 607:../../core/ST/STM32L4xx_HAL_Driver/Src/stm32l4xx_hal.c **** void HAL_SYSCFG_VREFBUF_VoltageScalingConfig(uint32_t VoltageScaling)
 608:../../core/ST/STM32L4xx_HAL_Driver/Src/stm32l4xx_hal.c **** {
 850              		.loc 1 608 1 is_stmt 1 view -0
 851              		.cfi_startproc
 852              		@ args = 0, pretend = 0, frame = 0
 853              		@ frame_needed = 0, uses_anonymous_args = 0
 854              		@ link register save eliminated.
 609:../../core/ST/STM32L4xx_HAL_Driver/Src/stm32l4xx_hal.c ****   /* Check the parameters */
 610:../../core/ST/STM32L4xx_HAL_Driver/Src/stm32l4xx_hal.c ****   assert_param(IS_SYSCFG_VREFBUF_VOLTAGE_SCALE(VoltageScaling));
 855              		.loc 1 610 3 view .LVU128
 611:../../core/ST/STM32L4xx_HAL_Driver/Src/stm32l4xx_hal.c **** 
 612:../../core/ST/STM32L4xx_HAL_Driver/Src/stm32l4xx_hal.c ****   MODIFY_REG(VREFBUF->CSR, VREFBUF_CSR_VRS, VoltageScaling);
 856              		.loc 1 612 3 view .LVU129
 857 0000 034A     		ldr	r2, .L81
 858 0002 1368     		ldr	r3, [r2]
 859 0004 23F00403 		bic	r3, r3, #4
 860 0008 1843     		orrs	r0, r0, r3
 861              	.LVL20:
 862              		.loc 1 612 3 is_stmt 0 view .LVU130
 863 000a 1060     		str	r0, [r2]
 613:../../core/ST/STM32L4xx_HAL_Driver/Src/stm32l4xx_hal.c **** }
 864              		.loc 1 613 1 view .LVU131
 865 000c 7047     		bx	lr
 866              	.L82:
 867 000e 00BF     		.align	2
 868              	.L81:
 869 0010 30000140 		.word	1073807408
 870              		.cfi_endproc
 871              	.LFE148:
 873              		.section	.text.HAL_SYSCFG_VREFBUF_HighImpedanceConfig,"ax",%progbits
 874              		.align	1
 875              		.global	HAL_SYSCFG_VREFBUF_HighImpedanceConfig
 876              		.syntax unified
 877              		.thumb
 878              		.thumb_func
 879              		.fpu fpv4-sp-d16
 881              	HAL_SYSCFG_VREFBUF_HighImpedanceConfig:
 882              	.LVL21:
 883              	.LFB149:
 614:../../core/ST/STM32L4xx_HAL_Driver/Src/stm32l4xx_hal.c **** 
 615:../../core/ST/STM32L4xx_HAL_Driver/Src/stm32l4xx_hal.c **** /**
 616:../../core/ST/STM32L4xx_HAL_Driver/Src/stm32l4xx_hal.c ****   * @brief Configure the internal voltage reference buffer high impedance mode.
 617:../../core/ST/STM32L4xx_HAL_Driver/Src/stm32l4xx_hal.c ****   * @param Mode  specifies the high impedance mode
 618:../../core/ST/STM32L4xx_HAL_Driver/Src/stm32l4xx_hal.c ****   *          This parameter can be one of the following values:
 619:../../core/ST/STM32L4xx_HAL_Driver/Src/stm32l4xx_hal.c ****   *            @arg SYSCFG_VREFBUF_HIGH_IMPEDANCE_DISABLE: VREF+ pin is internally connect to VREFI
 620:../../core/ST/STM32L4xx_HAL_Driver/Src/stm32l4xx_hal.c ****   *            @arg SYSCFG_VREFBUF_HIGH_IMPEDANCE_ENABLE: VREF+ pin is high impedance.
 621:../../core/ST/STM32L4xx_HAL_Driver/Src/stm32l4xx_hal.c ****   * @retval None
 622:../../core/ST/STM32L4xx_HAL_Driver/Src/stm32l4xx_hal.c ****   */
ARM GAS  C:\Users\yvesk\AppData\Local\Temp\ccYX5Txy.s 			page 27


 623:../../core/ST/STM32L4xx_HAL_Driver/Src/stm32l4xx_hal.c **** void HAL_SYSCFG_VREFBUF_HighImpedanceConfig(uint32_t Mode)
 624:../../core/ST/STM32L4xx_HAL_Driver/Src/stm32l4xx_hal.c **** {
 884              		.loc 1 624 1 is_stmt 1 view -0
 885              		.cfi_startproc
 886              		@ args = 0, pretend = 0, frame = 0
 887              		@ frame_needed = 0, uses_anonymous_args = 0
 888              		@ link register save eliminated.
 625:../../core/ST/STM32L4xx_HAL_Driver/Src/stm32l4xx_hal.c ****   /* Check the parameters */
 626:../../core/ST/STM32L4xx_HAL_Driver/Src/stm32l4xx_hal.c ****   assert_param(IS_SYSCFG_VREFBUF_HIGH_IMPEDANCE(Mode));
 889              		.loc 1 626 3 view .LVU133
 627:../../core/ST/STM32L4xx_HAL_Driver/Src/stm32l4xx_hal.c **** 
 628:../../core/ST/STM32L4xx_HAL_Driver/Src/stm32l4xx_hal.c ****   MODIFY_REG(VREFBUF->CSR, VREFBUF_CSR_HIZ, Mode);
 890              		.loc 1 628 3 view .LVU134
 891 0000 034A     		ldr	r2, .L84
 892 0002 1368     		ldr	r3, [r2]
 893 0004 23F00203 		bic	r3, r3, #2
 894 0008 1843     		orrs	r0, r0, r3
 895              	.LVL22:
 896              		.loc 1 628 3 is_stmt 0 view .LVU135
 897 000a 1060     		str	r0, [r2]
 629:../../core/ST/STM32L4xx_HAL_Driver/Src/stm32l4xx_hal.c **** }
 898              		.loc 1 629 1 view .LVU136
 899 000c 7047     		bx	lr
 900              	.L85:
 901 000e 00BF     		.align	2
 902              	.L84:
 903 0010 30000140 		.word	1073807408
 904              		.cfi_endproc
 905              	.LFE149:
 907              		.section	.text.HAL_SYSCFG_VREFBUF_TrimmingConfig,"ax",%progbits
 908              		.align	1
 909              		.global	HAL_SYSCFG_VREFBUF_TrimmingConfig
 910              		.syntax unified
 911              		.thumb
 912              		.thumb_func
 913              		.fpu fpv4-sp-d16
 915              	HAL_SYSCFG_VREFBUF_TrimmingConfig:
 916              	.LVL23:
 917              	.LFB150:
 630:../../core/ST/STM32L4xx_HAL_Driver/Src/stm32l4xx_hal.c **** 
 631:../../core/ST/STM32L4xx_HAL_Driver/Src/stm32l4xx_hal.c **** /**
 632:../../core/ST/STM32L4xx_HAL_Driver/Src/stm32l4xx_hal.c ****   * @brief  Tune the Internal Voltage Reference buffer (VREFBUF).
 633:../../core/ST/STM32L4xx_HAL_Driver/Src/stm32l4xx_hal.c ****   * @retval None
 634:../../core/ST/STM32L4xx_HAL_Driver/Src/stm32l4xx_hal.c ****   */
 635:../../core/ST/STM32L4xx_HAL_Driver/Src/stm32l4xx_hal.c **** void HAL_SYSCFG_VREFBUF_TrimmingConfig(uint32_t TrimmingValue)
 636:../../core/ST/STM32L4xx_HAL_Driver/Src/stm32l4xx_hal.c **** {
 918              		.loc 1 636 1 is_stmt 1 view -0
 919              		.cfi_startproc
 920              		@ args = 0, pretend = 0, frame = 0
 921              		@ frame_needed = 0, uses_anonymous_args = 0
 922              		@ link register save eliminated.
 637:../../core/ST/STM32L4xx_HAL_Driver/Src/stm32l4xx_hal.c ****   /* Check the parameters */
 638:../../core/ST/STM32L4xx_HAL_Driver/Src/stm32l4xx_hal.c ****   assert_param(IS_SYSCFG_VREFBUF_TRIMMING(TrimmingValue));
 923              		.loc 1 638 3 view .LVU138
 639:../../core/ST/STM32L4xx_HAL_Driver/Src/stm32l4xx_hal.c **** 
 640:../../core/ST/STM32L4xx_HAL_Driver/Src/stm32l4xx_hal.c ****   MODIFY_REG(VREFBUF->CCR, VREFBUF_CCR_TRIM, TrimmingValue);
 924              		.loc 1 640 3 view .LVU139
ARM GAS  C:\Users\yvesk\AppData\Local\Temp\ccYX5Txy.s 			page 28


 925 0000 034A     		ldr	r2, .L87
 926 0002 5368     		ldr	r3, [r2, #4]
 927 0004 23F03F03 		bic	r3, r3, #63
 928 0008 1843     		orrs	r0, r0, r3
 929              	.LVL24:
 930              		.loc 1 640 3 is_stmt 0 view .LVU140
 931 000a 5060     		str	r0, [r2, #4]
 641:../../core/ST/STM32L4xx_HAL_Driver/Src/stm32l4xx_hal.c **** }
 932              		.loc 1 641 1 view .LVU141
 933 000c 7047     		bx	lr
 934              	.L88:
 935 000e 00BF     		.align	2
 936              	.L87:
 937 0010 30000140 		.word	1073807408
 938              		.cfi_endproc
 939              	.LFE150:
 941              		.section	.text.HAL_SYSCFG_EnableVREFBUF,"ax",%progbits
 942              		.align	1
 943              		.global	HAL_SYSCFG_EnableVREFBUF
 944              		.syntax unified
 945              		.thumb
 946              		.thumb_func
 947              		.fpu fpv4-sp-d16
 949              	HAL_SYSCFG_EnableVREFBUF:
 950              	.LFB151:
 642:../../core/ST/STM32L4xx_HAL_Driver/Src/stm32l4xx_hal.c **** 
 643:../../core/ST/STM32L4xx_HAL_Driver/Src/stm32l4xx_hal.c **** /**
 644:../../core/ST/STM32L4xx_HAL_Driver/Src/stm32l4xx_hal.c ****   * @brief  Enable the Internal Voltage Reference buffer (VREFBUF).
 645:../../core/ST/STM32L4xx_HAL_Driver/Src/stm32l4xx_hal.c ****   * @retval HAL_OK/HAL_TIMEOUT
 646:../../core/ST/STM32L4xx_HAL_Driver/Src/stm32l4xx_hal.c ****   */
 647:../../core/ST/STM32L4xx_HAL_Driver/Src/stm32l4xx_hal.c **** HAL_StatusTypeDef HAL_SYSCFG_EnableVREFBUF(void)
 648:../../core/ST/STM32L4xx_HAL_Driver/Src/stm32l4xx_hal.c **** {
 951              		.loc 1 648 1 is_stmt 1 view -0
 952              		.cfi_startproc
 953              		@ args = 0, pretend = 0, frame = 0
 954              		@ frame_needed = 0, uses_anonymous_args = 0
 955 0000 10B5     		push	{r4, lr}
 956              	.LCFI4:
 957              		.cfi_def_cfa_offset 8
 958              		.cfi_offset 4, -8
 959              		.cfi_offset 14, -4
 649:../../core/ST/STM32L4xx_HAL_Driver/Src/stm32l4xx_hal.c ****   uint32_t  tickstart;
 960              		.loc 1 649 3 view .LVU143
 650:../../core/ST/STM32L4xx_HAL_Driver/Src/stm32l4xx_hal.c **** 
 651:../../core/ST/STM32L4xx_HAL_Driver/Src/stm32l4xx_hal.c ****   SET_BIT(VREFBUF->CSR, VREFBUF_CSR_ENVR);
 961              		.loc 1 651 3 view .LVU144
 962 0002 0B4A     		ldr	r2, .L96
 963 0004 1368     		ldr	r3, [r2]
 964 0006 43F00103 		orr	r3, r3, #1
 965 000a 1360     		str	r3, [r2]
 652:../../core/ST/STM32L4xx_HAL_Driver/Src/stm32l4xx_hal.c **** 
 653:../../core/ST/STM32L4xx_HAL_Driver/Src/stm32l4xx_hal.c ****   /* Get Start Tick*/
 654:../../core/ST/STM32L4xx_HAL_Driver/Src/stm32l4xx_hal.c ****   tickstart = HAL_GetTick();
 966              		.loc 1 654 3 view .LVU145
 967              		.loc 1 654 15 is_stmt 0 view .LVU146
 968 000c FFF7FEFF 		bl	HAL_GetTick
 969              	.LVL25:
ARM GAS  C:\Users\yvesk\AppData\Local\Temp\ccYX5Txy.s 			page 29


 970 0010 0446     		mov	r4, r0
 971              	.LVL26:
 655:../../core/ST/STM32L4xx_HAL_Driver/Src/stm32l4xx_hal.c **** 
 656:../../core/ST/STM32L4xx_HAL_Driver/Src/stm32l4xx_hal.c ****   /* Wait for VRR bit  */
 657:../../core/ST/STM32L4xx_HAL_Driver/Src/stm32l4xx_hal.c ****   while(READ_BIT(VREFBUF->CSR, VREFBUF_CSR_VRR) == 0U)
 972              		.loc 1 657 3 is_stmt 1 view .LVU147
 973              	.L90:
 974              		.loc 1 657 9 is_stmt 0 view .LVU148
 975 0012 074B     		ldr	r3, .L96
 976 0014 1B68     		ldr	r3, [r3]
 977              		.loc 1 657 8 view .LVU149
 978 0016 13F0080F 		tst	r3, #8
 979 001a 06D1     		bne	.L95
 658:../../core/ST/STM32L4xx_HAL_Driver/Src/stm32l4xx_hal.c ****   {
 659:../../core/ST/STM32L4xx_HAL_Driver/Src/stm32l4xx_hal.c ****     if((HAL_GetTick() - tickstart) > VREFBUF_TIMEOUT_VALUE)
 980              		.loc 1 659 5 is_stmt 1 view .LVU150
 981              		.loc 1 659 9 is_stmt 0 view .LVU151
 982 001c FFF7FEFF 		bl	HAL_GetTick
 983              	.LVL27:
 984              		.loc 1 659 23 view .LVU152
 985 0020 001B     		subs	r0, r0, r4
 986              		.loc 1 659 7 view .LVU153
 987 0022 0A28     		cmp	r0, #10
 988 0024 F5D9     		bls	.L90
 660:../../core/ST/STM32L4xx_HAL_Driver/Src/stm32l4xx_hal.c ****     {
 661:../../core/ST/STM32L4xx_HAL_Driver/Src/stm32l4xx_hal.c ****       return HAL_TIMEOUT;
 989              		.loc 1 661 14 view .LVU154
 990 0026 0320     		movs	r0, #3
 991 0028 00E0     		b	.L91
 992              	.L95:
 662:../../core/ST/STM32L4xx_HAL_Driver/Src/stm32l4xx_hal.c ****     }
 663:../../core/ST/STM32L4xx_HAL_Driver/Src/stm32l4xx_hal.c ****   }
 664:../../core/ST/STM32L4xx_HAL_Driver/Src/stm32l4xx_hal.c **** 
 665:../../core/ST/STM32L4xx_HAL_Driver/Src/stm32l4xx_hal.c ****   return HAL_OK;
 993              		.loc 1 665 10 view .LVU155
 994 002a 0020     		movs	r0, #0
 995              	.L91:
 666:../../core/ST/STM32L4xx_HAL_Driver/Src/stm32l4xx_hal.c **** }
 996              		.loc 1 666 1 view .LVU156
 997 002c 10BD     		pop	{r4, pc}
 998              	.LVL28:
 999              	.L97:
 1000              		.loc 1 666 1 view .LVU157
 1001 002e 00BF     		.align	2
 1002              	.L96:
 1003 0030 30000140 		.word	1073807408
 1004              		.cfi_endproc
 1005              	.LFE151:
 1007              		.section	.text.HAL_SYSCFG_DisableVREFBUF,"ax",%progbits
 1008              		.align	1
 1009              		.global	HAL_SYSCFG_DisableVREFBUF
 1010              		.syntax unified
 1011              		.thumb
 1012              		.thumb_func
 1013              		.fpu fpv4-sp-d16
 1015              	HAL_SYSCFG_DisableVREFBUF:
 1016              	.LFB152:
ARM GAS  C:\Users\yvesk\AppData\Local\Temp\ccYX5Txy.s 			page 30


 667:../../core/ST/STM32L4xx_HAL_Driver/Src/stm32l4xx_hal.c **** 
 668:../../core/ST/STM32L4xx_HAL_Driver/Src/stm32l4xx_hal.c **** /**
 669:../../core/ST/STM32L4xx_HAL_Driver/Src/stm32l4xx_hal.c ****   * @brief  Disable the Internal Voltage Reference buffer (VREFBUF).
 670:../../core/ST/STM32L4xx_HAL_Driver/Src/stm32l4xx_hal.c ****   *
 671:../../core/ST/STM32L4xx_HAL_Driver/Src/stm32l4xx_hal.c ****   * @retval None
 672:../../core/ST/STM32L4xx_HAL_Driver/Src/stm32l4xx_hal.c ****   */
 673:../../core/ST/STM32L4xx_HAL_Driver/Src/stm32l4xx_hal.c **** void HAL_SYSCFG_DisableVREFBUF(void)
 674:../../core/ST/STM32L4xx_HAL_Driver/Src/stm32l4xx_hal.c **** {
 1017              		.loc 1 674 1 is_stmt 1 view -0
 1018              		.cfi_startproc
 1019              		@ args = 0, pretend = 0, frame = 0
 1020              		@ frame_needed = 0, uses_anonymous_args = 0
 1021              		@ link register save eliminated.
 675:../../core/ST/STM32L4xx_HAL_Driver/Src/stm32l4xx_hal.c ****   CLEAR_BIT(VREFBUF->CSR, VREFBUF_CSR_ENVR);
 1022              		.loc 1 675 3 view .LVU159
 1023 0000 024A     		ldr	r2, .L99
 1024 0002 1368     		ldr	r3, [r2]
 1025 0004 23F00103 		bic	r3, r3, #1
 1026 0008 1360     		str	r3, [r2]
 676:../../core/ST/STM32L4xx_HAL_Driver/Src/stm32l4xx_hal.c **** }
 1027              		.loc 1 676 1 is_stmt 0 view .LVU160
 1028 000a 7047     		bx	lr
 1029              	.L100:
 1030              		.align	2
 1031              	.L99:
 1032 000c 30000140 		.word	1073807408
 1033              		.cfi_endproc
 1034              	.LFE152:
 1036              		.section	.text.HAL_SYSCFG_EnableIOAnalogSwitchBooster,"ax",%progbits
 1037              		.align	1
 1038              		.global	HAL_SYSCFG_EnableIOAnalogSwitchBooster
 1039              		.syntax unified
 1040              		.thumb
 1041              		.thumb_func
 1042              		.fpu fpv4-sp-d16
 1044              	HAL_SYSCFG_EnableIOAnalogSwitchBooster:
 1045              	.LFB153:
 677:../../core/ST/STM32L4xx_HAL_Driver/Src/stm32l4xx_hal.c **** #endif /* VREFBUF */
 678:../../core/ST/STM32L4xx_HAL_Driver/Src/stm32l4xx_hal.c **** 
 679:../../core/ST/STM32L4xx_HAL_Driver/Src/stm32l4xx_hal.c **** /**
 680:../../core/ST/STM32L4xx_HAL_Driver/Src/stm32l4xx_hal.c ****   * @brief  Enable the I/O analog switch voltage booster
 681:../../core/ST/STM32L4xx_HAL_Driver/Src/stm32l4xx_hal.c ****   *
 682:../../core/ST/STM32L4xx_HAL_Driver/Src/stm32l4xx_hal.c ****   * @retval None
 683:../../core/ST/STM32L4xx_HAL_Driver/Src/stm32l4xx_hal.c ****   */
 684:../../core/ST/STM32L4xx_HAL_Driver/Src/stm32l4xx_hal.c **** void HAL_SYSCFG_EnableIOAnalogSwitchBooster(void)
 685:../../core/ST/STM32L4xx_HAL_Driver/Src/stm32l4xx_hal.c **** {
 1046              		.loc 1 685 1 is_stmt 1 view -0
 1047              		.cfi_startproc
 1048              		@ args = 0, pretend = 0, frame = 0
 1049              		@ frame_needed = 0, uses_anonymous_args = 0
 1050              		@ link register save eliminated.
 686:../../core/ST/STM32L4xx_HAL_Driver/Src/stm32l4xx_hal.c ****   SET_BIT(SYSCFG->CFGR1, SYSCFG_CFGR1_BOOSTEN);
 1051              		.loc 1 686 3 view .LVU162
 1052 0000 024A     		ldr	r2, .L102
 1053 0002 5368     		ldr	r3, [r2, #4]
 1054 0004 43F48073 		orr	r3, r3, #256
 1055 0008 5360     		str	r3, [r2, #4]
ARM GAS  C:\Users\yvesk\AppData\Local\Temp\ccYX5Txy.s 			page 31


 687:../../core/ST/STM32L4xx_HAL_Driver/Src/stm32l4xx_hal.c **** }
 1056              		.loc 1 687 1 is_stmt 0 view .LVU163
 1057 000a 7047     		bx	lr
 1058              	.L103:
 1059              		.align	2
 1060              	.L102:
 1061 000c 00000140 		.word	1073807360
 1062              		.cfi_endproc
 1063              	.LFE153:
 1065              		.section	.text.HAL_SYSCFG_DisableIOAnalogSwitchBooster,"ax",%progbits
 1066              		.align	1
 1067              		.global	HAL_SYSCFG_DisableIOAnalogSwitchBooster
 1068              		.syntax unified
 1069              		.thumb
 1070              		.thumb_func
 1071              		.fpu fpv4-sp-d16
 1073              	HAL_SYSCFG_DisableIOAnalogSwitchBooster:
 1074              	.LFB154:
 688:../../core/ST/STM32L4xx_HAL_Driver/Src/stm32l4xx_hal.c **** 
 689:../../core/ST/STM32L4xx_HAL_Driver/Src/stm32l4xx_hal.c **** /**
 690:../../core/ST/STM32L4xx_HAL_Driver/Src/stm32l4xx_hal.c ****   * @brief  Disable the I/O analog switch voltage booster
 691:../../core/ST/STM32L4xx_HAL_Driver/Src/stm32l4xx_hal.c ****   *
 692:../../core/ST/STM32L4xx_HAL_Driver/Src/stm32l4xx_hal.c ****   * @retval None
 693:../../core/ST/STM32L4xx_HAL_Driver/Src/stm32l4xx_hal.c ****   */
 694:../../core/ST/STM32L4xx_HAL_Driver/Src/stm32l4xx_hal.c **** void HAL_SYSCFG_DisableIOAnalogSwitchBooster(void)
 695:../../core/ST/STM32L4xx_HAL_Driver/Src/stm32l4xx_hal.c **** {
 1075              		.loc 1 695 1 is_stmt 1 view -0
 1076              		.cfi_startproc
 1077              		@ args = 0, pretend = 0, frame = 0
 1078              		@ frame_needed = 0, uses_anonymous_args = 0
 1079              		@ link register save eliminated.
 696:../../core/ST/STM32L4xx_HAL_Driver/Src/stm32l4xx_hal.c ****   CLEAR_BIT(SYSCFG->CFGR1, SYSCFG_CFGR1_BOOSTEN);
 1080              		.loc 1 696 3 view .LVU165
 1081 0000 024A     		ldr	r2, .L105
 1082 0002 5368     		ldr	r3, [r2, #4]
 1083 0004 23F48073 		bic	r3, r3, #256
 1084 0008 5360     		str	r3, [r2, #4]
 697:../../core/ST/STM32L4xx_HAL_Driver/Src/stm32l4xx_hal.c **** }
 1085              		.loc 1 697 1 is_stmt 0 view .LVU166
 1086 000a 7047     		bx	lr
 1087              	.L106:
 1088              		.align	2
 1089              	.L105:
 1090 000c 00000140 		.word	1073807360
 1091              		.cfi_endproc
 1092              	.LFE154:
 1094              		.comm	uwTick,4,4
 1095              		.text
 1096              	.Letext0:
 1097              		.file 2 "c:\\program files (x86)\\gnu tools arm embedded\\8 2019-q3-update\\arm-none-eabi\\include
 1098              		.file 3 "c:\\program files (x86)\\gnu tools arm embedded\\8 2019-q3-update\\arm-none-eabi\\include
 1099              		.file 4 "../../core/ST/CMSIS/Include/core_cm4.h"
 1100              		.file 5 "../../core/ST/CMSIS/Device/ST/STM32L4xx/Include/system_stm32l4xx.h"
 1101              		.file 6 "../../core/ST/CMSIS/Device/ST/STM32L4xx/Include/stm32l496xx.h"
 1102              		.file 7 "../../core/ST/STM32L4xx_HAL_Driver/Inc/stm32l4xx_hal_def.h"
 1103              		.file 8 "../../core/ST/STM32L4xx_HAL_Driver/Inc/stm32l4xx_hal.h"
 1104              		.file 9 "../../core/ST/STM32L4xx_HAL_Driver/Inc/stm32l4xx_hal_cortex.h"
ARM GAS  C:\Users\yvesk\AppData\Local\Temp\ccYX5Txy.s 			page 32


ARM GAS  C:\Users\yvesk\AppData\Local\Temp\ccYX5Txy.s 			page 33

