ARM GAS  C:\Users\yvesk\AppData\Local\Temp\ccC39lTH.s 			page 1


   1              		.cpu cortex-m4
   2              		.eabi_attribute 27, 1
   3              		.eabi_attribute 28, 1
   4              		.eabi_attribute 20, 1
   5              		.eabi_attribute 21, 1
   6              		.eabi_attribute 23, 3
   7              		.eabi_attribute 24, 1
   8              		.eabi_attribute 25, 1
   9              		.eabi_attribute 26, 1
  10              		.eabi_attribute 30, 1
  11              		.eabi_attribute 34, 1
  12              		.eabi_attribute 18, 4
  13              		.file	"SPG30-sensor-example.c"
  14              		.text
  15              	.Ltext0:
  16              		.cfi_sections	.debug_frame
  17              		.section	.text.printWelcome,"ax",%progbits
  18              		.align	1
  19              		.global	printWelcome
  20              		.arch armv7e-m
  21              		.syntax unified
  22              		.thumb
  23              		.thumb_func
  24              		.fpu fpv4-sp-d16
  26              	printWelcome:
  27              	.LFB129:
  28              		.file 1 "../../applications/SPG30-sensor-example/src/SPG30-sensor-example.c"
   1:../../applications/SPG30-sensor-example/src/SPG30-sensor-example.c **** /* USER CODE BEGIN Header */
   2:../../applications/SPG30-sensor-example/src/SPG30-sensor-example.c **** /**
   3:../../applications/SPG30-sensor-example/src/SPG30-sensor-example.c ****   ******************************************************************************
   4:../../applications/SPG30-sensor-example/src/SPG30-sensor-example.c ****   * @file           : main.c
   5:../../applications/SPG30-sensor-example/src/SPG30-sensor-example.c ****   * @brief          : Main program body
   6:../../applications/SPG30-sensor-example/src/SPG30-sensor-example.c ****   ******************************************************************************
   7:../../applications/SPG30-sensor-example/src/SPG30-sensor-example.c ****   * This notice applies to any and all portions of this file
   8:../../applications/SPG30-sensor-example/src/SPG30-sensor-example.c ****   * that are not between comment pairs USER CODE BEGIN and
   9:../../applications/SPG30-sensor-example/src/SPG30-sensor-example.c ****   * USER CODE END. Other portions of this file, whether 
  10:../../applications/SPG30-sensor-example/src/SPG30-sensor-example.c ****   * inserted by the user or by software development tools
  11:../../applications/SPG30-sensor-example/src/SPG30-sensor-example.c ****   * are owned by their respective copyright owners.
  12:../../applications/SPG30-sensor-example/src/SPG30-sensor-example.c ****   *
  13:../../applications/SPG30-sensor-example/src/SPG30-sensor-example.c ****   * Copyright (c) 2019 STMicroelectronics International N.V. 
  14:../../applications/SPG30-sensor-example/src/SPG30-sensor-example.c ****   * All rights reserved.
  15:../../applications/SPG30-sensor-example/src/SPG30-sensor-example.c ****   *
  16:../../applications/SPG30-sensor-example/src/SPG30-sensor-example.c ****   * Redistribution and use in source and binary forms, with or without 
  17:../../applications/SPG30-sensor-example/src/SPG30-sensor-example.c ****   * modification, are permitted, provided that the following conditions are met:
  18:../../applications/SPG30-sensor-example/src/SPG30-sensor-example.c ****   *
  19:../../applications/SPG30-sensor-example/src/SPG30-sensor-example.c ****   * 1. Redistribution of source code must retain the above copyright notice, 
  20:../../applications/SPG30-sensor-example/src/SPG30-sensor-example.c ****   *    this list of conditions and the following disclaimer.
  21:../../applications/SPG30-sensor-example/src/SPG30-sensor-example.c ****   * 2. Redistributions in binary form must reproduce the above copyright notice,
  22:../../applications/SPG30-sensor-example/src/SPG30-sensor-example.c ****   *    this list of conditions and the following disclaimer in the documentation
  23:../../applications/SPG30-sensor-example/src/SPG30-sensor-example.c ****   *    and/or other materials provided with the distribution.
  24:../../applications/SPG30-sensor-example/src/SPG30-sensor-example.c ****   * 3. Neither the name of STMicroelectronics nor the names of other 
  25:../../applications/SPG30-sensor-example/src/SPG30-sensor-example.c ****   *    contributors to this software may be used to endorse or promote products 
  26:../../applications/SPG30-sensor-example/src/SPG30-sensor-example.c ****   *    derived from this software without specific written permission.
  27:../../applications/SPG30-sensor-example/src/SPG30-sensor-example.c ****   * 4. This software, including modifications and/or derivative works of this 
  28:../../applications/SPG30-sensor-example/src/SPG30-sensor-example.c ****   *    software, must execute solely and exclusively on microcontroller or
  29:../../applications/SPG30-sensor-example/src/SPG30-sensor-example.c ****   *    microprocessor devices manufactured by or for STMicroelectronics.
  30:../../applications/SPG30-sensor-example/src/SPG30-sensor-example.c ****   * 5. Redistribution and use of this software other than as permitted under 
ARM GAS  C:\Users\yvesk\AppData\Local\Temp\ccC39lTH.s 			page 2


  31:../../applications/SPG30-sensor-example/src/SPG30-sensor-example.c ****   *    this license is void and will automatically terminate your rights under 
  32:../../applications/SPG30-sensor-example/src/SPG30-sensor-example.c ****   *    this license. 
  33:../../applications/SPG30-sensor-example/src/SPG30-sensor-example.c ****   *
  34:../../applications/SPG30-sensor-example/src/SPG30-sensor-example.c ****   * THIS SOFTWARE IS PROVIDED BY STMICROELECTRONICS AND CONTRIBUTORS "AS IS" 
  35:../../applications/SPG30-sensor-example/src/SPG30-sensor-example.c ****   * AND ANY EXPRESS, IMPLIED OR STATUTORY WARRANTIES, INCLUDING, BUT NOT 
  36:../../applications/SPG30-sensor-example/src/SPG30-sensor-example.c ****   * LIMITED TO, THE IMPLIED WARRANTIES OF MERCHANTABILITY, FITNESS FOR A 
  37:../../applications/SPG30-sensor-example/src/SPG30-sensor-example.c ****   * PARTICULAR PURPOSE AND NON-INFRINGEMENT OF THIRD PARTY INTELLECTUAL PROPERTY
  38:../../applications/SPG30-sensor-example/src/SPG30-sensor-example.c ****   * RIGHTS ARE DISCLAIMED TO THE FULLEST EXTENT PERMITTED BY LAW. IN NO EVENT 
  39:../../applications/SPG30-sensor-example/src/SPG30-sensor-example.c ****   * SHALL STMICROELECTRONICS OR CONTRIBUTORS BE LIABLE FOR ANY DIRECT, INDIRECT,
  40:../../applications/SPG30-sensor-example/src/SPG30-sensor-example.c ****   * INCIDENTAL, SPECIAL, EXEMPLARY, OR CONSEQUENTIAL DAMAGES (INCLUDING, BUT NOT
  41:../../applications/SPG30-sensor-example/src/SPG30-sensor-example.c ****   * LIMITED TO, PROCUREMENT OF SUBSTITUTE GOODS OR SERVICES; LOSS OF USE, DATA, 
  42:../../applications/SPG30-sensor-example/src/SPG30-sensor-example.c ****   * OR PROFITS; OR BUSINESS INTERRUPTION) HOWEVER CAUSED AND ON ANY THEORY OF 
  43:../../applications/SPG30-sensor-example/src/SPG30-sensor-example.c ****   * LIABILITY, WHETHER IN CONTRACT, STRICT LIABILITY, OR TORT (INCLUDING 
  44:../../applications/SPG30-sensor-example/src/SPG30-sensor-example.c ****   * NEGLIGENCE OR OTHERWISE) ARISING IN ANY WAY OUT OF THE USE OF THIS SOFTWARE,
  45:../../applications/SPG30-sensor-example/src/SPG30-sensor-example.c ****   * EVEN IF ADVISED OF THE POSSIBILITY OF SUCH DAMAGE.
  46:../../applications/SPG30-sensor-example/src/SPG30-sensor-example.c ****   *
  47:../../applications/SPG30-sensor-example/src/SPG30-sensor-example.c ****   ******************************************************************************
  48:../../applications/SPG30-sensor-example/src/SPG30-sensor-example.c ****   */
  49:../../applications/SPG30-sensor-example/src/SPG30-sensor-example.c **** /* USER CODE END Header */
  50:../../applications/SPG30-sensor-example/src/SPG30-sensor-example.c **** 
  51:../../applications/SPG30-sensor-example/src/SPG30-sensor-example.c **** /* Includes ------------------------------------------------------------------*/
  52:../../applications/SPG30-sensor-example/src/SPG30-sensor-example.c **** #include "SPG30-sensor-example.h"
  53:../../applications/SPG30-sensor-example/src/SPG30-sensor-example.c **** #include "SPG30.h"
  54:../../applications/SPG30-sensor-example/src/SPG30-sensor-example.c **** /* Private includes ----------------------------------------------------------*/
  55:../../applications/SPG30-sensor-example/src/SPG30-sensor-example.c **** /* USER CODE BEGIN Includes */
  56:../../applications/SPG30-sensor-example/src/SPG30-sensor-example.c **** 
  57:../../applications/SPG30-sensor-example/src/SPG30-sensor-example.c **** 
  58:../../applications/SPG30-sensor-example/src/SPG30-sensor-example.c **** /* USER CODE END Includes */
  59:../../applications/SPG30-sensor-example/src/SPG30-sensor-example.c **** 
  60:../../applications/SPG30-sensor-example/src/SPG30-sensor-example.c **** /* Private typedef -----------------------------------------------------------*/
  61:../../applications/SPG30-sensor-example/src/SPG30-sensor-example.c **** /* USER CODE BEGIN PTD */
  62:../../applications/SPG30-sensor-example/src/SPG30-sensor-example.c **** 
  63:../../applications/SPG30-sensor-example/src/SPG30-sensor-example.c **** /* USER CODE END PTD */
  64:../../applications/SPG30-sensor-example/src/SPG30-sensor-example.c **** 
  65:../../applications/SPG30-sensor-example/src/SPG30-sensor-example.c **** /* Private define ------------------------------------------------------------*/
  66:../../applications/SPG30-sensor-example/src/SPG30-sensor-example.c **** /* USER CODE BEGIN PD */
  67:../../applications/SPG30-sensor-example/src/SPG30-sensor-example.c **** 
  68:../../applications/SPG30-sensor-example/src/SPG30-sensor-example.c **** /* USER CODE END PD */
  69:../../applications/SPG30-sensor-example/src/SPG30-sensor-example.c **** 
  70:../../applications/SPG30-sensor-example/src/SPG30-sensor-example.c **** /* Private macro -------------------------------------------------------------*/
  71:../../applications/SPG30-sensor-example/src/SPG30-sensor-example.c **** /* USER CODE BEGIN PM */
  72:../../applications/SPG30-sensor-example/src/SPG30-sensor-example.c **** 
  73:../../applications/SPG30-sensor-example/src/SPG30-sensor-example.c **** /* USER CODE END PM */
  74:../../applications/SPG30-sensor-example/src/SPG30-sensor-example.c **** 
  75:../../applications/SPG30-sensor-example/src/SPG30-sensor-example.c **** /* Private user code ---------------------------------------------------------*/
  76:../../applications/SPG30-sensor-example/src/SPG30-sensor-example.c **** /* USER CODE BEGIN 0 */
  77:../../applications/SPG30-sensor-example/src/SPG30-sensor-example.c **** /* USER CODE END 0 */
  78:../../applications/SPG30-sensor-example/src/SPG30-sensor-example.c **** 
  79:../../applications/SPG30-sensor-example/src/SPG30-sensor-example.c **** /**
  80:../../applications/SPG30-sensor-example/src/SPG30-sensor-example.c ****   * @brief  The application entry point.
  81:../../applications/SPG30-sensor-example/src/SPG30-sensor-example.c ****   * @retval int
  82:../../applications/SPG30-sensor-example/src/SPG30-sensor-example.c ****   */
  83:../../applications/SPG30-sensor-example/src/SPG30-sensor-example.c **** int main(void)
  84:../../applications/SPG30-sensor-example/src/SPG30-sensor-example.c **** {
  85:../../applications/SPG30-sensor-example/src/SPG30-sensor-example.c ****   /* USER CODE BEGIN 1 */
  86:../../applications/SPG30-sensor-example/src/SPG30-sensor-example.c **** #if USE_BOOTLOADER
  87:../../applications/SPG30-sensor-example/src/SPG30-sensor-example.c ****   bootloader_SetVTOR();
ARM GAS  C:\Users\yvesk\AppData\Local\Temp\ccC39lTH.s 			page 3


  88:../../applications/SPG30-sensor-example/src/SPG30-sensor-example.c **** #endif
  89:../../applications/SPG30-sensor-example/src/SPG30-sensor-example.c **** 
  90:../../applications/SPG30-sensor-example/src/SPG30-sensor-example.c ****   /* USER CODE END 1 */
  91:../../applications/SPG30-sensor-example/src/SPG30-sensor-example.c ****    uint8_t buf[5];
  92:../../applications/SPG30-sensor-example/src/SPG30-sensor-example.c **** 
  93:../../applications/SPG30-sensor-example/src/SPG30-sensor-example.c ****   /* MCU Configuration--------------------------------------------------------*/
  94:../../applications/SPG30-sensor-example/src/SPG30-sensor-example.c **** 
  95:../../applications/SPG30-sensor-example/src/SPG30-sensor-example.c ****   /* Reset of all peripherals, Initializes the Flash interface and the Systick. */
  96:../../applications/SPG30-sensor-example/src/SPG30-sensor-example.c ****   HAL_Init();
  97:../../applications/SPG30-sensor-example/src/SPG30-sensor-example.c **** 
  98:../../applications/SPG30-sensor-example/src/SPG30-sensor-example.c ****   /* USER CODE BEGIN Init */
  99:../../applications/SPG30-sensor-example/src/SPG30-sensor-example.c **** 
 100:../../applications/SPG30-sensor-example/src/SPG30-sensor-example.c ****   /* USER CODE END Init */
 101:../../applications/SPG30-sensor-example/src/SPG30-sensor-example.c **** 
 102:../../applications/SPG30-sensor-example/src/SPG30-sensor-example.c ****   /* Configure the system clock */
 103:../../applications/SPG30-sensor-example/src/SPG30-sensor-example.c ****   SystemClock_Config();
 104:../../applications/SPG30-sensor-example/src/SPG30-sensor-example.c **** 
 105:../../applications/SPG30-sensor-example/src/SPG30-sensor-example.c ****   /* USER CODE BEGIN SysInit */
 106:../../applications/SPG30-sensor-example/src/SPG30-sensor-example.c **** 
 107:../../applications/SPG30-sensor-example/src/SPG30-sensor-example.c ****   /* USER CODE END SysInit */
 108:../../applications/SPG30-sensor-example/src/SPG30-sensor-example.c **** 
 109:../../applications/SPG30-sensor-example/src/SPG30-sensor-example.c ****   /* Initialize theplatform */
 110:../../applications/SPG30-sensor-example/src/SPG30-sensor-example.c ****   Initialize_Platform();
 111:../../applications/SPG30-sensor-example/src/SPG30-sensor-example.c ****   /* USER CODE BEGIN 2 */
 112:../../applications/SPG30-sensor-example/src/SPG30-sensor-example.c **** 
 113:../../applications/SPG30-sensor-example/src/SPG30-sensor-example.c ****   printWelcome();
 114:../../applications/SPG30-sensor-example/src/SPG30-sensor-example.c **** 
 115:../../applications/SPG30-sensor-example/src/SPG30-sensor-example.c ****   /* USER CODE END 2 */
 116:../../applications/SPG30-sensor-example/src/SPG30-sensor-example.c **** 
 117:../../applications/SPG30-sensor-example/src/SPG30-sensor-example.c ****   /* We should never get here as control is now taken by the scheduler */
 118:../../applications/SPG30-sensor-example/src/SPG30-sensor-example.c **** 
 119:../../applications/SPG30-sensor-example/src/SPG30-sensor-example.c ****   /* Infinite loop */
 120:../../applications/SPG30-sensor-example/src/SPG30-sensor-example.c ****   /* USER CODE BEGIN WHILE */
 121:../../applications/SPG30-sensor-example/src/SPG30-sensor-example.c **** 
 122:../../applications/SPG30-sensor-example/src/SPG30-sensor-example.c ****   SPG30_Initialize(); 
 123:../../applications/SPG30-sensor-example/src/SPG30-sensor-example.c **** 
 124:../../applications/SPG30-sensor-example/src/SPG30-sensor-example.c ****   while (1)
 125:../../applications/SPG30-sensor-example/src/SPG30-sensor-example.c ****   {
 126:../../applications/SPG30-sensor-example/src/SPG30-sensor-example.c ****       //uint8_t buf[],uint16_t reg,uint8_t length;
 127:../../applications/SPG30-sensor-example/src/SPG30-sensor-example.c ****       READ_REGISTER_SPG30(buf,0x2032,3); 
 128:../../applications/SPG30-sensor-example/src/SPG30-sensor-example.c ****     /* USER CODE END WHILE 
 129:../../applications/SPG30-sensor-example/src/SPG30-sensor-example.c ****     HAL_GPIO_TogglePin(OCTA_RLED_GPIO_Port, OCTA_RLED_Pin);
 130:../../applications/SPG30-sensor-example/src/SPG30-sensor-example.c ****     HAL_Delay(1000);
 131:../../applications/SPG30-sensor-example/src/SPG30-sensor-example.c ****     HAL_GPIO_TogglePin(OCTA_RLED_GPIO_Port, OCTA_RLED_Pin);
 132:../../applications/SPG30-sensor-example/src/SPG30-sensor-example.c ****     HAL_GPIO_TogglePin(OCTA_GLED_GPIO_Port, OCTA_GLED_Pin);
 133:../../applications/SPG30-sensor-example/src/SPG30-sensor-example.c ****     HAL_Delay(1000);
 134:../../applications/SPG30-sensor-example/src/SPG30-sensor-example.c ****     HAL_GPIO_TogglePin(OCTA_GLED_GPIO_Port, OCTA_GLED_Pin);
 135:../../applications/SPG30-sensor-example/src/SPG30-sensor-example.c ****     HAL_GPIO_TogglePin(OCTA_BLED_GPIO_Port, OCTA_BLED_Pin);
 136:../../applications/SPG30-sensor-example/src/SPG30-sensor-example.c ****     HAL_Delay(1000);
 137:../../applications/SPG30-sensor-example/src/SPG30-sensor-example.c ****     HAL_GPIO_TogglePin(OCTA_BLED_GPIO_Port, OCTA_BLED_Pin);
 138:../../applications/SPG30-sensor-example/src/SPG30-sensor-example.c **** 
 139:../../applications/SPG30-sensor-example/src/SPG30-sensor-example.c ****      USER CODE BEGIN 3 */
 140:../../applications/SPG30-sensor-example/src/SPG30-sensor-example.c ****   }
 141:../../applications/SPG30-sensor-example/src/SPG30-sensor-example.c ****   /* USER CODE END 3 */
 142:../../applications/SPG30-sensor-example/src/SPG30-sensor-example.c **** }
 143:../../applications/SPG30-sensor-example/src/SPG30-sensor-example.c **** 
 144:../../applications/SPG30-sensor-example/src/SPG30-sensor-example.c **** void printWelcome(void)
ARM GAS  C:\Users\yvesk\AppData\Local\Temp\ccC39lTH.s 			page 4


 145:../../applications/SPG30-sensor-example/src/SPG30-sensor-example.c **** {
  29              		.loc 1 145 1 view -0
  30              		.cfi_startproc
  31              		@ args = 0, pretend = 0, frame = 0
  32              		@ frame_needed = 0, uses_anonymous_args = 0
  33 0000 38B5     		push	{r3, r4, r5, lr}
  34              	.LCFI0:
  35              		.cfi_def_cfa_offset 16
  36              		.cfi_offset 3, -16
  37              		.cfi_offset 4, -12
  38              		.cfi_offset 5, -8
  39              		.cfi_offset 14, -4
 146:../../applications/SPG30-sensor-example/src/SPG30-sensor-example.c ****   printf("\r\n");
  40              		.loc 1 146 3 view .LVU1
  41 0002 104C     		ldr	r4, .L3
  42 0004 2046     		mov	r0, r4
  43 0006 FFF7FEFF 		bl	puts
  44              	.LVL0:
 147:../../applications/SPG30-sensor-example/src/SPG30-sensor-example.c ****   printf("*****************************************\r\n");
  45              		.loc 1 147 3 view .LVU2
  46 000a 0F4D     		ldr	r5, .L3+4
  47 000c 2846     		mov	r0, r5
  48 000e FFF7FEFF 		bl	puts
  49              	.LVL1:
 148:../../applications/SPG30-sensor-example/src/SPG30-sensor-example.c ****   printf("no scheduler example\r\n");
  50              		.loc 1 148 3 view .LVU3
  51 0012 0E48     		ldr	r0, .L3+8
  52 0014 FFF7FEFF 		bl	puts
  53              	.LVL2:
 149:../../applications/SPG30-sensor-example/src/SPG30-sensor-example.c ****   printf("*****************************************\r\n");
  54              		.loc 1 149 3 view .LVU4
  55 0018 2846     		mov	r0, r5
  56 001a FFF7FEFF 		bl	puts
  57              	.LVL3:
 150:../../applications/SPG30-sensor-example/src/SPG30-sensor-example.c ****   printf("\r\n");
  58              		.loc 1 150 3 view .LVU5
  59 001e 2046     		mov	r0, r4
  60 0020 FFF7FEFF 		bl	puts
  61              	.LVL4:
 151:../../applications/SPG30-sensor-example/src/SPG30-sensor-example.c ****   HAL_GPIO_TogglePin(OCTA_BLED_GPIO_Port, OCTA_BLED_Pin);
  62              		.loc 1 151 3 view .LVU6
  63 0024 0A4C     		ldr	r4, .L3+12
  64 0026 4FF40041 		mov	r1, #32768
  65 002a 2046     		mov	r0, r4
  66 002c FFF7FEFF 		bl	HAL_GPIO_TogglePin
  67              	.LVL5:
 152:../../applications/SPG30-sensor-example/src/SPG30-sensor-example.c ****   HAL_Delay(2000);
  68              		.loc 1 152 3 view .LVU7
  69 0030 4FF4FA60 		mov	r0, #2000
  70 0034 FFF7FEFF 		bl	HAL_Delay
  71              	.LVL6:
 153:../../applications/SPG30-sensor-example/src/SPG30-sensor-example.c ****   HAL_GPIO_TogglePin(OCTA_BLED_GPIO_Port, OCTA_BLED_Pin);
  72              		.loc 1 153 3 view .LVU8
  73 0038 4FF40041 		mov	r1, #32768
  74 003c 2046     		mov	r0, r4
  75 003e FFF7FEFF 		bl	HAL_GPIO_TogglePin
  76              	.LVL7:
ARM GAS  C:\Users\yvesk\AppData\Local\Temp\ccC39lTH.s 			page 5


 154:../../applications/SPG30-sensor-example/src/SPG30-sensor-example.c **** }
  77              		.loc 1 154 1 is_stmt 0 view .LVU9
  78 0042 38BD     		pop	{r3, r4, r5, pc}
  79              	.L4:
  80              		.align	2
  81              	.L3:
  82 0044 00000000 		.word	.LC0
  83 0048 04000000 		.word	.LC1
  84 004c 30000000 		.word	.LC2
  85 0050 000C0048 		.word	1207962624
  86              		.cfi_endproc
  87              	.LFE129:
  89              		.section	.text.main,"ax",%progbits
  90              		.align	1
  91              		.global	main
  92              		.syntax unified
  93              		.thumb
  94              		.thumb_func
  95              		.fpu fpv4-sp-d16
  97              	main:
  98              	.LFB128:
  84:../../applications/SPG30-sensor-example/src/SPG30-sensor-example.c ****   /* USER CODE BEGIN 1 */
  99              		.loc 1 84 1 is_stmt 1 view -0
 100              		.cfi_startproc
 101              		@ Volatile: function does not return.
 102              		@ args = 0, pretend = 0, frame = 8
 103              		@ frame_needed = 0, uses_anonymous_args = 0
 104 0000 00B5     		push	{lr}
 105              	.LCFI1:
 106              		.cfi_def_cfa_offset 4
 107              		.cfi_offset 14, -4
 108 0002 83B0     		sub	sp, sp, #12
 109              	.LCFI2:
 110              		.cfi_def_cfa_offset 16
  91:../../applications/SPG30-sensor-example/src/SPG30-sensor-example.c **** 
 111              		.loc 1 91 4 view .LVU11
  96:../../applications/SPG30-sensor-example/src/SPG30-sensor-example.c **** 
 112              		.loc 1 96 3 view .LVU12
 113 0004 FFF7FEFF 		bl	HAL_Init
 114              	.LVL8:
 103:../../applications/SPG30-sensor-example/src/SPG30-sensor-example.c **** 
 115              		.loc 1 103 3 view .LVU13
 116 0008 FFF7FEFF 		bl	SystemClock_Config
 117              	.LVL9:
 110:../../applications/SPG30-sensor-example/src/SPG30-sensor-example.c ****   /* USER CODE BEGIN 2 */
 118              		.loc 1 110 3 view .LVU14
 119 000c FFF7FEFF 		bl	Initialize_Platform
 120              	.LVL10:
 113:../../applications/SPG30-sensor-example/src/SPG30-sensor-example.c **** 
 121              		.loc 1 113 3 view .LVU15
 122 0010 FFF7FEFF 		bl	printWelcome
 123              	.LVL11:
 122:../../applications/SPG30-sensor-example/src/SPG30-sensor-example.c **** 
 124              		.loc 1 122 3 view .LVU16
 125 0014 FFF7FEFF 		bl	SPG30_Initialize
 126              	.LVL12:
 127              	.L6:
ARM GAS  C:\Users\yvesk\AppData\Local\Temp\ccC39lTH.s 			page 6


 124:../../applications/SPG30-sensor-example/src/SPG30-sensor-example.c ****   {
 128              		.loc 1 124 3 discriminator 1 view .LVU17
 129              	.LBB2:
 127:../../applications/SPG30-sensor-example/src/SPG30-sensor-example.c ****     /* USER CODE END WHILE 
 130              		.loc 1 127 7 discriminator 1 view .LVU18
 131 0018 0322     		movs	r2, #3
 132 001a 42F23201 		movw	r1, #8242
 133 001e 6846     		mov	r0, sp
 134 0020 FFF7FEFF 		bl	READ_REGISTER_SPG30
 135              	.LVL13:
 136 0024 F8E7     		b	.L6
 137              	.LBE2:
 138              		.cfi_endproc
 139              	.LFE128:
 141              		.section	.text.HAL_TIM_PeriodElapsedCallback,"ax",%progbits
 142              		.align	1
 143              		.global	HAL_TIM_PeriodElapsedCallback
 144              		.syntax unified
 145              		.thumb
 146              		.thumb_func
 147              		.fpu fpv4-sp-d16
 149              	HAL_TIM_PeriodElapsedCallback:
 150              	.LVL14:
 151              	.LFB130:
 155:../../applications/SPG30-sensor-example/src/SPG30-sensor-example.c **** 
 156:../../applications/SPG30-sensor-example/src/SPG30-sensor-example.c **** void HAL_TIM_PeriodElapsedCallback(TIM_HandleTypeDef *htim)
 157:../../applications/SPG30-sensor-example/src/SPG30-sensor-example.c **** {
 152              		.loc 1 157 1 view -0
 153              		.cfi_startproc
 154              		@ args = 0, pretend = 0, frame = 0
 155              		@ frame_needed = 0, uses_anonymous_args = 0
 156              		.loc 1 157 1 is_stmt 0 view .LVU20
 157 0000 08B5     		push	{r3, lr}
 158              	.LCFI3:
 159              		.cfi_def_cfa_offset 8
 160              		.cfi_offset 3, -8
 161              		.cfi_offset 14, -4
 158:../../applications/SPG30-sensor-example/src/SPG30-sensor-example.c ****   /* USER CODE BEGIN Callback 0 */
 159:../../applications/SPG30-sensor-example/src/SPG30-sensor-example.c **** 
 160:../../applications/SPG30-sensor-example/src/SPG30-sensor-example.c ****   /* USER CODE END Callback 0 */
 161:../../applications/SPG30-sensor-example/src/SPG30-sensor-example.c ****   if (htim->Instance == TIM1)
 162              		.loc 1 161 3 is_stmt 1 view .LVU21
 163              		.loc 1 161 11 is_stmt 0 view .LVU22
 164 0002 0268     		ldr	r2, [r0]
 165              		.loc 1 161 6 view .LVU23
 166 0004 034B     		ldr	r3, .L12
 167 0006 9A42     		cmp	r2, r3
 168 0008 00D0     		beq	.L11
 169              	.LVL15:
 170              	.L8:
 162:../../applications/SPG30-sensor-example/src/SPG30-sensor-example.c ****   {
 163:../../applications/SPG30-sensor-example/src/SPG30-sensor-example.c ****     HAL_IncTick();
 164:../../applications/SPG30-sensor-example/src/SPG30-sensor-example.c ****   }
 165:../../applications/SPG30-sensor-example/src/SPG30-sensor-example.c ****   /* USER CODE BEGIN Callback 1 */
 166:../../applications/SPG30-sensor-example/src/SPG30-sensor-example.c **** 
 167:../../applications/SPG30-sensor-example/src/SPG30-sensor-example.c ****   /* USER CODE END Callback 1 */
 168:../../applications/SPG30-sensor-example/src/SPG30-sensor-example.c **** }
ARM GAS  C:\Users\yvesk\AppData\Local\Temp\ccC39lTH.s 			page 7


 171              		.loc 1 168 1 view .LVU24
 172 000a 08BD     		pop	{r3, pc}
 173              	.LVL16:
 174              	.L11:
 163:../../applications/SPG30-sensor-example/src/SPG30-sensor-example.c ****   }
 175              		.loc 1 163 5 is_stmt 1 view .LVU25
 176 000c FFF7FEFF 		bl	HAL_IncTick
 177              	.LVL17:
 178              		.loc 1 168 1 is_stmt 0 view .LVU26
 179 0010 FBE7     		b	.L8
 180              	.L13:
 181 0012 00BF     		.align	2
 182              	.L12:
 183 0014 002C0140 		.word	1073818624
 184              		.cfi_endproc
 185              	.LFE130:
 187              		.section	.text.HAL_UART_RxCpltCallback,"ax",%progbits
 188              		.align	1
 189              		.global	HAL_UART_RxCpltCallback
 190              		.syntax unified
 191              		.thumb
 192              		.thumb_func
 193              		.fpu fpv4-sp-d16
 195              	HAL_UART_RxCpltCallback:
 196              	.LVL18:
 197              	.LFB131:
 169:../../applications/SPG30-sensor-example/src/SPG30-sensor-example.c **** 
 170:../../applications/SPG30-sensor-example/src/SPG30-sensor-example.c **** /* USER CODE END 4 */
 171:../../applications/SPG30-sensor-example/src/SPG30-sensor-example.c **** 
 172:../../applications/SPG30-sensor-example/src/SPG30-sensor-example.c **** void HAL_UART_RxCpltCallback(UART_HandleTypeDef *huart)
 173:../../applications/SPG30-sensor-example/src/SPG30-sensor-example.c **** {
 198              		.loc 1 173 1 is_stmt 1 view -0
 199              		.cfi_startproc
 200              		@ args = 0, pretend = 0, frame = 0
 201              		@ frame_needed = 0, uses_anonymous_args = 0
 202              		@ link register save eliminated.
 174:../../applications/SPG30-sensor-example/src/SPG30-sensor-example.c **** 	#if USE_BOOTLOADER
 175:../../applications/SPG30-sensor-example/src/SPG30-sensor-example.c ****     if(huart == &BLE_UART);
 176:../../applications/SPG30-sensor-example/src/SPG30-sensor-example.c ****     {
 177:../../applications/SPG30-sensor-example/src/SPG30-sensor-example.c ****           printf("BLE UART INTERRUPT\r\n");
 178:../../applications/SPG30-sensor-example/src/SPG30-sensor-example.c ****           bootloader_parse_data();        
 179:../../applications/SPG30-sensor-example/src/SPG30-sensor-example.c ****     }
 180:../../applications/SPG30-sensor-example/src/SPG30-sensor-example.c ****   #endif
 181:../../applications/SPG30-sensor-example/src/SPG30-sensor-example.c **** }
 203              		.loc 1 181 1 view .LVU28
 204 0000 7047     		bx	lr
 205              		.cfi_endproc
 206              	.LFE131:
 208              		.section	.text.Error_Handler,"ax",%progbits
 209              		.align	1
 210              		.global	Error_Handler
 211              		.syntax unified
 212              		.thumb
 213              		.thumb_func
 214              		.fpu fpv4-sp-d16
 216              	Error_Handler:
 217              	.LFB132:
ARM GAS  C:\Users\yvesk\AppData\Local\Temp\ccC39lTH.s 			page 8


 182:../../applications/SPG30-sensor-example/src/SPG30-sensor-example.c **** 
 183:../../applications/SPG30-sensor-example/src/SPG30-sensor-example.c **** /**
 184:../../applications/SPG30-sensor-example/src/SPG30-sensor-example.c ****   * @brief  This function is executed in case of error occurrence.
 185:../../applications/SPG30-sensor-example/src/SPG30-sensor-example.c ****   * @retval None
 186:../../applications/SPG30-sensor-example/src/SPG30-sensor-example.c ****   */
 187:../../applications/SPG30-sensor-example/src/SPG30-sensor-example.c **** void Error_Handler(void)
 188:../../applications/SPG30-sensor-example/src/SPG30-sensor-example.c **** {
 218              		.loc 1 188 1 view -0
 219              		.cfi_startproc
 220              		@ args = 0, pretend = 0, frame = 0
 221              		@ frame_needed = 0, uses_anonymous_args = 0
 222              		@ link register save eliminated.
 189:../../applications/SPG30-sensor-example/src/SPG30-sensor-example.c ****   /* USER CODE BEGIN Error_Handler_Debug */
 190:../../applications/SPG30-sensor-example/src/SPG30-sensor-example.c ****   /* User can add his own implementation to report the HAL error return state */
 191:../../applications/SPG30-sensor-example/src/SPG30-sensor-example.c **** 
 192:../../applications/SPG30-sensor-example/src/SPG30-sensor-example.c ****   /* USER CODE END Error_Handler_Debug */
 193:../../applications/SPG30-sensor-example/src/SPG30-sensor-example.c **** }
 223              		.loc 1 193 1 view .LVU30
 224 0000 7047     		bx	lr
 225              		.cfi_endproc
 226              	.LFE132:
 228              		.comm	P3_header,44,4
 229              		.comm	P2_header,44,4
 230              		.comm	P1_header,44,4
 231              		.comm	FLASH_SPI,100,4
 232              		.comm	P3_SPI,100,4
 233              		.comm	P2_SPI,100,4
 234              		.comm	P1_SPI,100,4
 235              		.comm	P3_I2C,76,4
 236              		.comm	P2_I2C,76,4
 237              		.comm	P1_I2C,76,4
 238              		.comm	common_I2C,76,4
 239              		.comm	P3_UART,120,4
 240              		.comm	P2_UART,120,4
 241              		.comm	P1_UART,120,4
 242              		.comm	BLE_UART,120,4
 243              		.comm	USB_UART,120,4
 244              		.comm	hiwdg,16,4
 245              		.comm	P3_DIO6,8,4
 246              		.comm	P3_DIO5,8,4
 247              		.comm	P3_DIO4,8,4
 248              		.comm	P3_DIO3,8,4
 249              		.comm	P3_DIO2,8,4
 250              		.comm	P3_DIO1,8,4
 251              		.comm	P2_DIO6,8,4
 252              		.comm	P2_DIO5,8,4
 253              		.comm	P2_DIO4,8,4
 254              		.comm	P2_DIO3,8,4
 255              		.comm	P2_DIO2,8,4
 256              		.comm	P2_DIO1,8,4
 257              		.comm	P1_DIO6,8,4
 258              		.comm	P1_DIO5,8,4
 259              		.comm	P1_DIO4,8,4
 260              		.comm	P1_DIO3,8,4
 261              		.comm	P1_DIO2,8,4
 262              		.comm	P1_DIO1,8,4
 263              		.section	.rodata.printWelcome.str1.4,"aMS",%progbits,1
ARM GAS  C:\Users\yvesk\AppData\Local\Temp\ccC39lTH.s 			page 9


 264              		.align	2
 265              	.LC0:
 266 0000 0D00     		.ascii	"\015\000"
 267 0002 0000     		.space	2
 268              	.LC1:
 269 0004 2A2A2A2A 		.ascii	"*****************************************\015\000"
 269      2A2A2A2A 
 269      2A2A2A2A 
 269      2A2A2A2A 
 269      2A2A2A2A 
 270 002f 00       		.space	1
 271              	.LC2:
 272 0030 6E6F2073 		.ascii	"no scheduler example\015\000"
 272      63686564 
 272      756C6572 
 272      20657861 
 272      6D706C65 
 273              		.weak	SystemClock_Config
 274              		.text
 275              	.Letext0:
 276              		.file 2 "c:\\program files (x86)\\gnu tools arm embedded\\8 2019-q3-update\\arm-none-eabi\\include
 277              		.file 3 "c:\\program files (x86)\\gnu tools arm embedded\\8 2019-q3-update\\arm-none-eabi\\include
 278              		.file 4 "../../core/ST/CMSIS/Include/core_cm4.h"
 279              		.file 5 "../../core/ST/CMSIS/Device/ST/STM32L4xx/Include/system_stm32l4xx.h"
 280              		.file 6 "../../core/ST/CMSIS/Device/ST/STM32L4xx/Include/stm32l496xx.h"
 281              		.file 7 "../../core/ST/STM32L4xx_HAL_Driver/Inc/stm32l4xx_hal_def.h"
 282              		.file 8 "../../core/ST/STM32L4xx_HAL_Driver/Inc/stm32l4xx_hal_dma.h"
 283              		.file 9 "../../core/ST/STM32L4xx_HAL_Driver/Inc/stm32l4xx_hal_i2c.h"
 284              		.file 10 "../../core/ST/STM32L4xx_HAL_Driver/Inc/stm32l4xx_hal_iwdg.h"
 285              		.file 11 "../../core/ST/STM32L4xx_HAL_Driver/Inc/stm32l4xx_hal_spi.h"
 286              		.file 12 "../../core/ST/STM32L4xx_HAL_Driver/Inc/stm32l4xx_hal_tim.h"
 287              		.file 13 "../../core/ST/STM32L4xx_HAL_Driver/Inc/stm32l4xx_hal_uart.h"
 288              		.file 14 "../../core/ST/STM32L4xx_HAL_Driver/Inc/stm32l4xx_hal.h"
 289              		.file 15 "../../core/platform/octa/inc/gpio.h"
 290              		.file 16 "../../core/platform/octa/inc/iwdg.h"
 291              		.file 17 "../../core/platform/octa/inc/uart.h"
 292              		.file 18 "../../core/platform/octa/inc/i2c.h"
 293              		.file 19 "../../core/platform/octa/inc/spi.h"
 294              		.file 20 "../../core/platform/octa/inc/octa.h"
 295              		.file 21 "<built-in>"
 296              		.file 22 "../../core/ST/STM32L4xx_HAL_Driver/Inc/stm32l4xx_hal_gpio.h"
 297              		.file 23 "../../core/platform/octa/inc/sysclock.h"
 298              		.file 24 "../../core/platform/common/inc/platform.h"
ARM GAS  C:\Users\yvesk\AppData\Local\Temp\ccC39lTH.s 			page 10

