ARM GAS  C:\Users\yvesk\AppData\Local\Temp\ccsb6O8c.s 			page 1


   1              		.cpu cortex-m4
   2              		.eabi_attribute 27, 1
   3              		.eabi_attribute 28, 1
   4              		.eabi_attribute 20, 1
   5              		.eabi_attribute 21, 1
   6              		.eabi_attribute 23, 3
   7              		.eabi_attribute 24, 1
   8              		.eabi_attribute 25, 1
   9              		.eabi_attribute 26, 1
  10              		.eabi_attribute 30, 1
  11              		.eabi_attribute 34, 1
  12              		.eabi_attribute 18, 4
  13              		.file	"timers.c"
  14              		.text
  15              	.Ltext0:
  16              		.cfi_sections	.debug_frame
  17              		.section	.text.prvGetNextExpireTime,"ax",%progbits
  18              		.align	1
  19              		.arch armv7e-m
  20              		.syntax unified
  21              		.thumb
  22              		.thumb_func
  23              		.fpu fpv4-sp-d16
  25              	prvGetNextExpireTime:
  26              	.LVL0:
  27              	.LFB16:
  28              		.file 1 "../../core/ST/Middlewares/Third_Party/FreeRTOS/Source/timers.c"
   1:../../core/ST/Middlewares/Third_Party/FreeRTOS/Source/timers.c **** /*
   2:../../core/ST/Middlewares/Third_Party/FreeRTOS/Source/timers.c ****  * FreeRTOS Kernel V10.0.1
   3:../../core/ST/Middlewares/Third_Party/FreeRTOS/Source/timers.c ****  * Copyright (C) 2017 Amazon.com, Inc. or its affiliates.  All Rights Reserved.
   4:../../core/ST/Middlewares/Third_Party/FreeRTOS/Source/timers.c ****  *
   5:../../core/ST/Middlewares/Third_Party/FreeRTOS/Source/timers.c ****  * Permission is hereby granted, free of charge, to any person obtaining a copy of
   6:../../core/ST/Middlewares/Third_Party/FreeRTOS/Source/timers.c ****  * this software and associated documentation files (the "Software"), to deal in
   7:../../core/ST/Middlewares/Third_Party/FreeRTOS/Source/timers.c ****  * the Software without restriction, including without limitation the rights to
   8:../../core/ST/Middlewares/Third_Party/FreeRTOS/Source/timers.c ****  * use, copy, modify, merge, publish, distribute, sublicense, and/or sell copies of
   9:../../core/ST/Middlewares/Third_Party/FreeRTOS/Source/timers.c ****  * the Software, and to permit persons to whom the Software is furnished to do so,
  10:../../core/ST/Middlewares/Third_Party/FreeRTOS/Source/timers.c ****  * subject to the following conditions:
  11:../../core/ST/Middlewares/Third_Party/FreeRTOS/Source/timers.c ****  *
  12:../../core/ST/Middlewares/Third_Party/FreeRTOS/Source/timers.c ****  * The above copyright notice and this permission notice shall be included in all
  13:../../core/ST/Middlewares/Third_Party/FreeRTOS/Source/timers.c ****  * copies or substantial portions of the Software.
  14:../../core/ST/Middlewares/Third_Party/FreeRTOS/Source/timers.c ****  *
  15:../../core/ST/Middlewares/Third_Party/FreeRTOS/Source/timers.c ****  * THE SOFTWARE IS PROVIDED "AS IS", WITHOUT WARRANTY OF ANY KIND, EXPRESS OR
  16:../../core/ST/Middlewares/Third_Party/FreeRTOS/Source/timers.c ****  * IMPLIED, INCLUDING BUT NOT LIMITED TO THE WARRANTIES OF MERCHANTABILITY, FITNESS
  17:../../core/ST/Middlewares/Third_Party/FreeRTOS/Source/timers.c ****  * FOR A PARTICULAR PURPOSE AND NONINFRINGEMENT. IN NO EVENT SHALL THE AUTHORS OR
  18:../../core/ST/Middlewares/Third_Party/FreeRTOS/Source/timers.c ****  * COPYRIGHT HOLDERS BE LIABLE FOR ANY CLAIM, DAMAGES OR OTHER LIABILITY, WHETHER
  19:../../core/ST/Middlewares/Third_Party/FreeRTOS/Source/timers.c ****  * IN AN ACTION OF CONTRACT, TORT OR OTHERWISE, ARISING FROM, OUT OF OR IN
  20:../../core/ST/Middlewares/Third_Party/FreeRTOS/Source/timers.c ****  * CONNECTION WITH THE SOFTWARE OR THE USE OR OTHER DEALINGS IN THE SOFTWARE.
  21:../../core/ST/Middlewares/Third_Party/FreeRTOS/Source/timers.c ****  *
  22:../../core/ST/Middlewares/Third_Party/FreeRTOS/Source/timers.c ****  * http://www.FreeRTOS.org
  23:../../core/ST/Middlewares/Third_Party/FreeRTOS/Source/timers.c ****  * http://aws.amazon.com/freertos
  24:../../core/ST/Middlewares/Third_Party/FreeRTOS/Source/timers.c ****  *
  25:../../core/ST/Middlewares/Third_Party/FreeRTOS/Source/timers.c ****  * 1 tab == 4 spaces!
  26:../../core/ST/Middlewares/Third_Party/FreeRTOS/Source/timers.c ****  */
  27:../../core/ST/Middlewares/Third_Party/FreeRTOS/Source/timers.c **** 
  28:../../core/ST/Middlewares/Third_Party/FreeRTOS/Source/timers.c **** /* Standard includes. */
  29:../../core/ST/Middlewares/Third_Party/FreeRTOS/Source/timers.c **** #include <stdlib.h>
  30:../../core/ST/Middlewares/Third_Party/FreeRTOS/Source/timers.c **** 
ARM GAS  C:\Users\yvesk\AppData\Local\Temp\ccsb6O8c.s 			page 2


  31:../../core/ST/Middlewares/Third_Party/FreeRTOS/Source/timers.c **** /* Defining MPU_WRAPPERS_INCLUDED_FROM_API_FILE prevents task.h from redefining
  32:../../core/ST/Middlewares/Third_Party/FreeRTOS/Source/timers.c **** all the API functions to use the MPU wrappers.  That should only be done when
  33:../../core/ST/Middlewares/Third_Party/FreeRTOS/Source/timers.c **** task.h is included from an application file. */
  34:../../core/ST/Middlewares/Third_Party/FreeRTOS/Source/timers.c **** #define MPU_WRAPPERS_INCLUDED_FROM_API_FILE
  35:../../core/ST/Middlewares/Third_Party/FreeRTOS/Source/timers.c **** 
  36:../../core/ST/Middlewares/Third_Party/FreeRTOS/Source/timers.c **** #include "FreeRTOS.h"
  37:../../core/ST/Middlewares/Third_Party/FreeRTOS/Source/timers.c **** #include "task.h"
  38:../../core/ST/Middlewares/Third_Party/FreeRTOS/Source/timers.c **** #include "queue.h"
  39:../../core/ST/Middlewares/Third_Party/FreeRTOS/Source/timers.c **** #include "timers.h"
  40:../../core/ST/Middlewares/Third_Party/FreeRTOS/Source/timers.c **** 
  41:../../core/ST/Middlewares/Third_Party/FreeRTOS/Source/timers.c **** #if ( INCLUDE_xTimerPendFunctionCall == 1 ) && ( configUSE_TIMERS == 0 )
  42:../../core/ST/Middlewares/Third_Party/FreeRTOS/Source/timers.c **** 	#error configUSE_TIMERS must be set to 1 to make the xTimerPendFunctionCall() function available.
  43:../../core/ST/Middlewares/Third_Party/FreeRTOS/Source/timers.c **** #endif
  44:../../core/ST/Middlewares/Third_Party/FreeRTOS/Source/timers.c **** 
  45:../../core/ST/Middlewares/Third_Party/FreeRTOS/Source/timers.c **** /* Lint e961 and e750 are suppressed as a MISRA exception justified because the
  46:../../core/ST/Middlewares/Third_Party/FreeRTOS/Source/timers.c **** MPU ports require MPU_WRAPPERS_INCLUDED_FROM_API_FILE to be defined for the
  47:../../core/ST/Middlewares/Third_Party/FreeRTOS/Source/timers.c **** header files above, but not in this file, in order to generate the correct
  48:../../core/ST/Middlewares/Third_Party/FreeRTOS/Source/timers.c **** privileged Vs unprivileged linkage and placement. */
  49:../../core/ST/Middlewares/Third_Party/FreeRTOS/Source/timers.c **** #undef MPU_WRAPPERS_INCLUDED_FROM_API_FILE /*lint !e961 !e750. */
  50:../../core/ST/Middlewares/Third_Party/FreeRTOS/Source/timers.c **** 
  51:../../core/ST/Middlewares/Third_Party/FreeRTOS/Source/timers.c **** 
  52:../../core/ST/Middlewares/Third_Party/FreeRTOS/Source/timers.c **** /* This entire source file will be skipped if the application is not configured
  53:../../core/ST/Middlewares/Third_Party/FreeRTOS/Source/timers.c **** to include software timer functionality.  This #if is closed at the very bottom
  54:../../core/ST/Middlewares/Third_Party/FreeRTOS/Source/timers.c **** of this file.  If you want to include software timer functionality then ensure
  55:../../core/ST/Middlewares/Third_Party/FreeRTOS/Source/timers.c **** configUSE_TIMERS is set to 1 in FreeRTOSConfig.h. */
  56:../../core/ST/Middlewares/Third_Party/FreeRTOS/Source/timers.c **** #if ( configUSE_TIMERS == 1 )
  57:../../core/ST/Middlewares/Third_Party/FreeRTOS/Source/timers.c **** 
  58:../../core/ST/Middlewares/Third_Party/FreeRTOS/Source/timers.c **** /* Misc definitions. */
  59:../../core/ST/Middlewares/Third_Party/FreeRTOS/Source/timers.c **** #define tmrNO_DELAY		( TickType_t ) 0U
  60:../../core/ST/Middlewares/Third_Party/FreeRTOS/Source/timers.c **** 
  61:../../core/ST/Middlewares/Third_Party/FreeRTOS/Source/timers.c **** /* The name assigned to the timer service task.  This can be overridden by
  62:../../core/ST/Middlewares/Third_Party/FreeRTOS/Source/timers.c **** defining trmTIMER_SERVICE_TASK_NAME in FreeRTOSConfig.h. */
  63:../../core/ST/Middlewares/Third_Party/FreeRTOS/Source/timers.c **** #ifndef configTIMER_SERVICE_TASK_NAME
  64:../../core/ST/Middlewares/Third_Party/FreeRTOS/Source/timers.c **** 	#define configTIMER_SERVICE_TASK_NAME "Tmr Svc"
  65:../../core/ST/Middlewares/Third_Party/FreeRTOS/Source/timers.c **** #endif
  66:../../core/ST/Middlewares/Third_Party/FreeRTOS/Source/timers.c **** 
  67:../../core/ST/Middlewares/Third_Party/FreeRTOS/Source/timers.c **** /* The definition of the timers themselves. */
  68:../../core/ST/Middlewares/Third_Party/FreeRTOS/Source/timers.c **** typedef struct tmrTimerControl
  69:../../core/ST/Middlewares/Third_Party/FreeRTOS/Source/timers.c **** {
  70:../../core/ST/Middlewares/Third_Party/FreeRTOS/Source/timers.c **** 	const char				*pcTimerName;		/*<< Text name.  This is not used by the kernel, it is included simpl
  71:../../core/ST/Middlewares/Third_Party/FreeRTOS/Source/timers.c **** 	ListItem_t				xTimerListItem;		/*<< Standard linked list item as used by all kernel features for e
  72:../../core/ST/Middlewares/Third_Party/FreeRTOS/Source/timers.c **** 	TickType_t				xTimerPeriodInTicks;/*<< How quickly and often the timer expires. */
  73:../../core/ST/Middlewares/Third_Party/FreeRTOS/Source/timers.c **** 	UBaseType_t				uxAutoReload;		/*<< Set to pdTRUE if the timer should be automatically restarted on
  74:../../core/ST/Middlewares/Third_Party/FreeRTOS/Source/timers.c **** 	void 					*pvTimerID;			/*<< An ID to identify the timer.  This allows the timer to be identified 
  75:../../core/ST/Middlewares/Third_Party/FreeRTOS/Source/timers.c **** 	TimerCallbackFunction_t	pxCallbackFunction;	/*<< The function that will be called when the timer e
  76:../../core/ST/Middlewares/Third_Party/FreeRTOS/Source/timers.c **** 	#if( configUSE_TRACE_FACILITY == 1 )
  77:../../core/ST/Middlewares/Third_Party/FreeRTOS/Source/timers.c **** 		UBaseType_t			uxTimerNumber;		/*<< An ID assigned by trace tools such as FreeRTOS+Trace */
  78:../../core/ST/Middlewares/Third_Party/FreeRTOS/Source/timers.c **** 	#endif
  79:../../core/ST/Middlewares/Third_Party/FreeRTOS/Source/timers.c **** 
  80:../../core/ST/Middlewares/Third_Party/FreeRTOS/Source/timers.c **** 	#if( ( configSUPPORT_STATIC_ALLOCATION == 1 ) && ( configSUPPORT_DYNAMIC_ALLOCATION == 1 ) )
  81:../../core/ST/Middlewares/Third_Party/FreeRTOS/Source/timers.c **** 		uint8_t 			ucStaticallyAllocated; /*<< Set to pdTRUE if the timer was created statically so no at
  82:../../core/ST/Middlewares/Third_Party/FreeRTOS/Source/timers.c **** 	#endif
  83:../../core/ST/Middlewares/Third_Party/FreeRTOS/Source/timers.c **** } xTIMER;
  84:../../core/ST/Middlewares/Third_Party/FreeRTOS/Source/timers.c **** 
  85:../../core/ST/Middlewares/Third_Party/FreeRTOS/Source/timers.c **** /* The old xTIMER name is maintained above then typedefed to the new Timer_t
  86:../../core/ST/Middlewares/Third_Party/FreeRTOS/Source/timers.c **** name below to enable the use of older kernel aware debuggers. */
  87:../../core/ST/Middlewares/Third_Party/FreeRTOS/Source/timers.c **** typedef xTIMER Timer_t;
ARM GAS  C:\Users\yvesk\AppData\Local\Temp\ccsb6O8c.s 			page 3


  88:../../core/ST/Middlewares/Third_Party/FreeRTOS/Source/timers.c **** 
  89:../../core/ST/Middlewares/Third_Party/FreeRTOS/Source/timers.c **** /* The definition of messages that can be sent and received on the timer queue.
  90:../../core/ST/Middlewares/Third_Party/FreeRTOS/Source/timers.c **** Two types of message can be queued - messages that manipulate a software timer,
  91:../../core/ST/Middlewares/Third_Party/FreeRTOS/Source/timers.c **** and messages that request the execution of a non-timer related callback.  The
  92:../../core/ST/Middlewares/Third_Party/FreeRTOS/Source/timers.c **** two message types are defined in two separate structures, xTimerParametersType
  93:../../core/ST/Middlewares/Third_Party/FreeRTOS/Source/timers.c **** and xCallbackParametersType respectively. */
  94:../../core/ST/Middlewares/Third_Party/FreeRTOS/Source/timers.c **** typedef struct tmrTimerParameters
  95:../../core/ST/Middlewares/Third_Party/FreeRTOS/Source/timers.c **** {
  96:../../core/ST/Middlewares/Third_Party/FreeRTOS/Source/timers.c **** 	TickType_t			xMessageValue;		/*<< An optional value used by a subset of commands, for example, whe
  97:../../core/ST/Middlewares/Third_Party/FreeRTOS/Source/timers.c **** 	Timer_t *			pxTimer;			/*<< The timer to which the command will be applied. */
  98:../../core/ST/Middlewares/Third_Party/FreeRTOS/Source/timers.c **** } TimerParameter_t;
  99:../../core/ST/Middlewares/Third_Party/FreeRTOS/Source/timers.c **** 
 100:../../core/ST/Middlewares/Third_Party/FreeRTOS/Source/timers.c **** 
 101:../../core/ST/Middlewares/Third_Party/FreeRTOS/Source/timers.c **** typedef struct tmrCallbackParameters
 102:../../core/ST/Middlewares/Third_Party/FreeRTOS/Source/timers.c **** {
 103:../../core/ST/Middlewares/Third_Party/FreeRTOS/Source/timers.c **** 	PendedFunction_t	pxCallbackFunction;	/* << The callback function to execute. */
 104:../../core/ST/Middlewares/Third_Party/FreeRTOS/Source/timers.c **** 	void *pvParameter1;						/* << The value that will be used as the callback functions first paramet
 105:../../core/ST/Middlewares/Third_Party/FreeRTOS/Source/timers.c **** 	uint32_t ulParameter2;					/* << The value that will be used as the callback functions second para
 106:../../core/ST/Middlewares/Third_Party/FreeRTOS/Source/timers.c **** } CallbackParameters_t;
 107:../../core/ST/Middlewares/Third_Party/FreeRTOS/Source/timers.c **** 
 108:../../core/ST/Middlewares/Third_Party/FreeRTOS/Source/timers.c **** /* The structure that contains the two message types, along with an identifier
 109:../../core/ST/Middlewares/Third_Party/FreeRTOS/Source/timers.c **** that is used to determine which message type is valid. */
 110:../../core/ST/Middlewares/Third_Party/FreeRTOS/Source/timers.c **** typedef struct tmrTimerQueueMessage
 111:../../core/ST/Middlewares/Third_Party/FreeRTOS/Source/timers.c **** {
 112:../../core/ST/Middlewares/Third_Party/FreeRTOS/Source/timers.c **** 	BaseType_t			xMessageID;			/*<< The command being sent to the timer service task. */
 113:../../core/ST/Middlewares/Third_Party/FreeRTOS/Source/timers.c **** 	union
 114:../../core/ST/Middlewares/Third_Party/FreeRTOS/Source/timers.c **** 	{
 115:../../core/ST/Middlewares/Third_Party/FreeRTOS/Source/timers.c **** 		TimerParameter_t xTimerParameters;
 116:../../core/ST/Middlewares/Third_Party/FreeRTOS/Source/timers.c **** 
 117:../../core/ST/Middlewares/Third_Party/FreeRTOS/Source/timers.c **** 		/* Don't include xCallbackParameters if it is not going to be used as
 118:../../core/ST/Middlewares/Third_Party/FreeRTOS/Source/timers.c **** 		it makes the structure (and therefore the timer queue) larger. */
 119:../../core/ST/Middlewares/Third_Party/FreeRTOS/Source/timers.c **** 		#if ( INCLUDE_xTimerPendFunctionCall == 1 )
 120:../../core/ST/Middlewares/Third_Party/FreeRTOS/Source/timers.c **** 			CallbackParameters_t xCallbackParameters;
 121:../../core/ST/Middlewares/Third_Party/FreeRTOS/Source/timers.c **** 		#endif /* INCLUDE_xTimerPendFunctionCall */
 122:../../core/ST/Middlewares/Third_Party/FreeRTOS/Source/timers.c **** 	} u;
 123:../../core/ST/Middlewares/Third_Party/FreeRTOS/Source/timers.c **** } DaemonTaskMessage_t;
 124:../../core/ST/Middlewares/Third_Party/FreeRTOS/Source/timers.c **** 
 125:../../core/ST/Middlewares/Third_Party/FreeRTOS/Source/timers.c **** /*lint -save -e956 A manual analysis and inspection has been used to determine
 126:../../core/ST/Middlewares/Third_Party/FreeRTOS/Source/timers.c **** which static variables must be declared volatile. */
 127:../../core/ST/Middlewares/Third_Party/FreeRTOS/Source/timers.c **** 
 128:../../core/ST/Middlewares/Third_Party/FreeRTOS/Source/timers.c **** /* The list in which active timers are stored.  Timers are referenced in expire
 129:../../core/ST/Middlewares/Third_Party/FreeRTOS/Source/timers.c **** time order, with the nearest expiry time at the front of the list.  Only the
 130:../../core/ST/Middlewares/Third_Party/FreeRTOS/Source/timers.c **** timer service task is allowed to access these lists. */
 131:../../core/ST/Middlewares/Third_Party/FreeRTOS/Source/timers.c **** PRIVILEGED_DATA static List_t xActiveTimerList1 = {0};
 132:../../core/ST/Middlewares/Third_Party/FreeRTOS/Source/timers.c **** PRIVILEGED_DATA static List_t xActiveTimerList2 = {0};
 133:../../core/ST/Middlewares/Third_Party/FreeRTOS/Source/timers.c **** PRIVILEGED_DATA static List_t *pxCurrentTimerList = NULL;
 134:../../core/ST/Middlewares/Third_Party/FreeRTOS/Source/timers.c **** PRIVILEGED_DATA static List_t *pxOverflowTimerList = NULL;
 135:../../core/ST/Middlewares/Third_Party/FreeRTOS/Source/timers.c **** 
 136:../../core/ST/Middlewares/Third_Party/FreeRTOS/Source/timers.c **** /* A queue that is used to send commands to the timer service task. */
 137:../../core/ST/Middlewares/Third_Party/FreeRTOS/Source/timers.c **** PRIVILEGED_DATA static QueueHandle_t xTimerQueue = NULL;
 138:../../core/ST/Middlewares/Third_Party/FreeRTOS/Source/timers.c **** PRIVILEGED_DATA static TaskHandle_t xTimerTaskHandle = NULL;
 139:../../core/ST/Middlewares/Third_Party/FreeRTOS/Source/timers.c **** 
 140:../../core/ST/Middlewares/Third_Party/FreeRTOS/Source/timers.c **** /*lint -restore */
 141:../../core/ST/Middlewares/Third_Party/FreeRTOS/Source/timers.c **** 
 142:../../core/ST/Middlewares/Third_Party/FreeRTOS/Source/timers.c **** /*-----------------------------------------------------------*/
 143:../../core/ST/Middlewares/Third_Party/FreeRTOS/Source/timers.c **** 
 144:../../core/ST/Middlewares/Third_Party/FreeRTOS/Source/timers.c **** #if( configSUPPORT_STATIC_ALLOCATION == 1 )
ARM GAS  C:\Users\yvesk\AppData\Local\Temp\ccsb6O8c.s 			page 4


 145:../../core/ST/Middlewares/Third_Party/FreeRTOS/Source/timers.c **** 
 146:../../core/ST/Middlewares/Third_Party/FreeRTOS/Source/timers.c **** 	/* If static allocation is supported then the application must provide the
 147:../../core/ST/Middlewares/Third_Party/FreeRTOS/Source/timers.c **** 	following callback function - which enables the application to optionally
 148:../../core/ST/Middlewares/Third_Party/FreeRTOS/Source/timers.c **** 	provide the memory that will be used by the timer task as the task's stack
 149:../../core/ST/Middlewares/Third_Party/FreeRTOS/Source/timers.c **** 	and TCB. */
 150:../../core/ST/Middlewares/Third_Party/FreeRTOS/Source/timers.c **** 	extern void vApplicationGetTimerTaskMemory( StaticTask_t **ppxTimerTaskTCBBuffer, StackType_t **pp
 151:../../core/ST/Middlewares/Third_Party/FreeRTOS/Source/timers.c **** 
 152:../../core/ST/Middlewares/Third_Party/FreeRTOS/Source/timers.c **** #endif
 153:../../core/ST/Middlewares/Third_Party/FreeRTOS/Source/timers.c **** 
 154:../../core/ST/Middlewares/Third_Party/FreeRTOS/Source/timers.c **** /*
 155:../../core/ST/Middlewares/Third_Party/FreeRTOS/Source/timers.c ****  * Initialise the infrastructure used by the timer service task if it has not
 156:../../core/ST/Middlewares/Third_Party/FreeRTOS/Source/timers.c ****  * been initialised already.
 157:../../core/ST/Middlewares/Third_Party/FreeRTOS/Source/timers.c ****  */
 158:../../core/ST/Middlewares/Third_Party/FreeRTOS/Source/timers.c **** static void prvCheckForValidListAndQueue( void ) PRIVILEGED_FUNCTION;
 159:../../core/ST/Middlewares/Third_Party/FreeRTOS/Source/timers.c **** 
 160:../../core/ST/Middlewares/Third_Party/FreeRTOS/Source/timers.c **** /*
 161:../../core/ST/Middlewares/Third_Party/FreeRTOS/Source/timers.c ****  * The timer service task (daemon).  Timer functionality is controlled by this
 162:../../core/ST/Middlewares/Third_Party/FreeRTOS/Source/timers.c ****  * task.  Other tasks communicate with the timer service task using the
 163:../../core/ST/Middlewares/Third_Party/FreeRTOS/Source/timers.c ****  * xTimerQueue queue.
 164:../../core/ST/Middlewares/Third_Party/FreeRTOS/Source/timers.c ****  */
 165:../../core/ST/Middlewares/Third_Party/FreeRTOS/Source/timers.c **** static void prvTimerTask( void *pvParameters ) PRIVILEGED_FUNCTION;
 166:../../core/ST/Middlewares/Third_Party/FreeRTOS/Source/timers.c **** 
 167:../../core/ST/Middlewares/Third_Party/FreeRTOS/Source/timers.c **** /*
 168:../../core/ST/Middlewares/Third_Party/FreeRTOS/Source/timers.c ****  * Called by the timer service task to interpret and process a command it
 169:../../core/ST/Middlewares/Third_Party/FreeRTOS/Source/timers.c ****  * received on the timer queue.
 170:../../core/ST/Middlewares/Third_Party/FreeRTOS/Source/timers.c ****  */
 171:../../core/ST/Middlewares/Third_Party/FreeRTOS/Source/timers.c **** static void prvProcessReceivedCommands( void ) PRIVILEGED_FUNCTION;
 172:../../core/ST/Middlewares/Third_Party/FreeRTOS/Source/timers.c **** 
 173:../../core/ST/Middlewares/Third_Party/FreeRTOS/Source/timers.c **** /*
 174:../../core/ST/Middlewares/Third_Party/FreeRTOS/Source/timers.c ****  * Insert the timer into either xActiveTimerList1, or xActiveTimerList2,
 175:../../core/ST/Middlewares/Third_Party/FreeRTOS/Source/timers.c ****  * depending on if the expire time causes a timer counter overflow.
 176:../../core/ST/Middlewares/Third_Party/FreeRTOS/Source/timers.c ****  */
 177:../../core/ST/Middlewares/Third_Party/FreeRTOS/Source/timers.c **** static BaseType_t prvInsertTimerInActiveList( Timer_t * const pxTimer, const TickType_t xNextExpiry
 178:../../core/ST/Middlewares/Third_Party/FreeRTOS/Source/timers.c **** 
 179:../../core/ST/Middlewares/Third_Party/FreeRTOS/Source/timers.c **** /*
 180:../../core/ST/Middlewares/Third_Party/FreeRTOS/Source/timers.c ****  * An active timer has reached its expire time.  Reload the timer if it is an
 181:../../core/ST/Middlewares/Third_Party/FreeRTOS/Source/timers.c ****  * auto reload timer, then call its callback.
 182:../../core/ST/Middlewares/Third_Party/FreeRTOS/Source/timers.c ****  */
 183:../../core/ST/Middlewares/Third_Party/FreeRTOS/Source/timers.c **** static void prvProcessExpiredTimer( const TickType_t xNextExpireTime, const TickType_t xTimeNow ) P
 184:../../core/ST/Middlewares/Third_Party/FreeRTOS/Source/timers.c **** 
 185:../../core/ST/Middlewares/Third_Party/FreeRTOS/Source/timers.c **** /*
 186:../../core/ST/Middlewares/Third_Party/FreeRTOS/Source/timers.c ****  * The tick count has overflowed.  Switch the timer lists after ensuring the
 187:../../core/ST/Middlewares/Third_Party/FreeRTOS/Source/timers.c ****  * current timer list does not still reference some timers.
 188:../../core/ST/Middlewares/Third_Party/FreeRTOS/Source/timers.c ****  */
 189:../../core/ST/Middlewares/Third_Party/FreeRTOS/Source/timers.c **** static void prvSwitchTimerLists( void ) PRIVILEGED_FUNCTION;
 190:../../core/ST/Middlewares/Third_Party/FreeRTOS/Source/timers.c **** 
 191:../../core/ST/Middlewares/Third_Party/FreeRTOS/Source/timers.c **** /*
 192:../../core/ST/Middlewares/Third_Party/FreeRTOS/Source/timers.c ****  * Obtain the current tick count, setting *pxTimerListsWereSwitched to pdTRUE
 193:../../core/ST/Middlewares/Third_Party/FreeRTOS/Source/timers.c ****  * if a tick count overflow occurred since prvSampleTimeNow() was last called.
 194:../../core/ST/Middlewares/Third_Party/FreeRTOS/Source/timers.c ****  */
 195:../../core/ST/Middlewares/Third_Party/FreeRTOS/Source/timers.c **** static TickType_t prvSampleTimeNow( BaseType_t * const pxTimerListsWereSwitched ) PRIVILEGED_FUNCTI
 196:../../core/ST/Middlewares/Third_Party/FreeRTOS/Source/timers.c **** 
 197:../../core/ST/Middlewares/Third_Party/FreeRTOS/Source/timers.c **** /*
 198:../../core/ST/Middlewares/Third_Party/FreeRTOS/Source/timers.c ****  * If the timer list contains any active timers then return the expire time of
 199:../../core/ST/Middlewares/Third_Party/FreeRTOS/Source/timers.c ****  * the timer that will expire first and set *pxListWasEmpty to false.  If the
 200:../../core/ST/Middlewares/Third_Party/FreeRTOS/Source/timers.c ****  * timer list does not contain any timers then return 0 and set *pxListWasEmpty
 201:../../core/ST/Middlewares/Third_Party/FreeRTOS/Source/timers.c ****  * to pdTRUE.
ARM GAS  C:\Users\yvesk\AppData\Local\Temp\ccsb6O8c.s 			page 5


 202:../../core/ST/Middlewares/Third_Party/FreeRTOS/Source/timers.c ****  */
 203:../../core/ST/Middlewares/Third_Party/FreeRTOS/Source/timers.c **** static TickType_t prvGetNextExpireTime( BaseType_t * const pxListWasEmpty ) PRIVILEGED_FUNCTION;
 204:../../core/ST/Middlewares/Third_Party/FreeRTOS/Source/timers.c **** 
 205:../../core/ST/Middlewares/Third_Party/FreeRTOS/Source/timers.c **** /*
 206:../../core/ST/Middlewares/Third_Party/FreeRTOS/Source/timers.c ****  * If a timer has expired, process it.  Otherwise, block the timer service task
 207:../../core/ST/Middlewares/Third_Party/FreeRTOS/Source/timers.c ****  * until either a timer does expire or a command is received.
 208:../../core/ST/Middlewares/Third_Party/FreeRTOS/Source/timers.c ****  */
 209:../../core/ST/Middlewares/Third_Party/FreeRTOS/Source/timers.c **** static void prvProcessTimerOrBlockTask( const TickType_t xNextExpireTime, BaseType_t xListWasEmpty 
 210:../../core/ST/Middlewares/Third_Party/FreeRTOS/Source/timers.c **** 
 211:../../core/ST/Middlewares/Third_Party/FreeRTOS/Source/timers.c **** /*
 212:../../core/ST/Middlewares/Third_Party/FreeRTOS/Source/timers.c ****  * Called after a Timer_t structure has been allocated either statically or
 213:../../core/ST/Middlewares/Third_Party/FreeRTOS/Source/timers.c ****  * dynamically to fill in the structure's members.
 214:../../core/ST/Middlewares/Third_Party/FreeRTOS/Source/timers.c ****  */
 215:../../core/ST/Middlewares/Third_Party/FreeRTOS/Source/timers.c **** static void prvInitialiseNewTimer(	const char * const pcTimerName,			/*lint !e971 Unqualified char 
 216:../../core/ST/Middlewares/Third_Party/FreeRTOS/Source/timers.c **** 									const TickType_t xTimerPeriodInTicks,
 217:../../core/ST/Middlewares/Third_Party/FreeRTOS/Source/timers.c **** 									const UBaseType_t uxAutoReload,
 218:../../core/ST/Middlewares/Third_Party/FreeRTOS/Source/timers.c **** 									void * const pvTimerID,
 219:../../core/ST/Middlewares/Third_Party/FreeRTOS/Source/timers.c **** 									TimerCallbackFunction_t pxCallbackFunction,
 220:../../core/ST/Middlewares/Third_Party/FreeRTOS/Source/timers.c **** 									Timer_t *pxNewTimer ) PRIVILEGED_FUNCTION;
 221:../../core/ST/Middlewares/Third_Party/FreeRTOS/Source/timers.c **** /*-----------------------------------------------------------*/
 222:../../core/ST/Middlewares/Third_Party/FreeRTOS/Source/timers.c **** 
 223:../../core/ST/Middlewares/Third_Party/FreeRTOS/Source/timers.c **** BaseType_t xTimerCreateTimerTask( void )
 224:../../core/ST/Middlewares/Third_Party/FreeRTOS/Source/timers.c **** {
 225:../../core/ST/Middlewares/Third_Party/FreeRTOS/Source/timers.c **** BaseType_t xReturn = pdFAIL;
 226:../../core/ST/Middlewares/Third_Party/FreeRTOS/Source/timers.c **** 
 227:../../core/ST/Middlewares/Third_Party/FreeRTOS/Source/timers.c **** 	/* This function is called when the scheduler is started if
 228:../../core/ST/Middlewares/Third_Party/FreeRTOS/Source/timers.c **** 	configUSE_TIMERS is set to 1.  Check that the infrastructure used by the
 229:../../core/ST/Middlewares/Third_Party/FreeRTOS/Source/timers.c **** 	timer service task has been created/initialised.  If timers have already
 230:../../core/ST/Middlewares/Third_Party/FreeRTOS/Source/timers.c **** 	been created then the initialisation will already have been performed. */
 231:../../core/ST/Middlewares/Third_Party/FreeRTOS/Source/timers.c **** 	prvCheckForValidListAndQueue();
 232:../../core/ST/Middlewares/Third_Party/FreeRTOS/Source/timers.c **** 
 233:../../core/ST/Middlewares/Third_Party/FreeRTOS/Source/timers.c **** 	if( xTimerQueue != NULL )
 234:../../core/ST/Middlewares/Third_Party/FreeRTOS/Source/timers.c **** 	{
 235:../../core/ST/Middlewares/Third_Party/FreeRTOS/Source/timers.c **** 		#if( configSUPPORT_STATIC_ALLOCATION == 1 )
 236:../../core/ST/Middlewares/Third_Party/FreeRTOS/Source/timers.c **** 		{
 237:../../core/ST/Middlewares/Third_Party/FreeRTOS/Source/timers.c **** 			StaticTask_t *pxTimerTaskTCBBuffer = NULL;
 238:../../core/ST/Middlewares/Third_Party/FreeRTOS/Source/timers.c **** 			StackType_t *pxTimerTaskStackBuffer = NULL;
 239:../../core/ST/Middlewares/Third_Party/FreeRTOS/Source/timers.c **** 			uint32_t ulTimerTaskStackSize;
 240:../../core/ST/Middlewares/Third_Party/FreeRTOS/Source/timers.c **** 
 241:../../core/ST/Middlewares/Third_Party/FreeRTOS/Source/timers.c **** 			vApplicationGetTimerTaskMemory( &pxTimerTaskTCBBuffer, &pxTimerTaskStackBuffer, &ulTimerTaskStac
 242:../../core/ST/Middlewares/Third_Party/FreeRTOS/Source/timers.c **** 			xTimerTaskHandle = xTaskCreateStatic(	prvTimerTask,
 243:../../core/ST/Middlewares/Third_Party/FreeRTOS/Source/timers.c **** 													configTIMER_SERVICE_TASK_NAME,
 244:../../core/ST/Middlewares/Third_Party/FreeRTOS/Source/timers.c **** 													ulTimerTaskStackSize,
 245:../../core/ST/Middlewares/Third_Party/FreeRTOS/Source/timers.c **** 													NULL,
 246:../../core/ST/Middlewares/Third_Party/FreeRTOS/Source/timers.c **** 													( ( UBaseType_t ) configTIMER_TASK_PRIORITY ) | portPRIVILEGE_BIT,
 247:../../core/ST/Middlewares/Third_Party/FreeRTOS/Source/timers.c **** 													pxTimerTaskStackBuffer,
 248:../../core/ST/Middlewares/Third_Party/FreeRTOS/Source/timers.c **** 													pxTimerTaskTCBBuffer );
 249:../../core/ST/Middlewares/Third_Party/FreeRTOS/Source/timers.c **** 
 250:../../core/ST/Middlewares/Third_Party/FreeRTOS/Source/timers.c **** 			if( xTimerTaskHandle != NULL )
 251:../../core/ST/Middlewares/Third_Party/FreeRTOS/Source/timers.c **** 			{
 252:../../core/ST/Middlewares/Third_Party/FreeRTOS/Source/timers.c **** 				xReturn = pdPASS;
 253:../../core/ST/Middlewares/Third_Party/FreeRTOS/Source/timers.c **** 			}
 254:../../core/ST/Middlewares/Third_Party/FreeRTOS/Source/timers.c **** 		}
 255:../../core/ST/Middlewares/Third_Party/FreeRTOS/Source/timers.c **** 		#else
 256:../../core/ST/Middlewares/Third_Party/FreeRTOS/Source/timers.c **** 		{
 257:../../core/ST/Middlewares/Third_Party/FreeRTOS/Source/timers.c **** 			xReturn = xTaskCreate(	prvTimerTask,
 258:../../core/ST/Middlewares/Third_Party/FreeRTOS/Source/timers.c **** 									configTIMER_SERVICE_TASK_NAME,
ARM GAS  C:\Users\yvesk\AppData\Local\Temp\ccsb6O8c.s 			page 6


 259:../../core/ST/Middlewares/Third_Party/FreeRTOS/Source/timers.c **** 									configTIMER_TASK_STACK_DEPTH,
 260:../../core/ST/Middlewares/Third_Party/FreeRTOS/Source/timers.c **** 									NULL,
 261:../../core/ST/Middlewares/Third_Party/FreeRTOS/Source/timers.c **** 									( ( UBaseType_t ) configTIMER_TASK_PRIORITY ) | portPRIVILEGE_BIT,
 262:../../core/ST/Middlewares/Third_Party/FreeRTOS/Source/timers.c **** 									&xTimerTaskHandle );
 263:../../core/ST/Middlewares/Third_Party/FreeRTOS/Source/timers.c **** 		}
 264:../../core/ST/Middlewares/Third_Party/FreeRTOS/Source/timers.c **** 		#endif /* configSUPPORT_STATIC_ALLOCATION */
 265:../../core/ST/Middlewares/Third_Party/FreeRTOS/Source/timers.c **** 	}
 266:../../core/ST/Middlewares/Third_Party/FreeRTOS/Source/timers.c **** 	else
 267:../../core/ST/Middlewares/Third_Party/FreeRTOS/Source/timers.c **** 	{
 268:../../core/ST/Middlewares/Third_Party/FreeRTOS/Source/timers.c **** 		mtCOVERAGE_TEST_MARKER();
 269:../../core/ST/Middlewares/Third_Party/FreeRTOS/Source/timers.c **** 	}
 270:../../core/ST/Middlewares/Third_Party/FreeRTOS/Source/timers.c **** 
 271:../../core/ST/Middlewares/Third_Party/FreeRTOS/Source/timers.c **** 	configASSERT( xReturn );
 272:../../core/ST/Middlewares/Third_Party/FreeRTOS/Source/timers.c **** 	return xReturn;
 273:../../core/ST/Middlewares/Third_Party/FreeRTOS/Source/timers.c **** }
 274:../../core/ST/Middlewares/Third_Party/FreeRTOS/Source/timers.c **** /*-----------------------------------------------------------*/
 275:../../core/ST/Middlewares/Third_Party/FreeRTOS/Source/timers.c **** 
 276:../../core/ST/Middlewares/Third_Party/FreeRTOS/Source/timers.c **** #if( configSUPPORT_DYNAMIC_ALLOCATION == 1 )
 277:../../core/ST/Middlewares/Third_Party/FreeRTOS/Source/timers.c **** 
 278:../../core/ST/Middlewares/Third_Party/FreeRTOS/Source/timers.c **** 	TimerHandle_t xTimerCreate(	const char * const pcTimerName,			/*lint !e971 Unqualified char types 
 279:../../core/ST/Middlewares/Third_Party/FreeRTOS/Source/timers.c **** 								const TickType_t xTimerPeriodInTicks,
 280:../../core/ST/Middlewares/Third_Party/FreeRTOS/Source/timers.c **** 								const UBaseType_t uxAutoReload,
 281:../../core/ST/Middlewares/Third_Party/FreeRTOS/Source/timers.c **** 								void * const pvTimerID,
 282:../../core/ST/Middlewares/Third_Party/FreeRTOS/Source/timers.c **** 								TimerCallbackFunction_t pxCallbackFunction )
 283:../../core/ST/Middlewares/Third_Party/FreeRTOS/Source/timers.c **** 	{
 284:../../core/ST/Middlewares/Third_Party/FreeRTOS/Source/timers.c **** 	Timer_t *pxNewTimer;
 285:../../core/ST/Middlewares/Third_Party/FreeRTOS/Source/timers.c **** 
 286:../../core/ST/Middlewares/Third_Party/FreeRTOS/Source/timers.c **** 		pxNewTimer = ( Timer_t * ) pvPortMalloc( sizeof( Timer_t ) );
 287:../../core/ST/Middlewares/Third_Party/FreeRTOS/Source/timers.c **** 
 288:../../core/ST/Middlewares/Third_Party/FreeRTOS/Source/timers.c **** 		if( pxNewTimer != NULL )
 289:../../core/ST/Middlewares/Third_Party/FreeRTOS/Source/timers.c **** 		{
 290:../../core/ST/Middlewares/Third_Party/FreeRTOS/Source/timers.c **** 			prvInitialiseNewTimer( pcTimerName, xTimerPeriodInTicks, uxAutoReload, pvTimerID, pxCallbackFunc
 291:../../core/ST/Middlewares/Third_Party/FreeRTOS/Source/timers.c **** 
 292:../../core/ST/Middlewares/Third_Party/FreeRTOS/Source/timers.c **** 			#if( configSUPPORT_STATIC_ALLOCATION == 1 )
 293:../../core/ST/Middlewares/Third_Party/FreeRTOS/Source/timers.c **** 			{
 294:../../core/ST/Middlewares/Third_Party/FreeRTOS/Source/timers.c **** 				/* Timers can be created statically or dynamically, so note this
 295:../../core/ST/Middlewares/Third_Party/FreeRTOS/Source/timers.c **** 				timer was created dynamically in case the timer is later
 296:../../core/ST/Middlewares/Third_Party/FreeRTOS/Source/timers.c **** 				deleted. */
 297:../../core/ST/Middlewares/Third_Party/FreeRTOS/Source/timers.c **** 				pxNewTimer->ucStaticallyAllocated = pdFALSE;
 298:../../core/ST/Middlewares/Third_Party/FreeRTOS/Source/timers.c **** 			}
 299:../../core/ST/Middlewares/Third_Party/FreeRTOS/Source/timers.c **** 			#endif /* configSUPPORT_STATIC_ALLOCATION */
 300:../../core/ST/Middlewares/Third_Party/FreeRTOS/Source/timers.c **** 		}
 301:../../core/ST/Middlewares/Third_Party/FreeRTOS/Source/timers.c **** 
 302:../../core/ST/Middlewares/Third_Party/FreeRTOS/Source/timers.c **** 		return pxNewTimer;
 303:../../core/ST/Middlewares/Third_Party/FreeRTOS/Source/timers.c **** 	}
 304:../../core/ST/Middlewares/Third_Party/FreeRTOS/Source/timers.c **** 
 305:../../core/ST/Middlewares/Third_Party/FreeRTOS/Source/timers.c **** #endif /* configSUPPORT_STATIC_ALLOCATION */
 306:../../core/ST/Middlewares/Third_Party/FreeRTOS/Source/timers.c **** /*-----------------------------------------------------------*/
 307:../../core/ST/Middlewares/Third_Party/FreeRTOS/Source/timers.c **** 
 308:../../core/ST/Middlewares/Third_Party/FreeRTOS/Source/timers.c **** #if( configSUPPORT_STATIC_ALLOCATION == 1 )
 309:../../core/ST/Middlewares/Third_Party/FreeRTOS/Source/timers.c **** 
 310:../../core/ST/Middlewares/Third_Party/FreeRTOS/Source/timers.c **** 	TimerHandle_t xTimerCreateStatic(	const char * const pcTimerName,		/*lint !e971 Unqualified char t
 311:../../core/ST/Middlewares/Third_Party/FreeRTOS/Source/timers.c **** 										const TickType_t xTimerPeriodInTicks,
 312:../../core/ST/Middlewares/Third_Party/FreeRTOS/Source/timers.c **** 										const UBaseType_t uxAutoReload,
 313:../../core/ST/Middlewares/Third_Party/FreeRTOS/Source/timers.c **** 										void * const pvTimerID,
 314:../../core/ST/Middlewares/Third_Party/FreeRTOS/Source/timers.c **** 										TimerCallbackFunction_t pxCallbackFunction,
 315:../../core/ST/Middlewares/Third_Party/FreeRTOS/Source/timers.c **** 										StaticTimer_t *pxTimerBuffer )
ARM GAS  C:\Users\yvesk\AppData\Local\Temp\ccsb6O8c.s 			page 7


 316:../../core/ST/Middlewares/Third_Party/FreeRTOS/Source/timers.c **** 	{
 317:../../core/ST/Middlewares/Third_Party/FreeRTOS/Source/timers.c **** 	Timer_t *pxNewTimer;
 318:../../core/ST/Middlewares/Third_Party/FreeRTOS/Source/timers.c **** 
 319:../../core/ST/Middlewares/Third_Party/FreeRTOS/Source/timers.c **** 		#if( configASSERT_DEFINED == 1 )
 320:../../core/ST/Middlewares/Third_Party/FreeRTOS/Source/timers.c **** 		{
 321:../../core/ST/Middlewares/Third_Party/FreeRTOS/Source/timers.c **** 			/* Sanity check that the size of the structure used to declare a
 322:../../core/ST/Middlewares/Third_Party/FreeRTOS/Source/timers.c **** 			variable of type StaticTimer_t equals the size of the real timer
 323:../../core/ST/Middlewares/Third_Party/FreeRTOS/Source/timers.c **** 			structure. */
 324:../../core/ST/Middlewares/Third_Party/FreeRTOS/Source/timers.c **** 			volatile size_t xSize = sizeof( StaticTimer_t );
 325:../../core/ST/Middlewares/Third_Party/FreeRTOS/Source/timers.c **** 			configASSERT( xSize == sizeof( Timer_t ) );
 326:../../core/ST/Middlewares/Third_Party/FreeRTOS/Source/timers.c **** 		}
 327:../../core/ST/Middlewares/Third_Party/FreeRTOS/Source/timers.c **** 		#endif /* configASSERT_DEFINED */
 328:../../core/ST/Middlewares/Third_Party/FreeRTOS/Source/timers.c **** 
 329:../../core/ST/Middlewares/Third_Party/FreeRTOS/Source/timers.c **** 		/* A pointer to a StaticTimer_t structure MUST be provided, use it. */
 330:../../core/ST/Middlewares/Third_Party/FreeRTOS/Source/timers.c **** 		configASSERT( pxTimerBuffer );
 331:../../core/ST/Middlewares/Third_Party/FreeRTOS/Source/timers.c **** 		pxNewTimer = ( Timer_t * ) pxTimerBuffer; /*lint !e740 Unusual cast is ok as the structures are d
 332:../../core/ST/Middlewares/Third_Party/FreeRTOS/Source/timers.c **** 
 333:../../core/ST/Middlewares/Third_Party/FreeRTOS/Source/timers.c **** 		if( pxNewTimer != NULL )
 334:../../core/ST/Middlewares/Third_Party/FreeRTOS/Source/timers.c **** 		{
 335:../../core/ST/Middlewares/Third_Party/FreeRTOS/Source/timers.c **** 			prvInitialiseNewTimer( pcTimerName, xTimerPeriodInTicks, uxAutoReload, pvTimerID, pxCallbackFunc
 336:../../core/ST/Middlewares/Third_Party/FreeRTOS/Source/timers.c **** 
 337:../../core/ST/Middlewares/Third_Party/FreeRTOS/Source/timers.c **** 			#if( configSUPPORT_DYNAMIC_ALLOCATION == 1 )
 338:../../core/ST/Middlewares/Third_Party/FreeRTOS/Source/timers.c **** 			{
 339:../../core/ST/Middlewares/Third_Party/FreeRTOS/Source/timers.c **** 				/* Timers can be created statically or dynamically so note this
 340:../../core/ST/Middlewares/Third_Party/FreeRTOS/Source/timers.c **** 				timer was created statically in case it is later deleted. */
 341:../../core/ST/Middlewares/Third_Party/FreeRTOS/Source/timers.c **** 				pxNewTimer->ucStaticallyAllocated = pdTRUE;
 342:../../core/ST/Middlewares/Third_Party/FreeRTOS/Source/timers.c **** 			}
 343:../../core/ST/Middlewares/Third_Party/FreeRTOS/Source/timers.c **** 			#endif /* configSUPPORT_DYNAMIC_ALLOCATION */
 344:../../core/ST/Middlewares/Third_Party/FreeRTOS/Source/timers.c **** 		}
 345:../../core/ST/Middlewares/Third_Party/FreeRTOS/Source/timers.c **** 
 346:../../core/ST/Middlewares/Third_Party/FreeRTOS/Source/timers.c **** 		return pxNewTimer;
 347:../../core/ST/Middlewares/Third_Party/FreeRTOS/Source/timers.c **** 	}
 348:../../core/ST/Middlewares/Third_Party/FreeRTOS/Source/timers.c **** 
 349:../../core/ST/Middlewares/Third_Party/FreeRTOS/Source/timers.c **** #endif /* configSUPPORT_STATIC_ALLOCATION */
 350:../../core/ST/Middlewares/Third_Party/FreeRTOS/Source/timers.c **** /*-----------------------------------------------------------*/
 351:../../core/ST/Middlewares/Third_Party/FreeRTOS/Source/timers.c **** 
 352:../../core/ST/Middlewares/Third_Party/FreeRTOS/Source/timers.c **** static void prvInitialiseNewTimer(	const char * const pcTimerName,			/*lint !e971 Unqualified char 
 353:../../core/ST/Middlewares/Third_Party/FreeRTOS/Source/timers.c **** 									const TickType_t xTimerPeriodInTicks,
 354:../../core/ST/Middlewares/Third_Party/FreeRTOS/Source/timers.c **** 									const UBaseType_t uxAutoReload,
 355:../../core/ST/Middlewares/Third_Party/FreeRTOS/Source/timers.c **** 									void * const pvTimerID,
 356:../../core/ST/Middlewares/Third_Party/FreeRTOS/Source/timers.c **** 									TimerCallbackFunction_t pxCallbackFunction,
 357:../../core/ST/Middlewares/Third_Party/FreeRTOS/Source/timers.c **** 									Timer_t *pxNewTimer )
 358:../../core/ST/Middlewares/Third_Party/FreeRTOS/Source/timers.c **** {
 359:../../core/ST/Middlewares/Third_Party/FreeRTOS/Source/timers.c **** 	/* 0 is not a valid value for xTimerPeriodInTicks. */
 360:../../core/ST/Middlewares/Third_Party/FreeRTOS/Source/timers.c **** 	configASSERT( ( xTimerPeriodInTicks > 0 ) );
 361:../../core/ST/Middlewares/Third_Party/FreeRTOS/Source/timers.c **** 
 362:../../core/ST/Middlewares/Third_Party/FreeRTOS/Source/timers.c **** 	if( pxNewTimer != NULL )
 363:../../core/ST/Middlewares/Third_Party/FreeRTOS/Source/timers.c **** 	{
 364:../../core/ST/Middlewares/Third_Party/FreeRTOS/Source/timers.c **** 		/* Ensure the infrastructure used by the timer service task has been
 365:../../core/ST/Middlewares/Third_Party/FreeRTOS/Source/timers.c **** 		created/initialised. */
 366:../../core/ST/Middlewares/Third_Party/FreeRTOS/Source/timers.c **** 		prvCheckForValidListAndQueue();
 367:../../core/ST/Middlewares/Third_Party/FreeRTOS/Source/timers.c **** 
 368:../../core/ST/Middlewares/Third_Party/FreeRTOS/Source/timers.c **** 		/* Initialise the timer structure members using the function
 369:../../core/ST/Middlewares/Third_Party/FreeRTOS/Source/timers.c **** 		parameters. */
 370:../../core/ST/Middlewares/Third_Party/FreeRTOS/Source/timers.c **** 		pxNewTimer->pcTimerName = pcTimerName;
 371:../../core/ST/Middlewares/Third_Party/FreeRTOS/Source/timers.c **** 		pxNewTimer->xTimerPeriodInTicks = xTimerPeriodInTicks;
 372:../../core/ST/Middlewares/Third_Party/FreeRTOS/Source/timers.c **** 		pxNewTimer->uxAutoReload = uxAutoReload;
ARM GAS  C:\Users\yvesk\AppData\Local\Temp\ccsb6O8c.s 			page 8


 373:../../core/ST/Middlewares/Third_Party/FreeRTOS/Source/timers.c **** 		pxNewTimer->pvTimerID = pvTimerID;
 374:../../core/ST/Middlewares/Third_Party/FreeRTOS/Source/timers.c **** 		pxNewTimer->pxCallbackFunction = pxCallbackFunction;
 375:../../core/ST/Middlewares/Third_Party/FreeRTOS/Source/timers.c **** 		vListInitialiseItem( &( pxNewTimer->xTimerListItem ) );
 376:../../core/ST/Middlewares/Third_Party/FreeRTOS/Source/timers.c **** 		traceTIMER_CREATE( pxNewTimer );
 377:../../core/ST/Middlewares/Third_Party/FreeRTOS/Source/timers.c **** 	}
 378:../../core/ST/Middlewares/Third_Party/FreeRTOS/Source/timers.c **** }
 379:../../core/ST/Middlewares/Third_Party/FreeRTOS/Source/timers.c **** /*-----------------------------------------------------------*/
 380:../../core/ST/Middlewares/Third_Party/FreeRTOS/Source/timers.c **** 
 381:../../core/ST/Middlewares/Third_Party/FreeRTOS/Source/timers.c **** BaseType_t xTimerGenericCommand( TimerHandle_t xTimer, const BaseType_t xCommandID, const TickType_
 382:../../core/ST/Middlewares/Third_Party/FreeRTOS/Source/timers.c **** {
 383:../../core/ST/Middlewares/Third_Party/FreeRTOS/Source/timers.c **** BaseType_t xReturn = pdFAIL;
 384:../../core/ST/Middlewares/Third_Party/FreeRTOS/Source/timers.c **** DaemonTaskMessage_t xMessage;
 385:../../core/ST/Middlewares/Third_Party/FreeRTOS/Source/timers.c **** 
 386:../../core/ST/Middlewares/Third_Party/FreeRTOS/Source/timers.c **** 	configASSERT( xTimer );
 387:../../core/ST/Middlewares/Third_Party/FreeRTOS/Source/timers.c **** 
 388:../../core/ST/Middlewares/Third_Party/FreeRTOS/Source/timers.c **** 	/* Send a message to the timer service task to perform a particular action
 389:../../core/ST/Middlewares/Third_Party/FreeRTOS/Source/timers.c **** 	on a particular timer definition. */
 390:../../core/ST/Middlewares/Third_Party/FreeRTOS/Source/timers.c **** 	if( xTimerQueue != NULL )
 391:../../core/ST/Middlewares/Third_Party/FreeRTOS/Source/timers.c **** 	{
 392:../../core/ST/Middlewares/Third_Party/FreeRTOS/Source/timers.c **** 		/* Send a command to the timer service task to start the xTimer timer. */
 393:../../core/ST/Middlewares/Third_Party/FreeRTOS/Source/timers.c **** 		xMessage.xMessageID = xCommandID;
 394:../../core/ST/Middlewares/Third_Party/FreeRTOS/Source/timers.c **** 		xMessage.u.xTimerParameters.xMessageValue = xOptionalValue;
 395:../../core/ST/Middlewares/Third_Party/FreeRTOS/Source/timers.c **** 		xMessage.u.xTimerParameters.pxTimer = ( Timer_t * ) xTimer;
 396:../../core/ST/Middlewares/Third_Party/FreeRTOS/Source/timers.c **** 
 397:../../core/ST/Middlewares/Third_Party/FreeRTOS/Source/timers.c **** 		if( xCommandID < tmrFIRST_FROM_ISR_COMMAND )
 398:../../core/ST/Middlewares/Third_Party/FreeRTOS/Source/timers.c **** 		{
 399:../../core/ST/Middlewares/Third_Party/FreeRTOS/Source/timers.c **** 			if( xTaskGetSchedulerState() == taskSCHEDULER_RUNNING )
 400:../../core/ST/Middlewares/Third_Party/FreeRTOS/Source/timers.c **** 			{
 401:../../core/ST/Middlewares/Third_Party/FreeRTOS/Source/timers.c **** 				xReturn = xQueueSendToBack( xTimerQueue, &xMessage, xTicksToWait );
 402:../../core/ST/Middlewares/Third_Party/FreeRTOS/Source/timers.c **** 			}
 403:../../core/ST/Middlewares/Third_Party/FreeRTOS/Source/timers.c **** 			else
 404:../../core/ST/Middlewares/Third_Party/FreeRTOS/Source/timers.c **** 			{
 405:../../core/ST/Middlewares/Third_Party/FreeRTOS/Source/timers.c **** 				xReturn = xQueueSendToBack( xTimerQueue, &xMessage, tmrNO_DELAY );
 406:../../core/ST/Middlewares/Third_Party/FreeRTOS/Source/timers.c **** 			}
 407:../../core/ST/Middlewares/Third_Party/FreeRTOS/Source/timers.c **** 		}
 408:../../core/ST/Middlewares/Third_Party/FreeRTOS/Source/timers.c **** 		else
 409:../../core/ST/Middlewares/Third_Party/FreeRTOS/Source/timers.c **** 		{
 410:../../core/ST/Middlewares/Third_Party/FreeRTOS/Source/timers.c **** 			xReturn = xQueueSendToBackFromISR( xTimerQueue, &xMessage, pxHigherPriorityTaskWoken );
 411:../../core/ST/Middlewares/Third_Party/FreeRTOS/Source/timers.c **** 		}
 412:../../core/ST/Middlewares/Third_Party/FreeRTOS/Source/timers.c **** 
 413:../../core/ST/Middlewares/Third_Party/FreeRTOS/Source/timers.c **** 		traceTIMER_COMMAND_SEND( xTimer, xCommandID, xOptionalValue, xReturn );
 414:../../core/ST/Middlewares/Third_Party/FreeRTOS/Source/timers.c **** 	}
 415:../../core/ST/Middlewares/Third_Party/FreeRTOS/Source/timers.c **** 	else
 416:../../core/ST/Middlewares/Third_Party/FreeRTOS/Source/timers.c **** 	{
 417:../../core/ST/Middlewares/Third_Party/FreeRTOS/Source/timers.c **** 		mtCOVERAGE_TEST_MARKER();
 418:../../core/ST/Middlewares/Third_Party/FreeRTOS/Source/timers.c **** 	}
 419:../../core/ST/Middlewares/Third_Party/FreeRTOS/Source/timers.c **** 
 420:../../core/ST/Middlewares/Third_Party/FreeRTOS/Source/timers.c **** 	return xReturn;
 421:../../core/ST/Middlewares/Third_Party/FreeRTOS/Source/timers.c **** }
 422:../../core/ST/Middlewares/Third_Party/FreeRTOS/Source/timers.c **** /*-----------------------------------------------------------*/
 423:../../core/ST/Middlewares/Third_Party/FreeRTOS/Source/timers.c **** 
 424:../../core/ST/Middlewares/Third_Party/FreeRTOS/Source/timers.c **** TaskHandle_t xTimerGetTimerDaemonTaskHandle( void )
 425:../../core/ST/Middlewares/Third_Party/FreeRTOS/Source/timers.c **** {
 426:../../core/ST/Middlewares/Third_Party/FreeRTOS/Source/timers.c **** 	/* If xTimerGetTimerDaemonTaskHandle() is called before the scheduler has been
 427:../../core/ST/Middlewares/Third_Party/FreeRTOS/Source/timers.c **** 	started, then xTimerTaskHandle will be NULL. */
 428:../../core/ST/Middlewares/Third_Party/FreeRTOS/Source/timers.c **** 	configASSERT( ( xTimerTaskHandle != NULL ) );
 429:../../core/ST/Middlewares/Third_Party/FreeRTOS/Source/timers.c **** 	return xTimerTaskHandle;
ARM GAS  C:\Users\yvesk\AppData\Local\Temp\ccsb6O8c.s 			page 9


 430:../../core/ST/Middlewares/Third_Party/FreeRTOS/Source/timers.c **** }
 431:../../core/ST/Middlewares/Third_Party/FreeRTOS/Source/timers.c **** /*-----------------------------------------------------------*/
 432:../../core/ST/Middlewares/Third_Party/FreeRTOS/Source/timers.c **** 
 433:../../core/ST/Middlewares/Third_Party/FreeRTOS/Source/timers.c **** TickType_t xTimerGetPeriod( TimerHandle_t xTimer )
 434:../../core/ST/Middlewares/Third_Party/FreeRTOS/Source/timers.c **** {
 435:../../core/ST/Middlewares/Third_Party/FreeRTOS/Source/timers.c **** Timer_t *pxTimer = ( Timer_t * ) xTimer;
 436:../../core/ST/Middlewares/Third_Party/FreeRTOS/Source/timers.c **** 
 437:../../core/ST/Middlewares/Third_Party/FreeRTOS/Source/timers.c **** 	configASSERT( xTimer );
 438:../../core/ST/Middlewares/Third_Party/FreeRTOS/Source/timers.c **** 	return pxTimer->xTimerPeriodInTicks;
 439:../../core/ST/Middlewares/Third_Party/FreeRTOS/Source/timers.c **** }
 440:../../core/ST/Middlewares/Third_Party/FreeRTOS/Source/timers.c **** /*-----------------------------------------------------------*/
 441:../../core/ST/Middlewares/Third_Party/FreeRTOS/Source/timers.c **** 
 442:../../core/ST/Middlewares/Third_Party/FreeRTOS/Source/timers.c **** TickType_t xTimerGetExpiryTime( TimerHandle_t xTimer )
 443:../../core/ST/Middlewares/Third_Party/FreeRTOS/Source/timers.c **** {
 444:../../core/ST/Middlewares/Third_Party/FreeRTOS/Source/timers.c **** Timer_t * pxTimer = ( Timer_t * ) xTimer;
 445:../../core/ST/Middlewares/Third_Party/FreeRTOS/Source/timers.c **** TickType_t xReturn;
 446:../../core/ST/Middlewares/Third_Party/FreeRTOS/Source/timers.c **** 
 447:../../core/ST/Middlewares/Third_Party/FreeRTOS/Source/timers.c **** 	configASSERT( xTimer );
 448:../../core/ST/Middlewares/Third_Party/FreeRTOS/Source/timers.c **** 	xReturn = listGET_LIST_ITEM_VALUE( &( pxTimer->xTimerListItem ) );
 449:../../core/ST/Middlewares/Third_Party/FreeRTOS/Source/timers.c **** 	return xReturn;
 450:../../core/ST/Middlewares/Third_Party/FreeRTOS/Source/timers.c **** }
 451:../../core/ST/Middlewares/Third_Party/FreeRTOS/Source/timers.c **** /*-----------------------------------------------------------*/
 452:../../core/ST/Middlewares/Third_Party/FreeRTOS/Source/timers.c **** 
 453:../../core/ST/Middlewares/Third_Party/FreeRTOS/Source/timers.c **** const char * pcTimerGetName( TimerHandle_t xTimer ) /*lint !e971 Unqualified char types are allowed
 454:../../core/ST/Middlewares/Third_Party/FreeRTOS/Source/timers.c **** {
 455:../../core/ST/Middlewares/Third_Party/FreeRTOS/Source/timers.c **** Timer_t *pxTimer = ( Timer_t * ) xTimer;
 456:../../core/ST/Middlewares/Third_Party/FreeRTOS/Source/timers.c **** 
 457:../../core/ST/Middlewares/Third_Party/FreeRTOS/Source/timers.c **** 	configASSERT( xTimer );
 458:../../core/ST/Middlewares/Third_Party/FreeRTOS/Source/timers.c **** 	return pxTimer->pcTimerName;
 459:../../core/ST/Middlewares/Third_Party/FreeRTOS/Source/timers.c **** }
 460:../../core/ST/Middlewares/Third_Party/FreeRTOS/Source/timers.c **** /*-----------------------------------------------------------*/
 461:../../core/ST/Middlewares/Third_Party/FreeRTOS/Source/timers.c **** 
 462:../../core/ST/Middlewares/Third_Party/FreeRTOS/Source/timers.c **** static void prvProcessExpiredTimer( const TickType_t xNextExpireTime, const TickType_t xTimeNow )
 463:../../core/ST/Middlewares/Third_Party/FreeRTOS/Source/timers.c **** {
 464:../../core/ST/Middlewares/Third_Party/FreeRTOS/Source/timers.c **** BaseType_t xResult;
 465:../../core/ST/Middlewares/Third_Party/FreeRTOS/Source/timers.c **** Timer_t * const pxTimer = ( Timer_t * ) listGET_OWNER_OF_HEAD_ENTRY( pxCurrentTimerList );
 466:../../core/ST/Middlewares/Third_Party/FreeRTOS/Source/timers.c **** 
 467:../../core/ST/Middlewares/Third_Party/FreeRTOS/Source/timers.c **** 	/* Remove the timer from the list of active timers.  A check has already
 468:../../core/ST/Middlewares/Third_Party/FreeRTOS/Source/timers.c **** 	been performed to ensure the list is not empty. */
 469:../../core/ST/Middlewares/Third_Party/FreeRTOS/Source/timers.c **** 	( void ) uxListRemove( &( pxTimer->xTimerListItem ) );
 470:../../core/ST/Middlewares/Third_Party/FreeRTOS/Source/timers.c **** 	traceTIMER_EXPIRED( pxTimer );
 471:../../core/ST/Middlewares/Third_Party/FreeRTOS/Source/timers.c **** 
 472:../../core/ST/Middlewares/Third_Party/FreeRTOS/Source/timers.c **** 	/* If the timer is an auto reload timer then calculate the next
 473:../../core/ST/Middlewares/Third_Party/FreeRTOS/Source/timers.c **** 	expiry time and re-insert the timer in the list of active timers. */
 474:../../core/ST/Middlewares/Third_Party/FreeRTOS/Source/timers.c **** 	if( pxTimer->uxAutoReload == ( UBaseType_t ) pdTRUE )
 475:../../core/ST/Middlewares/Third_Party/FreeRTOS/Source/timers.c **** 	{
 476:../../core/ST/Middlewares/Third_Party/FreeRTOS/Source/timers.c **** 		/* The timer is inserted into a list using a time relative to anything
 477:../../core/ST/Middlewares/Third_Party/FreeRTOS/Source/timers.c **** 		other than the current time.  It will therefore be inserted into the
 478:../../core/ST/Middlewares/Third_Party/FreeRTOS/Source/timers.c **** 		correct list relative to the time this task thinks it is now. */
 479:../../core/ST/Middlewares/Third_Party/FreeRTOS/Source/timers.c **** 		if( prvInsertTimerInActiveList( pxTimer, ( xNextExpireTime + pxTimer->xTimerPeriodInTicks ), xTim
 480:../../core/ST/Middlewares/Third_Party/FreeRTOS/Source/timers.c **** 		{
 481:../../core/ST/Middlewares/Third_Party/FreeRTOS/Source/timers.c **** 			/* The timer expired before it was added to the active timer
 482:../../core/ST/Middlewares/Third_Party/FreeRTOS/Source/timers.c **** 			list.  Reload it now.  */
 483:../../core/ST/Middlewares/Third_Party/FreeRTOS/Source/timers.c **** 			xResult = xTimerGenericCommand( pxTimer, tmrCOMMAND_START_DONT_TRACE, xNextExpireTime, NULL, tmr
 484:../../core/ST/Middlewares/Third_Party/FreeRTOS/Source/timers.c **** 			configASSERT( xResult );
 485:../../core/ST/Middlewares/Third_Party/FreeRTOS/Source/timers.c **** 			( void ) xResult;
 486:../../core/ST/Middlewares/Third_Party/FreeRTOS/Source/timers.c **** 		}
ARM GAS  C:\Users\yvesk\AppData\Local\Temp\ccsb6O8c.s 			page 10


 487:../../core/ST/Middlewares/Third_Party/FreeRTOS/Source/timers.c **** 		else
 488:../../core/ST/Middlewares/Third_Party/FreeRTOS/Source/timers.c **** 		{
 489:../../core/ST/Middlewares/Third_Party/FreeRTOS/Source/timers.c **** 			mtCOVERAGE_TEST_MARKER();
 490:../../core/ST/Middlewares/Third_Party/FreeRTOS/Source/timers.c **** 		}
 491:../../core/ST/Middlewares/Third_Party/FreeRTOS/Source/timers.c **** 	}
 492:../../core/ST/Middlewares/Third_Party/FreeRTOS/Source/timers.c **** 	else
 493:../../core/ST/Middlewares/Third_Party/FreeRTOS/Source/timers.c **** 	{
 494:../../core/ST/Middlewares/Third_Party/FreeRTOS/Source/timers.c **** 		mtCOVERAGE_TEST_MARKER();
 495:../../core/ST/Middlewares/Third_Party/FreeRTOS/Source/timers.c **** 	}
 496:../../core/ST/Middlewares/Third_Party/FreeRTOS/Source/timers.c **** 
 497:../../core/ST/Middlewares/Third_Party/FreeRTOS/Source/timers.c **** 	/* Call the timer callback. */
 498:../../core/ST/Middlewares/Third_Party/FreeRTOS/Source/timers.c **** 	pxTimer->pxCallbackFunction( ( TimerHandle_t ) pxTimer );
 499:../../core/ST/Middlewares/Third_Party/FreeRTOS/Source/timers.c **** }
 500:../../core/ST/Middlewares/Third_Party/FreeRTOS/Source/timers.c **** /*-----------------------------------------------------------*/
 501:../../core/ST/Middlewares/Third_Party/FreeRTOS/Source/timers.c **** 
 502:../../core/ST/Middlewares/Third_Party/FreeRTOS/Source/timers.c **** static void prvTimerTask( void *pvParameters )
 503:../../core/ST/Middlewares/Third_Party/FreeRTOS/Source/timers.c **** {
 504:../../core/ST/Middlewares/Third_Party/FreeRTOS/Source/timers.c **** TickType_t xNextExpireTime;
 505:../../core/ST/Middlewares/Third_Party/FreeRTOS/Source/timers.c **** BaseType_t xListWasEmpty;
 506:../../core/ST/Middlewares/Third_Party/FreeRTOS/Source/timers.c **** 
 507:../../core/ST/Middlewares/Third_Party/FreeRTOS/Source/timers.c **** 	/* Just to avoid compiler warnings. */
 508:../../core/ST/Middlewares/Third_Party/FreeRTOS/Source/timers.c **** 	( void ) pvParameters;
 509:../../core/ST/Middlewares/Third_Party/FreeRTOS/Source/timers.c **** 
 510:../../core/ST/Middlewares/Third_Party/FreeRTOS/Source/timers.c **** 	#if( configUSE_DAEMON_TASK_STARTUP_HOOK == 1 )
 511:../../core/ST/Middlewares/Third_Party/FreeRTOS/Source/timers.c **** 	{
 512:../../core/ST/Middlewares/Third_Party/FreeRTOS/Source/timers.c **** 		extern void vApplicationDaemonTaskStartupHook( void );
 513:../../core/ST/Middlewares/Third_Party/FreeRTOS/Source/timers.c **** 
 514:../../core/ST/Middlewares/Third_Party/FreeRTOS/Source/timers.c **** 		/* Allow the application writer to execute some code in the context of
 515:../../core/ST/Middlewares/Third_Party/FreeRTOS/Source/timers.c **** 		this task at the point the task starts executing.  This is useful if the
 516:../../core/ST/Middlewares/Third_Party/FreeRTOS/Source/timers.c **** 		application includes initialisation code that would benefit from
 517:../../core/ST/Middlewares/Third_Party/FreeRTOS/Source/timers.c **** 		executing after the scheduler has been started. */
 518:../../core/ST/Middlewares/Third_Party/FreeRTOS/Source/timers.c **** 		vApplicationDaemonTaskStartupHook();
 519:../../core/ST/Middlewares/Third_Party/FreeRTOS/Source/timers.c **** 	}
 520:../../core/ST/Middlewares/Third_Party/FreeRTOS/Source/timers.c **** 	#endif /* configUSE_DAEMON_TASK_STARTUP_HOOK */
 521:../../core/ST/Middlewares/Third_Party/FreeRTOS/Source/timers.c **** 
 522:../../core/ST/Middlewares/Third_Party/FreeRTOS/Source/timers.c **** 	for( ;; )
 523:../../core/ST/Middlewares/Third_Party/FreeRTOS/Source/timers.c **** 	{
 524:../../core/ST/Middlewares/Third_Party/FreeRTOS/Source/timers.c **** 		/* Query the timers list to see if it contains any timers, and if so,
 525:../../core/ST/Middlewares/Third_Party/FreeRTOS/Source/timers.c **** 		obtain the time at which the next timer will expire. */
 526:../../core/ST/Middlewares/Third_Party/FreeRTOS/Source/timers.c **** 		xNextExpireTime = prvGetNextExpireTime( &xListWasEmpty );
 527:../../core/ST/Middlewares/Third_Party/FreeRTOS/Source/timers.c **** 
 528:../../core/ST/Middlewares/Third_Party/FreeRTOS/Source/timers.c **** 		/* If a timer has expired, process it.  Otherwise, block this task
 529:../../core/ST/Middlewares/Third_Party/FreeRTOS/Source/timers.c **** 		until either a timer does expire, or a command is received. */
 530:../../core/ST/Middlewares/Third_Party/FreeRTOS/Source/timers.c **** 		prvProcessTimerOrBlockTask( xNextExpireTime, xListWasEmpty );
 531:../../core/ST/Middlewares/Third_Party/FreeRTOS/Source/timers.c **** 
 532:../../core/ST/Middlewares/Third_Party/FreeRTOS/Source/timers.c **** 		/* Empty the command queue. */
 533:../../core/ST/Middlewares/Third_Party/FreeRTOS/Source/timers.c **** 		prvProcessReceivedCommands();
 534:../../core/ST/Middlewares/Third_Party/FreeRTOS/Source/timers.c **** 	}
 535:../../core/ST/Middlewares/Third_Party/FreeRTOS/Source/timers.c **** }
 536:../../core/ST/Middlewares/Third_Party/FreeRTOS/Source/timers.c **** /*-----------------------------------------------------------*/
 537:../../core/ST/Middlewares/Third_Party/FreeRTOS/Source/timers.c **** 
 538:../../core/ST/Middlewares/Third_Party/FreeRTOS/Source/timers.c **** static void prvProcessTimerOrBlockTask( const TickType_t xNextExpireTime, BaseType_t xListWasEmpty 
 539:../../core/ST/Middlewares/Third_Party/FreeRTOS/Source/timers.c **** {
 540:../../core/ST/Middlewares/Third_Party/FreeRTOS/Source/timers.c **** TickType_t xTimeNow;
 541:../../core/ST/Middlewares/Third_Party/FreeRTOS/Source/timers.c **** BaseType_t xTimerListsWereSwitched;
 542:../../core/ST/Middlewares/Third_Party/FreeRTOS/Source/timers.c **** 
 543:../../core/ST/Middlewares/Third_Party/FreeRTOS/Source/timers.c **** 	vTaskSuspendAll();
ARM GAS  C:\Users\yvesk\AppData\Local\Temp\ccsb6O8c.s 			page 11


 544:../../core/ST/Middlewares/Third_Party/FreeRTOS/Source/timers.c **** 	{
 545:../../core/ST/Middlewares/Third_Party/FreeRTOS/Source/timers.c **** 		/* Obtain the time now to make an assessment as to whether the timer
 546:../../core/ST/Middlewares/Third_Party/FreeRTOS/Source/timers.c **** 		has expired or not.  If obtaining the time causes the lists to switch
 547:../../core/ST/Middlewares/Third_Party/FreeRTOS/Source/timers.c **** 		then don't process this timer as any timers that remained in the list
 548:../../core/ST/Middlewares/Third_Party/FreeRTOS/Source/timers.c **** 		when the lists were switched will have been processed within the
 549:../../core/ST/Middlewares/Third_Party/FreeRTOS/Source/timers.c **** 		prvSampleTimeNow() function. */
 550:../../core/ST/Middlewares/Third_Party/FreeRTOS/Source/timers.c **** 		xTimeNow = prvSampleTimeNow( &xTimerListsWereSwitched );
 551:../../core/ST/Middlewares/Third_Party/FreeRTOS/Source/timers.c **** 		if( xTimerListsWereSwitched == pdFALSE )
 552:../../core/ST/Middlewares/Third_Party/FreeRTOS/Source/timers.c **** 		{
 553:../../core/ST/Middlewares/Third_Party/FreeRTOS/Source/timers.c **** 			/* The tick count has not overflowed, has the timer expired? */
 554:../../core/ST/Middlewares/Third_Party/FreeRTOS/Source/timers.c **** 			if( ( xListWasEmpty == pdFALSE ) && ( xNextExpireTime <= xTimeNow ) )
 555:../../core/ST/Middlewares/Third_Party/FreeRTOS/Source/timers.c **** 			{
 556:../../core/ST/Middlewares/Third_Party/FreeRTOS/Source/timers.c **** 				( void ) xTaskResumeAll();
 557:../../core/ST/Middlewares/Third_Party/FreeRTOS/Source/timers.c **** 				prvProcessExpiredTimer( xNextExpireTime, xTimeNow );
 558:../../core/ST/Middlewares/Third_Party/FreeRTOS/Source/timers.c **** 			}
 559:../../core/ST/Middlewares/Third_Party/FreeRTOS/Source/timers.c **** 			else
 560:../../core/ST/Middlewares/Third_Party/FreeRTOS/Source/timers.c **** 			{
 561:../../core/ST/Middlewares/Third_Party/FreeRTOS/Source/timers.c **** 				/* The tick count has not overflowed, and the next expire
 562:../../core/ST/Middlewares/Third_Party/FreeRTOS/Source/timers.c **** 				time has not been reached yet.  This task should therefore
 563:../../core/ST/Middlewares/Third_Party/FreeRTOS/Source/timers.c **** 				block to wait for the next expire time or a command to be
 564:../../core/ST/Middlewares/Third_Party/FreeRTOS/Source/timers.c **** 				received - whichever comes first.  The following line cannot
 565:../../core/ST/Middlewares/Third_Party/FreeRTOS/Source/timers.c **** 				be reached unless xNextExpireTime > xTimeNow, except in the
 566:../../core/ST/Middlewares/Third_Party/FreeRTOS/Source/timers.c **** 				case when the current timer list is empty. */
 567:../../core/ST/Middlewares/Third_Party/FreeRTOS/Source/timers.c **** 				if( xListWasEmpty != pdFALSE )
 568:../../core/ST/Middlewares/Third_Party/FreeRTOS/Source/timers.c **** 				{
 569:../../core/ST/Middlewares/Third_Party/FreeRTOS/Source/timers.c **** 					/* The current timer list is empty - is the overflow list
 570:../../core/ST/Middlewares/Third_Party/FreeRTOS/Source/timers.c **** 					also empty? */
 571:../../core/ST/Middlewares/Third_Party/FreeRTOS/Source/timers.c **** 					xListWasEmpty = listLIST_IS_EMPTY( pxOverflowTimerList );
 572:../../core/ST/Middlewares/Third_Party/FreeRTOS/Source/timers.c **** 				}
 573:../../core/ST/Middlewares/Third_Party/FreeRTOS/Source/timers.c **** 
 574:../../core/ST/Middlewares/Third_Party/FreeRTOS/Source/timers.c **** 				vQueueWaitForMessageRestricted( xTimerQueue, ( xNextExpireTime - xTimeNow ), xListWasEmpty );
 575:../../core/ST/Middlewares/Third_Party/FreeRTOS/Source/timers.c **** 
 576:../../core/ST/Middlewares/Third_Party/FreeRTOS/Source/timers.c **** 				if( xTaskResumeAll() == pdFALSE )
 577:../../core/ST/Middlewares/Third_Party/FreeRTOS/Source/timers.c **** 				{
 578:../../core/ST/Middlewares/Third_Party/FreeRTOS/Source/timers.c **** 					/* Yield to wait for either a command to arrive, or the
 579:../../core/ST/Middlewares/Third_Party/FreeRTOS/Source/timers.c **** 					block time to expire.  If a command arrived between the
 580:../../core/ST/Middlewares/Third_Party/FreeRTOS/Source/timers.c **** 					critical section being exited and this yield then the yield
 581:../../core/ST/Middlewares/Third_Party/FreeRTOS/Source/timers.c **** 					will not cause the task to block. */
 582:../../core/ST/Middlewares/Third_Party/FreeRTOS/Source/timers.c **** 					portYIELD_WITHIN_API();
 583:../../core/ST/Middlewares/Third_Party/FreeRTOS/Source/timers.c **** 				}
 584:../../core/ST/Middlewares/Third_Party/FreeRTOS/Source/timers.c **** 				else
 585:../../core/ST/Middlewares/Third_Party/FreeRTOS/Source/timers.c **** 				{
 586:../../core/ST/Middlewares/Third_Party/FreeRTOS/Source/timers.c **** 					mtCOVERAGE_TEST_MARKER();
 587:../../core/ST/Middlewares/Third_Party/FreeRTOS/Source/timers.c **** 				}
 588:../../core/ST/Middlewares/Third_Party/FreeRTOS/Source/timers.c **** 			}
 589:../../core/ST/Middlewares/Third_Party/FreeRTOS/Source/timers.c **** 		}
 590:../../core/ST/Middlewares/Third_Party/FreeRTOS/Source/timers.c **** 		else
 591:../../core/ST/Middlewares/Third_Party/FreeRTOS/Source/timers.c **** 		{
 592:../../core/ST/Middlewares/Third_Party/FreeRTOS/Source/timers.c **** 			( void ) xTaskResumeAll();
 593:../../core/ST/Middlewares/Third_Party/FreeRTOS/Source/timers.c **** 		}
 594:../../core/ST/Middlewares/Third_Party/FreeRTOS/Source/timers.c **** 	}
 595:../../core/ST/Middlewares/Third_Party/FreeRTOS/Source/timers.c **** }
 596:../../core/ST/Middlewares/Third_Party/FreeRTOS/Source/timers.c **** /*-----------------------------------------------------------*/
 597:../../core/ST/Middlewares/Third_Party/FreeRTOS/Source/timers.c **** 
 598:../../core/ST/Middlewares/Third_Party/FreeRTOS/Source/timers.c **** static TickType_t prvGetNextExpireTime( BaseType_t * const pxListWasEmpty )
 599:../../core/ST/Middlewares/Third_Party/FreeRTOS/Source/timers.c **** {
  29              		.loc 1 599 1 view -0
ARM GAS  C:\Users\yvesk\AppData\Local\Temp\ccsb6O8c.s 			page 12


  30              		.cfi_startproc
  31              		@ args = 0, pretend = 0, frame = 0
  32              		@ frame_needed = 0, uses_anonymous_args = 0
  33              		@ link register save eliminated.
 600:../../core/ST/Middlewares/Third_Party/FreeRTOS/Source/timers.c **** TickType_t xNextExpireTime;
  34              		.loc 1 600 1 view .LVU1
 601:../../core/ST/Middlewares/Third_Party/FreeRTOS/Source/timers.c **** 
 602:../../core/ST/Middlewares/Third_Party/FreeRTOS/Source/timers.c **** 	/* Timers are listed in expiry time order, with the head of the list
 603:../../core/ST/Middlewares/Third_Party/FreeRTOS/Source/timers.c **** 	referencing the task that will expire first.  Obtain the time at which
 604:../../core/ST/Middlewares/Third_Party/FreeRTOS/Source/timers.c **** 	the timer with the nearest expiry time will expire.  If there are no
 605:../../core/ST/Middlewares/Third_Party/FreeRTOS/Source/timers.c **** 	active timers then just set the next expire time to 0.  That will cause
 606:../../core/ST/Middlewares/Third_Party/FreeRTOS/Source/timers.c **** 	this task to unblock when the tick count overflows, at which point the
 607:../../core/ST/Middlewares/Third_Party/FreeRTOS/Source/timers.c **** 	timer lists will be switched and the next expiry time can be
 608:../../core/ST/Middlewares/Third_Party/FreeRTOS/Source/timers.c **** 	re-assessed.  */
 609:../../core/ST/Middlewares/Third_Party/FreeRTOS/Source/timers.c **** 	*pxListWasEmpty = listLIST_IS_EMPTY( pxCurrentTimerList );
  35              		.loc 1 609 2 view .LVU2
  36              		.loc 1 609 20 is_stmt 0 view .LVU3
  37 0000 064B     		ldr	r3, .L4
  38 0002 1A68     		ldr	r2, [r3]
  39 0004 1368     		ldr	r3, [r2]
  40 0006 B3FA83F3 		clz	r3, r3
  41 000a 5B09     		lsrs	r3, r3, #5
  42              		.loc 1 609 18 view .LVU4
  43 000c 0360     		str	r3, [r0]
 610:../../core/ST/Middlewares/Third_Party/FreeRTOS/Source/timers.c **** 	if( *pxListWasEmpty == pdFALSE )
  44              		.loc 1 610 2 is_stmt 1 view .LVU5
  45              		.loc 1 610 4 is_stmt 0 view .LVU6
  46 000e 13B9     		cbnz	r3, .L3
 611:../../core/ST/Middlewares/Third_Party/FreeRTOS/Source/timers.c **** 	{
 612:../../core/ST/Middlewares/Third_Party/FreeRTOS/Source/timers.c **** 		xNextExpireTime = listGET_ITEM_VALUE_OF_HEAD_ENTRY( pxCurrentTimerList );
  47              		.loc 1 612 3 is_stmt 1 view .LVU7
  48              		.loc 1 612 21 is_stmt 0 view .LVU8
  49 0010 D368     		ldr	r3, [r2, #12]
  50              		.loc 1 612 19 view .LVU9
  51 0012 1868     		ldr	r0, [r3]
  52              	.LVL1:
  53              		.loc 1 612 19 view .LVU10
  54 0014 7047     		bx	lr
  55              	.LVL2:
  56              	.L3:
 613:../../core/ST/Middlewares/Third_Party/FreeRTOS/Source/timers.c **** 	}
 614:../../core/ST/Middlewares/Third_Party/FreeRTOS/Source/timers.c **** 	else
 615:../../core/ST/Middlewares/Third_Party/FreeRTOS/Source/timers.c **** 	{
 616:../../core/ST/Middlewares/Third_Party/FreeRTOS/Source/timers.c **** 		/* Ensure the task unblocks when the tick count rolls over. */
 617:../../core/ST/Middlewares/Third_Party/FreeRTOS/Source/timers.c **** 		xNextExpireTime = ( TickType_t ) 0U;
  57              		.loc 1 617 19 view .LVU11
  58 0016 0020     		movs	r0, #0
  59              	.LVL3:
 618:../../core/ST/Middlewares/Third_Party/FreeRTOS/Source/timers.c **** 	}
 619:../../core/ST/Middlewares/Third_Party/FreeRTOS/Source/timers.c **** 
 620:../../core/ST/Middlewares/Third_Party/FreeRTOS/Source/timers.c **** 	return xNextExpireTime;
  60              		.loc 1 620 2 is_stmt 1 view .LVU12
 621:../../core/ST/Middlewares/Third_Party/FreeRTOS/Source/timers.c **** }
  61              		.loc 1 621 1 is_stmt 0 view .LVU13
  62 0018 7047     		bx	lr
  63              	.L5:
  64 001a 00BF     		.align	2
ARM GAS  C:\Users\yvesk\AppData\Local\Temp\ccsb6O8c.s 			page 13


  65              	.L4:
  66 001c 00000000 		.word	.LANCHOR0
  67              		.cfi_endproc
  68              	.LFE16:
  70              		.section	.text.prvInsertTimerInActiveList,"ax",%progbits
  71              		.align	1
  72              		.syntax unified
  73              		.thumb
  74              		.thumb_func
  75              		.fpu fpv4-sp-d16
  77              	prvInsertTimerInActiveList:
  78              	.LVL4:
  79              	.LFB18:
 622:../../core/ST/Middlewares/Third_Party/FreeRTOS/Source/timers.c **** /*-----------------------------------------------------------*/
 623:../../core/ST/Middlewares/Third_Party/FreeRTOS/Source/timers.c **** 
 624:../../core/ST/Middlewares/Third_Party/FreeRTOS/Source/timers.c **** static TickType_t prvSampleTimeNow( BaseType_t * const pxTimerListsWereSwitched )
 625:../../core/ST/Middlewares/Third_Party/FreeRTOS/Source/timers.c **** {
 626:../../core/ST/Middlewares/Third_Party/FreeRTOS/Source/timers.c **** TickType_t xTimeNow;
 627:../../core/ST/Middlewares/Third_Party/FreeRTOS/Source/timers.c **** PRIVILEGED_DATA static TickType_t xLastTime = ( TickType_t ) 0U; /*lint !e956 Variable is only acce
 628:../../core/ST/Middlewares/Third_Party/FreeRTOS/Source/timers.c **** 
 629:../../core/ST/Middlewares/Third_Party/FreeRTOS/Source/timers.c **** 	xTimeNow = xTaskGetTickCount();
 630:../../core/ST/Middlewares/Third_Party/FreeRTOS/Source/timers.c **** 
 631:../../core/ST/Middlewares/Third_Party/FreeRTOS/Source/timers.c **** 	if( xTimeNow < xLastTime )
 632:../../core/ST/Middlewares/Third_Party/FreeRTOS/Source/timers.c **** 	{
 633:../../core/ST/Middlewares/Third_Party/FreeRTOS/Source/timers.c **** 		prvSwitchTimerLists();
 634:../../core/ST/Middlewares/Third_Party/FreeRTOS/Source/timers.c **** 		*pxTimerListsWereSwitched = pdTRUE;
 635:../../core/ST/Middlewares/Third_Party/FreeRTOS/Source/timers.c **** 	}
 636:../../core/ST/Middlewares/Third_Party/FreeRTOS/Source/timers.c **** 	else
 637:../../core/ST/Middlewares/Third_Party/FreeRTOS/Source/timers.c **** 	{
 638:../../core/ST/Middlewares/Third_Party/FreeRTOS/Source/timers.c **** 		*pxTimerListsWereSwitched = pdFALSE;
 639:../../core/ST/Middlewares/Third_Party/FreeRTOS/Source/timers.c **** 	}
 640:../../core/ST/Middlewares/Third_Party/FreeRTOS/Source/timers.c **** 
 641:../../core/ST/Middlewares/Third_Party/FreeRTOS/Source/timers.c **** 	xLastTime = xTimeNow;
 642:../../core/ST/Middlewares/Third_Party/FreeRTOS/Source/timers.c **** 
 643:../../core/ST/Middlewares/Third_Party/FreeRTOS/Source/timers.c **** 	return xTimeNow;
 644:../../core/ST/Middlewares/Third_Party/FreeRTOS/Source/timers.c **** }
 645:../../core/ST/Middlewares/Third_Party/FreeRTOS/Source/timers.c **** /*-----------------------------------------------------------*/
 646:../../core/ST/Middlewares/Third_Party/FreeRTOS/Source/timers.c **** 
 647:../../core/ST/Middlewares/Third_Party/FreeRTOS/Source/timers.c **** static BaseType_t prvInsertTimerInActiveList( Timer_t * const pxTimer, const TickType_t xNextExpiry
 648:../../core/ST/Middlewares/Third_Party/FreeRTOS/Source/timers.c **** {
  80              		.loc 1 648 1 is_stmt 1 view -0
  81              		.cfi_startproc
  82              		@ args = 0, pretend = 0, frame = 0
  83              		@ frame_needed = 0, uses_anonymous_args = 0
  84              		.loc 1 648 1 is_stmt 0 view .LVU15
  85 0000 08B5     		push	{r3, lr}
  86              	.LCFI0:
  87              		.cfi_def_cfa_offset 8
  88              		.cfi_offset 3, -8
  89              		.cfi_offset 14, -4
 649:../../core/ST/Middlewares/Third_Party/FreeRTOS/Source/timers.c **** BaseType_t xProcessTimerNow = pdFALSE;
  90              		.loc 1 649 1 is_stmt 1 view .LVU16
  91              	.LVL5:
 650:../../core/ST/Middlewares/Third_Party/FreeRTOS/Source/timers.c **** 
 651:../../core/ST/Middlewares/Third_Party/FreeRTOS/Source/timers.c **** 	listSET_LIST_ITEM_VALUE( &( pxTimer->xTimerListItem ), xNextExpiryTime );
  92              		.loc 1 651 2 view .LVU17
  93 0002 4160     		str	r1, [r0, #4]
ARM GAS  C:\Users\yvesk\AppData\Local\Temp\ccsb6O8c.s 			page 14


 652:../../core/ST/Middlewares/Third_Party/FreeRTOS/Source/timers.c **** 	listSET_LIST_ITEM_OWNER( &( pxTimer->xTimerListItem ), pxTimer );
  94              		.loc 1 652 2 view .LVU18
  95 0004 0061     		str	r0, [r0, #16]
 653:../../core/ST/Middlewares/Third_Party/FreeRTOS/Source/timers.c **** 
 654:../../core/ST/Middlewares/Third_Party/FreeRTOS/Source/timers.c **** 	if( xNextExpiryTime <= xTimeNow )
  96              		.loc 1 654 2 view .LVU19
  97              		.loc 1 654 4 is_stmt 0 view .LVU20
  98 0006 9142     		cmp	r1, r2
  99 0008 0CD8     		bhi	.L7
 655:../../core/ST/Middlewares/Third_Party/FreeRTOS/Source/timers.c **** 	{
 656:../../core/ST/Middlewares/Third_Party/FreeRTOS/Source/timers.c **** 		/* Has the expiry time elapsed between the command to start/reset a
 657:../../core/ST/Middlewares/Third_Party/FreeRTOS/Source/timers.c **** 		timer was issued, and the time the command was processed? */
 658:../../core/ST/Middlewares/Third_Party/FreeRTOS/Source/timers.c **** 		if( ( ( TickType_t ) ( xTimeNow - xCommandTime ) ) >= pxTimer->xTimerPeriodInTicks ) /*lint !e961
 100              		.loc 1 658 3 is_stmt 1 view .LVU21
 101              		.loc 1 658 9 is_stmt 0 view .LVU22
 102 000a D21A     		subs	r2, r2, r3
 103              	.LVL6:
 104              		.loc 1 658 64 view .LVU23
 105 000c 8369     		ldr	r3, [r0, #24]
 106              	.LVL7:
 107              		.loc 1 658 5 view .LVU24
 108 000e 9A42     		cmp	r2, r3
 109 0010 01D3     		bcc	.L13
 659:../../core/ST/Middlewares/Third_Party/FreeRTOS/Source/timers.c **** 		{
 660:../../core/ST/Middlewares/Third_Party/FreeRTOS/Source/timers.c **** 			/* The time between a command being issued and the command being
 661:../../core/ST/Middlewares/Third_Party/FreeRTOS/Source/timers.c **** 			processed actually exceeds the timers period.  */
 662:../../core/ST/Middlewares/Third_Party/FreeRTOS/Source/timers.c **** 			xProcessTimerNow = pdTRUE;
 110              		.loc 1 662 21 view .LVU25
 111 0012 0120     		movs	r0, #1
 112              	.LVL8:
 113              	.L6:
 663:../../core/ST/Middlewares/Third_Party/FreeRTOS/Source/timers.c **** 		}
 664:../../core/ST/Middlewares/Third_Party/FreeRTOS/Source/timers.c **** 		else
 665:../../core/ST/Middlewares/Third_Party/FreeRTOS/Source/timers.c **** 		{
 666:../../core/ST/Middlewares/Third_Party/FreeRTOS/Source/timers.c **** 			vListInsert( pxOverflowTimerList, &( pxTimer->xTimerListItem ) );
 667:../../core/ST/Middlewares/Third_Party/FreeRTOS/Source/timers.c **** 		}
 668:../../core/ST/Middlewares/Third_Party/FreeRTOS/Source/timers.c **** 	}
 669:../../core/ST/Middlewares/Third_Party/FreeRTOS/Source/timers.c **** 	else
 670:../../core/ST/Middlewares/Third_Party/FreeRTOS/Source/timers.c **** 	{
 671:../../core/ST/Middlewares/Third_Party/FreeRTOS/Source/timers.c **** 		if( ( xTimeNow < xCommandTime ) && ( xNextExpiryTime >= xCommandTime ) )
 672:../../core/ST/Middlewares/Third_Party/FreeRTOS/Source/timers.c **** 		{
 673:../../core/ST/Middlewares/Third_Party/FreeRTOS/Source/timers.c **** 			/* If, since the command was issued, the tick count has overflowed
 674:../../core/ST/Middlewares/Third_Party/FreeRTOS/Source/timers.c **** 			but the expiry time has not, then the timer must have already passed
 675:../../core/ST/Middlewares/Third_Party/FreeRTOS/Source/timers.c **** 			its expiry time and should be processed immediately. */
 676:../../core/ST/Middlewares/Third_Party/FreeRTOS/Source/timers.c **** 			xProcessTimerNow = pdTRUE;
 677:../../core/ST/Middlewares/Third_Party/FreeRTOS/Source/timers.c **** 		}
 678:../../core/ST/Middlewares/Third_Party/FreeRTOS/Source/timers.c **** 		else
 679:../../core/ST/Middlewares/Third_Party/FreeRTOS/Source/timers.c **** 		{
 680:../../core/ST/Middlewares/Third_Party/FreeRTOS/Source/timers.c **** 			vListInsert( pxCurrentTimerList, &( pxTimer->xTimerListItem ) );
 681:../../core/ST/Middlewares/Third_Party/FreeRTOS/Source/timers.c **** 		}
 682:../../core/ST/Middlewares/Third_Party/FreeRTOS/Source/timers.c **** 	}
 683:../../core/ST/Middlewares/Third_Party/FreeRTOS/Source/timers.c **** 
 684:../../core/ST/Middlewares/Third_Party/FreeRTOS/Source/timers.c **** 	return xProcessTimerNow;
 685:../../core/ST/Middlewares/Third_Party/FreeRTOS/Source/timers.c **** }
 114              		.loc 1 685 1 view .LVU26
 115 0014 08BD     		pop	{r3, pc}
 116              	.LVL9:
ARM GAS  C:\Users\yvesk\AppData\Local\Temp\ccsb6O8c.s 			page 15


 117              	.L13:
 666:../../core/ST/Middlewares/Third_Party/FreeRTOS/Source/timers.c **** 		}
 118              		.loc 1 666 4 is_stmt 1 view .LVU27
 119 0016 011D     		adds	r1, r0, #4
 120              	.LVL10:
 666:../../core/ST/Middlewares/Third_Party/FreeRTOS/Source/timers.c **** 		}
 121              		.loc 1 666 4 is_stmt 0 view .LVU28
 122 0018 094B     		ldr	r3, .L14
 123 001a 1868     		ldr	r0, [r3]
 124              	.LVL11:
 666:../../core/ST/Middlewares/Third_Party/FreeRTOS/Source/timers.c **** 		}
 125              		.loc 1 666 4 view .LVU29
 126 001c FFF7FEFF 		bl	vListInsert
 127              	.LVL12:
 649:../../core/ST/Middlewares/Third_Party/FreeRTOS/Source/timers.c **** 
 128              		.loc 1 649 12 view .LVU30
 129 0020 0020     		movs	r0, #0
 130 0022 F7E7     		b	.L6
 131              	.LVL13:
 132              	.L7:
 671:../../core/ST/Middlewares/Third_Party/FreeRTOS/Source/timers.c **** 		{
 133              		.loc 1 671 3 is_stmt 1 view .LVU31
 671:../../core/ST/Middlewares/Third_Party/FreeRTOS/Source/timers.c **** 		{
 134              		.loc 1 671 5 is_stmt 0 view .LVU32
 135 0024 9A42     		cmp	r2, r3
 136 0026 01D2     		bcs	.L9
 671:../../core/ST/Middlewares/Third_Party/FreeRTOS/Source/timers.c **** 		{
 137              		.loc 1 671 35 discriminator 1 view .LVU33
 138 0028 9942     		cmp	r1, r3
 139 002a 06D2     		bcs	.L11
 140              	.L9:
 680:../../core/ST/Middlewares/Third_Party/FreeRTOS/Source/timers.c **** 		}
 141              		.loc 1 680 4 is_stmt 1 view .LVU34
 142 002c 011D     		adds	r1, r0, #4
 143              	.LVL14:
 680:../../core/ST/Middlewares/Third_Party/FreeRTOS/Source/timers.c **** 		}
 144              		.loc 1 680 4 is_stmt 0 view .LVU35
 145 002e 054B     		ldr	r3, .L14+4
 146              	.LVL15:
 680:../../core/ST/Middlewares/Third_Party/FreeRTOS/Source/timers.c **** 		}
 147              		.loc 1 680 4 view .LVU36
 148 0030 1868     		ldr	r0, [r3]
 149              	.LVL16:
 680:../../core/ST/Middlewares/Third_Party/FreeRTOS/Source/timers.c **** 		}
 150              		.loc 1 680 4 view .LVU37
 151 0032 FFF7FEFF 		bl	vListInsert
 152              	.LVL17:
 649:../../core/ST/Middlewares/Third_Party/FreeRTOS/Source/timers.c **** 
 153              		.loc 1 649 12 view .LVU38
 154 0036 0020     		movs	r0, #0
 155 0038 ECE7     		b	.L6
 156              	.LVL18:
 157              	.L11:
 676:../../core/ST/Middlewares/Third_Party/FreeRTOS/Source/timers.c **** 		}
 158              		.loc 1 676 21 view .LVU39
 159 003a 0120     		movs	r0, #1
 160              	.LVL19:
ARM GAS  C:\Users\yvesk\AppData\Local\Temp\ccsb6O8c.s 			page 16


 684:../../core/ST/Middlewares/Third_Party/FreeRTOS/Source/timers.c **** }
 161              		.loc 1 684 2 is_stmt 1 view .LVU40
 684:../../core/ST/Middlewares/Third_Party/FreeRTOS/Source/timers.c **** }
 162              		.loc 1 684 9 is_stmt 0 view .LVU41
 163 003c EAE7     		b	.L6
 164              	.L15:
 165 003e 00BF     		.align	2
 166              	.L14:
 167 0040 00000000 		.word	.LANCHOR1
 168 0044 00000000 		.word	.LANCHOR0
 169              		.cfi_endproc
 170              	.LFE18:
 172              		.section	.text.prvCheckForValidListAndQueue,"ax",%progbits
 173              		.align	1
 174              		.syntax unified
 175              		.thumb
 176              		.thumb_func
 177              		.fpu fpv4-sp-d16
 179              	prvCheckForValidListAndQueue:
 180              	.LFB21:
 686:../../core/ST/Middlewares/Third_Party/FreeRTOS/Source/timers.c **** /*-----------------------------------------------------------*/
 687:../../core/ST/Middlewares/Third_Party/FreeRTOS/Source/timers.c **** 
 688:../../core/ST/Middlewares/Third_Party/FreeRTOS/Source/timers.c **** static void	prvProcessReceivedCommands( void )
 689:../../core/ST/Middlewares/Third_Party/FreeRTOS/Source/timers.c **** {
 690:../../core/ST/Middlewares/Third_Party/FreeRTOS/Source/timers.c **** DaemonTaskMessage_t xMessage;
 691:../../core/ST/Middlewares/Third_Party/FreeRTOS/Source/timers.c **** Timer_t *pxTimer;
 692:../../core/ST/Middlewares/Third_Party/FreeRTOS/Source/timers.c **** BaseType_t xTimerListsWereSwitched, xResult;
 693:../../core/ST/Middlewares/Third_Party/FreeRTOS/Source/timers.c **** TickType_t xTimeNow;
 694:../../core/ST/Middlewares/Third_Party/FreeRTOS/Source/timers.c **** 
 695:../../core/ST/Middlewares/Third_Party/FreeRTOS/Source/timers.c **** 	while( xQueueReceive( xTimerQueue, &xMessage, tmrNO_DELAY ) != pdFAIL ) /*lint !e603 xMessage does
 696:../../core/ST/Middlewares/Third_Party/FreeRTOS/Source/timers.c **** 	{
 697:../../core/ST/Middlewares/Third_Party/FreeRTOS/Source/timers.c **** 		#if ( INCLUDE_xTimerPendFunctionCall == 1 )
 698:../../core/ST/Middlewares/Third_Party/FreeRTOS/Source/timers.c **** 		{
 699:../../core/ST/Middlewares/Third_Party/FreeRTOS/Source/timers.c **** 			/* Negative commands are pended function calls rather than timer
 700:../../core/ST/Middlewares/Third_Party/FreeRTOS/Source/timers.c **** 			commands. */
 701:../../core/ST/Middlewares/Third_Party/FreeRTOS/Source/timers.c **** 			if( xMessage.xMessageID < ( BaseType_t ) 0 )
 702:../../core/ST/Middlewares/Third_Party/FreeRTOS/Source/timers.c **** 			{
 703:../../core/ST/Middlewares/Third_Party/FreeRTOS/Source/timers.c **** 				const CallbackParameters_t * const pxCallback = &( xMessage.u.xCallbackParameters );
 704:../../core/ST/Middlewares/Third_Party/FreeRTOS/Source/timers.c **** 
 705:../../core/ST/Middlewares/Third_Party/FreeRTOS/Source/timers.c **** 				/* The timer uses the xCallbackParameters member to request a
 706:../../core/ST/Middlewares/Third_Party/FreeRTOS/Source/timers.c **** 				callback be executed.  Check the callback is not NULL. */
 707:../../core/ST/Middlewares/Third_Party/FreeRTOS/Source/timers.c **** 				configASSERT( pxCallback );
 708:../../core/ST/Middlewares/Third_Party/FreeRTOS/Source/timers.c **** 
 709:../../core/ST/Middlewares/Third_Party/FreeRTOS/Source/timers.c **** 				/* Call the function. */
 710:../../core/ST/Middlewares/Third_Party/FreeRTOS/Source/timers.c **** 				pxCallback->pxCallbackFunction( pxCallback->pvParameter1, pxCallback->ulParameter2 );
 711:../../core/ST/Middlewares/Third_Party/FreeRTOS/Source/timers.c **** 			}
 712:../../core/ST/Middlewares/Third_Party/FreeRTOS/Source/timers.c **** 			else
 713:../../core/ST/Middlewares/Third_Party/FreeRTOS/Source/timers.c **** 			{
 714:../../core/ST/Middlewares/Third_Party/FreeRTOS/Source/timers.c **** 				mtCOVERAGE_TEST_MARKER();
 715:../../core/ST/Middlewares/Third_Party/FreeRTOS/Source/timers.c **** 			}
 716:../../core/ST/Middlewares/Third_Party/FreeRTOS/Source/timers.c **** 		}
 717:../../core/ST/Middlewares/Third_Party/FreeRTOS/Source/timers.c **** 		#endif /* INCLUDE_xTimerPendFunctionCall */
 718:../../core/ST/Middlewares/Third_Party/FreeRTOS/Source/timers.c **** 
 719:../../core/ST/Middlewares/Third_Party/FreeRTOS/Source/timers.c **** 		/* Commands that are positive are timer commands rather than pended
 720:../../core/ST/Middlewares/Third_Party/FreeRTOS/Source/timers.c **** 		function calls. */
 721:../../core/ST/Middlewares/Third_Party/FreeRTOS/Source/timers.c **** 		if( xMessage.xMessageID >= ( BaseType_t ) 0 )
 722:../../core/ST/Middlewares/Third_Party/FreeRTOS/Source/timers.c **** 		{
ARM GAS  C:\Users\yvesk\AppData\Local\Temp\ccsb6O8c.s 			page 17


 723:../../core/ST/Middlewares/Third_Party/FreeRTOS/Source/timers.c **** 			/* The messages uses the xTimerParameters member to work on a
 724:../../core/ST/Middlewares/Third_Party/FreeRTOS/Source/timers.c **** 			software timer. */
 725:../../core/ST/Middlewares/Third_Party/FreeRTOS/Source/timers.c **** 			pxTimer = xMessage.u.xTimerParameters.pxTimer;
 726:../../core/ST/Middlewares/Third_Party/FreeRTOS/Source/timers.c **** 
 727:../../core/ST/Middlewares/Third_Party/FreeRTOS/Source/timers.c **** 			if( listIS_CONTAINED_WITHIN( NULL, &( pxTimer->xTimerListItem ) ) == pdFALSE ) /*lint !e961. The
 728:../../core/ST/Middlewares/Third_Party/FreeRTOS/Source/timers.c **** 			{
 729:../../core/ST/Middlewares/Third_Party/FreeRTOS/Source/timers.c **** 				/* The timer is in a list, remove it. */
 730:../../core/ST/Middlewares/Third_Party/FreeRTOS/Source/timers.c **** 				( void ) uxListRemove( &( pxTimer->xTimerListItem ) );
 731:../../core/ST/Middlewares/Third_Party/FreeRTOS/Source/timers.c **** 			}
 732:../../core/ST/Middlewares/Third_Party/FreeRTOS/Source/timers.c **** 			else
 733:../../core/ST/Middlewares/Third_Party/FreeRTOS/Source/timers.c **** 			{
 734:../../core/ST/Middlewares/Third_Party/FreeRTOS/Source/timers.c **** 				mtCOVERAGE_TEST_MARKER();
 735:../../core/ST/Middlewares/Third_Party/FreeRTOS/Source/timers.c **** 			}
 736:../../core/ST/Middlewares/Third_Party/FreeRTOS/Source/timers.c **** 
 737:../../core/ST/Middlewares/Third_Party/FreeRTOS/Source/timers.c **** 			traceTIMER_COMMAND_RECEIVED( pxTimer, xMessage.xMessageID, xMessage.u.xTimerParameters.xMessageV
 738:../../core/ST/Middlewares/Third_Party/FreeRTOS/Source/timers.c **** 
 739:../../core/ST/Middlewares/Third_Party/FreeRTOS/Source/timers.c **** 			/* In this case the xTimerListsWereSwitched parameter is not used, but
 740:../../core/ST/Middlewares/Third_Party/FreeRTOS/Source/timers.c **** 			it must be present in the function call.  prvSampleTimeNow() must be
 741:../../core/ST/Middlewares/Third_Party/FreeRTOS/Source/timers.c **** 			called after the message is received from xTimerQueue so there is no
 742:../../core/ST/Middlewares/Third_Party/FreeRTOS/Source/timers.c **** 			possibility of a higher priority task adding a message to the message
 743:../../core/ST/Middlewares/Third_Party/FreeRTOS/Source/timers.c **** 			queue with a time that is ahead of the timer daemon task (because it
 744:../../core/ST/Middlewares/Third_Party/FreeRTOS/Source/timers.c **** 			pre-empted the timer daemon task after the xTimeNow value was set). */
 745:../../core/ST/Middlewares/Third_Party/FreeRTOS/Source/timers.c **** 			xTimeNow = prvSampleTimeNow( &xTimerListsWereSwitched );
 746:../../core/ST/Middlewares/Third_Party/FreeRTOS/Source/timers.c **** 
 747:../../core/ST/Middlewares/Third_Party/FreeRTOS/Source/timers.c **** 			switch( xMessage.xMessageID )
 748:../../core/ST/Middlewares/Third_Party/FreeRTOS/Source/timers.c **** 			{
 749:../../core/ST/Middlewares/Third_Party/FreeRTOS/Source/timers.c **** 				case tmrCOMMAND_START :
 750:../../core/ST/Middlewares/Third_Party/FreeRTOS/Source/timers.c **** 			    case tmrCOMMAND_START_FROM_ISR :
 751:../../core/ST/Middlewares/Third_Party/FreeRTOS/Source/timers.c **** 			    case tmrCOMMAND_RESET :
 752:../../core/ST/Middlewares/Third_Party/FreeRTOS/Source/timers.c **** 			    case tmrCOMMAND_RESET_FROM_ISR :
 753:../../core/ST/Middlewares/Third_Party/FreeRTOS/Source/timers.c **** 				case tmrCOMMAND_START_DONT_TRACE :
 754:../../core/ST/Middlewares/Third_Party/FreeRTOS/Source/timers.c **** 					/* Start or restart a timer. */
 755:../../core/ST/Middlewares/Third_Party/FreeRTOS/Source/timers.c **** 					if( prvInsertTimerInActiveList( pxTimer,  xMessage.u.xTimerParameters.xMessageValue + pxTimer-
 756:../../core/ST/Middlewares/Third_Party/FreeRTOS/Source/timers.c **** 					{
 757:../../core/ST/Middlewares/Third_Party/FreeRTOS/Source/timers.c **** 						/* The timer expired before it was added to the active
 758:../../core/ST/Middlewares/Third_Party/FreeRTOS/Source/timers.c **** 						timer list.  Process it now. */
 759:../../core/ST/Middlewares/Third_Party/FreeRTOS/Source/timers.c **** 						pxTimer->pxCallbackFunction( ( TimerHandle_t ) pxTimer );
 760:../../core/ST/Middlewares/Third_Party/FreeRTOS/Source/timers.c **** 						traceTIMER_EXPIRED( pxTimer );
 761:../../core/ST/Middlewares/Third_Party/FreeRTOS/Source/timers.c **** 
 762:../../core/ST/Middlewares/Third_Party/FreeRTOS/Source/timers.c **** 						if( pxTimer->uxAutoReload == ( UBaseType_t ) pdTRUE )
 763:../../core/ST/Middlewares/Third_Party/FreeRTOS/Source/timers.c **** 						{
 764:../../core/ST/Middlewares/Third_Party/FreeRTOS/Source/timers.c **** 							xResult = xTimerGenericCommand( pxTimer, tmrCOMMAND_START_DONT_TRACE, xMessage.u.xTimerParam
 765:../../core/ST/Middlewares/Third_Party/FreeRTOS/Source/timers.c **** 							configASSERT( xResult );
 766:../../core/ST/Middlewares/Third_Party/FreeRTOS/Source/timers.c **** 							( void ) xResult;
 767:../../core/ST/Middlewares/Third_Party/FreeRTOS/Source/timers.c **** 						}
 768:../../core/ST/Middlewares/Third_Party/FreeRTOS/Source/timers.c **** 						else
 769:../../core/ST/Middlewares/Third_Party/FreeRTOS/Source/timers.c **** 						{
 770:../../core/ST/Middlewares/Third_Party/FreeRTOS/Source/timers.c **** 							mtCOVERAGE_TEST_MARKER();
 771:../../core/ST/Middlewares/Third_Party/FreeRTOS/Source/timers.c **** 						}
 772:../../core/ST/Middlewares/Third_Party/FreeRTOS/Source/timers.c **** 					}
 773:../../core/ST/Middlewares/Third_Party/FreeRTOS/Source/timers.c **** 					else
 774:../../core/ST/Middlewares/Third_Party/FreeRTOS/Source/timers.c **** 					{
 775:../../core/ST/Middlewares/Third_Party/FreeRTOS/Source/timers.c **** 						mtCOVERAGE_TEST_MARKER();
 776:../../core/ST/Middlewares/Third_Party/FreeRTOS/Source/timers.c **** 					}
 777:../../core/ST/Middlewares/Third_Party/FreeRTOS/Source/timers.c **** 					break;
 778:../../core/ST/Middlewares/Third_Party/FreeRTOS/Source/timers.c **** 
 779:../../core/ST/Middlewares/Third_Party/FreeRTOS/Source/timers.c **** 				case tmrCOMMAND_STOP :
ARM GAS  C:\Users\yvesk\AppData\Local\Temp\ccsb6O8c.s 			page 18


 780:../../core/ST/Middlewares/Third_Party/FreeRTOS/Source/timers.c **** 				case tmrCOMMAND_STOP_FROM_ISR :
 781:../../core/ST/Middlewares/Third_Party/FreeRTOS/Source/timers.c **** 					/* The timer has already been removed from the active list.
 782:../../core/ST/Middlewares/Third_Party/FreeRTOS/Source/timers.c **** 					There is nothing to do here. */
 783:../../core/ST/Middlewares/Third_Party/FreeRTOS/Source/timers.c **** 					break;
 784:../../core/ST/Middlewares/Third_Party/FreeRTOS/Source/timers.c **** 
 785:../../core/ST/Middlewares/Third_Party/FreeRTOS/Source/timers.c **** 				case tmrCOMMAND_CHANGE_PERIOD :
 786:../../core/ST/Middlewares/Third_Party/FreeRTOS/Source/timers.c **** 				case tmrCOMMAND_CHANGE_PERIOD_FROM_ISR :
 787:../../core/ST/Middlewares/Third_Party/FreeRTOS/Source/timers.c **** 					pxTimer->xTimerPeriodInTicks = xMessage.u.xTimerParameters.xMessageValue;
 788:../../core/ST/Middlewares/Third_Party/FreeRTOS/Source/timers.c **** 					configASSERT( ( pxTimer->xTimerPeriodInTicks > 0 ) );
 789:../../core/ST/Middlewares/Third_Party/FreeRTOS/Source/timers.c **** 
 790:../../core/ST/Middlewares/Third_Party/FreeRTOS/Source/timers.c **** 					/* The new period does not really have a reference, and can
 791:../../core/ST/Middlewares/Third_Party/FreeRTOS/Source/timers.c **** 					be longer or shorter than the old one.  The command time is
 792:../../core/ST/Middlewares/Third_Party/FreeRTOS/Source/timers.c **** 					therefore set to the current time, and as the period cannot
 793:../../core/ST/Middlewares/Third_Party/FreeRTOS/Source/timers.c **** 					be zero the next expiry time can only be in the future,
 794:../../core/ST/Middlewares/Third_Party/FreeRTOS/Source/timers.c **** 					meaning (unlike for the xTimerStart() case above) there is
 795:../../core/ST/Middlewares/Third_Party/FreeRTOS/Source/timers.c **** 					no fail case that needs to be handled here. */
 796:../../core/ST/Middlewares/Third_Party/FreeRTOS/Source/timers.c **** 					( void ) prvInsertTimerInActiveList( pxTimer, ( xTimeNow + pxTimer->xTimerPeriodInTicks ), xTi
 797:../../core/ST/Middlewares/Third_Party/FreeRTOS/Source/timers.c **** 					break;
 798:../../core/ST/Middlewares/Third_Party/FreeRTOS/Source/timers.c **** 
 799:../../core/ST/Middlewares/Third_Party/FreeRTOS/Source/timers.c **** 				case tmrCOMMAND_DELETE :
 800:../../core/ST/Middlewares/Third_Party/FreeRTOS/Source/timers.c **** 					/* The timer has already been removed from the active list,
 801:../../core/ST/Middlewares/Third_Party/FreeRTOS/Source/timers.c **** 					just free up the memory if the memory was dynamically
 802:../../core/ST/Middlewares/Third_Party/FreeRTOS/Source/timers.c **** 					allocated. */
 803:../../core/ST/Middlewares/Third_Party/FreeRTOS/Source/timers.c **** 					#if( ( configSUPPORT_DYNAMIC_ALLOCATION == 1 ) && ( configSUPPORT_STATIC_ALLOCATION == 0 ) )
 804:../../core/ST/Middlewares/Third_Party/FreeRTOS/Source/timers.c **** 					{
 805:../../core/ST/Middlewares/Third_Party/FreeRTOS/Source/timers.c **** 						/* The timer can only have been allocated dynamically -
 806:../../core/ST/Middlewares/Third_Party/FreeRTOS/Source/timers.c **** 						free it again. */
 807:../../core/ST/Middlewares/Third_Party/FreeRTOS/Source/timers.c **** 						vPortFree( pxTimer );
 808:../../core/ST/Middlewares/Third_Party/FreeRTOS/Source/timers.c **** 					}
 809:../../core/ST/Middlewares/Third_Party/FreeRTOS/Source/timers.c **** 					#elif( ( configSUPPORT_DYNAMIC_ALLOCATION == 1 ) && ( configSUPPORT_STATIC_ALLOCATION == 1 ) )
 810:../../core/ST/Middlewares/Third_Party/FreeRTOS/Source/timers.c **** 					{
 811:../../core/ST/Middlewares/Third_Party/FreeRTOS/Source/timers.c **** 						/* The timer could have been allocated statically or
 812:../../core/ST/Middlewares/Third_Party/FreeRTOS/Source/timers.c **** 						dynamically, so check before attempting to free the
 813:../../core/ST/Middlewares/Third_Party/FreeRTOS/Source/timers.c **** 						memory. */
 814:../../core/ST/Middlewares/Third_Party/FreeRTOS/Source/timers.c **** 						if( pxTimer->ucStaticallyAllocated == ( uint8_t ) pdFALSE )
 815:../../core/ST/Middlewares/Third_Party/FreeRTOS/Source/timers.c **** 						{
 816:../../core/ST/Middlewares/Third_Party/FreeRTOS/Source/timers.c **** 							vPortFree( pxTimer );
 817:../../core/ST/Middlewares/Third_Party/FreeRTOS/Source/timers.c **** 						}
 818:../../core/ST/Middlewares/Third_Party/FreeRTOS/Source/timers.c **** 						else
 819:../../core/ST/Middlewares/Third_Party/FreeRTOS/Source/timers.c **** 						{
 820:../../core/ST/Middlewares/Third_Party/FreeRTOS/Source/timers.c **** 							mtCOVERAGE_TEST_MARKER();
 821:../../core/ST/Middlewares/Third_Party/FreeRTOS/Source/timers.c **** 						}
 822:../../core/ST/Middlewares/Third_Party/FreeRTOS/Source/timers.c **** 					}
 823:../../core/ST/Middlewares/Third_Party/FreeRTOS/Source/timers.c **** 					#endif /* configSUPPORT_DYNAMIC_ALLOCATION */
 824:../../core/ST/Middlewares/Third_Party/FreeRTOS/Source/timers.c **** 					break;
 825:../../core/ST/Middlewares/Third_Party/FreeRTOS/Source/timers.c **** 
 826:../../core/ST/Middlewares/Third_Party/FreeRTOS/Source/timers.c **** 				default	:
 827:../../core/ST/Middlewares/Third_Party/FreeRTOS/Source/timers.c **** 					/* Don't expect to get here. */
 828:../../core/ST/Middlewares/Third_Party/FreeRTOS/Source/timers.c **** 					break;
 829:../../core/ST/Middlewares/Third_Party/FreeRTOS/Source/timers.c **** 			}
 830:../../core/ST/Middlewares/Third_Party/FreeRTOS/Source/timers.c **** 		}
 831:../../core/ST/Middlewares/Third_Party/FreeRTOS/Source/timers.c **** 	}
 832:../../core/ST/Middlewares/Third_Party/FreeRTOS/Source/timers.c **** }
 833:../../core/ST/Middlewares/Third_Party/FreeRTOS/Source/timers.c **** /*-----------------------------------------------------------*/
 834:../../core/ST/Middlewares/Third_Party/FreeRTOS/Source/timers.c **** 
 835:../../core/ST/Middlewares/Third_Party/FreeRTOS/Source/timers.c **** static void prvSwitchTimerLists( void )
 836:../../core/ST/Middlewares/Third_Party/FreeRTOS/Source/timers.c **** {
ARM GAS  C:\Users\yvesk\AppData\Local\Temp\ccsb6O8c.s 			page 19


 837:../../core/ST/Middlewares/Third_Party/FreeRTOS/Source/timers.c **** TickType_t xNextExpireTime, xReloadTime;
 838:../../core/ST/Middlewares/Third_Party/FreeRTOS/Source/timers.c **** List_t *pxTemp;
 839:../../core/ST/Middlewares/Third_Party/FreeRTOS/Source/timers.c **** Timer_t *pxTimer;
 840:../../core/ST/Middlewares/Third_Party/FreeRTOS/Source/timers.c **** BaseType_t xResult;
 841:../../core/ST/Middlewares/Third_Party/FreeRTOS/Source/timers.c **** 
 842:../../core/ST/Middlewares/Third_Party/FreeRTOS/Source/timers.c **** 	/* The tick count has overflowed.  The timer lists must be switched.
 843:../../core/ST/Middlewares/Third_Party/FreeRTOS/Source/timers.c **** 	If there are any timers still referenced from the current timer list
 844:../../core/ST/Middlewares/Third_Party/FreeRTOS/Source/timers.c **** 	then they must have expired and should be processed before the lists
 845:../../core/ST/Middlewares/Third_Party/FreeRTOS/Source/timers.c **** 	are switched. */
 846:../../core/ST/Middlewares/Third_Party/FreeRTOS/Source/timers.c **** 	while( listLIST_IS_EMPTY( pxCurrentTimerList ) == pdFALSE )
 847:../../core/ST/Middlewares/Third_Party/FreeRTOS/Source/timers.c **** 	{
 848:../../core/ST/Middlewares/Third_Party/FreeRTOS/Source/timers.c **** 		xNextExpireTime = listGET_ITEM_VALUE_OF_HEAD_ENTRY( pxCurrentTimerList );
 849:../../core/ST/Middlewares/Third_Party/FreeRTOS/Source/timers.c **** 
 850:../../core/ST/Middlewares/Third_Party/FreeRTOS/Source/timers.c **** 		/* Remove the timer from the list. */
 851:../../core/ST/Middlewares/Third_Party/FreeRTOS/Source/timers.c **** 		pxTimer = ( Timer_t * ) listGET_OWNER_OF_HEAD_ENTRY( pxCurrentTimerList );
 852:../../core/ST/Middlewares/Third_Party/FreeRTOS/Source/timers.c **** 		( void ) uxListRemove( &( pxTimer->xTimerListItem ) );
 853:../../core/ST/Middlewares/Third_Party/FreeRTOS/Source/timers.c **** 		traceTIMER_EXPIRED( pxTimer );
 854:../../core/ST/Middlewares/Third_Party/FreeRTOS/Source/timers.c **** 
 855:../../core/ST/Middlewares/Third_Party/FreeRTOS/Source/timers.c **** 		/* Execute its callback, then send a command to restart the timer if
 856:../../core/ST/Middlewares/Third_Party/FreeRTOS/Source/timers.c **** 		it is an auto-reload timer.  It cannot be restarted here as the lists
 857:../../core/ST/Middlewares/Third_Party/FreeRTOS/Source/timers.c **** 		have not yet been switched. */
 858:../../core/ST/Middlewares/Third_Party/FreeRTOS/Source/timers.c **** 		pxTimer->pxCallbackFunction( ( TimerHandle_t ) pxTimer );
 859:../../core/ST/Middlewares/Third_Party/FreeRTOS/Source/timers.c **** 
 860:../../core/ST/Middlewares/Third_Party/FreeRTOS/Source/timers.c **** 		if( pxTimer->uxAutoReload == ( UBaseType_t ) pdTRUE )
 861:../../core/ST/Middlewares/Third_Party/FreeRTOS/Source/timers.c **** 		{
 862:../../core/ST/Middlewares/Third_Party/FreeRTOS/Source/timers.c **** 			/* Calculate the reload value, and if the reload value results in
 863:../../core/ST/Middlewares/Third_Party/FreeRTOS/Source/timers.c **** 			the timer going into the same timer list then it has already expired
 864:../../core/ST/Middlewares/Third_Party/FreeRTOS/Source/timers.c **** 			and the timer should be re-inserted into the current list so it is
 865:../../core/ST/Middlewares/Third_Party/FreeRTOS/Source/timers.c **** 			processed again within this loop.  Otherwise a command should be sent
 866:../../core/ST/Middlewares/Third_Party/FreeRTOS/Source/timers.c **** 			to restart the timer to ensure it is only inserted into a list after
 867:../../core/ST/Middlewares/Third_Party/FreeRTOS/Source/timers.c **** 			the lists have been swapped. */
 868:../../core/ST/Middlewares/Third_Party/FreeRTOS/Source/timers.c **** 			xReloadTime = ( xNextExpireTime + pxTimer->xTimerPeriodInTicks );
 869:../../core/ST/Middlewares/Third_Party/FreeRTOS/Source/timers.c **** 			if( xReloadTime > xNextExpireTime )
 870:../../core/ST/Middlewares/Third_Party/FreeRTOS/Source/timers.c **** 			{
 871:../../core/ST/Middlewares/Third_Party/FreeRTOS/Source/timers.c **** 				listSET_LIST_ITEM_VALUE( &( pxTimer->xTimerListItem ), xReloadTime );
 872:../../core/ST/Middlewares/Third_Party/FreeRTOS/Source/timers.c **** 				listSET_LIST_ITEM_OWNER( &( pxTimer->xTimerListItem ), pxTimer );
 873:../../core/ST/Middlewares/Third_Party/FreeRTOS/Source/timers.c **** 				vListInsert( pxCurrentTimerList, &( pxTimer->xTimerListItem ) );
 874:../../core/ST/Middlewares/Third_Party/FreeRTOS/Source/timers.c **** 			}
 875:../../core/ST/Middlewares/Third_Party/FreeRTOS/Source/timers.c **** 			else
 876:../../core/ST/Middlewares/Third_Party/FreeRTOS/Source/timers.c **** 			{
 877:../../core/ST/Middlewares/Third_Party/FreeRTOS/Source/timers.c **** 				xResult = xTimerGenericCommand( pxTimer, tmrCOMMAND_START_DONT_TRACE, xNextExpireTime, NULL, tm
 878:../../core/ST/Middlewares/Third_Party/FreeRTOS/Source/timers.c **** 				configASSERT( xResult );
 879:../../core/ST/Middlewares/Third_Party/FreeRTOS/Source/timers.c **** 				( void ) xResult;
 880:../../core/ST/Middlewares/Third_Party/FreeRTOS/Source/timers.c **** 			}
 881:../../core/ST/Middlewares/Third_Party/FreeRTOS/Source/timers.c **** 		}
 882:../../core/ST/Middlewares/Third_Party/FreeRTOS/Source/timers.c **** 		else
 883:../../core/ST/Middlewares/Third_Party/FreeRTOS/Source/timers.c **** 		{
 884:../../core/ST/Middlewares/Third_Party/FreeRTOS/Source/timers.c **** 			mtCOVERAGE_TEST_MARKER();
 885:../../core/ST/Middlewares/Third_Party/FreeRTOS/Source/timers.c **** 		}
 886:../../core/ST/Middlewares/Third_Party/FreeRTOS/Source/timers.c **** 	}
 887:../../core/ST/Middlewares/Third_Party/FreeRTOS/Source/timers.c **** 
 888:../../core/ST/Middlewares/Third_Party/FreeRTOS/Source/timers.c **** 	pxTemp = pxCurrentTimerList;
 889:../../core/ST/Middlewares/Third_Party/FreeRTOS/Source/timers.c **** 	pxCurrentTimerList = pxOverflowTimerList;
 890:../../core/ST/Middlewares/Third_Party/FreeRTOS/Source/timers.c **** 	pxOverflowTimerList = pxTemp;
 891:../../core/ST/Middlewares/Third_Party/FreeRTOS/Source/timers.c **** }
 892:../../core/ST/Middlewares/Third_Party/FreeRTOS/Source/timers.c **** /*-----------------------------------------------------------*/
 893:../../core/ST/Middlewares/Third_Party/FreeRTOS/Source/timers.c **** 
ARM GAS  C:\Users\yvesk\AppData\Local\Temp\ccsb6O8c.s 			page 20


 894:../../core/ST/Middlewares/Third_Party/FreeRTOS/Source/timers.c **** static void prvCheckForValidListAndQueue( void )
 895:../../core/ST/Middlewares/Third_Party/FreeRTOS/Source/timers.c **** {
 181              		.loc 1 895 1 is_stmt 1 view -0
 182              		.cfi_startproc
 183              		@ args = 0, pretend = 0, frame = 0
 184              		@ frame_needed = 0, uses_anonymous_args = 0
 185 0000 38B5     		push	{r3, r4, r5, lr}
 186              	.LCFI1:
 187              		.cfi_def_cfa_offset 16
 188              		.cfi_offset 3, -16
 189              		.cfi_offset 4, -12
 190              		.cfi_offset 5, -8
 191              		.cfi_offset 14, -4
 896:../../core/ST/Middlewares/Third_Party/FreeRTOS/Source/timers.c **** 	/* Check that the list from which active timers are referenced, and the
 897:../../core/ST/Middlewares/Third_Party/FreeRTOS/Source/timers.c **** 	queue used to communicate with the timer service, have been
 898:../../core/ST/Middlewares/Third_Party/FreeRTOS/Source/timers.c **** 	initialised. */
 899:../../core/ST/Middlewares/Third_Party/FreeRTOS/Source/timers.c **** 	taskENTER_CRITICAL();
 192              		.loc 1 899 2 view .LVU43
 193 0002 FFF7FEFF 		bl	vPortEnterCritical
 194              	.LVL20:
 900:../../core/ST/Middlewares/Third_Party/FreeRTOS/Source/timers.c **** 	{
 901:../../core/ST/Middlewares/Third_Party/FreeRTOS/Source/timers.c **** 		if( xTimerQueue == NULL )
 195              		.loc 1 901 3 view .LVU44
 196              		.loc 1 901 19 is_stmt 0 view .LVU45
 197 0006 0F4B     		ldr	r3, .L20
 198 0008 1B68     		ldr	r3, [r3]
 199              		.loc 1 901 5 view .LVU46
 200 000a 13B1     		cbz	r3, .L19
 201              	.L17:
 902:../../core/ST/Middlewares/Third_Party/FreeRTOS/Source/timers.c **** 		{
 903:../../core/ST/Middlewares/Third_Party/FreeRTOS/Source/timers.c **** 			vListInitialise( &xActiveTimerList1 );
 904:../../core/ST/Middlewares/Third_Party/FreeRTOS/Source/timers.c **** 			vListInitialise( &xActiveTimerList2 );
 905:../../core/ST/Middlewares/Third_Party/FreeRTOS/Source/timers.c **** 			pxCurrentTimerList = &xActiveTimerList1;
 906:../../core/ST/Middlewares/Third_Party/FreeRTOS/Source/timers.c **** 			pxOverflowTimerList = &xActiveTimerList2;
 907:../../core/ST/Middlewares/Third_Party/FreeRTOS/Source/timers.c **** 
 908:../../core/ST/Middlewares/Third_Party/FreeRTOS/Source/timers.c **** 			#if( configSUPPORT_STATIC_ALLOCATION == 1 )
 909:../../core/ST/Middlewares/Third_Party/FreeRTOS/Source/timers.c **** 			{
 910:../../core/ST/Middlewares/Third_Party/FreeRTOS/Source/timers.c **** 				/* The timer queue is allocated statically in case
 911:../../core/ST/Middlewares/Third_Party/FreeRTOS/Source/timers.c **** 				configSUPPORT_DYNAMIC_ALLOCATION is 0. */
 912:../../core/ST/Middlewares/Third_Party/FreeRTOS/Source/timers.c **** 				static StaticQueue_t xStaticTimerQueue; /*lint !e956 Ok to declare in this manner to prevent ad
 913:../../core/ST/Middlewares/Third_Party/FreeRTOS/Source/timers.c **** 				static uint8_t ucStaticTimerQueueStorage[ ( size_t ) configTIMER_QUEUE_LENGTH * sizeof( DaemonT
 914:../../core/ST/Middlewares/Third_Party/FreeRTOS/Source/timers.c **** 
 915:../../core/ST/Middlewares/Third_Party/FreeRTOS/Source/timers.c **** 				xTimerQueue = xQueueCreateStatic( ( UBaseType_t ) configTIMER_QUEUE_LENGTH, ( UBaseType_t ) siz
 916:../../core/ST/Middlewares/Third_Party/FreeRTOS/Source/timers.c **** 			}
 917:../../core/ST/Middlewares/Third_Party/FreeRTOS/Source/timers.c **** 			#else
 918:../../core/ST/Middlewares/Third_Party/FreeRTOS/Source/timers.c **** 			{
 919:../../core/ST/Middlewares/Third_Party/FreeRTOS/Source/timers.c **** 				xTimerQueue = xQueueCreate( ( UBaseType_t ) configTIMER_QUEUE_LENGTH, sizeof( DaemonTaskMessage
 920:../../core/ST/Middlewares/Third_Party/FreeRTOS/Source/timers.c **** 			}
 921:../../core/ST/Middlewares/Third_Party/FreeRTOS/Source/timers.c **** 			#endif
 922:../../core/ST/Middlewares/Third_Party/FreeRTOS/Source/timers.c **** 
 923:../../core/ST/Middlewares/Third_Party/FreeRTOS/Source/timers.c **** 			#if ( configQUEUE_REGISTRY_SIZE > 0 )
 924:../../core/ST/Middlewares/Third_Party/FreeRTOS/Source/timers.c **** 			{
 925:../../core/ST/Middlewares/Third_Party/FreeRTOS/Source/timers.c **** 				if( xTimerQueue != NULL )
 926:../../core/ST/Middlewares/Third_Party/FreeRTOS/Source/timers.c **** 				{
 927:../../core/ST/Middlewares/Third_Party/FreeRTOS/Source/timers.c **** 					vQueueAddToRegistry( xTimerQueue, "TmrQ" );
 928:../../core/ST/Middlewares/Third_Party/FreeRTOS/Source/timers.c **** 				}
 929:../../core/ST/Middlewares/Third_Party/FreeRTOS/Source/timers.c **** 				else
ARM GAS  C:\Users\yvesk\AppData\Local\Temp\ccsb6O8c.s 			page 21


 930:../../core/ST/Middlewares/Third_Party/FreeRTOS/Source/timers.c **** 				{
 931:../../core/ST/Middlewares/Third_Party/FreeRTOS/Source/timers.c **** 					mtCOVERAGE_TEST_MARKER();
 932:../../core/ST/Middlewares/Third_Party/FreeRTOS/Source/timers.c **** 				}
 933:../../core/ST/Middlewares/Third_Party/FreeRTOS/Source/timers.c **** 			}
 934:../../core/ST/Middlewares/Third_Party/FreeRTOS/Source/timers.c **** 			#endif /* configQUEUE_REGISTRY_SIZE */
 935:../../core/ST/Middlewares/Third_Party/FreeRTOS/Source/timers.c **** 		}
 936:../../core/ST/Middlewares/Third_Party/FreeRTOS/Source/timers.c **** 		else
 937:../../core/ST/Middlewares/Third_Party/FreeRTOS/Source/timers.c **** 		{
 938:../../core/ST/Middlewares/Third_Party/FreeRTOS/Source/timers.c **** 			mtCOVERAGE_TEST_MARKER();
 202              		.loc 1 938 28 is_stmt 1 view .LVU47
 939:../../core/ST/Middlewares/Third_Party/FreeRTOS/Source/timers.c **** 		}
 940:../../core/ST/Middlewares/Third_Party/FreeRTOS/Source/timers.c **** 	}
 941:../../core/ST/Middlewares/Third_Party/FreeRTOS/Source/timers.c **** 	taskEXIT_CRITICAL();
 203              		.loc 1 941 2 view .LVU48
 204 000c FFF7FEFF 		bl	vPortExitCritical
 205              	.LVL21:
 942:../../core/ST/Middlewares/Third_Party/FreeRTOS/Source/timers.c **** }
 206              		.loc 1 942 1 is_stmt 0 view .LVU49
 207 0010 38BD     		pop	{r3, r4, r5, pc}
 208              	.L19:
 903:../../core/ST/Middlewares/Third_Party/FreeRTOS/Source/timers.c **** 			vListInitialise( &xActiveTimerList2 );
 209              		.loc 1 903 4 is_stmt 1 view .LVU50
 210 0012 0D4D     		ldr	r5, .L20+4
 211 0014 2846     		mov	r0, r5
 212 0016 FFF7FEFF 		bl	vListInitialise
 213              	.LVL22:
 904:../../core/ST/Middlewares/Third_Party/FreeRTOS/Source/timers.c **** 			pxCurrentTimerList = &xActiveTimerList1;
 214              		.loc 1 904 4 view .LVU51
 215 001a 0C4C     		ldr	r4, .L20+8
 216 001c 2046     		mov	r0, r4
 217 001e FFF7FEFF 		bl	vListInitialise
 218              	.LVL23:
 905:../../core/ST/Middlewares/Third_Party/FreeRTOS/Source/timers.c **** 			pxOverflowTimerList = &xActiveTimerList2;
 219              		.loc 1 905 4 view .LVU52
 905:../../core/ST/Middlewares/Third_Party/FreeRTOS/Source/timers.c **** 			pxOverflowTimerList = &xActiveTimerList2;
 220              		.loc 1 905 23 is_stmt 0 view .LVU53
 221 0022 0B4B     		ldr	r3, .L20+12
 222 0024 1D60     		str	r5, [r3]
 906:../../core/ST/Middlewares/Third_Party/FreeRTOS/Source/timers.c **** 
 223              		.loc 1 906 4 is_stmt 1 view .LVU54
 906:../../core/ST/Middlewares/Third_Party/FreeRTOS/Source/timers.c **** 
 224              		.loc 1 906 24 is_stmt 0 view .LVU55
 225 0026 0B4B     		ldr	r3, .L20+16
 226 0028 1C60     		str	r4, [r3]
 919:../../core/ST/Middlewares/Third_Party/FreeRTOS/Source/timers.c **** 			}
 227              		.loc 1 919 5 is_stmt 1 view .LVU56
 919:../../core/ST/Middlewares/Third_Party/FreeRTOS/Source/timers.c **** 			}
 228              		.loc 1 919 19 is_stmt 0 view .LVU57
 229 002a 0022     		movs	r2, #0
 230 002c 0C21     		movs	r1, #12
 231 002e 0A20     		movs	r0, #10
 232 0030 FFF7FEFF 		bl	xQueueGenericCreate
 233              	.LVL24:
 919:../../core/ST/Middlewares/Third_Party/FreeRTOS/Source/timers.c **** 			}
 234              		.loc 1 919 17 view .LVU58
 235 0034 034B     		ldr	r3, .L20
 236 0036 1860     		str	r0, [r3]
ARM GAS  C:\Users\yvesk\AppData\Local\Temp\ccsb6O8c.s 			page 22


 925:../../core/ST/Middlewares/Third_Party/FreeRTOS/Source/timers.c **** 				{
 237              		.loc 1 925 5 is_stmt 1 view .LVU59
 925:../../core/ST/Middlewares/Third_Party/FreeRTOS/Source/timers.c **** 				{
 238              		.loc 1 925 7 is_stmt 0 view .LVU60
 239 0038 0028     		cmp	r0, #0
 240 003a E7D0     		beq	.L17
 927:../../core/ST/Middlewares/Third_Party/FreeRTOS/Source/timers.c **** 				}
 241              		.loc 1 927 6 is_stmt 1 view .LVU61
 242 003c 0649     		ldr	r1, .L20+20
 243 003e FFF7FEFF 		bl	vQueueAddToRegistry
 244              	.LVL25:
 245 0042 E3E7     		b	.L17
 246              	.L21:
 247              		.align	2
 248              	.L20:
 249 0044 00000000 		.word	.LANCHOR2
 250 0048 00000000 		.word	.LANCHOR3
 251 004c 00000000 		.word	.LANCHOR4
 252 0050 00000000 		.word	.LANCHOR0
 253 0054 00000000 		.word	.LANCHOR1
 254 0058 00000000 		.word	.LC0
 255              		.cfi_endproc
 256              	.LFE21:
 258              		.section	.text.prvInitialiseNewTimer,"ax",%progbits
 259              		.align	1
 260              		.syntax unified
 261              		.thumb
 262              		.thumb_func
 263              		.fpu fpv4-sp-d16
 265              	prvInitialiseNewTimer:
 266              	.LVL26:
 267              	.LFB7:
 358:../../core/ST/Middlewares/Third_Party/FreeRTOS/Source/timers.c **** 	/* 0 is not a valid value for xTimerPeriodInTicks. */
 268              		.loc 1 358 1 view -0
 269              		.cfi_startproc
 270              		@ args = 8, pretend = 0, frame = 0
 271              		@ frame_needed = 0, uses_anonymous_args = 0
 358:../../core/ST/Middlewares/Third_Party/FreeRTOS/Source/timers.c **** 	/* 0 is not a valid value for xTimerPeriodInTicks. */
 272              		.loc 1 358 1 is_stmt 0 view .LVU63
 273 0000 2DE9F041 		push	{r4, r5, r6, r7, r8, lr}
 274              	.LCFI2:
 275              		.cfi_def_cfa_offset 24
 276              		.cfi_offset 4, -24
 277              		.cfi_offset 5, -20
 278              		.cfi_offset 6, -16
 279              		.cfi_offset 7, -12
 280              		.cfi_offset 8, -8
 281              		.cfi_offset 14, -4
 282 0004 079C     		ldr	r4, [sp, #28]
 360:../../core/ST/Middlewares/Third_Party/FreeRTOS/Source/timers.c **** 
 283              		.loc 1 360 2 is_stmt 1 view .LVU64
 284 0006 41B9     		cbnz	r1, .L23
 360:../../core/ST/Middlewares/Third_Party/FreeRTOS/Source/timers.c **** 
 285              		.loc 1 360 2 view .LVU65
 286              	.LBB30:
 287              	.LBI30:
 288              		.file 2 "../../core/ST/Middlewares/Third_Party/FreeRTOS/Source/portable/GCC/ARM_CM4F/portmacro.h"
ARM GAS  C:\Users\yvesk\AppData\Local\Temp\ccsb6O8c.s 			page 23


   1:../../core/ST/Middlewares/Third_Party/FreeRTOS/Source/portable/GCC/ARM_CM4F/portmacro.h **** /*
   2:../../core/ST/Middlewares/Third_Party/FreeRTOS/Source/portable/GCC/ARM_CM4F/portmacro.h ****  * FreeRTOS Kernel V10.0.1
   3:../../core/ST/Middlewares/Third_Party/FreeRTOS/Source/portable/GCC/ARM_CM4F/portmacro.h ****  * Copyright (C) 2017 Amazon.com, Inc. or its affiliates.  All Rights Reserved.
   4:../../core/ST/Middlewares/Third_Party/FreeRTOS/Source/portable/GCC/ARM_CM4F/portmacro.h ****  *
   5:../../core/ST/Middlewares/Third_Party/FreeRTOS/Source/portable/GCC/ARM_CM4F/portmacro.h ****  * Permission is hereby granted, free of charge, to any person obtaining a copy of
   6:../../core/ST/Middlewares/Third_Party/FreeRTOS/Source/portable/GCC/ARM_CM4F/portmacro.h ****  * this software and associated documentation files (the "Software"), to deal in
   7:../../core/ST/Middlewares/Third_Party/FreeRTOS/Source/portable/GCC/ARM_CM4F/portmacro.h ****  * the Software without restriction, including without limitation the rights to
   8:../../core/ST/Middlewares/Third_Party/FreeRTOS/Source/portable/GCC/ARM_CM4F/portmacro.h ****  * use, copy, modify, merge, publish, distribute, sublicense, and/or sell copies of
   9:../../core/ST/Middlewares/Third_Party/FreeRTOS/Source/portable/GCC/ARM_CM4F/portmacro.h ****  * the Software, and to permit persons to whom the Software is furnished to do so,
  10:../../core/ST/Middlewares/Third_Party/FreeRTOS/Source/portable/GCC/ARM_CM4F/portmacro.h ****  * subject to the following conditions:
  11:../../core/ST/Middlewares/Third_Party/FreeRTOS/Source/portable/GCC/ARM_CM4F/portmacro.h ****  *
  12:../../core/ST/Middlewares/Third_Party/FreeRTOS/Source/portable/GCC/ARM_CM4F/portmacro.h ****  * The above copyright notice and this permission notice shall be included in all
  13:../../core/ST/Middlewares/Third_Party/FreeRTOS/Source/portable/GCC/ARM_CM4F/portmacro.h ****  * copies or substantial portions of the Software.
  14:../../core/ST/Middlewares/Third_Party/FreeRTOS/Source/portable/GCC/ARM_CM4F/portmacro.h ****  *
  15:../../core/ST/Middlewares/Third_Party/FreeRTOS/Source/portable/GCC/ARM_CM4F/portmacro.h ****  * THE SOFTWARE IS PROVIDED "AS IS", WITHOUT WARRANTY OF ANY KIND, EXPRESS OR
  16:../../core/ST/Middlewares/Third_Party/FreeRTOS/Source/portable/GCC/ARM_CM4F/portmacro.h ****  * IMPLIED, INCLUDING BUT NOT LIMITED TO THE WARRANTIES OF MERCHANTABILITY, FITNESS
  17:../../core/ST/Middlewares/Third_Party/FreeRTOS/Source/portable/GCC/ARM_CM4F/portmacro.h ****  * FOR A PARTICULAR PURPOSE AND NONINFRINGEMENT. IN NO EVENT SHALL THE AUTHORS OR
  18:../../core/ST/Middlewares/Third_Party/FreeRTOS/Source/portable/GCC/ARM_CM4F/portmacro.h ****  * COPYRIGHT HOLDERS BE LIABLE FOR ANY CLAIM, DAMAGES OR OTHER LIABILITY, WHETHER
  19:../../core/ST/Middlewares/Third_Party/FreeRTOS/Source/portable/GCC/ARM_CM4F/portmacro.h ****  * IN AN ACTION OF CONTRACT, TORT OR OTHERWISE, ARISING FROM, OUT OF OR IN
  20:../../core/ST/Middlewares/Third_Party/FreeRTOS/Source/portable/GCC/ARM_CM4F/portmacro.h ****  * CONNECTION WITH THE SOFTWARE OR THE USE OR OTHER DEALINGS IN THE SOFTWARE.
  21:../../core/ST/Middlewares/Third_Party/FreeRTOS/Source/portable/GCC/ARM_CM4F/portmacro.h ****  *
  22:../../core/ST/Middlewares/Third_Party/FreeRTOS/Source/portable/GCC/ARM_CM4F/portmacro.h ****  * http://www.FreeRTOS.org
  23:../../core/ST/Middlewares/Third_Party/FreeRTOS/Source/portable/GCC/ARM_CM4F/portmacro.h ****  * http://aws.amazon.com/freertos
  24:../../core/ST/Middlewares/Third_Party/FreeRTOS/Source/portable/GCC/ARM_CM4F/portmacro.h ****  *
  25:../../core/ST/Middlewares/Third_Party/FreeRTOS/Source/portable/GCC/ARM_CM4F/portmacro.h ****  * 1 tab == 4 spaces!
  26:../../core/ST/Middlewares/Third_Party/FreeRTOS/Source/portable/GCC/ARM_CM4F/portmacro.h ****  */
  27:../../core/ST/Middlewares/Third_Party/FreeRTOS/Source/portable/GCC/ARM_CM4F/portmacro.h **** 
  28:../../core/ST/Middlewares/Third_Party/FreeRTOS/Source/portable/GCC/ARM_CM4F/portmacro.h **** 
  29:../../core/ST/Middlewares/Third_Party/FreeRTOS/Source/portable/GCC/ARM_CM4F/portmacro.h **** #ifndef PORTMACRO_H
  30:../../core/ST/Middlewares/Third_Party/FreeRTOS/Source/portable/GCC/ARM_CM4F/portmacro.h **** #define PORTMACRO_H
  31:../../core/ST/Middlewares/Third_Party/FreeRTOS/Source/portable/GCC/ARM_CM4F/portmacro.h **** 
  32:../../core/ST/Middlewares/Third_Party/FreeRTOS/Source/portable/GCC/ARM_CM4F/portmacro.h **** #ifdef __cplusplus
  33:../../core/ST/Middlewares/Third_Party/FreeRTOS/Source/portable/GCC/ARM_CM4F/portmacro.h **** extern "C" {
  34:../../core/ST/Middlewares/Third_Party/FreeRTOS/Source/portable/GCC/ARM_CM4F/portmacro.h **** #endif
  35:../../core/ST/Middlewares/Third_Party/FreeRTOS/Source/portable/GCC/ARM_CM4F/portmacro.h **** 
  36:../../core/ST/Middlewares/Third_Party/FreeRTOS/Source/portable/GCC/ARM_CM4F/portmacro.h **** /*-----------------------------------------------------------
  37:../../core/ST/Middlewares/Third_Party/FreeRTOS/Source/portable/GCC/ARM_CM4F/portmacro.h ****  * Port specific definitions.
  38:../../core/ST/Middlewares/Third_Party/FreeRTOS/Source/portable/GCC/ARM_CM4F/portmacro.h ****  *
  39:../../core/ST/Middlewares/Third_Party/FreeRTOS/Source/portable/GCC/ARM_CM4F/portmacro.h ****  * The settings in this file configure FreeRTOS correctly for the
  40:../../core/ST/Middlewares/Third_Party/FreeRTOS/Source/portable/GCC/ARM_CM4F/portmacro.h ****  * given hardware and compiler.
  41:../../core/ST/Middlewares/Third_Party/FreeRTOS/Source/portable/GCC/ARM_CM4F/portmacro.h ****  *
  42:../../core/ST/Middlewares/Third_Party/FreeRTOS/Source/portable/GCC/ARM_CM4F/portmacro.h ****  * These settings should not be altered.
  43:../../core/ST/Middlewares/Third_Party/FreeRTOS/Source/portable/GCC/ARM_CM4F/portmacro.h ****  *-----------------------------------------------------------
  44:../../core/ST/Middlewares/Third_Party/FreeRTOS/Source/portable/GCC/ARM_CM4F/portmacro.h ****  */
  45:../../core/ST/Middlewares/Third_Party/FreeRTOS/Source/portable/GCC/ARM_CM4F/portmacro.h **** 
  46:../../core/ST/Middlewares/Third_Party/FreeRTOS/Source/portable/GCC/ARM_CM4F/portmacro.h **** /* Type definitions. */
  47:../../core/ST/Middlewares/Third_Party/FreeRTOS/Source/portable/GCC/ARM_CM4F/portmacro.h **** #define portCHAR		char
  48:../../core/ST/Middlewares/Third_Party/FreeRTOS/Source/portable/GCC/ARM_CM4F/portmacro.h **** #define portFLOAT		float
  49:../../core/ST/Middlewares/Third_Party/FreeRTOS/Source/portable/GCC/ARM_CM4F/portmacro.h **** #define portDOUBLE		double
  50:../../core/ST/Middlewares/Third_Party/FreeRTOS/Source/portable/GCC/ARM_CM4F/portmacro.h **** #define portLONG		long
  51:../../core/ST/Middlewares/Third_Party/FreeRTOS/Source/portable/GCC/ARM_CM4F/portmacro.h **** #define portSHORT		short
  52:../../core/ST/Middlewares/Third_Party/FreeRTOS/Source/portable/GCC/ARM_CM4F/portmacro.h **** #define portSTACK_TYPE	uint32_t
  53:../../core/ST/Middlewares/Third_Party/FreeRTOS/Source/portable/GCC/ARM_CM4F/portmacro.h **** #define portBASE_TYPE	long
  54:../../core/ST/Middlewares/Third_Party/FreeRTOS/Source/portable/GCC/ARM_CM4F/portmacro.h **** 
  55:../../core/ST/Middlewares/Third_Party/FreeRTOS/Source/portable/GCC/ARM_CM4F/portmacro.h **** typedef portSTACK_TYPE StackType_t;
  56:../../core/ST/Middlewares/Third_Party/FreeRTOS/Source/portable/GCC/ARM_CM4F/portmacro.h **** typedef long BaseType_t;
  57:../../core/ST/Middlewares/Third_Party/FreeRTOS/Source/portable/GCC/ARM_CM4F/portmacro.h **** typedef unsigned long UBaseType_t;
ARM GAS  C:\Users\yvesk\AppData\Local\Temp\ccsb6O8c.s 			page 24


  58:../../core/ST/Middlewares/Third_Party/FreeRTOS/Source/portable/GCC/ARM_CM4F/portmacro.h **** 
  59:../../core/ST/Middlewares/Third_Party/FreeRTOS/Source/portable/GCC/ARM_CM4F/portmacro.h **** #if( configUSE_16_BIT_TICKS == 1 )
  60:../../core/ST/Middlewares/Third_Party/FreeRTOS/Source/portable/GCC/ARM_CM4F/portmacro.h **** 	typedef uint16_t TickType_t;
  61:../../core/ST/Middlewares/Third_Party/FreeRTOS/Source/portable/GCC/ARM_CM4F/portmacro.h **** 	#define portMAX_DELAY ( TickType_t ) 0xffff
  62:../../core/ST/Middlewares/Third_Party/FreeRTOS/Source/portable/GCC/ARM_CM4F/portmacro.h **** #else
  63:../../core/ST/Middlewares/Third_Party/FreeRTOS/Source/portable/GCC/ARM_CM4F/portmacro.h **** 	typedef uint32_t TickType_t;
  64:../../core/ST/Middlewares/Third_Party/FreeRTOS/Source/portable/GCC/ARM_CM4F/portmacro.h **** 	#define portMAX_DELAY ( TickType_t ) 0xffffffffUL
  65:../../core/ST/Middlewares/Third_Party/FreeRTOS/Source/portable/GCC/ARM_CM4F/portmacro.h **** 
  66:../../core/ST/Middlewares/Third_Party/FreeRTOS/Source/portable/GCC/ARM_CM4F/portmacro.h **** 	/* 32-bit tick type on a 32-bit architecture, so reads of the tick count do
  67:../../core/ST/Middlewares/Third_Party/FreeRTOS/Source/portable/GCC/ARM_CM4F/portmacro.h **** 	not need to be guarded with a critical section. */
  68:../../core/ST/Middlewares/Third_Party/FreeRTOS/Source/portable/GCC/ARM_CM4F/portmacro.h **** 	#define portTICK_TYPE_IS_ATOMIC 1
  69:../../core/ST/Middlewares/Third_Party/FreeRTOS/Source/portable/GCC/ARM_CM4F/portmacro.h **** #endif
  70:../../core/ST/Middlewares/Third_Party/FreeRTOS/Source/portable/GCC/ARM_CM4F/portmacro.h **** /*-----------------------------------------------------------*/
  71:../../core/ST/Middlewares/Third_Party/FreeRTOS/Source/portable/GCC/ARM_CM4F/portmacro.h **** 
  72:../../core/ST/Middlewares/Third_Party/FreeRTOS/Source/portable/GCC/ARM_CM4F/portmacro.h **** /* Architecture specifics. */
  73:../../core/ST/Middlewares/Third_Party/FreeRTOS/Source/portable/GCC/ARM_CM4F/portmacro.h **** #define portSTACK_GROWTH			( -1 )
  74:../../core/ST/Middlewares/Third_Party/FreeRTOS/Source/portable/GCC/ARM_CM4F/portmacro.h **** #define portTICK_PERIOD_MS			( ( TickType_t ) 1000 / configTICK_RATE_HZ )
  75:../../core/ST/Middlewares/Third_Party/FreeRTOS/Source/portable/GCC/ARM_CM4F/portmacro.h **** #define portBYTE_ALIGNMENT			8
  76:../../core/ST/Middlewares/Third_Party/FreeRTOS/Source/portable/GCC/ARM_CM4F/portmacro.h **** /*-----------------------------------------------------------*/
  77:../../core/ST/Middlewares/Third_Party/FreeRTOS/Source/portable/GCC/ARM_CM4F/portmacro.h **** 
  78:../../core/ST/Middlewares/Third_Party/FreeRTOS/Source/portable/GCC/ARM_CM4F/portmacro.h **** /* Scheduler utilities. */
  79:../../core/ST/Middlewares/Third_Party/FreeRTOS/Source/portable/GCC/ARM_CM4F/portmacro.h **** #define portYIELD() 															\
  80:../../core/ST/Middlewares/Third_Party/FreeRTOS/Source/portable/GCC/ARM_CM4F/portmacro.h **** {																				\
  81:../../core/ST/Middlewares/Third_Party/FreeRTOS/Source/portable/GCC/ARM_CM4F/portmacro.h **** 	/* Set a PendSV to request a context switch. */								\
  82:../../core/ST/Middlewares/Third_Party/FreeRTOS/Source/portable/GCC/ARM_CM4F/portmacro.h **** 	portNVIC_INT_CTRL_REG = portNVIC_PENDSVSET_BIT;								\
  83:../../core/ST/Middlewares/Third_Party/FreeRTOS/Source/portable/GCC/ARM_CM4F/portmacro.h **** 																				\
  84:../../core/ST/Middlewares/Third_Party/FreeRTOS/Source/portable/GCC/ARM_CM4F/portmacro.h **** 	/* Barriers are normally not required but do ensure the code is completely	\
  85:../../core/ST/Middlewares/Third_Party/FreeRTOS/Source/portable/GCC/ARM_CM4F/portmacro.h **** 	within the specified behaviour for the architecture. */						\
  86:../../core/ST/Middlewares/Third_Party/FreeRTOS/Source/portable/GCC/ARM_CM4F/portmacro.h **** 	__asm volatile( "dsb" ::: "memory" );										\
  87:../../core/ST/Middlewares/Third_Party/FreeRTOS/Source/portable/GCC/ARM_CM4F/portmacro.h **** 	__asm volatile( "isb" );													\
  88:../../core/ST/Middlewares/Third_Party/FreeRTOS/Source/portable/GCC/ARM_CM4F/portmacro.h **** }
  89:../../core/ST/Middlewares/Third_Party/FreeRTOS/Source/portable/GCC/ARM_CM4F/portmacro.h **** 
  90:../../core/ST/Middlewares/Third_Party/FreeRTOS/Source/portable/GCC/ARM_CM4F/portmacro.h **** #define portNVIC_INT_CTRL_REG		( * ( ( volatile uint32_t * ) 0xe000ed04 ) )
  91:../../core/ST/Middlewares/Third_Party/FreeRTOS/Source/portable/GCC/ARM_CM4F/portmacro.h **** #define portNVIC_PENDSVSET_BIT		( 1UL << 28UL )
  92:../../core/ST/Middlewares/Third_Party/FreeRTOS/Source/portable/GCC/ARM_CM4F/portmacro.h **** #define portEND_SWITCHING_ISR( xSwitchRequired ) if( xSwitchRequired != pdFALSE ) portYIELD()
  93:../../core/ST/Middlewares/Third_Party/FreeRTOS/Source/portable/GCC/ARM_CM4F/portmacro.h **** #define portYIELD_FROM_ISR( x ) portEND_SWITCHING_ISR( x )
  94:../../core/ST/Middlewares/Third_Party/FreeRTOS/Source/portable/GCC/ARM_CM4F/portmacro.h **** /*-----------------------------------------------------------*/
  95:../../core/ST/Middlewares/Third_Party/FreeRTOS/Source/portable/GCC/ARM_CM4F/portmacro.h **** 
  96:../../core/ST/Middlewares/Third_Party/FreeRTOS/Source/portable/GCC/ARM_CM4F/portmacro.h **** /* Critical section management. */
  97:../../core/ST/Middlewares/Third_Party/FreeRTOS/Source/portable/GCC/ARM_CM4F/portmacro.h **** extern void vPortEnterCritical( void );
  98:../../core/ST/Middlewares/Third_Party/FreeRTOS/Source/portable/GCC/ARM_CM4F/portmacro.h **** extern void vPortExitCritical( void );
  99:../../core/ST/Middlewares/Third_Party/FreeRTOS/Source/portable/GCC/ARM_CM4F/portmacro.h **** #define portSET_INTERRUPT_MASK_FROM_ISR()		ulPortRaiseBASEPRI()
 100:../../core/ST/Middlewares/Third_Party/FreeRTOS/Source/portable/GCC/ARM_CM4F/portmacro.h **** #define portCLEAR_INTERRUPT_MASK_FROM_ISR(x)	vPortSetBASEPRI(x)
 101:../../core/ST/Middlewares/Third_Party/FreeRTOS/Source/portable/GCC/ARM_CM4F/portmacro.h **** #define portDISABLE_INTERRUPTS()				vPortRaiseBASEPRI()
 102:../../core/ST/Middlewares/Third_Party/FreeRTOS/Source/portable/GCC/ARM_CM4F/portmacro.h **** #define portENABLE_INTERRUPTS()					vPortSetBASEPRI(0)
 103:../../core/ST/Middlewares/Third_Party/FreeRTOS/Source/portable/GCC/ARM_CM4F/portmacro.h **** #define portENTER_CRITICAL()					vPortEnterCritical()
 104:../../core/ST/Middlewares/Third_Party/FreeRTOS/Source/portable/GCC/ARM_CM4F/portmacro.h **** #define portEXIT_CRITICAL()						vPortExitCritical()
 105:../../core/ST/Middlewares/Third_Party/FreeRTOS/Source/portable/GCC/ARM_CM4F/portmacro.h **** 
 106:../../core/ST/Middlewares/Third_Party/FreeRTOS/Source/portable/GCC/ARM_CM4F/portmacro.h **** /*-----------------------------------------------------------*/
 107:../../core/ST/Middlewares/Third_Party/FreeRTOS/Source/portable/GCC/ARM_CM4F/portmacro.h **** 
 108:../../core/ST/Middlewares/Third_Party/FreeRTOS/Source/portable/GCC/ARM_CM4F/portmacro.h **** /* Task function macros as described on the FreeRTOS.org WEB site.  These are
 109:../../core/ST/Middlewares/Third_Party/FreeRTOS/Source/portable/GCC/ARM_CM4F/portmacro.h **** not necessary for to use this port.  They are defined so the common demo files
 110:../../core/ST/Middlewares/Third_Party/FreeRTOS/Source/portable/GCC/ARM_CM4F/portmacro.h **** (which build with all the ports) will build. */
 111:../../core/ST/Middlewares/Third_Party/FreeRTOS/Source/portable/GCC/ARM_CM4F/portmacro.h **** #define portTASK_FUNCTION_PROTO( vFunction, pvParameters ) void vFunction( void *pvParameters )
 112:../../core/ST/Middlewares/Third_Party/FreeRTOS/Source/portable/GCC/ARM_CM4F/portmacro.h **** #define portTASK_FUNCTION( vFunction, pvParameters ) void vFunction( void *pvParameters )
 113:../../core/ST/Middlewares/Third_Party/FreeRTOS/Source/portable/GCC/ARM_CM4F/portmacro.h **** /*-----------------------------------------------------------*/
 114:../../core/ST/Middlewares/Third_Party/FreeRTOS/Source/portable/GCC/ARM_CM4F/portmacro.h **** 
ARM GAS  C:\Users\yvesk\AppData\Local\Temp\ccsb6O8c.s 			page 25


 115:../../core/ST/Middlewares/Third_Party/FreeRTOS/Source/portable/GCC/ARM_CM4F/portmacro.h **** /* Tickless idle/low power functionality. */
 116:../../core/ST/Middlewares/Third_Party/FreeRTOS/Source/portable/GCC/ARM_CM4F/portmacro.h **** #ifndef portSUPPRESS_TICKS_AND_SLEEP
 117:../../core/ST/Middlewares/Third_Party/FreeRTOS/Source/portable/GCC/ARM_CM4F/portmacro.h **** 	extern void vPortSuppressTicksAndSleep( TickType_t xExpectedIdleTime );
 118:../../core/ST/Middlewares/Third_Party/FreeRTOS/Source/portable/GCC/ARM_CM4F/portmacro.h **** 	#define portSUPPRESS_TICKS_AND_SLEEP( xExpectedIdleTime ) vPortSuppressTicksAndSleep( xExpectedIdl
 119:../../core/ST/Middlewares/Third_Party/FreeRTOS/Source/portable/GCC/ARM_CM4F/portmacro.h **** #endif
 120:../../core/ST/Middlewares/Third_Party/FreeRTOS/Source/portable/GCC/ARM_CM4F/portmacro.h **** /*-----------------------------------------------------------*/
 121:../../core/ST/Middlewares/Third_Party/FreeRTOS/Source/portable/GCC/ARM_CM4F/portmacro.h **** 
 122:../../core/ST/Middlewares/Third_Party/FreeRTOS/Source/portable/GCC/ARM_CM4F/portmacro.h **** /* Architecture specific optimisations. */
 123:../../core/ST/Middlewares/Third_Party/FreeRTOS/Source/portable/GCC/ARM_CM4F/portmacro.h **** #ifndef configUSE_PORT_OPTIMISED_TASK_SELECTION
 124:../../core/ST/Middlewares/Third_Party/FreeRTOS/Source/portable/GCC/ARM_CM4F/portmacro.h **** 	#define configUSE_PORT_OPTIMISED_TASK_SELECTION 1
 125:../../core/ST/Middlewares/Third_Party/FreeRTOS/Source/portable/GCC/ARM_CM4F/portmacro.h **** #endif
 126:../../core/ST/Middlewares/Third_Party/FreeRTOS/Source/portable/GCC/ARM_CM4F/portmacro.h **** 
 127:../../core/ST/Middlewares/Third_Party/FreeRTOS/Source/portable/GCC/ARM_CM4F/portmacro.h **** #if configUSE_PORT_OPTIMISED_TASK_SELECTION == 1
 128:../../core/ST/Middlewares/Third_Party/FreeRTOS/Source/portable/GCC/ARM_CM4F/portmacro.h **** 
 129:../../core/ST/Middlewares/Third_Party/FreeRTOS/Source/portable/GCC/ARM_CM4F/portmacro.h **** 	/* Generic helper function. */
 130:../../core/ST/Middlewares/Third_Party/FreeRTOS/Source/portable/GCC/ARM_CM4F/portmacro.h **** 	__attribute__( ( always_inline ) ) static inline uint8_t ucPortCountLeadingZeros( uint32_t ulBitma
 131:../../core/ST/Middlewares/Third_Party/FreeRTOS/Source/portable/GCC/ARM_CM4F/portmacro.h **** 	{
 132:../../core/ST/Middlewares/Third_Party/FreeRTOS/Source/portable/GCC/ARM_CM4F/portmacro.h **** 	uint8_t ucReturn;
 133:../../core/ST/Middlewares/Third_Party/FreeRTOS/Source/portable/GCC/ARM_CM4F/portmacro.h **** 
 134:../../core/ST/Middlewares/Third_Party/FreeRTOS/Source/portable/GCC/ARM_CM4F/portmacro.h **** 		__asm volatile ( "clz %0, %1" : "=r" ( ucReturn ) : "r" ( ulBitmap ) : "memory" );
 135:../../core/ST/Middlewares/Third_Party/FreeRTOS/Source/portable/GCC/ARM_CM4F/portmacro.h **** 		return ucReturn;
 136:../../core/ST/Middlewares/Third_Party/FreeRTOS/Source/portable/GCC/ARM_CM4F/portmacro.h **** 	}
 137:../../core/ST/Middlewares/Third_Party/FreeRTOS/Source/portable/GCC/ARM_CM4F/portmacro.h **** 
 138:../../core/ST/Middlewares/Third_Party/FreeRTOS/Source/portable/GCC/ARM_CM4F/portmacro.h **** 	/* Check the configuration. */
 139:../../core/ST/Middlewares/Third_Party/FreeRTOS/Source/portable/GCC/ARM_CM4F/portmacro.h **** 	#if( configMAX_PRIORITIES > 32 )
 140:../../core/ST/Middlewares/Third_Party/FreeRTOS/Source/portable/GCC/ARM_CM4F/portmacro.h **** 		#error configUSE_PORT_OPTIMISED_TASK_SELECTION can only be set to 1 when configMAX_PRIORITIES is 
 141:../../core/ST/Middlewares/Third_Party/FreeRTOS/Source/portable/GCC/ARM_CM4F/portmacro.h **** 	#endif
 142:../../core/ST/Middlewares/Third_Party/FreeRTOS/Source/portable/GCC/ARM_CM4F/portmacro.h **** 
 143:../../core/ST/Middlewares/Third_Party/FreeRTOS/Source/portable/GCC/ARM_CM4F/portmacro.h **** 	/* Store/clear the ready priorities in a bit map. */
 144:../../core/ST/Middlewares/Third_Party/FreeRTOS/Source/portable/GCC/ARM_CM4F/portmacro.h **** 	#define portRECORD_READY_PRIORITY( uxPriority, uxReadyPriorities ) ( uxReadyPriorities ) |= ( 1UL 
 145:../../core/ST/Middlewares/Third_Party/FreeRTOS/Source/portable/GCC/ARM_CM4F/portmacro.h **** 	#define portRESET_READY_PRIORITY( uxPriority, uxReadyPriorities ) ( uxReadyPriorities ) &= ~( 1UL 
 146:../../core/ST/Middlewares/Third_Party/FreeRTOS/Source/portable/GCC/ARM_CM4F/portmacro.h **** 
 147:../../core/ST/Middlewares/Third_Party/FreeRTOS/Source/portable/GCC/ARM_CM4F/portmacro.h **** 	/*-----------------------------------------------------------*/
 148:../../core/ST/Middlewares/Third_Party/FreeRTOS/Source/portable/GCC/ARM_CM4F/portmacro.h **** 
 149:../../core/ST/Middlewares/Third_Party/FreeRTOS/Source/portable/GCC/ARM_CM4F/portmacro.h **** 	#define portGET_HIGHEST_PRIORITY( uxTopPriority, uxReadyPriorities ) uxTopPriority = ( 31UL - ( ui
 150:../../core/ST/Middlewares/Third_Party/FreeRTOS/Source/portable/GCC/ARM_CM4F/portmacro.h **** 
 151:../../core/ST/Middlewares/Third_Party/FreeRTOS/Source/portable/GCC/ARM_CM4F/portmacro.h **** #endif /* configUSE_PORT_OPTIMISED_TASK_SELECTION */
 152:../../core/ST/Middlewares/Third_Party/FreeRTOS/Source/portable/GCC/ARM_CM4F/portmacro.h **** 
 153:../../core/ST/Middlewares/Third_Party/FreeRTOS/Source/portable/GCC/ARM_CM4F/portmacro.h **** /*-----------------------------------------------------------*/
 154:../../core/ST/Middlewares/Third_Party/FreeRTOS/Source/portable/GCC/ARM_CM4F/portmacro.h **** 
 155:../../core/ST/Middlewares/Third_Party/FreeRTOS/Source/portable/GCC/ARM_CM4F/portmacro.h **** #ifdef configASSERT
 156:../../core/ST/Middlewares/Third_Party/FreeRTOS/Source/portable/GCC/ARM_CM4F/portmacro.h **** 	void vPortValidateInterruptPriority( void );
 157:../../core/ST/Middlewares/Third_Party/FreeRTOS/Source/portable/GCC/ARM_CM4F/portmacro.h **** 	#define portASSERT_IF_INTERRUPT_PRIORITY_INVALID() 	vPortValidateInterruptPriority()
 158:../../core/ST/Middlewares/Third_Party/FreeRTOS/Source/portable/GCC/ARM_CM4F/portmacro.h **** #endif
 159:../../core/ST/Middlewares/Third_Party/FreeRTOS/Source/portable/GCC/ARM_CM4F/portmacro.h **** 
 160:../../core/ST/Middlewares/Third_Party/FreeRTOS/Source/portable/GCC/ARM_CM4F/portmacro.h **** /* portNOP() is not required by this port. */
 161:../../core/ST/Middlewares/Third_Party/FreeRTOS/Source/portable/GCC/ARM_CM4F/portmacro.h **** #define portNOP()
 162:../../core/ST/Middlewares/Third_Party/FreeRTOS/Source/portable/GCC/ARM_CM4F/portmacro.h **** 
 163:../../core/ST/Middlewares/Third_Party/FreeRTOS/Source/portable/GCC/ARM_CM4F/portmacro.h **** #define portINLINE	__inline
 164:../../core/ST/Middlewares/Third_Party/FreeRTOS/Source/portable/GCC/ARM_CM4F/portmacro.h **** 
 165:../../core/ST/Middlewares/Third_Party/FreeRTOS/Source/portable/GCC/ARM_CM4F/portmacro.h **** #ifndef portFORCE_INLINE
 166:../../core/ST/Middlewares/Third_Party/FreeRTOS/Source/portable/GCC/ARM_CM4F/portmacro.h **** 	#define portFORCE_INLINE inline __attribute__(( always_inline))
 167:../../core/ST/Middlewares/Third_Party/FreeRTOS/Source/portable/GCC/ARM_CM4F/portmacro.h **** #endif
 168:../../core/ST/Middlewares/Third_Party/FreeRTOS/Source/portable/GCC/ARM_CM4F/portmacro.h **** 
 169:../../core/ST/Middlewares/Third_Party/FreeRTOS/Source/portable/GCC/ARM_CM4F/portmacro.h **** portFORCE_INLINE static BaseType_t xPortIsInsideInterrupt( void )
 170:../../core/ST/Middlewares/Third_Party/FreeRTOS/Source/portable/GCC/ARM_CM4F/portmacro.h **** {
 171:../../core/ST/Middlewares/Third_Party/FreeRTOS/Source/portable/GCC/ARM_CM4F/portmacro.h **** uint32_t ulCurrentInterrupt;
ARM GAS  C:\Users\yvesk\AppData\Local\Temp\ccsb6O8c.s 			page 26


 172:../../core/ST/Middlewares/Third_Party/FreeRTOS/Source/portable/GCC/ARM_CM4F/portmacro.h **** BaseType_t xReturn;
 173:../../core/ST/Middlewares/Third_Party/FreeRTOS/Source/portable/GCC/ARM_CM4F/portmacro.h **** 
 174:../../core/ST/Middlewares/Third_Party/FreeRTOS/Source/portable/GCC/ARM_CM4F/portmacro.h **** 	/* Obtain the number of the currently executing interrupt. */
 175:../../core/ST/Middlewares/Third_Party/FreeRTOS/Source/portable/GCC/ARM_CM4F/portmacro.h **** 	__asm volatile( "mrs %0, ipsr" : "=r"( ulCurrentInterrupt ) :: "memory" );
 176:../../core/ST/Middlewares/Third_Party/FreeRTOS/Source/portable/GCC/ARM_CM4F/portmacro.h **** 
 177:../../core/ST/Middlewares/Third_Party/FreeRTOS/Source/portable/GCC/ARM_CM4F/portmacro.h **** 	if( ulCurrentInterrupt == 0 )
 178:../../core/ST/Middlewares/Third_Party/FreeRTOS/Source/portable/GCC/ARM_CM4F/portmacro.h **** 	{
 179:../../core/ST/Middlewares/Third_Party/FreeRTOS/Source/portable/GCC/ARM_CM4F/portmacro.h **** 		xReturn = pdFALSE;
 180:../../core/ST/Middlewares/Third_Party/FreeRTOS/Source/portable/GCC/ARM_CM4F/portmacro.h **** 	}
 181:../../core/ST/Middlewares/Third_Party/FreeRTOS/Source/portable/GCC/ARM_CM4F/portmacro.h **** 	else
 182:../../core/ST/Middlewares/Third_Party/FreeRTOS/Source/portable/GCC/ARM_CM4F/portmacro.h **** 	{
 183:../../core/ST/Middlewares/Third_Party/FreeRTOS/Source/portable/GCC/ARM_CM4F/portmacro.h **** 		xReturn = pdTRUE;
 184:../../core/ST/Middlewares/Third_Party/FreeRTOS/Source/portable/GCC/ARM_CM4F/portmacro.h **** 	}
 185:../../core/ST/Middlewares/Third_Party/FreeRTOS/Source/portable/GCC/ARM_CM4F/portmacro.h **** 
 186:../../core/ST/Middlewares/Third_Party/FreeRTOS/Source/portable/GCC/ARM_CM4F/portmacro.h **** 	return xReturn;
 187:../../core/ST/Middlewares/Third_Party/FreeRTOS/Source/portable/GCC/ARM_CM4F/portmacro.h **** }
 188:../../core/ST/Middlewares/Third_Party/FreeRTOS/Source/portable/GCC/ARM_CM4F/portmacro.h **** 
 189:../../core/ST/Middlewares/Third_Party/FreeRTOS/Source/portable/GCC/ARM_CM4F/portmacro.h **** /*-----------------------------------------------------------*/
 190:../../core/ST/Middlewares/Third_Party/FreeRTOS/Source/portable/GCC/ARM_CM4F/portmacro.h **** 
 191:../../core/ST/Middlewares/Third_Party/FreeRTOS/Source/portable/GCC/ARM_CM4F/portmacro.h **** portFORCE_INLINE static void vPortRaiseBASEPRI( void )
 289              		.loc 2 191 30 view .LVU66
 290              	.LBB31:
 192:../../core/ST/Middlewares/Third_Party/FreeRTOS/Source/portable/GCC/ARM_CM4F/portmacro.h **** {
 193:../../core/ST/Middlewares/Third_Party/FreeRTOS/Source/portable/GCC/ARM_CM4F/portmacro.h **** uint32_t ulNewBASEPRI;
 291              		.loc 2 193 1 view .LVU67
 194:../../core/ST/Middlewares/Third_Party/FreeRTOS/Source/portable/GCC/ARM_CM4F/portmacro.h **** 
 195:../../core/ST/Middlewares/Third_Party/FreeRTOS/Source/portable/GCC/ARM_CM4F/portmacro.h **** 	__asm volatile
 292              		.loc 2 195 2 view .LVU68
 293              		.syntax unified
 294              	@ 195 "../../core/ST/Middlewares/Third_Party/FreeRTOS/Source/portable/GCC/ARM_CM4F/portmacro.h" 1
 295 0008 4FF01003 			mov r3, #16												
 296 000c 83F31188 		msr basepri, r3											
 297 0010 BFF36F8F 		isb														
 298 0014 BFF34F8F 		dsb														
 299              	
 300              	@ 0 "" 2
 301              	.LVL27:
 302              		.thumb
 303              		.syntax unified
 304              	.L24:
 305              		.loc 2 195 2 is_stmt 0 view .LVU69
 306              	.LBE31:
 307              	.LBE30:
 360:../../core/ST/Middlewares/Third_Party/FreeRTOS/Source/timers.c **** 
 308              		.loc 1 360 2 is_stmt 1 discriminator 1 view .LVU70
 360:../../core/ST/Middlewares/Third_Party/FreeRTOS/Source/timers.c **** 
 309              		.loc 1 360 2 discriminator 1 view .LVU71
 310 0018 FEE7     		b	.L24
 311              	.LVL28:
 312              	.L23:
 360:../../core/ST/Middlewares/Third_Party/FreeRTOS/Source/timers.c **** 
 313              		.loc 1 360 2 is_stmt 0 discriminator 1 view .LVU72
 314 001a 0F46     		mov	r7, r1
 360:../../core/ST/Middlewares/Third_Party/FreeRTOS/Source/timers.c **** 
 315              		.loc 1 360 45 is_stmt 1 discriminator 2 view .LVU73
 362:../../core/ST/Middlewares/Third_Party/FreeRTOS/Source/timers.c **** 	{
 316              		.loc 1 362 2 discriminator 2 view .LVU74
ARM GAS  C:\Users\yvesk\AppData\Local\Temp\ccsb6O8c.s 			page 27


 362:../../core/ST/Middlewares/Third_Party/FreeRTOS/Source/timers.c **** 	{
 317              		.loc 1 362 4 is_stmt 0 discriminator 2 view .LVU75
 318 001c 74B1     		cbz	r4, .L22
 362:../../core/ST/Middlewares/Third_Party/FreeRTOS/Source/timers.c **** 	{
 319              		.loc 1 362 4 discriminator 2 view .LVU76
 320 001e 1D46     		mov	r5, r3
 321 0020 1646     		mov	r6, r2
 322 0022 8046     		mov	r8, r0
 366:../../core/ST/Middlewares/Third_Party/FreeRTOS/Source/timers.c **** 
 323              		.loc 1 366 3 is_stmt 1 view .LVU77
 324 0024 FFF7FEFF 		bl	prvCheckForValidListAndQueue
 325              	.LVL29:
 370:../../core/ST/Middlewares/Third_Party/FreeRTOS/Source/timers.c **** 		pxNewTimer->xTimerPeriodInTicks = xTimerPeriodInTicks;
 326              		.loc 1 370 3 view .LVU78
 370:../../core/ST/Middlewares/Third_Party/FreeRTOS/Source/timers.c **** 		pxNewTimer->xTimerPeriodInTicks = xTimerPeriodInTicks;
 327              		.loc 1 370 27 is_stmt 0 view .LVU79
 328 0028 C4F80080 		str	r8, [r4]
 371:../../core/ST/Middlewares/Third_Party/FreeRTOS/Source/timers.c **** 		pxNewTimer->uxAutoReload = uxAutoReload;
 329              		.loc 1 371 3 is_stmt 1 view .LVU80
 371:../../core/ST/Middlewares/Third_Party/FreeRTOS/Source/timers.c **** 		pxNewTimer->uxAutoReload = uxAutoReload;
 330              		.loc 1 371 35 is_stmt 0 view .LVU81
 331 002c A761     		str	r7, [r4, #24]
 372:../../core/ST/Middlewares/Third_Party/FreeRTOS/Source/timers.c **** 		pxNewTimer->pvTimerID = pvTimerID;
 332              		.loc 1 372 3 is_stmt 1 view .LVU82
 372:../../core/ST/Middlewares/Third_Party/FreeRTOS/Source/timers.c **** 		pxNewTimer->pvTimerID = pvTimerID;
 333              		.loc 1 372 28 is_stmt 0 view .LVU83
 334 002e E661     		str	r6, [r4, #28]
 373:../../core/ST/Middlewares/Third_Party/FreeRTOS/Source/timers.c **** 		pxNewTimer->pxCallbackFunction = pxCallbackFunction;
 335              		.loc 1 373 3 is_stmt 1 view .LVU84
 373:../../core/ST/Middlewares/Third_Party/FreeRTOS/Source/timers.c **** 		pxNewTimer->pxCallbackFunction = pxCallbackFunction;
 336              		.loc 1 373 25 is_stmt 0 view .LVU85
 337 0030 2562     		str	r5, [r4, #32]
 374:../../core/ST/Middlewares/Third_Party/FreeRTOS/Source/timers.c **** 		vListInitialiseItem( &( pxNewTimer->xTimerListItem ) );
 338              		.loc 1 374 3 is_stmt 1 view .LVU86
 374:../../core/ST/Middlewares/Third_Party/FreeRTOS/Source/timers.c **** 		vListInitialiseItem( &( pxNewTimer->xTimerListItem ) );
 339              		.loc 1 374 34 is_stmt 0 view .LVU87
 340 0032 069B     		ldr	r3, [sp, #24]
 341 0034 6362     		str	r3, [r4, #36]
 375:../../core/ST/Middlewares/Third_Party/FreeRTOS/Source/timers.c **** 		traceTIMER_CREATE( pxNewTimer );
 342              		.loc 1 375 3 is_stmt 1 view .LVU88
 343 0036 201D     		adds	r0, r4, #4
 344 0038 FFF7FEFF 		bl	vListInitialiseItem
 345              	.LVL30:
 376:../../core/ST/Middlewares/Third_Party/FreeRTOS/Source/timers.c **** 	}
 346              		.loc 1 376 34 view .LVU89
 347              	.L22:
 378:../../core/ST/Middlewares/Third_Party/FreeRTOS/Source/timers.c **** /*-----------------------------------------------------------*/
 348              		.loc 1 378 1 is_stmt 0 view .LVU90
 349 003c BDE8F081 		pop	{r4, r5, r6, r7, r8, pc}
 378:../../core/ST/Middlewares/Third_Party/FreeRTOS/Source/timers.c **** /*-----------------------------------------------------------*/
 350              		.loc 1 378 1 view .LVU91
 351              		.cfi_endproc
 352              	.LFE7:
 354              		.section	.text.xTimerCreateTimerTask,"ax",%progbits
 355              		.align	1
 356              		.global	xTimerCreateTimerTask
 357              		.syntax unified
ARM GAS  C:\Users\yvesk\AppData\Local\Temp\ccsb6O8c.s 			page 28


 358              		.thumb
 359              		.thumb_func
 360              		.fpu fpv4-sp-d16
 362              	xTimerCreateTimerTask:
 363              	.LFB5:
 224:../../core/ST/Middlewares/Third_Party/FreeRTOS/Source/timers.c **** BaseType_t xReturn = pdFAIL;
 364              		.loc 1 224 1 is_stmt 1 view -0
 365              		.cfi_startproc
 366              		@ args = 0, pretend = 0, frame = 0
 367              		@ frame_needed = 0, uses_anonymous_args = 0
 368 0000 00B5     		push	{lr}
 369              	.LCFI3:
 370              		.cfi_def_cfa_offset 4
 371              		.cfi_offset 14, -4
 372 0002 83B0     		sub	sp, sp, #12
 373              	.LCFI4:
 374              		.cfi_def_cfa_offset 16
 225:../../core/ST/Middlewares/Third_Party/FreeRTOS/Source/timers.c **** 
 375              		.loc 1 225 1 view .LVU93
 376              	.LVL31:
 231:../../core/ST/Middlewares/Third_Party/FreeRTOS/Source/timers.c **** 
 377              		.loc 1 231 2 view .LVU94
 378 0004 FFF7FEFF 		bl	prvCheckForValidListAndQueue
 379              	.LVL32:
 233:../../core/ST/Middlewares/Third_Party/FreeRTOS/Source/timers.c **** 	{
 380              		.loc 1 233 2 view .LVU95
 233:../../core/ST/Middlewares/Third_Party/FreeRTOS/Source/timers.c **** 	{
 381              		.loc 1 233 18 is_stmt 0 view .LVU96
 382 0008 0D4B     		ldr	r3, .L32
 383 000a 1B68     		ldr	r3, [r3]
 233:../../core/ST/Middlewares/Third_Party/FreeRTOS/Source/timers.c **** 	{
 384              		.loc 1 233 4 view .LVU97
 385 000c 5BB1     		cbz	r3, .L28
 257:../../core/ST/Middlewares/Third_Party/FreeRTOS/Source/timers.c **** 									configTIMER_SERVICE_TASK_NAME,
 386              		.loc 1 257 4 is_stmt 1 view .LVU98
 257:../../core/ST/Middlewares/Third_Party/FreeRTOS/Source/timers.c **** 									configTIMER_SERVICE_TASK_NAME,
 387              		.loc 1 257 14 is_stmt 0 view .LVU99
 388 000e 0D4B     		ldr	r3, .L32+4
 389 0010 0193     		str	r3, [sp, #4]
 390 0012 0323     		movs	r3, #3
 391 0014 0093     		str	r3, [sp]
 392 0016 0023     		movs	r3, #0
 393 0018 4FF48072 		mov	r2, #256
 394 001c 0A49     		ldr	r1, .L32+8
 395 001e 0B48     		ldr	r0, .L32+12
 396 0020 FFF7FEFF 		bl	xTaskCreate
 397              	.LVL33:
 268:../../core/ST/Middlewares/Third_Party/FreeRTOS/Source/timers.c **** 	}
 398              		.loc 1 268 27 is_stmt 1 view .LVU100
 271:../../core/ST/Middlewares/Third_Party/FreeRTOS/Source/timers.c **** 	return xReturn;
 399              		.loc 1 271 2 view .LVU101
 400 0024 40B9     		cbnz	r0, .L27
 401              	.LVL34:
 402              	.L28:
 271:../../core/ST/Middlewares/Third_Party/FreeRTOS/Source/timers.c **** 	return xReturn;
 403              		.loc 1 271 2 view .LVU102
 404              	.LBB32:
ARM GAS  C:\Users\yvesk\AppData\Local\Temp\ccsb6O8c.s 			page 29


 405              	.LBI32:
 191:../../core/ST/Middlewares/Third_Party/FreeRTOS/Source/portable/GCC/ARM_CM4F/portmacro.h **** {
 406              		.loc 2 191 30 view .LVU103
 407              	.LBB33:
 193:../../core/ST/Middlewares/Third_Party/FreeRTOS/Source/portable/GCC/ARM_CM4F/portmacro.h **** 
 408              		.loc 2 193 1 view .LVU104
 409              		.loc 2 195 2 view .LVU105
 410              		.syntax unified
 411              	@ 195 "../../core/ST/Middlewares/Third_Party/FreeRTOS/Source/portable/GCC/ARM_CM4F/portmacro.h" 1
 412 0026 4FF01003 			mov r3, #16												
 413 002a 83F31188 		msr basepri, r3											
 414 002e BFF36F8F 		isb														
 415 0032 BFF34F8F 		dsb														
 416              	
 417              	@ 0 "" 2
 418              	.LVL35:
 419              		.thumb
 420              		.syntax unified
 421              	.L30:
 422              		.loc 2 195 2 is_stmt 0 view .LVU106
 423              	.LBE33:
 424              	.LBE32:
 271:../../core/ST/Middlewares/Third_Party/FreeRTOS/Source/timers.c **** 	return xReturn;
 425              		.loc 1 271 2 is_stmt 1 discriminator 1 view .LVU107
 271:../../core/ST/Middlewares/Third_Party/FreeRTOS/Source/timers.c **** 	return xReturn;
 426              		.loc 1 271 2 discriminator 1 view .LVU108
 427 0036 FEE7     		b	.L30
 428              	.LVL36:
 429              	.L27:
 273:../../core/ST/Middlewares/Third_Party/FreeRTOS/Source/timers.c **** /*-----------------------------------------------------------*/
 430              		.loc 1 273 1 is_stmt 0 view .LVU109
 431 0038 03B0     		add	sp, sp, #12
 432              	.LCFI5:
 433              		.cfi_def_cfa_offset 4
 434              		@ sp needed
 435 003a 5DF804FB 		ldr	pc, [sp], #4
 436              	.L33:
 437 003e 00BF     		.align	2
 438              	.L32:
 439 0040 00000000 		.word	.LANCHOR2
 440 0044 00000000 		.word	.LANCHOR5
 441 0048 00000000 		.word	.LC1
 442 004c 00000000 		.word	prvTimerTask
 443              		.cfi_endproc
 444              	.LFE5:
 446              		.section	.text.xTimerCreate,"ax",%progbits
 447              		.align	1
 448              		.global	xTimerCreate
 449              		.syntax unified
 450              		.thumb
 451              		.thumb_func
 452              		.fpu fpv4-sp-d16
 454              	xTimerCreate:
 455              	.LVL37:
 456              	.LFB6:
 283:../../core/ST/Middlewares/Third_Party/FreeRTOS/Source/timers.c **** 	Timer_t *pxNewTimer;
 457              		.loc 1 283 2 is_stmt 1 view -0
ARM GAS  C:\Users\yvesk\AppData\Local\Temp\ccsb6O8c.s 			page 30


 458              		.cfi_startproc
 459              		@ args = 4, pretend = 0, frame = 0
 460              		@ frame_needed = 0, uses_anonymous_args = 0
 283:../../core/ST/Middlewares/Third_Party/FreeRTOS/Source/timers.c **** 	Timer_t *pxNewTimer;
 461              		.loc 1 283 2 is_stmt 0 view .LVU111
 462 0000 2DE9F041 		push	{r4, r5, r6, r7, r8, lr}
 463              	.LCFI6:
 464              		.cfi_def_cfa_offset 24
 465              		.cfi_offset 4, -24
 466              		.cfi_offset 5, -20
 467              		.cfi_offset 6, -16
 468              		.cfi_offset 7, -12
 469              		.cfi_offset 8, -8
 470              		.cfi_offset 14, -4
 471 0004 82B0     		sub	sp, sp, #8
 472              	.LCFI7:
 473              		.cfi_def_cfa_offset 32
 474 0006 0546     		mov	r5, r0
 475 0008 0E46     		mov	r6, r1
 476 000a 1746     		mov	r7, r2
 477 000c 9846     		mov	r8, r3
 284:../../core/ST/Middlewares/Third_Party/FreeRTOS/Source/timers.c **** 
 478              		.loc 1 284 2 is_stmt 1 view .LVU112
 286:../../core/ST/Middlewares/Third_Party/FreeRTOS/Source/timers.c **** 
 479              		.loc 1 286 3 view .LVU113
 286:../../core/ST/Middlewares/Third_Party/FreeRTOS/Source/timers.c **** 
 480              		.loc 1 286 30 is_stmt 0 view .LVU114
 481 000e 2820     		movs	r0, #40
 482              	.LVL38:
 286:../../core/ST/Middlewares/Third_Party/FreeRTOS/Source/timers.c **** 
 483              		.loc 1 286 30 view .LVU115
 484 0010 FFF7FEFF 		bl	pvPortMalloc
 485              	.LVL39:
 288:../../core/ST/Middlewares/Third_Party/FreeRTOS/Source/timers.c **** 		{
 486              		.loc 1 288 3 is_stmt 1 view .LVU116
 288:../../core/ST/Middlewares/Third_Party/FreeRTOS/Source/timers.c **** 		{
 487              		.loc 1 288 5 is_stmt 0 view .LVU117
 488 0014 0446     		mov	r4, r0
 489 0016 40B1     		cbz	r0, .L34
 290:../../core/ST/Middlewares/Third_Party/FreeRTOS/Source/timers.c **** 
 490              		.loc 1 290 4 is_stmt 1 view .LVU118
 491 0018 0190     		str	r0, [sp, #4]
 492 001a 089B     		ldr	r3, [sp, #32]
 493 001c 0093     		str	r3, [sp]
 494 001e 4346     		mov	r3, r8
 495 0020 3A46     		mov	r2, r7
 496 0022 3146     		mov	r1, r6
 497 0024 2846     		mov	r0, r5
 498              	.LVL40:
 290:../../core/ST/Middlewares/Third_Party/FreeRTOS/Source/timers.c **** 
 499              		.loc 1 290 4 is_stmt 0 view .LVU119
 500 0026 FFF7FEFF 		bl	prvInitialiseNewTimer
 501              	.LVL41:
 302:../../core/ST/Middlewares/Third_Party/FreeRTOS/Source/timers.c **** 	}
 502              		.loc 1 302 3 is_stmt 1 view .LVU120
 503              	.L34:
 303:../../core/ST/Middlewares/Third_Party/FreeRTOS/Source/timers.c **** 
ARM GAS  C:\Users\yvesk\AppData\Local\Temp\ccsb6O8c.s 			page 31


 504              		.loc 1 303 2 is_stmt 0 view .LVU121
 505 002a 2046     		mov	r0, r4
 506 002c 02B0     		add	sp, sp, #8
 507              	.LCFI8:
 508              		.cfi_def_cfa_offset 24
 509              		@ sp needed
 510 002e BDE8F081 		pop	{r4, r5, r6, r7, r8, pc}
 303:../../core/ST/Middlewares/Third_Party/FreeRTOS/Source/timers.c **** 
 511              		.loc 1 303 2 view .LVU122
 512              		.cfi_endproc
 513              	.LFE6:
 515              		.section	.text.xTimerGenericCommand,"ax",%progbits
 516              		.align	1
 517              		.global	xTimerGenericCommand
 518              		.syntax unified
 519              		.thumb
 520              		.thumb_func
 521              		.fpu fpv4-sp-d16
 523              	xTimerGenericCommand:
 524              	.LVL42:
 525              	.LFB8:
 382:../../core/ST/Middlewares/Third_Party/FreeRTOS/Source/timers.c **** BaseType_t xReturn = pdFAIL;
 526              		.loc 1 382 1 is_stmt 1 view -0
 527              		.cfi_startproc
 528              		@ args = 4, pretend = 0, frame = 16
 529              		@ frame_needed = 0, uses_anonymous_args = 0
 383:../../core/ST/Middlewares/Third_Party/FreeRTOS/Source/timers.c **** DaemonTaskMessage_t xMessage;
 530              		.loc 1 383 1 view .LVU124
 384:../../core/ST/Middlewares/Third_Party/FreeRTOS/Source/timers.c **** 
 531              		.loc 1 384 1 view .LVU125
 386:../../core/ST/Middlewares/Third_Party/FreeRTOS/Source/timers.c **** 
 532              		.loc 1 386 2 view .LVU126
 533 0000 C0B1     		cbz	r0, .L46
 382:../../core/ST/Middlewares/Third_Party/FreeRTOS/Source/timers.c **** BaseType_t xReturn = pdFAIL;
 534              		.loc 1 382 1 is_stmt 0 discriminator 2 view .LVU127
 535 0002 30B5     		push	{r4, r5, lr}
 536              	.LCFI9:
 537              		.cfi_def_cfa_offset 12
 538              		.cfi_offset 4, -12
 539              		.cfi_offset 5, -8
 540              		.cfi_offset 14, -4
 541 0004 85B0     		sub	sp, sp, #20
 542              	.LCFI10:
 543              		.cfi_def_cfa_offset 32
 544 0006 1546     		mov	r5, r2
 545 0008 0446     		mov	r4, r0
 386:../../core/ST/Middlewares/Third_Party/FreeRTOS/Source/timers.c **** 
 546              		.loc 1 386 24 is_stmt 1 discriminator 2 view .LVU128
 390:../../core/ST/Middlewares/Third_Party/FreeRTOS/Source/timers.c **** 	{
 547              		.loc 1 390 2 discriminator 2 view .LVU129
 390:../../core/ST/Middlewares/Third_Party/FreeRTOS/Source/timers.c **** 	{
 548              		.loc 1 390 18 is_stmt 0 discriminator 2 view .LVU130
 549 000a 174A     		ldr	r2, .L48
 550              	.LVL43:
 390:../../core/ST/Middlewares/Third_Party/FreeRTOS/Source/timers.c **** 	{
 551              		.loc 1 390 18 discriminator 2 view .LVU131
 552 000c 1068     		ldr	r0, [r2]
ARM GAS  C:\Users\yvesk\AppData\Local\Temp\ccsb6O8c.s 			page 32


 553              	.LVL44:
 390:../../core/ST/Middlewares/Third_Party/FreeRTOS/Source/timers.c **** 	{
 554              		.loc 1 390 4 discriminator 2 view .LVU132
 555 000e 40B3     		cbz	r0, .L43
 556 0010 1A46     		mov	r2, r3
 393:../../core/ST/Middlewares/Third_Party/FreeRTOS/Source/timers.c **** 		xMessage.u.xTimerParameters.xMessageValue = xOptionalValue;
 557              		.loc 1 393 3 is_stmt 1 view .LVU133
 393:../../core/ST/Middlewares/Third_Party/FreeRTOS/Source/timers.c **** 		xMessage.u.xTimerParameters.xMessageValue = xOptionalValue;
 558              		.loc 1 393 23 is_stmt 0 view .LVU134
 559 0012 0191     		str	r1, [sp, #4]
 394:../../core/ST/Middlewares/Third_Party/FreeRTOS/Source/timers.c **** 		xMessage.u.xTimerParameters.pxTimer = ( Timer_t * ) xTimer;
 560              		.loc 1 394 3 is_stmt 1 view .LVU135
 394:../../core/ST/Middlewares/Third_Party/FreeRTOS/Source/timers.c **** 		xMessage.u.xTimerParameters.pxTimer = ( Timer_t * ) xTimer;
 561              		.loc 1 394 45 is_stmt 0 view .LVU136
 562 0014 0295     		str	r5, [sp, #8]
 395:../../core/ST/Middlewares/Third_Party/FreeRTOS/Source/timers.c **** 
 563              		.loc 1 395 3 is_stmt 1 view .LVU137
 395:../../core/ST/Middlewares/Third_Party/FreeRTOS/Source/timers.c **** 
 564              		.loc 1 395 39 is_stmt 0 view .LVU138
 565 0016 0394     		str	r4, [sp, #12]
 397:../../core/ST/Middlewares/Third_Party/FreeRTOS/Source/timers.c **** 		{
 566              		.loc 1 397 3 is_stmt 1 view .LVU139
 397:../../core/ST/Middlewares/Third_Party/FreeRTOS/Source/timers.c **** 		{
 567              		.loc 1 397 5 is_stmt 0 view .LVU140
 568 0018 0529     		cmp	r1, #5
 569 001a 1CDC     		bgt	.L41
 399:../../core/ST/Middlewares/Third_Party/FreeRTOS/Source/timers.c **** 			{
 570              		.loc 1 399 4 is_stmt 1 view .LVU141
 399:../../core/ST/Middlewares/Third_Party/FreeRTOS/Source/timers.c **** 			{
 571              		.loc 1 399 8 is_stmt 0 view .LVU142
 572 001c FFF7FEFF 		bl	xTaskGetSchedulerState
 573              	.LVL45:
 399:../../core/ST/Middlewares/Third_Party/FreeRTOS/Source/timers.c **** 			{
 574              		.loc 1 399 6 view .LVU143
 575 0020 0228     		cmp	r0, #2
 576 0022 10D0     		beq	.L47
 405:../../core/ST/Middlewares/Third_Party/FreeRTOS/Source/timers.c **** 			}
 577              		.loc 1 405 5 is_stmt 1 view .LVU144
 405:../../core/ST/Middlewares/Third_Party/FreeRTOS/Source/timers.c **** 			}
 578              		.loc 1 405 15 is_stmt 0 view .LVU145
 579 0024 0023     		movs	r3, #0
 580 0026 1A46     		mov	r2, r3
 581 0028 01A9     		add	r1, sp, #4
 582 002a 0F48     		ldr	r0, .L48
 583 002c 0068     		ldr	r0, [r0]
 584 002e FFF7FEFF 		bl	xQueueGenericSend
 585              	.LVL46:
 405:../../core/ST/Middlewares/Third_Party/FreeRTOS/Source/timers.c **** 			}
 586              		.loc 1 405 15 view .LVU146
 587 0032 14E0     		b	.L37
 588              	.LVL47:
 589              	.L46:
 590              	.LCFI11:
 591              		.cfi_def_cfa_offset 0
 592              		.cfi_restore 4
 593              		.cfi_restore 5
 594              		.cfi_restore 14
ARM GAS  C:\Users\yvesk\AppData\Local\Temp\ccsb6O8c.s 			page 33


 386:../../core/ST/Middlewares/Third_Party/FreeRTOS/Source/timers.c **** 
 595              		.loc 1 386 2 is_stmt 1 view .LVU147
 596              	.LBB34:
 597              	.LBI34:
 191:../../core/ST/Middlewares/Third_Party/FreeRTOS/Source/portable/GCC/ARM_CM4F/portmacro.h **** {
 598              		.loc 2 191 30 view .LVU148
 599              	.LBB35:
 193:../../core/ST/Middlewares/Third_Party/FreeRTOS/Source/portable/GCC/ARM_CM4F/portmacro.h **** 
 600              		.loc 2 193 1 view .LVU149
 601              		.loc 2 195 2 view .LVU150
 602              		.syntax unified
 603              	@ 195 "../../core/ST/Middlewares/Third_Party/FreeRTOS/Source/portable/GCC/ARM_CM4F/portmacro.h" 1
 604 0034 4FF01003 			mov r3, #16												
 605 0038 83F31188 		msr basepri, r3											
 606 003c BFF36F8F 		isb														
 607 0040 BFF34F8F 		dsb														
 608              	
 609              	@ 0 "" 2
 610              	.LVL48:
 611              		.thumb
 612              		.syntax unified
 613              	.L39:
 614              		.loc 2 195 2 is_stmt 0 view .LVU151
 615              	.LBE35:
 616              	.LBE34:
 386:../../core/ST/Middlewares/Third_Party/FreeRTOS/Source/timers.c **** 
 617              		.loc 1 386 2 is_stmt 1 discriminator 1 view .LVU152
 386:../../core/ST/Middlewares/Third_Party/FreeRTOS/Source/timers.c **** 
 618              		.loc 1 386 2 discriminator 1 view .LVU153
 619 0044 FEE7     		b	.L39
 620              	.LVL49:
 621              	.L47:
 622              	.LCFI12:
 623              		.cfi_def_cfa_offset 32
 624              		.cfi_offset 4, -12
 625              		.cfi_offset 5, -8
 626              		.cfi_offset 14, -4
 401:../../core/ST/Middlewares/Third_Party/FreeRTOS/Source/timers.c **** 			}
 627              		.loc 1 401 5 view .LVU154
 401:../../core/ST/Middlewares/Third_Party/FreeRTOS/Source/timers.c **** 			}
 628              		.loc 1 401 15 is_stmt 0 view .LVU155
 629 0046 0023     		movs	r3, #0
 630 0048 089A     		ldr	r2, [sp, #32]
 631 004a 01A9     		add	r1, sp, #4
 632 004c 0648     		ldr	r0, .L48
 633 004e 0068     		ldr	r0, [r0]
 634 0050 FFF7FEFF 		bl	xQueueGenericSend
 635              	.LVL50:
 401:../../core/ST/Middlewares/Third_Party/FreeRTOS/Source/timers.c **** 			}
 636              		.loc 1 401 15 view .LVU156
 637 0054 03E0     		b	.L37
 638              	.LVL51:
 639              	.L41:
 410:../../core/ST/Middlewares/Third_Party/FreeRTOS/Source/timers.c **** 		}
 640              		.loc 1 410 4 is_stmt 1 view .LVU157
 410:../../core/ST/Middlewares/Third_Party/FreeRTOS/Source/timers.c **** 		}
 641              		.loc 1 410 14 is_stmt 0 view .LVU158
ARM GAS  C:\Users\yvesk\AppData\Local\Temp\ccsb6O8c.s 			page 34


 642 0056 0023     		movs	r3, #0
 643 0058 01A9     		add	r1, sp, #4
 644              	.LVL52:
 410:../../core/ST/Middlewares/Third_Party/FreeRTOS/Source/timers.c **** 		}
 645              		.loc 1 410 14 view .LVU159
 646 005a FFF7FEFF 		bl	xQueueGenericSendFromISR
 647              	.LVL53:
 648              	.L37:
 421:../../core/ST/Middlewares/Third_Party/FreeRTOS/Source/timers.c **** /*-----------------------------------------------------------*/
 649              		.loc 1 421 1 view .LVU160
 650 005e 05B0     		add	sp, sp, #20
 651              	.LCFI13:
 652              		.cfi_remember_state
 653              		.cfi_def_cfa_offset 12
 654              		@ sp needed
 655 0060 30BD     		pop	{r4, r5, pc}
 656              	.LVL54:
 657              	.L43:
 658              	.LCFI14:
 659              		.cfi_restore_state
 383:../../core/ST/Middlewares/Third_Party/FreeRTOS/Source/timers.c **** DaemonTaskMessage_t xMessage;
 660              		.loc 1 383 12 view .LVU161
 661 0062 0020     		movs	r0, #0
 417:../../core/ST/Middlewares/Third_Party/FreeRTOS/Source/timers.c **** 	}
 662              		.loc 1 417 27 is_stmt 1 view .LVU162
 420:../../core/ST/Middlewares/Third_Party/FreeRTOS/Source/timers.c **** }
 663              		.loc 1 420 2 view .LVU163
 420:../../core/ST/Middlewares/Third_Party/FreeRTOS/Source/timers.c **** }
 664              		.loc 1 420 9 is_stmt 0 view .LVU164
 665 0064 FBE7     		b	.L37
 666              	.L49:
 667 0066 00BF     		.align	2
 668              	.L48:
 669 0068 00000000 		.word	.LANCHOR2
 670              		.cfi_endproc
 671              	.LFE8:
 673              		.section	.text.prvSwitchTimerLists,"ax",%progbits
 674              		.align	1
 675              		.syntax unified
 676              		.thumb
 677              		.thumb_func
 678              		.fpu fpv4-sp-d16
 680              	prvSwitchTimerLists:
 681              	.LFB20:
 836:../../core/ST/Middlewares/Third_Party/FreeRTOS/Source/timers.c **** TickType_t xNextExpireTime, xReloadTime;
 682              		.loc 1 836 1 is_stmt 1 view -0
 683              		.cfi_startproc
 684              		@ args = 0, pretend = 0, frame = 0
 685              		@ frame_needed = 0, uses_anonymous_args = 0
 686 0000 70B5     		push	{r4, r5, r6, lr}
 687              	.LCFI15:
 688              		.cfi_def_cfa_offset 16
 689              		.cfi_offset 4, -16
 690              		.cfi_offset 5, -12
 691              		.cfi_offset 6, -8
 692              		.cfi_offset 14, -4
 693 0002 82B0     		sub	sp, sp, #8
ARM GAS  C:\Users\yvesk\AppData\Local\Temp\ccsb6O8c.s 			page 35


 694              	.LCFI16:
 695              		.cfi_def_cfa_offset 24
 837:../../core/ST/Middlewares/Third_Party/FreeRTOS/Source/timers.c **** List_t *pxTemp;
 696              		.loc 1 837 1 view .LVU166
 838:../../core/ST/Middlewares/Third_Party/FreeRTOS/Source/timers.c **** Timer_t *pxTimer;
 697              		.loc 1 838 1 view .LVU167
 839:../../core/ST/Middlewares/Third_Party/FreeRTOS/Source/timers.c **** BaseType_t xResult;
 698              		.loc 1 839 1 view .LVU168
 840:../../core/ST/Middlewares/Third_Party/FreeRTOS/Source/timers.c **** 
 699              		.loc 1 840 1 view .LVU169
 846:../../core/ST/Middlewares/Third_Party/FreeRTOS/Source/timers.c **** 	{
 700              		.loc 1 846 2 view .LVU170
 701              	.L52:
 884:../../core/ST/Middlewares/Third_Party/FreeRTOS/Source/timers.c **** 		}
 702              		.loc 1 884 28 view .LVU171
 846:../../core/ST/Middlewares/Third_Party/FreeRTOS/Source/timers.c **** 	{
 703              		.loc 1 846 9 is_stmt 0 view .LVU172
 704 0004 1A4B     		ldr	r3, .L59
 705 0006 1B68     		ldr	r3, [r3]
 706 0008 1A68     		ldr	r2, [r3]
 846:../../core/ST/Middlewares/Third_Party/FreeRTOS/Source/timers.c **** 	{
 707              		.loc 1 846 7 view .LVU173
 708 000a 52B3     		cbz	r2, .L58
 848:../../core/ST/Middlewares/Third_Party/FreeRTOS/Source/timers.c **** 
 709              		.loc 1 848 3 is_stmt 1 view .LVU174
 848:../../core/ST/Middlewares/Third_Party/FreeRTOS/Source/timers.c **** 
 710              		.loc 1 848 21 is_stmt 0 view .LVU175
 711 000c DB68     		ldr	r3, [r3, #12]
 848:../../core/ST/Middlewares/Third_Party/FreeRTOS/Source/timers.c **** 
 712              		.loc 1 848 19 view .LVU176
 713 000e 1E68     		ldr	r6, [r3]
 714              	.LVL55:
 851:../../core/ST/Middlewares/Third_Party/FreeRTOS/Source/timers.c **** 		( void ) uxListRemove( &( pxTimer->xTimerListItem ) );
 715              		.loc 1 851 3 is_stmt 1 view .LVU177
 851:../../core/ST/Middlewares/Third_Party/FreeRTOS/Source/timers.c **** 		( void ) uxListRemove( &( pxTimer->xTimerListItem ) );
 716              		.loc 1 851 11 is_stmt 0 view .LVU178
 717 0010 DC68     		ldr	r4, [r3, #12]
 718              	.LVL56:
 852:../../core/ST/Middlewares/Third_Party/FreeRTOS/Source/timers.c **** 		traceTIMER_EXPIRED( pxTimer );
 719              		.loc 1 852 3 is_stmt 1 view .LVU179
 852:../../core/ST/Middlewares/Third_Party/FreeRTOS/Source/timers.c **** 		traceTIMER_EXPIRED( pxTimer );
 720              		.loc 1 852 12 is_stmt 0 view .LVU180
 721 0012 251D     		adds	r5, r4, #4
 722 0014 2846     		mov	r0, r5
 723 0016 FFF7FEFF 		bl	uxListRemove
 724              	.LVL57:
 853:../../core/ST/Middlewares/Third_Party/FreeRTOS/Source/timers.c **** 
 725              		.loc 1 853 32 is_stmt 1 view .LVU181
 858:../../core/ST/Middlewares/Third_Party/FreeRTOS/Source/timers.c **** 
 726              		.loc 1 858 3 view .LVU182
 858:../../core/ST/Middlewares/Third_Party/FreeRTOS/Source/timers.c **** 
 727              		.loc 1 858 10 is_stmt 0 view .LVU183
 728 001a 636A     		ldr	r3, [r4, #36]
 858:../../core/ST/Middlewares/Third_Party/FreeRTOS/Source/timers.c **** 
 729              		.loc 1 858 3 view .LVU184
 730 001c 2046     		mov	r0, r4
 731 001e 9847     		blx	r3
ARM GAS  C:\Users\yvesk\AppData\Local\Temp\ccsb6O8c.s 			page 36


 732              	.LVL58:
 860:../../core/ST/Middlewares/Third_Party/FreeRTOS/Source/timers.c **** 		{
 733              		.loc 1 860 3 is_stmt 1 view .LVU185
 860:../../core/ST/Middlewares/Third_Party/FreeRTOS/Source/timers.c **** 		{
 734              		.loc 1 860 14 is_stmt 0 view .LVU186
 735 0020 E369     		ldr	r3, [r4, #28]
 860:../../core/ST/Middlewares/Third_Party/FreeRTOS/Source/timers.c **** 		{
 736              		.loc 1 860 5 view .LVU187
 737 0022 012B     		cmp	r3, #1
 738 0024 EED1     		bne	.L52
 868:../../core/ST/Middlewares/Third_Party/FreeRTOS/Source/timers.c **** 			if( xReloadTime > xNextExpireTime )
 739              		.loc 1 868 4 is_stmt 1 view .LVU188
 868:../../core/ST/Middlewares/Third_Party/FreeRTOS/Source/timers.c **** 			if( xReloadTime > xNextExpireTime )
 740              		.loc 1 868 45 is_stmt 0 view .LVU189
 741 0026 A369     		ldr	r3, [r4, #24]
 868:../../core/ST/Middlewares/Third_Party/FreeRTOS/Source/timers.c **** 			if( xReloadTime > xNextExpireTime )
 742              		.loc 1 868 16 view .LVU190
 743 0028 3344     		add	r3, r3, r6
 744              	.LVL59:
 869:../../core/ST/Middlewares/Third_Party/FreeRTOS/Source/timers.c **** 			{
 745              		.loc 1 869 4 is_stmt 1 view .LVU191
 869:../../core/ST/Middlewares/Third_Party/FreeRTOS/Source/timers.c **** 			{
 746              		.loc 1 869 6 is_stmt 0 view .LVU192
 747 002a 9E42     		cmp	r6, r3
 748 002c 07D2     		bcs	.L53
 871:../../core/ST/Middlewares/Third_Party/FreeRTOS/Source/timers.c **** 				listSET_LIST_ITEM_OWNER( &( pxTimer->xTimerListItem ), pxTimer );
 749              		.loc 1 871 5 is_stmt 1 view .LVU193
 750 002e 6360     		str	r3, [r4, #4]
 872:../../core/ST/Middlewares/Third_Party/FreeRTOS/Source/timers.c **** 				vListInsert( pxCurrentTimerList, &( pxTimer->xTimerListItem ) );
 751              		.loc 1 872 5 view .LVU194
 752 0030 2461     		str	r4, [r4, #16]
 873:../../core/ST/Middlewares/Third_Party/FreeRTOS/Source/timers.c **** 			}
 753              		.loc 1 873 5 view .LVU195
 754 0032 2946     		mov	r1, r5
 755 0034 0E4B     		ldr	r3, .L59
 756              	.LVL60:
 873:../../core/ST/Middlewares/Third_Party/FreeRTOS/Source/timers.c **** 			}
 757              		.loc 1 873 5 is_stmt 0 view .LVU196
 758 0036 1868     		ldr	r0, [r3]
 759 0038 FFF7FEFF 		bl	vListInsert
 760              	.LVL61:
 873:../../core/ST/Middlewares/Third_Party/FreeRTOS/Source/timers.c **** 			}
 761              		.loc 1 873 5 view .LVU197
 762 003c E2E7     		b	.L52
 763              	.LVL62:
 764              	.L53:
 877:../../core/ST/Middlewares/Third_Party/FreeRTOS/Source/timers.c **** 				configASSERT( xResult );
 765              		.loc 1 877 5 is_stmt 1 view .LVU198
 877:../../core/ST/Middlewares/Third_Party/FreeRTOS/Source/timers.c **** 				configASSERT( xResult );
 766              		.loc 1 877 15 is_stmt 0 view .LVU199
 767 003e 0021     		movs	r1, #0
 768 0040 0091     		str	r1, [sp]
 769 0042 0B46     		mov	r3, r1
 770              	.LVL63:
 877:../../core/ST/Middlewares/Third_Party/FreeRTOS/Source/timers.c **** 				configASSERT( xResult );
 771              		.loc 1 877 15 view .LVU200
 772 0044 3246     		mov	r2, r6
ARM GAS  C:\Users\yvesk\AppData\Local\Temp\ccsb6O8c.s 			page 37


 773 0046 2046     		mov	r0, r4
 774 0048 FFF7FEFF 		bl	xTimerGenericCommand
 775              	.LVL64:
 878:../../core/ST/Middlewares/Third_Party/FreeRTOS/Source/timers.c **** 				( void ) xResult;
 776              		.loc 1 878 5 is_stmt 1 view .LVU201
 777 004c 0028     		cmp	r0, #0
 778 004e D9D1     		bne	.L52
 878:../../core/ST/Middlewares/Third_Party/FreeRTOS/Source/timers.c **** 				( void ) xResult;
 779              		.loc 1 878 5 view .LVU202
 780              	.LBB36:
 781              	.LBI36:
 191:../../core/ST/Middlewares/Third_Party/FreeRTOS/Source/portable/GCC/ARM_CM4F/portmacro.h **** {
 782              		.loc 2 191 30 view .LVU203
 783              	.LBB37:
 193:../../core/ST/Middlewares/Third_Party/FreeRTOS/Source/portable/GCC/ARM_CM4F/portmacro.h **** 
 784              		.loc 2 193 1 view .LVU204
 785              		.loc 2 195 2 view .LVU205
 786              		.syntax unified
 787              	@ 195 "../../core/ST/Middlewares/Third_Party/FreeRTOS/Source/portable/GCC/ARM_CM4F/portmacro.h" 1
 788 0050 4FF01003 			mov r3, #16												
 789 0054 83F31188 		msr basepri, r3											
 790 0058 BFF36F8F 		isb														
 791 005c BFF34F8F 		dsb														
 792              	
 793              	@ 0 "" 2
 794              	.LVL65:
 795              		.thumb
 796              		.syntax unified
 797              	.L55:
 798              		.loc 2 195 2 is_stmt 0 view .LVU206
 799              	.LBE37:
 800              	.LBE36:
 878:../../core/ST/Middlewares/Third_Party/FreeRTOS/Source/timers.c **** 				( void ) xResult;
 801              		.loc 1 878 5 is_stmt 1 discriminator 1 view .LVU207
 878:../../core/ST/Middlewares/Third_Party/FreeRTOS/Source/timers.c **** 				( void ) xResult;
 802              		.loc 1 878 5 discriminator 1 view .LVU208
 803 0060 FEE7     		b	.L55
 804              	.LVL66:
 805              	.L58:
 888:../../core/ST/Middlewares/Third_Party/FreeRTOS/Source/timers.c **** 	pxCurrentTimerList = pxOverflowTimerList;
 806              		.loc 1 888 2 view .LVU209
 889:../../core/ST/Middlewares/Third_Party/FreeRTOS/Source/timers.c **** 	pxOverflowTimerList = pxTemp;
 807              		.loc 1 889 2 view .LVU210
 889:../../core/ST/Middlewares/Third_Party/FreeRTOS/Source/timers.c **** 	pxOverflowTimerList = pxTemp;
 808              		.loc 1 889 21 is_stmt 0 view .LVU211
 809 0062 044A     		ldr	r2, .L59+4
 810 0064 1068     		ldr	r0, [r2]
 811 0066 0249     		ldr	r1, .L59
 812 0068 0860     		str	r0, [r1]
 890:../../core/ST/Middlewares/Third_Party/FreeRTOS/Source/timers.c **** }
 813              		.loc 1 890 2 is_stmt 1 view .LVU212
 890:../../core/ST/Middlewares/Third_Party/FreeRTOS/Source/timers.c **** }
 814              		.loc 1 890 22 is_stmt 0 view .LVU213
 815 006a 1360     		str	r3, [r2]
 891:../../core/ST/Middlewares/Third_Party/FreeRTOS/Source/timers.c **** /*-----------------------------------------------------------*/
 816              		.loc 1 891 1 view .LVU214
 817 006c 02B0     		add	sp, sp, #8
ARM GAS  C:\Users\yvesk\AppData\Local\Temp\ccsb6O8c.s 			page 38


 818              	.LCFI17:
 819              		.cfi_def_cfa_offset 16
 820              		@ sp needed
 821 006e 70BD     		pop	{r4, r5, r6, pc}
 822              	.L60:
 823              		.align	2
 824              	.L59:
 825 0070 00000000 		.word	.LANCHOR0
 826 0074 00000000 		.word	.LANCHOR1
 827              		.cfi_endproc
 828              	.LFE20:
 830              		.section	.text.prvSampleTimeNow,"ax",%progbits
 831              		.align	1
 832              		.syntax unified
 833              		.thumb
 834              		.thumb_func
 835              		.fpu fpv4-sp-d16
 837              	prvSampleTimeNow:
 838              	.LVL67:
 839              	.LFB17:
 625:../../core/ST/Middlewares/Third_Party/FreeRTOS/Source/timers.c **** TickType_t xTimeNow;
 840              		.loc 1 625 1 is_stmt 1 view -0
 841              		.cfi_startproc
 842              		@ args = 0, pretend = 0, frame = 0
 843              		@ frame_needed = 0, uses_anonymous_args = 0
 625:../../core/ST/Middlewares/Third_Party/FreeRTOS/Source/timers.c **** TickType_t xTimeNow;
 844              		.loc 1 625 1 is_stmt 0 view .LVU216
 845 0000 38B5     		push	{r3, r4, r5, lr}
 846              	.LCFI18:
 847              		.cfi_def_cfa_offset 16
 848              		.cfi_offset 3, -16
 849              		.cfi_offset 4, -12
 850              		.cfi_offset 5, -8
 851              		.cfi_offset 14, -4
 852 0002 0546     		mov	r5, r0
 626:../../core/ST/Middlewares/Third_Party/FreeRTOS/Source/timers.c **** PRIVILEGED_DATA static TickType_t xLastTime = ( TickType_t ) 0U; /*lint !e956 Variable is only acce
 853              		.loc 1 626 1 is_stmt 1 view .LVU217
 627:../../core/ST/Middlewares/Third_Party/FreeRTOS/Source/timers.c **** 
 854              		.loc 1 627 17 view .LVU218
 629:../../core/ST/Middlewares/Third_Party/FreeRTOS/Source/timers.c **** 
 855              		.loc 1 629 2 view .LVU219
 629:../../core/ST/Middlewares/Third_Party/FreeRTOS/Source/timers.c **** 
 856              		.loc 1 629 13 is_stmt 0 view .LVU220
 857 0004 FFF7FEFF 		bl	xTaskGetTickCount
 858              	.LVL68:
 629:../../core/ST/Middlewares/Third_Party/FreeRTOS/Source/timers.c **** 
 859              		.loc 1 629 13 view .LVU221
 860 0008 0446     		mov	r4, r0
 861              	.LVL69:
 631:../../core/ST/Middlewares/Third_Party/FreeRTOS/Source/timers.c **** 	{
 862              		.loc 1 631 2 is_stmt 1 view .LVU222
 631:../../core/ST/Middlewares/Third_Party/FreeRTOS/Source/timers.c **** 	{
 863              		.loc 1 631 15 is_stmt 0 view .LVU223
 864 000a 074B     		ldr	r3, .L66
 865 000c 1B68     		ldr	r3, [r3]
 631:../../core/ST/Middlewares/Third_Party/FreeRTOS/Source/timers.c **** 	{
 866              		.loc 1 631 4 view .LVU224
ARM GAS  C:\Users\yvesk\AppData\Local\Temp\ccsb6O8c.s 			page 39


 867 000e 8342     		cmp	r3, r0
 868 0010 05D8     		bhi	.L65
 638:../../core/ST/Middlewares/Third_Party/FreeRTOS/Source/timers.c **** 	}
 869              		.loc 1 638 3 is_stmt 1 view .LVU225
 638:../../core/ST/Middlewares/Third_Party/FreeRTOS/Source/timers.c **** 	}
 870              		.loc 1 638 29 is_stmt 0 view .LVU226
 871 0012 0023     		movs	r3, #0
 872 0014 2B60     		str	r3, [r5]
 873              	.LVL70:
 874              	.L63:
 641:../../core/ST/Middlewares/Third_Party/FreeRTOS/Source/timers.c **** 
 875              		.loc 1 641 2 is_stmt 1 view .LVU227
 641:../../core/ST/Middlewares/Third_Party/FreeRTOS/Source/timers.c **** 
 876              		.loc 1 641 12 is_stmt 0 view .LVU228
 877 0016 044B     		ldr	r3, .L66
 878 0018 1C60     		str	r4, [r3]
 643:../../core/ST/Middlewares/Third_Party/FreeRTOS/Source/timers.c **** }
 879              		.loc 1 643 2 is_stmt 1 view .LVU229
 644:../../core/ST/Middlewares/Third_Party/FreeRTOS/Source/timers.c **** /*-----------------------------------------------------------*/
 880              		.loc 1 644 1 is_stmt 0 view .LVU230
 881 001a 2046     		mov	r0, r4
 882 001c 38BD     		pop	{r3, r4, r5, pc}
 883              	.LVL71:
 884              	.L65:
 633:../../core/ST/Middlewares/Third_Party/FreeRTOS/Source/timers.c **** 		*pxTimerListsWereSwitched = pdTRUE;
 885              		.loc 1 633 3 is_stmt 1 view .LVU231
 886 001e FFF7FEFF 		bl	prvSwitchTimerLists
 887              	.LVL72:
 634:../../core/ST/Middlewares/Third_Party/FreeRTOS/Source/timers.c **** 	}
 888              		.loc 1 634 3 view .LVU232
 634:../../core/ST/Middlewares/Third_Party/FreeRTOS/Source/timers.c **** 	}
 889              		.loc 1 634 29 is_stmt 0 view .LVU233
 890 0022 0123     		movs	r3, #1
 891 0024 2B60     		str	r3, [r5]
 892 0026 F6E7     		b	.L63
 893              	.L67:
 894              		.align	2
 895              	.L66:
 896 0028 00000000 		.word	.LANCHOR6
 897              		.cfi_endproc
 898              	.LFE17:
 900              		.section	.text.prvProcessExpiredTimer,"ax",%progbits
 901              		.align	1
 902              		.syntax unified
 903              		.thumb
 904              		.thumb_func
 905              		.fpu fpv4-sp-d16
 907              	prvProcessExpiredTimer:
 908              	.LVL73:
 909              	.LFB13:
 463:../../core/ST/Middlewares/Third_Party/FreeRTOS/Source/timers.c **** BaseType_t xResult;
 910              		.loc 1 463 1 is_stmt 1 view -0
 911              		.cfi_startproc
 912              		@ args = 0, pretend = 0, frame = 0
 913              		@ frame_needed = 0, uses_anonymous_args = 0
 463:../../core/ST/Middlewares/Third_Party/FreeRTOS/Source/timers.c **** BaseType_t xResult;
 914              		.loc 1 463 1 is_stmt 0 view .LVU235
ARM GAS  C:\Users\yvesk\AppData\Local\Temp\ccsb6O8c.s 			page 40


 915 0000 70B5     		push	{r4, r5, r6, lr}
 916              	.LCFI19:
 917              		.cfi_def_cfa_offset 16
 918              		.cfi_offset 4, -16
 919              		.cfi_offset 5, -12
 920              		.cfi_offset 6, -8
 921              		.cfi_offset 14, -4
 922 0002 82B0     		sub	sp, sp, #8
 923              	.LCFI20:
 924              		.cfi_def_cfa_offset 24
 925 0004 0546     		mov	r5, r0
 926 0006 0E46     		mov	r6, r1
 464:../../core/ST/Middlewares/Third_Party/FreeRTOS/Source/timers.c **** Timer_t * const pxTimer = ( Timer_t * ) listGET_OWNER_OF_HEAD_ENTRY( pxCurrentTimerList );
 927              		.loc 1 464 1 is_stmt 1 view .LVU236
 465:../../core/ST/Middlewares/Third_Party/FreeRTOS/Source/timers.c **** 
 928              		.loc 1 465 1 view .LVU237
 465:../../core/ST/Middlewares/Third_Party/FreeRTOS/Source/timers.c **** 
 929              		.loc 1 465 41 is_stmt 0 view .LVU238
 930 0008 144B     		ldr	r3, .L73
 931 000a 1B68     		ldr	r3, [r3]
 932 000c DB68     		ldr	r3, [r3, #12]
 465:../../core/ST/Middlewares/Third_Party/FreeRTOS/Source/timers.c **** 
 933              		.loc 1 465 17 view .LVU239
 934 000e DC68     		ldr	r4, [r3, #12]
 935              	.LVL74:
 469:../../core/ST/Middlewares/Third_Party/FreeRTOS/Source/timers.c **** 	traceTIMER_EXPIRED( pxTimer );
 936              		.loc 1 469 2 is_stmt 1 view .LVU240
 469:../../core/ST/Middlewares/Third_Party/FreeRTOS/Source/timers.c **** 	traceTIMER_EXPIRED( pxTimer );
 937              		.loc 1 469 11 is_stmt 0 view .LVU241
 938 0010 201D     		adds	r0, r4, #4
 939              	.LVL75:
 469:../../core/ST/Middlewares/Third_Party/FreeRTOS/Source/timers.c **** 	traceTIMER_EXPIRED( pxTimer );
 940              		.loc 1 469 11 view .LVU242
 941 0012 FFF7FEFF 		bl	uxListRemove
 942              	.LVL76:
 470:../../core/ST/Middlewares/Third_Party/FreeRTOS/Source/timers.c **** 
 943              		.loc 1 470 31 is_stmt 1 view .LVU243
 474:../../core/ST/Middlewares/Third_Party/FreeRTOS/Source/timers.c **** 	{
 944              		.loc 1 474 2 view .LVU244
 474:../../core/ST/Middlewares/Third_Party/FreeRTOS/Source/timers.c **** 	{
 945              		.loc 1 474 13 is_stmt 0 view .LVU245
 946 0016 E369     		ldr	r3, [r4, #28]
 474:../../core/ST/Middlewares/Third_Party/FreeRTOS/Source/timers.c **** 	{
 947              		.loc 1 474 4 view .LVU246
 948 0018 012B     		cmp	r3, #1
 949 001a 04D0     		beq	.L72
 950              	.L69:
 494:../../core/ST/Middlewares/Third_Party/FreeRTOS/Source/timers.c **** 	}
 951              		.loc 1 494 27 is_stmt 1 view .LVU247
 498:../../core/ST/Middlewares/Third_Party/FreeRTOS/Source/timers.c **** }
 952              		.loc 1 498 2 view .LVU248
 498:../../core/ST/Middlewares/Third_Party/FreeRTOS/Source/timers.c **** }
 953              		.loc 1 498 9 is_stmt 0 view .LVU249
 954 001c 636A     		ldr	r3, [r4, #36]
 498:../../core/ST/Middlewares/Third_Party/FreeRTOS/Source/timers.c **** }
 955              		.loc 1 498 2 view .LVU250
 956 001e 2046     		mov	r0, r4
ARM GAS  C:\Users\yvesk\AppData\Local\Temp\ccsb6O8c.s 			page 41


 957 0020 9847     		blx	r3
 958              	.LVL77:
 499:../../core/ST/Middlewares/Third_Party/FreeRTOS/Source/timers.c **** /*-----------------------------------------------------------*/
 959              		.loc 1 499 1 view .LVU251
 960 0022 02B0     		add	sp, sp, #8
 961              	.LCFI21:
 962              		.cfi_remember_state
 963              		.cfi_def_cfa_offset 16
 964              		@ sp needed
 965 0024 70BD     		pop	{r4, r5, r6, pc}
 966              	.LVL78:
 967              	.L72:
 968              	.LCFI22:
 969              		.cfi_restore_state
 479:../../core/ST/Middlewares/Third_Party/FreeRTOS/Source/timers.c **** 		{
 970              		.loc 1 479 3 is_stmt 1 view .LVU252
 479:../../core/ST/Middlewares/Third_Party/FreeRTOS/Source/timers.c **** 		{
 971              		.loc 1 479 71 is_stmt 0 view .LVU253
 972 0026 A169     		ldr	r1, [r4, #24]
 479:../../core/ST/Middlewares/Third_Party/FreeRTOS/Source/timers.c **** 		{
 973              		.loc 1 479 7 view .LVU254
 974 0028 2B46     		mov	r3, r5
 975 002a 3246     		mov	r2, r6
 976 002c 2944     		add	r1, r1, r5
 977 002e 2046     		mov	r0, r4
 978 0030 FFF7FEFF 		bl	prvInsertTimerInActiveList
 979              	.LVL79:
 479:../../core/ST/Middlewares/Third_Party/FreeRTOS/Source/timers.c **** 		{
 980              		.loc 1 479 5 view .LVU255
 981 0034 0028     		cmp	r0, #0
 982 0036 F1D0     		beq	.L69
 483:../../core/ST/Middlewares/Third_Party/FreeRTOS/Source/timers.c **** 			configASSERT( xResult );
 983              		.loc 1 483 4 is_stmt 1 view .LVU256
 483:../../core/ST/Middlewares/Third_Party/FreeRTOS/Source/timers.c **** 			configASSERT( xResult );
 984              		.loc 1 483 14 is_stmt 0 view .LVU257
 985 0038 0021     		movs	r1, #0
 986 003a 0091     		str	r1, [sp]
 987 003c 0B46     		mov	r3, r1
 988 003e 2A46     		mov	r2, r5
 989 0040 2046     		mov	r0, r4
 990 0042 FFF7FEFF 		bl	xTimerGenericCommand
 991              	.LVL80:
 484:../../core/ST/Middlewares/Third_Party/FreeRTOS/Source/timers.c **** 			( void ) xResult;
 992              		.loc 1 484 4 is_stmt 1 view .LVU258
 993 0046 0028     		cmp	r0, #0
 994 0048 E8D1     		bne	.L69
 484:../../core/ST/Middlewares/Third_Party/FreeRTOS/Source/timers.c **** 			( void ) xResult;
 995              		.loc 1 484 4 view .LVU259
 996              	.LBB38:
 997              	.LBI38:
 191:../../core/ST/Middlewares/Third_Party/FreeRTOS/Source/portable/GCC/ARM_CM4F/portmacro.h **** {
 998              		.loc 2 191 30 view .LVU260
 999              	.LBB39:
 193:../../core/ST/Middlewares/Third_Party/FreeRTOS/Source/portable/GCC/ARM_CM4F/portmacro.h **** 
 1000              		.loc 2 193 1 view .LVU261
 1001              		.loc 2 195 2 view .LVU262
 1002              		.syntax unified
ARM GAS  C:\Users\yvesk\AppData\Local\Temp\ccsb6O8c.s 			page 42


 1003              	@ 195 "../../core/ST/Middlewares/Third_Party/FreeRTOS/Source/portable/GCC/ARM_CM4F/portmacro.h" 1
 1004 004a 4FF01003 			mov r3, #16												
 1005 004e 83F31188 		msr basepri, r3											
 1006 0052 BFF36F8F 		isb														
 1007 0056 BFF34F8F 		dsb														
 1008              	
 1009              	@ 0 "" 2
 1010              	.LVL81:
 1011              		.thumb
 1012              		.syntax unified
 1013              	.L70:
 1014              		.loc 2 195 2 is_stmt 0 view .LVU263
 1015              	.LBE39:
 1016              	.LBE38:
 484:../../core/ST/Middlewares/Third_Party/FreeRTOS/Source/timers.c **** 			( void ) xResult;
 1017              		.loc 1 484 4 is_stmt 1 discriminator 1 view .LVU264
 484:../../core/ST/Middlewares/Third_Party/FreeRTOS/Source/timers.c **** 			( void ) xResult;
 1018              		.loc 1 484 4 discriminator 1 view .LVU265
 1019 005a FEE7     		b	.L70
 1020              	.L74:
 1021              		.align	2
 1022              	.L73:
 1023 005c 00000000 		.word	.LANCHOR0
 1024              		.cfi_endproc
 1025              	.LFE13:
 1027              		.section	.text.prvProcessTimerOrBlockTask,"ax",%progbits
 1028              		.align	1
 1029              		.syntax unified
 1030              		.thumb
 1031              		.thumb_func
 1032              		.fpu fpv4-sp-d16
 1034              	prvProcessTimerOrBlockTask:
 1035              	.LVL82:
 1036              	.LFB15:
 539:../../core/ST/Middlewares/Third_Party/FreeRTOS/Source/timers.c **** TickType_t xTimeNow;
 1037              		.loc 1 539 1 view -0
 1038              		.cfi_startproc
 1039              		@ args = 0, pretend = 0, frame = 8
 1040              		@ frame_needed = 0, uses_anonymous_args = 0
 539:../../core/ST/Middlewares/Third_Party/FreeRTOS/Source/timers.c **** TickType_t xTimeNow;
 1041              		.loc 1 539 1 is_stmt 0 view .LVU267
 1042 0000 70B5     		push	{r4, r5, r6, lr}
 1043              	.LCFI23:
 1044              		.cfi_def_cfa_offset 16
 1045              		.cfi_offset 4, -16
 1046              		.cfi_offset 5, -12
 1047              		.cfi_offset 6, -8
 1048              		.cfi_offset 14, -4
 1049 0002 82B0     		sub	sp, sp, #8
 1050              	.LCFI24:
 1051              		.cfi_def_cfa_offset 24
 1052 0004 0646     		mov	r6, r0
 1053 0006 0C46     		mov	r4, r1
 540:../../core/ST/Middlewares/Third_Party/FreeRTOS/Source/timers.c **** BaseType_t xTimerListsWereSwitched;
 1054              		.loc 1 540 1 is_stmt 1 view .LVU268
 541:../../core/ST/Middlewares/Third_Party/FreeRTOS/Source/timers.c **** 
 1055              		.loc 1 541 1 view .LVU269
ARM GAS  C:\Users\yvesk\AppData\Local\Temp\ccsb6O8c.s 			page 43


 543:../../core/ST/Middlewares/Third_Party/FreeRTOS/Source/timers.c **** 	{
 1056              		.loc 1 543 2 view .LVU270
 1057 0008 FFF7FEFF 		bl	vTaskSuspendAll
 1058              	.LVL83:
 550:../../core/ST/Middlewares/Third_Party/FreeRTOS/Source/timers.c **** 		if( xTimerListsWereSwitched == pdFALSE )
 1059              		.loc 1 550 3 view .LVU271
 550:../../core/ST/Middlewares/Third_Party/FreeRTOS/Source/timers.c **** 		if( xTimerListsWereSwitched == pdFALSE )
 1060              		.loc 1 550 14 is_stmt 0 view .LVU272
 1061 000c 01A8     		add	r0, sp, #4
 1062 000e FFF7FEFF 		bl	prvSampleTimeNow
 1063              	.LVL84:
 551:../../core/ST/Middlewares/Third_Party/FreeRTOS/Source/timers.c **** 		{
 1064              		.loc 1 551 3 is_stmt 1 view .LVU273
 551:../../core/ST/Middlewares/Third_Party/FreeRTOS/Source/timers.c **** 		{
 1065              		.loc 1 551 31 is_stmt 0 view .LVU274
 1066 0012 019B     		ldr	r3, [sp, #4]
 551:../../core/ST/Middlewares/Third_Party/FreeRTOS/Source/timers.c **** 		{
 1067              		.loc 1 551 5 view .LVU275
 1068 0014 1BBB     		cbnz	r3, .L76
 1069 0016 0546     		mov	r5, r0
 554:../../core/ST/Middlewares/Third_Party/FreeRTOS/Source/timers.c **** 			{
 1070              		.loc 1 554 4 is_stmt 1 view .LVU276
 554:../../core/ST/Middlewares/Third_Party/FreeRTOS/Source/timers.c **** 			{
 1071              		.loc 1 554 6 is_stmt 0 view .LVU277
 1072 0018 0CB9     		cbnz	r4, .L77
 554:../../core/ST/Middlewares/Third_Party/FreeRTOS/Source/timers.c **** 			{
 1073              		.loc 1 554 37 discriminator 1 view .LVU278
 1074 001a B042     		cmp	r0, r6
 1075 001c 18D2     		bcs	.L81
 1076              	.L77:
 567:../../core/ST/Middlewares/Third_Party/FreeRTOS/Source/timers.c **** 				{
 1077              		.loc 1 567 5 is_stmt 1 view .LVU279
 567:../../core/ST/Middlewares/Third_Party/FreeRTOS/Source/timers.c **** 				{
 1078              		.loc 1 567 7 is_stmt 0 view .LVU280
 1079 001e 2CB1     		cbz	r4, .L79
 571:../../core/ST/Middlewares/Third_Party/FreeRTOS/Source/timers.c **** 				}
 1080              		.loc 1 571 6 is_stmt 1 view .LVU281
 571:../../core/ST/Middlewares/Third_Party/FreeRTOS/Source/timers.c **** 				}
 1081              		.loc 1 571 22 is_stmt 0 view .LVU282
 1082 0020 114B     		ldr	r3, .L82
 1083 0022 1B68     		ldr	r3, [r3]
 1084 0024 1C68     		ldr	r4, [r3]
 1085              	.LVL85:
 571:../../core/ST/Middlewares/Third_Party/FreeRTOS/Source/timers.c **** 				}
 1086              		.loc 1 571 22 view .LVU283
 1087 0026 B4FA84F4 		clz	r4, r4
 1088 002a 6409     		lsrs	r4, r4, #5
 1089              	.LVL86:
 1090              	.L79:
 574:../../core/ST/Middlewares/Third_Party/FreeRTOS/Source/timers.c **** 
 1091              		.loc 1 574 5 is_stmt 1 view .LVU284
 1092 002c 2246     		mov	r2, r4
 1093 002e 711B     		subs	r1, r6, r5
 1094 0030 0E4B     		ldr	r3, .L82+4
 1095 0032 1868     		ldr	r0, [r3]
 1096              	.LVL87:
 574:../../core/ST/Middlewares/Third_Party/FreeRTOS/Source/timers.c **** 
ARM GAS  C:\Users\yvesk\AppData\Local\Temp\ccsb6O8c.s 			page 44


 1097              		.loc 1 574 5 is_stmt 0 view .LVU285
 1098 0034 FFF7FEFF 		bl	vQueueWaitForMessageRestricted
 1099              	.LVL88:
 576:../../core/ST/Middlewares/Third_Party/FreeRTOS/Source/timers.c **** 				{
 1100              		.loc 1 576 5 is_stmt 1 view .LVU286
 576:../../core/ST/Middlewares/Third_Party/FreeRTOS/Source/timers.c **** 				{
 1101              		.loc 1 576 9 is_stmt 0 view .LVU287
 1102 0038 FFF7FEFF 		bl	xTaskResumeAll
 1103              	.LVL89:
 576:../../core/ST/Middlewares/Third_Party/FreeRTOS/Source/timers.c **** 				{
 1104              		.loc 1 576 7 view .LVU288
 1105 003c 88B9     		cbnz	r0, .L75
 582:../../core/ST/Middlewares/Third_Party/FreeRTOS/Source/timers.c **** 				}
 1106              		.loc 1 582 6 is_stmt 1 view .LVU289
 1107 003e 0C4B     		ldr	r3, .L82+8
 1108 0040 4FF08052 		mov	r2, #268435456
 1109 0044 1A60     		str	r2, [r3]
 582:../../core/ST/Middlewares/Third_Party/FreeRTOS/Source/timers.c **** 				}
 1110              		.loc 1 582 6 view .LVU290
 1111              		.syntax unified
 1112              	@ 582 "../../core/ST/Middlewares/Third_Party/FreeRTOS/Source/timers.c" 1
 1113 0046 BFF34F8F 		dsb
 1114              	@ 0 "" 2
 582:../../core/ST/Middlewares/Third_Party/FreeRTOS/Source/timers.c **** 				}
 1115              		.loc 1 582 6 view .LVU291
 1116              	@ 582 "../../core/ST/Middlewares/Third_Party/FreeRTOS/Source/timers.c" 1
 1117 004a BFF36F8F 		isb
 1118              	@ 0 "" 2
 582:../../core/ST/Middlewares/Third_Party/FreeRTOS/Source/timers.c **** 				}
 1119              		.loc 1 582 28 view .LVU292
 1120              		.thumb
 1121              		.syntax unified
 1122 004e 08E0     		b	.L75
 1123              	.LVL90:
 1124              	.L81:
 556:../../core/ST/Middlewares/Third_Party/FreeRTOS/Source/timers.c **** 				prvProcessExpiredTimer( xNextExpireTime, xTimeNow );
 1125              		.loc 1 556 5 view .LVU293
 556:../../core/ST/Middlewares/Third_Party/FreeRTOS/Source/timers.c **** 				prvProcessExpiredTimer( xNextExpireTime, xTimeNow );
 1126              		.loc 1 556 14 is_stmt 0 view .LVU294
 1127 0050 FFF7FEFF 		bl	xTaskResumeAll
 1128              	.LVL91:
 557:../../core/ST/Middlewares/Third_Party/FreeRTOS/Source/timers.c **** 			}
 1129              		.loc 1 557 5 is_stmt 1 view .LVU295
 1130 0054 2946     		mov	r1, r5
 1131 0056 3046     		mov	r0, r6
 1132 0058 FFF7FEFF 		bl	prvProcessExpiredTimer
 1133              	.LVL92:
 1134 005c 01E0     		b	.L75
 1135              	.LVL93:
 1136              	.L76:
 592:../../core/ST/Middlewares/Third_Party/FreeRTOS/Source/timers.c **** 		}
 1137              		.loc 1 592 4 view .LVU296
 592:../../core/ST/Middlewares/Third_Party/FreeRTOS/Source/timers.c **** 		}
 1138              		.loc 1 592 13 is_stmt 0 view .LVU297
 1139 005e FFF7FEFF 		bl	xTaskResumeAll
 1140              	.LVL94:
 1141              	.L75:
ARM GAS  C:\Users\yvesk\AppData\Local\Temp\ccsb6O8c.s 			page 45


 595:../../core/ST/Middlewares/Third_Party/FreeRTOS/Source/timers.c **** /*-----------------------------------------------------------*/
 1142              		.loc 1 595 1 view .LVU298
 1143 0062 02B0     		add	sp, sp, #8
 1144              	.LCFI25:
 1145              		.cfi_def_cfa_offset 16
 1146              		@ sp needed
 1147 0064 70BD     		pop	{r4, r5, r6, pc}
 1148              	.LVL95:
 1149              	.L83:
 595:../../core/ST/Middlewares/Third_Party/FreeRTOS/Source/timers.c **** /*-----------------------------------------------------------*/
 1150              		.loc 1 595 1 view .LVU299
 1151 0066 00BF     		.align	2
 1152              	.L82:
 1153 0068 00000000 		.word	.LANCHOR1
 1154 006c 00000000 		.word	.LANCHOR2
 1155 0070 04ED00E0 		.word	-536810236
 1156              		.cfi_endproc
 1157              	.LFE15:
 1159              		.section	.text.prvProcessReceivedCommands,"ax",%progbits
 1160              		.align	1
 1161              		.syntax unified
 1162              		.thumb
 1163              		.thumb_func
 1164              		.fpu fpv4-sp-d16
 1166              	prvProcessReceivedCommands:
 1167              	.LFB19:
 689:../../core/ST/Middlewares/Third_Party/FreeRTOS/Source/timers.c **** DaemonTaskMessage_t xMessage;
 1168              		.loc 1 689 1 is_stmt 1 view -0
 1169              		.cfi_startproc
 1170              		@ args = 0, pretend = 0, frame = 16
 1171              		@ frame_needed = 0, uses_anonymous_args = 0
 1172 0000 30B5     		push	{r4, r5, lr}
 1173              	.LCFI26:
 1174              		.cfi_def_cfa_offset 12
 1175              		.cfi_offset 4, -12
 1176              		.cfi_offset 5, -8
 1177              		.cfi_offset 14, -4
 1178 0002 87B0     		sub	sp, sp, #28
 1179              	.LCFI27:
 1180              		.cfi_def_cfa_offset 40
 690:../../core/ST/Middlewares/Third_Party/FreeRTOS/Source/timers.c **** Timer_t *pxTimer;
 1181              		.loc 1 690 1 view .LVU301
 691:../../core/ST/Middlewares/Third_Party/FreeRTOS/Source/timers.c **** BaseType_t xTimerListsWereSwitched, xResult;
 1182              		.loc 1 691 1 view .LVU302
 692:../../core/ST/Middlewares/Third_Party/FreeRTOS/Source/timers.c **** TickType_t xTimeNow;
 1183              		.loc 1 692 1 view .LVU303
 693:../../core/ST/Middlewares/Third_Party/FreeRTOS/Source/timers.c **** 
 1184              		.loc 1 693 1 view .LVU304
 695:../../core/ST/Middlewares/Third_Party/FreeRTOS/Source/timers.c **** 	{
 1185              		.loc 1 695 2 view .LVU305
 1186              	.L86:
 695:../../core/ST/Middlewares/Third_Party/FreeRTOS/Source/timers.c **** 	{
 1187              		.loc 1 695 9 is_stmt 0 view .LVU306
 1188 0004 0022     		movs	r2, #0
 1189 0006 03A9     		add	r1, sp, #12
 1190 0008 344B     		ldr	r3, .L101
 1191 000a 1868     		ldr	r0, [r3]
ARM GAS  C:\Users\yvesk\AppData\Local\Temp\ccsb6O8c.s 			page 46


 1192 000c FFF7FEFF 		bl	xQueueReceive
 1193              	.LVL96:
 695:../../core/ST/Middlewares/Third_Party/FreeRTOS/Source/timers.c **** 	{
 1194              		.loc 1 695 7 view .LVU307
 1195 0010 0028     		cmp	r0, #0
 1196 0012 60D0     		beq	.L99
 721:../../core/ST/Middlewares/Third_Party/FreeRTOS/Source/timers.c **** 		{
 1197              		.loc 1 721 3 is_stmt 1 view .LVU308
 721:../../core/ST/Middlewares/Third_Party/FreeRTOS/Source/timers.c **** 		{
 1198              		.loc 1 721 15 is_stmt 0 view .LVU309
 1199 0014 039B     		ldr	r3, [sp, #12]
 721:../../core/ST/Middlewares/Third_Party/FreeRTOS/Source/timers.c **** 		{
 1200              		.loc 1 721 5 view .LVU310
 1201 0016 002B     		cmp	r3, #0
 1202 0018 F4DB     		blt	.L86
 725:../../core/ST/Middlewares/Third_Party/FreeRTOS/Source/timers.c **** 
 1203              		.loc 1 725 4 is_stmt 1 view .LVU311
 725:../../core/ST/Middlewares/Third_Party/FreeRTOS/Source/timers.c **** 
 1204              		.loc 1 725 12 is_stmt 0 view .LVU312
 1205 001a 059C     		ldr	r4, [sp, #20]
 1206              	.LVL97:
 727:../../core/ST/Middlewares/Third_Party/FreeRTOS/Source/timers.c **** 			{
 1207              		.loc 1 727 4 is_stmt 1 view .LVU313
 727:../../core/ST/Middlewares/Third_Party/FreeRTOS/Source/timers.c **** 			{
 1208              		.loc 1 727 8 is_stmt 0 view .LVU314
 1209 001c 6369     		ldr	r3, [r4, #20]
 727:../../core/ST/Middlewares/Third_Party/FreeRTOS/Source/timers.c **** 			{
 1210              		.loc 1 727 6 view .LVU315
 1211 001e 13B1     		cbz	r3, .L87
 730:../../core/ST/Middlewares/Third_Party/FreeRTOS/Source/timers.c **** 			}
 1212              		.loc 1 730 5 is_stmt 1 view .LVU316
 730:../../core/ST/Middlewares/Third_Party/FreeRTOS/Source/timers.c **** 			}
 1213              		.loc 1 730 14 is_stmt 0 view .LVU317
 1214 0020 201D     		adds	r0, r4, #4
 1215 0022 FFF7FEFF 		bl	uxListRemove
 1216              	.LVL98:
 1217              	.L87:
 734:../../core/ST/Middlewares/Third_Party/FreeRTOS/Source/timers.c **** 			}
 1218              		.loc 1 734 29 is_stmt 1 view .LVU318
 737:../../core/ST/Middlewares/Third_Party/FreeRTOS/Source/timers.c **** 
 1219              		.loc 1 737 106 view .LVU319
 745:../../core/ST/Middlewares/Third_Party/FreeRTOS/Source/timers.c **** 
 1220              		.loc 1 745 4 view .LVU320
 745:../../core/ST/Middlewares/Third_Party/FreeRTOS/Source/timers.c **** 
 1221              		.loc 1 745 15 is_stmt 0 view .LVU321
 1222 0026 02A8     		add	r0, sp, #8
 1223 0028 FFF7FEFF 		bl	prvSampleTimeNow
 1224              	.LVL99:
 747:../../core/ST/Middlewares/Third_Party/FreeRTOS/Source/timers.c **** 			{
 1225              		.loc 1 747 4 is_stmt 1 view .LVU322
 747:../../core/ST/Middlewares/Third_Party/FreeRTOS/Source/timers.c **** 			{
 1226              		.loc 1 747 20 is_stmt 0 view .LVU323
 1227 002c 039B     		ldr	r3, [sp, #12]
 747:../../core/ST/Middlewares/Third_Party/FreeRTOS/Source/timers.c **** 			{
 1228              		.loc 1 747 4 view .LVU324
 1229 002e 092B     		cmp	r3, #9
 1230 0030 E8D8     		bhi	.L86
ARM GAS  C:\Users\yvesk\AppData\Local\Temp\ccsb6O8c.s 			page 47


 1231 0032 01A2     		adr	r2, .L90
 1232 0034 52F823F0 		ldr	pc, [r2, r3, lsl #2]
 1233              		.p2align 2
 1234              	.L90:
 1235 0038 61000000 		.word	.L91+1
 1236 003c 61000000 		.word	.L91+1
 1237 0040 61000000 		.word	.L91+1
 1238 0044 05000000 		.word	.L86+1
 1239 0048 A9000000 		.word	.L89+1
 1240 004c CF000000 		.word	.L92+1
 1241 0050 61000000 		.word	.L91+1
 1242 0054 61000000 		.word	.L91+1
 1243 0058 05000000 		.word	.L86+1
 1244 005c A9000000 		.word	.L89+1
 1245              		.p2align 1
 1246              	.L91:
 755:../../core/ST/Middlewares/Third_Party/FreeRTOS/Source/timers.c **** 					{
 1247              		.loc 1 755 6 is_stmt 1 view .LVU325
 755:../../core/ST/Middlewares/Third_Party/FreeRTOS/Source/timers.c **** 					{
 1248              		.loc 1 755 75 is_stmt 0 view .LVU326
 1249 0060 0499     		ldr	r1, [sp, #16]
 755:../../core/ST/Middlewares/Third_Party/FreeRTOS/Source/timers.c **** 					{
 1250              		.loc 1 755 99 view .LVU327
 1251 0062 A569     		ldr	r5, [r4, #24]
 755:../../core/ST/Middlewares/Third_Party/FreeRTOS/Source/timers.c **** 					{
 1252              		.loc 1 755 10 view .LVU328
 1253 0064 0B46     		mov	r3, r1
 1254 0066 0246     		mov	r2, r0
 1255 0068 2944     		add	r1, r1, r5
 1256 006a 2046     		mov	r0, r4
 1257              	.LVL100:
 755:../../core/ST/Middlewares/Third_Party/FreeRTOS/Source/timers.c **** 					{
 1258              		.loc 1 755 10 view .LVU329
 1259 006c FFF7FEFF 		bl	prvInsertTimerInActiveList
 1260              	.LVL101:
 755:../../core/ST/Middlewares/Third_Party/FreeRTOS/Source/timers.c **** 					{
 1261              		.loc 1 755 8 view .LVU330
 1262 0070 0028     		cmp	r0, #0
 1263 0072 C7D0     		beq	.L86
 759:../../core/ST/Middlewares/Third_Party/FreeRTOS/Source/timers.c **** 						traceTIMER_EXPIRED( pxTimer );
 1264              		.loc 1 759 7 is_stmt 1 view .LVU331
 759:../../core/ST/Middlewares/Third_Party/FreeRTOS/Source/timers.c **** 						traceTIMER_EXPIRED( pxTimer );
 1265              		.loc 1 759 14 is_stmt 0 view .LVU332
 1266 0074 636A     		ldr	r3, [r4, #36]
 759:../../core/ST/Middlewares/Third_Party/FreeRTOS/Source/timers.c **** 						traceTIMER_EXPIRED( pxTimer );
 1267              		.loc 1 759 7 view .LVU333
 1268 0076 2046     		mov	r0, r4
 1269 0078 9847     		blx	r3
 1270              	.LVL102:
 760:../../core/ST/Middlewares/Third_Party/FreeRTOS/Source/timers.c **** 
 1271              		.loc 1 760 36 is_stmt 1 view .LVU334
 762:../../core/ST/Middlewares/Third_Party/FreeRTOS/Source/timers.c **** 						{
 1272              		.loc 1 762 7 view .LVU335
 762:../../core/ST/Middlewares/Third_Party/FreeRTOS/Source/timers.c **** 						{
 1273              		.loc 1 762 18 is_stmt 0 view .LVU336
 1274 007a E369     		ldr	r3, [r4, #28]
 762:../../core/ST/Middlewares/Third_Party/FreeRTOS/Source/timers.c **** 						{
ARM GAS  C:\Users\yvesk\AppData\Local\Temp\ccsb6O8c.s 			page 48


 1275              		.loc 1 762 9 view .LVU337
 1276 007c 012B     		cmp	r3, #1
 1277 007e C1D1     		bne	.L86
 764:../../core/ST/Middlewares/Third_Party/FreeRTOS/Source/timers.c **** 							configASSERT( xResult );
 1278              		.loc 1 764 8 is_stmt 1 view .LVU338
 764:../../core/ST/Middlewares/Third_Party/FreeRTOS/Source/timers.c **** 							configASSERT( xResult );
 1279              		.loc 1 764 129 is_stmt 0 view .LVU339
 1280 0080 A269     		ldr	r2, [r4, #24]
 764:../../core/ST/Middlewares/Third_Party/FreeRTOS/Source/timers.c **** 							configASSERT( xResult );
 1281              		.loc 1 764 18 view .LVU340
 1282 0082 0021     		movs	r1, #0
 1283 0084 0091     		str	r1, [sp]
 1284 0086 0B46     		mov	r3, r1
 1285 0088 0498     		ldr	r0, [sp, #16]
 1286 008a 0244     		add	r2, r2, r0
 1287 008c 2046     		mov	r0, r4
 1288 008e FFF7FEFF 		bl	xTimerGenericCommand
 1289              	.LVL103:
 765:../../core/ST/Middlewares/Third_Party/FreeRTOS/Source/timers.c **** 							( void ) xResult;
 1290              		.loc 1 765 8 is_stmt 1 view .LVU341
 1291 0092 0028     		cmp	r0, #0
 1292 0094 B6D1     		bne	.L86
 765:../../core/ST/Middlewares/Third_Party/FreeRTOS/Source/timers.c **** 							( void ) xResult;
 1293              		.loc 1 765 8 view .LVU342
 1294              	.LBB40:
 1295              	.LBI40:
 191:../../core/ST/Middlewares/Third_Party/FreeRTOS/Source/portable/GCC/ARM_CM4F/portmacro.h **** {
 1296              		.loc 2 191 30 view .LVU343
 1297              	.LBB41:
 193:../../core/ST/Middlewares/Third_Party/FreeRTOS/Source/portable/GCC/ARM_CM4F/portmacro.h **** 
 1298              		.loc 2 193 1 view .LVU344
 1299              		.loc 2 195 2 view .LVU345
 1300              		.syntax unified
 1301              	@ 195 "../../core/ST/Middlewares/Third_Party/FreeRTOS/Source/portable/GCC/ARM_CM4F/portmacro.h" 1
 1302 0096 4FF01003 			mov r3, #16												
 1303 009a 83F31188 		msr basepri, r3											
 1304 009e BFF36F8F 		isb														
 1305 00a2 BFF34F8F 		dsb														
 1306              	
 1307              	@ 0 "" 2
 1308              	.LVL104:
 1309              		.thumb
 1310              		.syntax unified
 1311              	.L94:
 1312              		.loc 2 195 2 is_stmt 0 view .LVU346
 1313              	.LBE41:
 1314              	.LBE40:
 765:../../core/ST/Middlewares/Third_Party/FreeRTOS/Source/timers.c **** 							( void ) xResult;
 1315              		.loc 1 765 8 is_stmt 1 discriminator 1 view .LVU347
 765:../../core/ST/Middlewares/Third_Party/FreeRTOS/Source/timers.c **** 							( void ) xResult;
 1316              		.loc 1 765 8 discriminator 1 view .LVU348
 1317 00a6 FEE7     		b	.L94
 1318              	.LVL105:
 1319              	.L89:
 787:../../core/ST/Middlewares/Third_Party/FreeRTOS/Source/timers.c **** 					configASSERT( ( pxTimer->xTimerPeriodInTicks > 0 ) );
 1320              		.loc 1 787 6 view .LVU349
 787:../../core/ST/Middlewares/Third_Party/FreeRTOS/Source/timers.c **** 					configASSERT( ( pxTimer->xTimerPeriodInTicks > 0 ) );
ARM GAS  C:\Users\yvesk\AppData\Local\Temp\ccsb6O8c.s 			page 49


 1321              		.loc 1 787 64 is_stmt 0 view .LVU350
 1322 00a8 0499     		ldr	r1, [sp, #16]
 787:../../core/ST/Middlewares/Third_Party/FreeRTOS/Source/timers.c **** 					configASSERT( ( pxTimer->xTimerPeriodInTicks > 0 ) );
 1323              		.loc 1 787 35 view .LVU351
 1324 00aa A161     		str	r1, [r4, #24]
 788:../../core/ST/Middlewares/Third_Party/FreeRTOS/Source/timers.c **** 
 1325              		.loc 1 788 6 is_stmt 1 view .LVU352
 1326 00ac 31B1     		cbz	r1, .L100
 788:../../core/ST/Middlewares/Third_Party/FreeRTOS/Source/timers.c **** 
 1327              		.loc 1 788 58 discriminator 2 view .LVU353
 796:../../core/ST/Middlewares/Third_Party/FreeRTOS/Source/timers.c **** 					break;
 1328              		.loc 1 796 6 discriminator 2 view .LVU354
 796:../../core/ST/Middlewares/Third_Party/FreeRTOS/Source/timers.c **** 					break;
 1329              		.loc 1 796 15 is_stmt 0 discriminator 2 view .LVU355
 1330 00ae 0346     		mov	r3, r0
 1331 00b0 0246     		mov	r2, r0
 1332 00b2 0144     		add	r1, r1, r0
 1333 00b4 2046     		mov	r0, r4
 1334              	.LVL106:
 796:../../core/ST/Middlewares/Third_Party/FreeRTOS/Source/timers.c **** 					break;
 1335              		.loc 1 796 15 discriminator 2 view .LVU356
 1336 00b6 FFF7FEFF 		bl	prvInsertTimerInActiveList
 1337              	.LVL107:
 797:../../core/ST/Middlewares/Third_Party/FreeRTOS/Source/timers.c **** 
 1338              		.loc 1 797 6 is_stmt 1 discriminator 2 view .LVU357
 1339 00ba A3E7     		b	.L86
 1340              	.LVL108:
 1341              	.L100:
 788:../../core/ST/Middlewares/Third_Party/FreeRTOS/Source/timers.c **** 
 1342              		.loc 1 788 6 view .LVU358
 1343              	.LBB42:
 1344              	.LBI42:
 191:../../core/ST/Middlewares/Third_Party/FreeRTOS/Source/portable/GCC/ARM_CM4F/portmacro.h **** {
 1345              		.loc 2 191 30 view .LVU359
 1346              	.LBB43:
 193:../../core/ST/Middlewares/Third_Party/FreeRTOS/Source/portable/GCC/ARM_CM4F/portmacro.h **** 
 1347              		.loc 2 193 1 view .LVU360
 1348              		.loc 2 195 2 view .LVU361
 1349              		.syntax unified
 1350              	@ 195 "../../core/ST/Middlewares/Third_Party/FreeRTOS/Source/portable/GCC/ARM_CM4F/portmacro.h" 1
 1351 00bc 4FF01003 			mov r3, #16												
 1352 00c0 83F31188 		msr basepri, r3											
 1353 00c4 BFF36F8F 		isb														
 1354 00c8 BFF34F8F 		dsb														
 1355              	
 1356              	@ 0 "" 2
 1357              	.LVL109:
 1358              		.thumb
 1359              		.syntax unified
 1360              	.L96:
 1361              		.loc 2 195 2 is_stmt 0 view .LVU362
 1362              	.LBE43:
 1363              	.LBE42:
 788:../../core/ST/Middlewares/Third_Party/FreeRTOS/Source/timers.c **** 
 1364              		.loc 1 788 6 is_stmt 1 discriminator 4 view .LVU363
 788:../../core/ST/Middlewares/Third_Party/FreeRTOS/Source/timers.c **** 
 1365              		.loc 1 788 6 discriminator 4 view .LVU364
ARM GAS  C:\Users\yvesk\AppData\Local\Temp\ccsb6O8c.s 			page 50


 1366 00cc FEE7     		b	.L96
 1367              	.L92:
 807:../../core/ST/Middlewares/Third_Party/FreeRTOS/Source/timers.c **** 					}
 1368              		.loc 1 807 7 view .LVU365
 1369 00ce 2046     		mov	r0, r4
 1370              	.LVL110:
 807:../../core/ST/Middlewares/Third_Party/FreeRTOS/Source/timers.c **** 					}
 1371              		.loc 1 807 7 is_stmt 0 view .LVU366
 1372 00d0 FFF7FEFF 		bl	vPortFree
 1373              	.LVL111:
 824:../../core/ST/Middlewares/Third_Party/FreeRTOS/Source/timers.c **** 
 1374              		.loc 1 824 6 is_stmt 1 view .LVU367
 1375 00d4 96E7     		b	.L86
 1376              	.LVL112:
 1377              	.L99:
 832:../../core/ST/Middlewares/Third_Party/FreeRTOS/Source/timers.c **** /*-----------------------------------------------------------*/
 1378              		.loc 1 832 1 is_stmt 0 view .LVU368
 1379 00d6 07B0     		add	sp, sp, #28
 1380              	.LCFI28:
 1381              		.cfi_def_cfa_offset 12
 1382              		@ sp needed
 1383 00d8 30BD     		pop	{r4, r5, pc}
 1384              	.L102:
 1385 00da 00BF     		.align	2
 1386              	.L101:
 1387 00dc 00000000 		.word	.LANCHOR2
 1388              		.cfi_endproc
 1389              	.LFE19:
 1391              		.section	.text.prvTimerTask,"ax",%progbits
 1392              		.align	1
 1393              		.syntax unified
 1394              		.thumb
 1395              		.thumb_func
 1396              		.fpu fpv4-sp-d16
 1398              	prvTimerTask:
 1399              	.LFB14:
 503:../../core/ST/Middlewares/Third_Party/FreeRTOS/Source/timers.c **** TickType_t xNextExpireTime;
 1400              		.loc 1 503 1 is_stmt 1 view -0
 1401              		.cfi_startproc
 1402              		@ args = 0, pretend = 0, frame = 8
 1403              		@ frame_needed = 0, uses_anonymous_args = 0
 1404              	.LVL113:
 503:../../core/ST/Middlewares/Third_Party/FreeRTOS/Source/timers.c **** TickType_t xNextExpireTime;
 1405              		.loc 1 503 1 is_stmt 0 view .LVU370
 1406 0000 00B5     		push	{lr}
 1407              	.LCFI29:
 1408              		.cfi_def_cfa_offset 4
 1409              		.cfi_offset 14, -4
 1410 0002 83B0     		sub	sp, sp, #12
 1411              	.LCFI30:
 1412              		.cfi_def_cfa_offset 16
 1413              	.LVL114:
 1414              	.L104:
 504:../../core/ST/Middlewares/Third_Party/FreeRTOS/Source/timers.c **** BaseType_t xListWasEmpty;
 1415              		.loc 1 504 1 is_stmt 1 discriminator 1 view .LVU371
 505:../../core/ST/Middlewares/Third_Party/FreeRTOS/Source/timers.c **** 
 1416              		.loc 1 505 1 discriminator 1 view .LVU372
ARM GAS  C:\Users\yvesk\AppData\Local\Temp\ccsb6O8c.s 			page 51


 508:../../core/ST/Middlewares/Third_Party/FreeRTOS/Source/timers.c **** 
 1417              		.loc 1 508 2 discriminator 1 view .LVU373
 522:../../core/ST/Middlewares/Third_Party/FreeRTOS/Source/timers.c **** 	{
 1418              		.loc 1 522 2 discriminator 1 view .LVU374
 526:../../core/ST/Middlewares/Third_Party/FreeRTOS/Source/timers.c **** 
 1419              		.loc 1 526 3 discriminator 1 view .LVU375
 526:../../core/ST/Middlewares/Third_Party/FreeRTOS/Source/timers.c **** 
 1420              		.loc 1 526 21 is_stmt 0 discriminator 1 view .LVU376
 1421 0004 01A8     		add	r0, sp, #4
 1422 0006 FFF7FEFF 		bl	prvGetNextExpireTime
 1423              	.LVL115:
 530:../../core/ST/Middlewares/Third_Party/FreeRTOS/Source/timers.c **** 
 1424              		.loc 1 530 3 is_stmt 1 discriminator 1 view .LVU377
 1425 000a 0199     		ldr	r1, [sp, #4]
 1426 000c FFF7FEFF 		bl	prvProcessTimerOrBlockTask
 1427              	.LVL116:
 533:../../core/ST/Middlewares/Third_Party/FreeRTOS/Source/timers.c **** 	}
 1428              		.loc 1 533 3 discriminator 1 view .LVU378
 1429 0010 FFF7FEFF 		bl	prvProcessReceivedCommands
 1430              	.LVL117:
 1431 0014 F6E7     		b	.L104
 1432              		.cfi_endproc
 1433              	.LFE14:
 1435              		.section	.text.xTimerGetTimerDaemonTaskHandle,"ax",%progbits
 1436              		.align	1
 1437              		.global	xTimerGetTimerDaemonTaskHandle
 1438              		.syntax unified
 1439              		.thumb
 1440              		.thumb_func
 1441              		.fpu fpv4-sp-d16
 1443              	xTimerGetTimerDaemonTaskHandle:
 1444              	.LFB9:
 425:../../core/ST/Middlewares/Third_Party/FreeRTOS/Source/timers.c **** 	/* If xTimerGetTimerDaemonTaskHandle() is called before the scheduler has been
 1445              		.loc 1 425 1 view -0
 1446              		.cfi_startproc
 1447              		@ args = 0, pretend = 0, frame = 0
 1448              		@ frame_needed = 0, uses_anonymous_args = 0
 1449              		@ link register save eliminated.
 428:../../core/ST/Middlewares/Third_Party/FreeRTOS/Source/timers.c **** 	return xTimerTaskHandle;
 1450              		.loc 1 428 2 view .LVU380
 1451 0000 064B     		ldr	r3, .L110
 1452 0002 1868     		ldr	r0, [r3]
 1453 0004 00B1     		cbz	r0, .L109
 430:../../core/ST/Middlewares/Third_Party/FreeRTOS/Source/timers.c **** /*-----------------------------------------------------------*/
 1454              		.loc 1 430 1 is_stmt 0 view .LVU381
 1455 0006 7047     		bx	lr
 1456              	.L109:
 428:../../core/ST/Middlewares/Third_Party/FreeRTOS/Source/timers.c **** 	return xTimerTaskHandle;
 1457              		.loc 1 428 2 is_stmt 1 view .LVU382
 1458              	.LBB44:
 1459              	.LBI44:
 191:../../core/ST/Middlewares/Third_Party/FreeRTOS/Source/portable/GCC/ARM_CM4F/portmacro.h **** {
 1460              		.loc 2 191 30 view .LVU383
 1461              	.LBB45:
 193:../../core/ST/Middlewares/Third_Party/FreeRTOS/Source/portable/GCC/ARM_CM4F/portmacro.h **** 
 1462              		.loc 2 193 1 view .LVU384
 1463              		.loc 2 195 2 view .LVU385
ARM GAS  C:\Users\yvesk\AppData\Local\Temp\ccsb6O8c.s 			page 52


 1464              		.syntax unified
 1465              	@ 195 "../../core/ST/Middlewares/Third_Party/FreeRTOS/Source/portable/GCC/ARM_CM4F/portmacro.h" 1
 1466 0008 4FF01003 			mov r3, #16												
 1467 000c 83F31188 		msr basepri, r3											
 1468 0010 BFF36F8F 		isb														
 1469 0014 BFF34F8F 		dsb														
 1470              	
 1471              	@ 0 "" 2
 1472              	.LVL118:
 1473              		.thumb
 1474              		.syntax unified
 1475              	.L108:
 1476              		.loc 2 195 2 is_stmt 0 view .LVU386
 1477              	.LBE45:
 1478              	.LBE44:
 428:../../core/ST/Middlewares/Third_Party/FreeRTOS/Source/timers.c **** 	return xTimerTaskHandle;
 1479              		.loc 1 428 2 is_stmt 1 discriminator 1 view .LVU387
 428:../../core/ST/Middlewares/Third_Party/FreeRTOS/Source/timers.c **** 	return xTimerTaskHandle;
 1480              		.loc 1 428 2 discriminator 1 view .LVU388
 1481 0018 FEE7     		b	.L108
 1482              	.L111:
 1483 001a 00BF     		.align	2
 1484              	.L110:
 1485 001c 00000000 		.word	.LANCHOR5
 1486              		.cfi_endproc
 1487              	.LFE9:
 1489              		.section	.text.xTimerGetPeriod,"ax",%progbits
 1490              		.align	1
 1491              		.global	xTimerGetPeriod
 1492              		.syntax unified
 1493              		.thumb
 1494              		.thumb_func
 1495              		.fpu fpv4-sp-d16
 1497              	xTimerGetPeriod:
 1498              	.LVL119:
 1499              	.LFB10:
 434:../../core/ST/Middlewares/Third_Party/FreeRTOS/Source/timers.c **** Timer_t *pxTimer = ( Timer_t * ) xTimer;
 1500              		.loc 1 434 1 view -0
 1501              		.cfi_startproc
 1502              		@ args = 0, pretend = 0, frame = 0
 1503              		@ frame_needed = 0, uses_anonymous_args = 0
 1504              		@ link register save eliminated.
 435:../../core/ST/Middlewares/Third_Party/FreeRTOS/Source/timers.c **** 
 1505              		.loc 1 435 1 view .LVU390
 437:../../core/ST/Middlewares/Third_Party/FreeRTOS/Source/timers.c **** 	return pxTimer->xTimerPeriodInTicks;
 1506              		.loc 1 437 2 view .LVU391
 1507 0000 08B1     		cbz	r0, .L115
 437:../../core/ST/Middlewares/Third_Party/FreeRTOS/Source/timers.c **** 	return pxTimer->xTimerPeriodInTicks;
 1508              		.loc 1 437 24 discriminator 2 view .LVU392
 438:../../core/ST/Middlewares/Third_Party/FreeRTOS/Source/timers.c **** }
 1509              		.loc 1 438 2 discriminator 2 view .LVU393
 439:../../core/ST/Middlewares/Third_Party/FreeRTOS/Source/timers.c **** /*-----------------------------------------------------------*/
 1510              		.loc 1 439 1 is_stmt 0 discriminator 2 view .LVU394
 1511 0002 8069     		ldr	r0, [r0, #24]
 1512              	.LVL120:
 439:../../core/ST/Middlewares/Third_Party/FreeRTOS/Source/timers.c **** /*-----------------------------------------------------------*/
 1513              		.loc 1 439 1 discriminator 2 view .LVU395
ARM GAS  C:\Users\yvesk\AppData\Local\Temp\ccsb6O8c.s 			page 53


 1514 0004 7047     		bx	lr
 1515              	.LVL121:
 1516              	.L115:
 437:../../core/ST/Middlewares/Third_Party/FreeRTOS/Source/timers.c **** 	return pxTimer->xTimerPeriodInTicks;
 1517              		.loc 1 437 2 is_stmt 1 view .LVU396
 1518              	.LBB46:
 1519              	.LBI46:
 191:../../core/ST/Middlewares/Third_Party/FreeRTOS/Source/portable/GCC/ARM_CM4F/portmacro.h **** {
 1520              		.loc 2 191 30 view .LVU397
 1521              	.LBB47:
 193:../../core/ST/Middlewares/Third_Party/FreeRTOS/Source/portable/GCC/ARM_CM4F/portmacro.h **** 
 1522              		.loc 2 193 1 view .LVU398
 1523              		.loc 2 195 2 view .LVU399
 1524              		.syntax unified
 1525              	@ 195 "../../core/ST/Middlewares/Third_Party/FreeRTOS/Source/portable/GCC/ARM_CM4F/portmacro.h" 1
 1526 0006 4FF01003 			mov r3, #16												
 1527 000a 83F31188 		msr basepri, r3											
 1528 000e BFF36F8F 		isb														
 1529 0012 BFF34F8F 		dsb														
 1530              	
 1531              	@ 0 "" 2
 1532              	.LVL122:
 1533              		.thumb
 1534              		.syntax unified
 1535              	.L114:
 1536              		.loc 2 195 2 is_stmt 0 view .LVU400
 1537              	.LBE47:
 1538              	.LBE46:
 437:../../core/ST/Middlewares/Third_Party/FreeRTOS/Source/timers.c **** 	return pxTimer->xTimerPeriodInTicks;
 1539              		.loc 1 437 2 is_stmt 1 discriminator 1 view .LVU401
 437:../../core/ST/Middlewares/Third_Party/FreeRTOS/Source/timers.c **** 	return pxTimer->xTimerPeriodInTicks;
 1540              		.loc 1 437 2 discriminator 1 view .LVU402
 1541 0016 FEE7     		b	.L114
 1542              		.cfi_endproc
 1543              	.LFE10:
 1545              		.section	.text.xTimerGetExpiryTime,"ax",%progbits
 1546              		.align	1
 1547              		.global	xTimerGetExpiryTime
 1548              		.syntax unified
 1549              		.thumb
 1550              		.thumb_func
 1551              		.fpu fpv4-sp-d16
 1553              	xTimerGetExpiryTime:
 1554              	.LVL123:
 1555              	.LFB11:
 443:../../core/ST/Middlewares/Third_Party/FreeRTOS/Source/timers.c **** Timer_t * pxTimer = ( Timer_t * ) xTimer;
 1556              		.loc 1 443 1 view -0
 1557              		.cfi_startproc
 1558              		@ args = 0, pretend = 0, frame = 0
 1559              		@ frame_needed = 0, uses_anonymous_args = 0
 1560              		@ link register save eliminated.
 444:../../core/ST/Middlewares/Third_Party/FreeRTOS/Source/timers.c **** TickType_t xReturn;
 1561              		.loc 1 444 1 view .LVU404
 445:../../core/ST/Middlewares/Third_Party/FreeRTOS/Source/timers.c **** 
 1562              		.loc 1 445 1 view .LVU405
 447:../../core/ST/Middlewares/Third_Party/FreeRTOS/Source/timers.c **** 	xReturn = listGET_LIST_ITEM_VALUE( &( pxTimer->xTimerListItem ) );
 1563              		.loc 1 447 2 view .LVU406
ARM GAS  C:\Users\yvesk\AppData\Local\Temp\ccsb6O8c.s 			page 54


 1564 0000 08B1     		cbz	r0, .L119
 447:../../core/ST/Middlewares/Third_Party/FreeRTOS/Source/timers.c **** 	xReturn = listGET_LIST_ITEM_VALUE( &( pxTimer->xTimerListItem ) );
 1565              		.loc 1 447 24 discriminator 2 view .LVU407
 448:../../core/ST/Middlewares/Third_Party/FreeRTOS/Source/timers.c **** 	return xReturn;
 1566              		.loc 1 448 2 discriminator 2 view .LVU408
 1567              	.LVL124:
 449:../../core/ST/Middlewares/Third_Party/FreeRTOS/Source/timers.c **** }
 1568              		.loc 1 449 2 discriminator 2 view .LVU409
 450:../../core/ST/Middlewares/Third_Party/FreeRTOS/Source/timers.c **** /*-----------------------------------------------------------*/
 1569              		.loc 1 450 1 is_stmt 0 discriminator 2 view .LVU410
 1570 0002 4068     		ldr	r0, [r0, #4]
 1571              	.LVL125:
 450:../../core/ST/Middlewares/Third_Party/FreeRTOS/Source/timers.c **** /*-----------------------------------------------------------*/
 1572              		.loc 1 450 1 discriminator 2 view .LVU411
 1573 0004 7047     		bx	lr
 1574              	.LVL126:
 1575              	.L119:
 447:../../core/ST/Middlewares/Third_Party/FreeRTOS/Source/timers.c **** 	xReturn = listGET_LIST_ITEM_VALUE( &( pxTimer->xTimerListItem ) );
 1576              		.loc 1 447 2 is_stmt 1 view .LVU412
 1577              	.LBB48:
 1578              	.LBI48:
 191:../../core/ST/Middlewares/Third_Party/FreeRTOS/Source/portable/GCC/ARM_CM4F/portmacro.h **** {
 1579              		.loc 2 191 30 view .LVU413
 1580              	.LBB49:
 193:../../core/ST/Middlewares/Third_Party/FreeRTOS/Source/portable/GCC/ARM_CM4F/portmacro.h **** 
 1581              		.loc 2 193 1 view .LVU414
 1582              		.loc 2 195 2 view .LVU415
 1583              		.syntax unified
 1584              	@ 195 "../../core/ST/Middlewares/Third_Party/FreeRTOS/Source/portable/GCC/ARM_CM4F/portmacro.h" 1
 1585 0006 4FF01003 			mov r3, #16												
 1586 000a 83F31188 		msr basepri, r3											
 1587 000e BFF36F8F 		isb														
 1588 0012 BFF34F8F 		dsb														
 1589              	
 1590              	@ 0 "" 2
 1591              	.LVL127:
 1592              		.thumb
 1593              		.syntax unified
 1594              	.L118:
 1595              		.loc 2 195 2 is_stmt 0 view .LVU416
 1596              	.LBE49:
 1597              	.LBE48:
 447:../../core/ST/Middlewares/Third_Party/FreeRTOS/Source/timers.c **** 	xReturn = listGET_LIST_ITEM_VALUE( &( pxTimer->xTimerListItem ) );
 1598              		.loc 1 447 2 is_stmt 1 discriminator 1 view .LVU417
 447:../../core/ST/Middlewares/Third_Party/FreeRTOS/Source/timers.c **** 	xReturn = listGET_LIST_ITEM_VALUE( &( pxTimer->xTimerListItem ) );
 1599              		.loc 1 447 2 discriminator 1 view .LVU418
 1600 0016 FEE7     		b	.L118
 1601              		.cfi_endproc
 1602              	.LFE11:
 1604              		.section	.text.pcTimerGetName,"ax",%progbits
 1605              		.align	1
 1606              		.global	pcTimerGetName
 1607              		.syntax unified
 1608              		.thumb
 1609              		.thumb_func
 1610              		.fpu fpv4-sp-d16
 1612              	pcTimerGetName:
ARM GAS  C:\Users\yvesk\AppData\Local\Temp\ccsb6O8c.s 			page 55


 1613              	.LVL128:
 1614              	.LFB12:
 454:../../core/ST/Middlewares/Third_Party/FreeRTOS/Source/timers.c **** Timer_t *pxTimer = ( Timer_t * ) xTimer;
 1615              		.loc 1 454 1 view -0
 1616              		.cfi_startproc
 1617              		@ args = 0, pretend = 0, frame = 0
 1618              		@ frame_needed = 0, uses_anonymous_args = 0
 1619              		@ link register save eliminated.
 455:../../core/ST/Middlewares/Third_Party/FreeRTOS/Source/timers.c **** 
 1620              		.loc 1 455 1 view .LVU420
 457:../../core/ST/Middlewares/Third_Party/FreeRTOS/Source/timers.c **** 	return pxTimer->pcTimerName;
 1621              		.loc 1 457 2 view .LVU421
 1622 0000 08B1     		cbz	r0, .L123
 457:../../core/ST/Middlewares/Third_Party/FreeRTOS/Source/timers.c **** 	return pxTimer->pcTimerName;
 1623              		.loc 1 457 24 discriminator 2 view .LVU422
 458:../../core/ST/Middlewares/Third_Party/FreeRTOS/Source/timers.c **** }
 1624              		.loc 1 458 2 discriminator 2 view .LVU423
 459:../../core/ST/Middlewares/Third_Party/FreeRTOS/Source/timers.c **** /*-----------------------------------------------------------*/
 1625              		.loc 1 459 1 is_stmt 0 discriminator 2 view .LVU424
 1626 0002 0068     		ldr	r0, [r0]
 1627              	.LVL129:
 459:../../core/ST/Middlewares/Third_Party/FreeRTOS/Source/timers.c **** /*-----------------------------------------------------------*/
 1628              		.loc 1 459 1 discriminator 2 view .LVU425
 1629 0004 7047     		bx	lr
 1630              	.LVL130:
 1631              	.L123:
 457:../../core/ST/Middlewares/Third_Party/FreeRTOS/Source/timers.c **** 	return pxTimer->pcTimerName;
 1632              		.loc 1 457 2 is_stmt 1 view .LVU426
 1633              	.LBB50:
 1634              	.LBI50:
 191:../../core/ST/Middlewares/Third_Party/FreeRTOS/Source/portable/GCC/ARM_CM4F/portmacro.h **** {
 1635              		.loc 2 191 30 view .LVU427
 1636              	.LBB51:
 193:../../core/ST/Middlewares/Third_Party/FreeRTOS/Source/portable/GCC/ARM_CM4F/portmacro.h **** 
 1637              		.loc 2 193 1 view .LVU428
 1638              		.loc 2 195 2 view .LVU429
 1639              		.syntax unified
 1640              	@ 195 "../../core/ST/Middlewares/Third_Party/FreeRTOS/Source/portable/GCC/ARM_CM4F/portmacro.h" 1
 1641 0006 4FF01003 			mov r3, #16												
 1642 000a 83F31188 		msr basepri, r3											
 1643 000e BFF36F8F 		isb														
 1644 0012 BFF34F8F 		dsb														
 1645              	
 1646              	@ 0 "" 2
 1647              	.LVL131:
 1648              		.thumb
 1649              		.syntax unified
 1650              	.L122:
 1651              		.loc 2 195 2 is_stmt 0 view .LVU430
 1652              	.LBE51:
 1653              	.LBE50:
 457:../../core/ST/Middlewares/Third_Party/FreeRTOS/Source/timers.c **** 	return pxTimer->pcTimerName;
 1654              		.loc 1 457 2 is_stmt 1 discriminator 1 view .LVU431
 457:../../core/ST/Middlewares/Third_Party/FreeRTOS/Source/timers.c **** 	return pxTimer->pcTimerName;
 1655              		.loc 1 457 2 discriminator 1 view .LVU432
 1656 0016 FEE7     		b	.L122
 1657              		.cfi_endproc
ARM GAS  C:\Users\yvesk\AppData\Local\Temp\ccsb6O8c.s 			page 56


 1658              	.LFE12:
 1660              		.section	.text.xTimerIsTimerActive,"ax",%progbits
 1661              		.align	1
 1662              		.global	xTimerIsTimerActive
 1663              		.syntax unified
 1664              		.thumb
 1665              		.thumb_func
 1666              		.fpu fpv4-sp-d16
 1668              	xTimerIsTimerActive:
 1669              	.LVL132:
 1670              	.LFB22:
 943:../../core/ST/Middlewares/Third_Party/FreeRTOS/Source/timers.c **** /*-----------------------------------------------------------*/
 944:../../core/ST/Middlewares/Third_Party/FreeRTOS/Source/timers.c **** 
 945:../../core/ST/Middlewares/Third_Party/FreeRTOS/Source/timers.c **** BaseType_t xTimerIsTimerActive( TimerHandle_t xTimer )
 946:../../core/ST/Middlewares/Third_Party/FreeRTOS/Source/timers.c **** {
 1671              		.loc 1 946 1 view -0
 1672              		.cfi_startproc
 1673              		@ args = 0, pretend = 0, frame = 0
 1674              		@ frame_needed = 0, uses_anonymous_args = 0
 947:../../core/ST/Middlewares/Third_Party/FreeRTOS/Source/timers.c **** BaseType_t xTimerIsInActiveList;
 1675              		.loc 1 947 1 view .LVU434
 948:../../core/ST/Middlewares/Third_Party/FreeRTOS/Source/timers.c **** Timer_t *pxTimer = ( Timer_t * ) xTimer;
 1676              		.loc 1 948 1 view .LVU435
 949:../../core/ST/Middlewares/Third_Party/FreeRTOS/Source/timers.c **** 
 950:../../core/ST/Middlewares/Third_Party/FreeRTOS/Source/timers.c **** 	configASSERT( xTimer );
 1677              		.loc 1 950 2 view .LVU436
 1678 0000 58B1     		cbz	r0, .L129
 946:../../core/ST/Middlewares/Third_Party/FreeRTOS/Source/timers.c **** BaseType_t xTimerIsInActiveList;
 1679              		.loc 1 946 1 is_stmt 0 discriminator 2 view .LVU437
 1680 0002 10B5     		push	{r4, lr}
 1681              	.LCFI31:
 1682              		.cfi_def_cfa_offset 8
 1683              		.cfi_offset 4, -8
 1684              		.cfi_offset 14, -4
 1685 0004 0446     		mov	r4, r0
 1686              		.loc 1 950 24 is_stmt 1 discriminator 2 view .LVU438
 951:../../core/ST/Middlewares/Third_Party/FreeRTOS/Source/timers.c **** 
 952:../../core/ST/Middlewares/Third_Party/FreeRTOS/Source/timers.c **** 	/* Is the timer in the list of active timers? */
 953:../../core/ST/Middlewares/Third_Party/FreeRTOS/Source/timers.c **** 	taskENTER_CRITICAL();
 1687              		.loc 1 953 2 discriminator 2 view .LVU439
 1688 0006 FFF7FEFF 		bl	vPortEnterCritical
 1689              	.LVL133:
 954:../../core/ST/Middlewares/Third_Party/FreeRTOS/Source/timers.c **** 	{
 955:../../core/ST/Middlewares/Third_Party/FreeRTOS/Source/timers.c **** 		/* Checking to see if it is in the NULL list in effect checks to see if
 956:../../core/ST/Middlewares/Third_Party/FreeRTOS/Source/timers.c **** 		it is referenced from either the current or the overflow timer lists in
 957:../../core/ST/Middlewares/Third_Party/FreeRTOS/Source/timers.c **** 		one go, but the logic has to be reversed, hence the '!'. */
 958:../../core/ST/Middlewares/Third_Party/FreeRTOS/Source/timers.c **** 		xTimerIsInActiveList = ( BaseType_t ) !( listIS_CONTAINED_WITHIN( NULL, &( pxTimer->xTimerListIte
 1690              		.loc 1 958 3 discriminator 2 view .LVU440
 1691              		.loc 1 958 44 is_stmt 0 discriminator 2 view .LVU441
 1692 000a 6469     		ldr	r4, [r4, #20]
 1693              	.LVL134:
 1694              		.loc 1 958 26 discriminator 2 view .LVU442
 1695 000c 0034     		adds	r4, r4, #0
 1696 000e 18BF     		it	ne
 1697 0010 0124     		movne	r4, #1
 1698              	.LVL135:
 959:../../core/ST/Middlewares/Third_Party/FreeRTOS/Source/timers.c **** 	}
ARM GAS  C:\Users\yvesk\AppData\Local\Temp\ccsb6O8c.s 			page 57


 960:../../core/ST/Middlewares/Third_Party/FreeRTOS/Source/timers.c **** 	taskEXIT_CRITICAL();
 1699              		.loc 1 960 2 is_stmt 1 discriminator 2 view .LVU443
 1700 0012 FFF7FEFF 		bl	vPortExitCritical
 1701              	.LVL136:
 961:../../core/ST/Middlewares/Third_Party/FreeRTOS/Source/timers.c **** 
 962:../../core/ST/Middlewares/Third_Party/FreeRTOS/Source/timers.c **** 	return xTimerIsInActiveList;
 1702              		.loc 1 962 2 discriminator 2 view .LVU444
 963:../../core/ST/Middlewares/Third_Party/FreeRTOS/Source/timers.c **** } /*lint !e818 Can't be pointer to const due to the typedef. */
 1703              		.loc 1 963 1 is_stmt 0 discriminator 2 view .LVU445
 1704 0016 2046     		mov	r0, r4
 1705 0018 10BD     		pop	{r4, pc}
 1706              	.LVL137:
 1707              	.L129:
 1708              	.LCFI32:
 1709              		.cfi_def_cfa_offset 0
 1710              		.cfi_restore 4
 1711              		.cfi_restore 14
 950:../../core/ST/Middlewares/Third_Party/FreeRTOS/Source/timers.c **** 
 1712              		.loc 1 950 2 is_stmt 1 view .LVU446
 1713              	.LBB52:
 1714              	.LBI52:
 191:../../core/ST/Middlewares/Third_Party/FreeRTOS/Source/portable/GCC/ARM_CM4F/portmacro.h **** {
 1715              		.loc 2 191 30 view .LVU447
 1716              	.LBB53:
 193:../../core/ST/Middlewares/Third_Party/FreeRTOS/Source/portable/GCC/ARM_CM4F/portmacro.h **** 
 1717              		.loc 2 193 1 view .LVU448
 1718              		.loc 2 195 2 view .LVU449
 1719              		.syntax unified
 1720              	@ 195 "../../core/ST/Middlewares/Third_Party/FreeRTOS/Source/portable/GCC/ARM_CM4F/portmacro.h" 1
 1721 001a 4FF01003 			mov r3, #16												
 1722 001e 83F31188 		msr basepri, r3											
 1723 0022 BFF36F8F 		isb														
 1724 0026 BFF34F8F 		dsb														
 1725              	
 1726              	@ 0 "" 2
 1727              	.LVL138:
 1728              		.thumb
 1729              		.syntax unified
 1730              	.L126:
 1731              		.loc 2 195 2 is_stmt 0 view .LVU450
 1732              	.LBE53:
 1733              	.LBE52:
 950:../../core/ST/Middlewares/Third_Party/FreeRTOS/Source/timers.c **** 
 1734              		.loc 1 950 2 is_stmt 1 discriminator 1 view .LVU451
 950:../../core/ST/Middlewares/Third_Party/FreeRTOS/Source/timers.c **** 
 1735              		.loc 1 950 2 discriminator 1 view .LVU452
 1736 002a FEE7     		b	.L126
 1737              		.cfi_endproc
 1738              	.LFE22:
 1740              		.section	.text.pvTimerGetTimerID,"ax",%progbits
 1741              		.align	1
 1742              		.global	pvTimerGetTimerID
 1743              		.syntax unified
 1744              		.thumb
 1745              		.thumb_func
 1746              		.fpu fpv4-sp-d16
 1748              	pvTimerGetTimerID:
ARM GAS  C:\Users\yvesk\AppData\Local\Temp\ccsb6O8c.s 			page 58


 1749              	.LVL139:
 1750              	.LFB23:
 964:../../core/ST/Middlewares/Third_Party/FreeRTOS/Source/timers.c **** /*-----------------------------------------------------------*/
 965:../../core/ST/Middlewares/Third_Party/FreeRTOS/Source/timers.c **** 
 966:../../core/ST/Middlewares/Third_Party/FreeRTOS/Source/timers.c **** void *pvTimerGetTimerID( const TimerHandle_t xTimer )
 967:../../core/ST/Middlewares/Third_Party/FreeRTOS/Source/timers.c **** {
 1751              		.loc 1 967 1 view -0
 1752              		.cfi_startproc
 1753              		@ args = 0, pretend = 0, frame = 0
 1754              		@ frame_needed = 0, uses_anonymous_args = 0
 968:../../core/ST/Middlewares/Third_Party/FreeRTOS/Source/timers.c **** Timer_t * const pxTimer = ( Timer_t * ) xTimer;
 1755              		.loc 1 968 1 view .LVU454
 969:../../core/ST/Middlewares/Third_Party/FreeRTOS/Source/timers.c **** void *pvReturn;
 1756              		.loc 1 969 1 view .LVU455
 970:../../core/ST/Middlewares/Third_Party/FreeRTOS/Source/timers.c **** 
 971:../../core/ST/Middlewares/Third_Party/FreeRTOS/Source/timers.c **** 	configASSERT( xTimer );
 1757              		.loc 1 971 2 view .LVU456
 1758 0000 40B1     		cbz	r0, .L135
 967:../../core/ST/Middlewares/Third_Party/FreeRTOS/Source/timers.c **** Timer_t * const pxTimer = ( Timer_t * ) xTimer;
 1759              		.loc 1 967 1 is_stmt 0 discriminator 2 view .LVU457
 1760 0002 10B5     		push	{r4, lr}
 1761              	.LCFI33:
 1762              		.cfi_def_cfa_offset 8
 1763              		.cfi_offset 4, -8
 1764              		.cfi_offset 14, -4
 1765 0004 0446     		mov	r4, r0
 1766              		.loc 1 971 24 is_stmt 1 discriminator 2 view .LVU458
 972:../../core/ST/Middlewares/Third_Party/FreeRTOS/Source/timers.c **** 
 973:../../core/ST/Middlewares/Third_Party/FreeRTOS/Source/timers.c **** 	taskENTER_CRITICAL();
 1767              		.loc 1 973 2 discriminator 2 view .LVU459
 1768 0006 FFF7FEFF 		bl	vPortEnterCritical
 1769              	.LVL140:
 974:../../core/ST/Middlewares/Third_Party/FreeRTOS/Source/timers.c **** 	{
 975:../../core/ST/Middlewares/Third_Party/FreeRTOS/Source/timers.c **** 		pvReturn = pxTimer->pvTimerID;
 1770              		.loc 1 975 3 discriminator 2 view .LVU460
 1771              		.loc 1 975 12 is_stmt 0 discriminator 2 view .LVU461
 1772 000a 246A     		ldr	r4, [r4, #32]
 1773              	.LVL141:
 976:../../core/ST/Middlewares/Third_Party/FreeRTOS/Source/timers.c **** 	}
 977:../../core/ST/Middlewares/Third_Party/FreeRTOS/Source/timers.c **** 	taskEXIT_CRITICAL();
 1774              		.loc 1 977 2 is_stmt 1 discriminator 2 view .LVU462
 1775 000c FFF7FEFF 		bl	vPortExitCritical
 1776              	.LVL142:
 978:../../core/ST/Middlewares/Third_Party/FreeRTOS/Source/timers.c **** 
 979:../../core/ST/Middlewares/Third_Party/FreeRTOS/Source/timers.c **** 	return pvReturn;
 1777              		.loc 1 979 2 discriminator 2 view .LVU463
 980:../../core/ST/Middlewares/Third_Party/FreeRTOS/Source/timers.c **** }
 1778              		.loc 1 980 1 is_stmt 0 discriminator 2 view .LVU464
 1779 0010 2046     		mov	r0, r4
 1780 0012 10BD     		pop	{r4, pc}
 1781              	.LVL143:
 1782              	.L135:
 1783              	.LCFI34:
 1784              		.cfi_def_cfa_offset 0
 1785              		.cfi_restore 4
 1786              		.cfi_restore 14
 971:../../core/ST/Middlewares/Third_Party/FreeRTOS/Source/timers.c **** 
ARM GAS  C:\Users\yvesk\AppData\Local\Temp\ccsb6O8c.s 			page 59


 1787              		.loc 1 971 2 is_stmt 1 view .LVU465
 1788              	.LBB54:
 1789              	.LBI54:
 191:../../core/ST/Middlewares/Third_Party/FreeRTOS/Source/portable/GCC/ARM_CM4F/portmacro.h **** {
 1790              		.loc 2 191 30 view .LVU466
 1791              	.LBB55:
 193:../../core/ST/Middlewares/Third_Party/FreeRTOS/Source/portable/GCC/ARM_CM4F/portmacro.h **** 
 1792              		.loc 2 193 1 view .LVU467
 1793              		.loc 2 195 2 view .LVU468
 1794              		.syntax unified
 1795              	@ 195 "../../core/ST/Middlewares/Third_Party/FreeRTOS/Source/portable/GCC/ARM_CM4F/portmacro.h" 1
 1796 0014 4FF01003 			mov r3, #16												
 1797 0018 83F31188 		msr basepri, r3											
 1798 001c BFF36F8F 		isb														
 1799 0020 BFF34F8F 		dsb														
 1800              	
 1801              	@ 0 "" 2
 1802              	.LVL144:
 1803              		.thumb
 1804              		.syntax unified
 1805              	.L132:
 1806              		.loc 2 195 2 is_stmt 0 view .LVU469
 1807              	.LBE55:
 1808              	.LBE54:
 971:../../core/ST/Middlewares/Third_Party/FreeRTOS/Source/timers.c **** 
 1809              		.loc 1 971 2 is_stmt 1 discriminator 1 view .LVU470
 971:../../core/ST/Middlewares/Third_Party/FreeRTOS/Source/timers.c **** 
 1810              		.loc 1 971 2 discriminator 1 view .LVU471
 1811 0024 FEE7     		b	.L132
 1812              		.cfi_endproc
 1813              	.LFE23:
 1815              		.section	.text.vTimerSetTimerID,"ax",%progbits
 1816              		.align	1
 1817              		.global	vTimerSetTimerID
 1818              		.syntax unified
 1819              		.thumb
 1820              		.thumb_func
 1821              		.fpu fpv4-sp-d16
 1823              	vTimerSetTimerID:
 1824              	.LVL145:
 1825              	.LFB24:
 981:../../core/ST/Middlewares/Third_Party/FreeRTOS/Source/timers.c **** /*-----------------------------------------------------------*/
 982:../../core/ST/Middlewares/Third_Party/FreeRTOS/Source/timers.c **** 
 983:../../core/ST/Middlewares/Third_Party/FreeRTOS/Source/timers.c **** void vTimerSetTimerID( TimerHandle_t xTimer, void *pvNewID )
 984:../../core/ST/Middlewares/Third_Party/FreeRTOS/Source/timers.c **** {
 1826              		.loc 1 984 1 view -0
 1827              		.cfi_startproc
 1828              		@ args = 0, pretend = 0, frame = 0
 1829              		@ frame_needed = 0, uses_anonymous_args = 0
 1830              		.loc 1 984 1 is_stmt 0 view .LVU473
 1831 0000 38B5     		push	{r3, r4, r5, lr}
 1832              	.LCFI35:
 1833              		.cfi_def_cfa_offset 16
 1834              		.cfi_offset 3, -16
 1835              		.cfi_offset 4, -12
 1836              		.cfi_offset 5, -8
 1837              		.cfi_offset 14, -4
ARM GAS  C:\Users\yvesk\AppData\Local\Temp\ccsb6O8c.s 			page 60


 985:../../core/ST/Middlewares/Third_Party/FreeRTOS/Source/timers.c **** Timer_t * const pxTimer = ( Timer_t * ) xTimer;
 1838              		.loc 1 985 1 is_stmt 1 view .LVU474
 1839              	.LVL146:
 986:../../core/ST/Middlewares/Third_Party/FreeRTOS/Source/timers.c **** 
 987:../../core/ST/Middlewares/Third_Party/FreeRTOS/Source/timers.c **** 	configASSERT( xTimer );
 1840              		.loc 1 987 2 view .LVU475
 1841 0002 38B1     		cbz	r0, .L140
 1842 0004 0446     		mov	r4, r0
 1843 0006 0D46     		mov	r5, r1
 1844              		.loc 1 987 24 discriminator 2 view .LVU476
 988:../../core/ST/Middlewares/Third_Party/FreeRTOS/Source/timers.c **** 
 989:../../core/ST/Middlewares/Third_Party/FreeRTOS/Source/timers.c **** 	taskENTER_CRITICAL();
 1845              		.loc 1 989 2 discriminator 2 view .LVU477
 1846 0008 FFF7FEFF 		bl	vPortEnterCritical
 1847              	.LVL147:
 990:../../core/ST/Middlewares/Third_Party/FreeRTOS/Source/timers.c **** 	{
 991:../../core/ST/Middlewares/Third_Party/FreeRTOS/Source/timers.c **** 		pxTimer->pvTimerID = pvNewID;
 1848              		.loc 1 991 3 discriminator 2 view .LVU478
 1849              		.loc 1 991 22 is_stmt 0 discriminator 2 view .LVU479
 1850 000c 2562     		str	r5, [r4, #32]
 992:../../core/ST/Middlewares/Third_Party/FreeRTOS/Source/timers.c **** 	}
 993:../../core/ST/Middlewares/Third_Party/FreeRTOS/Source/timers.c **** 	taskEXIT_CRITICAL();
 1851              		.loc 1 993 2 is_stmt 1 discriminator 2 view .LVU480
 1852 000e FFF7FEFF 		bl	vPortExitCritical
 1853              	.LVL148:
 994:../../core/ST/Middlewares/Third_Party/FreeRTOS/Source/timers.c **** }
 1854              		.loc 1 994 1 is_stmt 0 discriminator 2 view .LVU481
 1855 0012 38BD     		pop	{r3, r4, r5, pc}
 1856              	.LVL149:
 1857              	.L140:
 987:../../core/ST/Middlewares/Third_Party/FreeRTOS/Source/timers.c **** 
 1858              		.loc 1 987 2 is_stmt 1 view .LVU482
 1859              	.LBB56:
 1860              	.LBI56:
 191:../../core/ST/Middlewares/Third_Party/FreeRTOS/Source/portable/GCC/ARM_CM4F/portmacro.h **** {
 1861              		.loc 2 191 30 view .LVU483
 1862              	.LBB57:
 193:../../core/ST/Middlewares/Third_Party/FreeRTOS/Source/portable/GCC/ARM_CM4F/portmacro.h **** 
 1863              		.loc 2 193 1 view .LVU484
 1864              		.loc 2 195 2 view .LVU485
 1865              		.syntax unified
 1866              	@ 195 "../../core/ST/Middlewares/Third_Party/FreeRTOS/Source/portable/GCC/ARM_CM4F/portmacro.h" 1
 1867 0014 4FF01003 			mov r3, #16												
 1868 0018 83F31188 		msr basepri, r3											
 1869 001c BFF36F8F 		isb														
 1870 0020 BFF34F8F 		dsb														
 1871              	
 1872              	@ 0 "" 2
 1873              	.LVL150:
 1874              		.thumb
 1875              		.syntax unified
 1876              	.L138:
 1877              		.loc 2 195 2 is_stmt 0 view .LVU486
 1878              	.LBE57:
 1879              	.LBE56:
 987:../../core/ST/Middlewares/Third_Party/FreeRTOS/Source/timers.c **** 
 1880              		.loc 1 987 2 is_stmt 1 discriminator 1 view .LVU487
ARM GAS  C:\Users\yvesk\AppData\Local\Temp\ccsb6O8c.s 			page 61


 987:../../core/ST/Middlewares/Third_Party/FreeRTOS/Source/timers.c **** 
 1881              		.loc 1 987 2 discriminator 1 view .LVU488
 1882 0024 FEE7     		b	.L138
 1883              		.cfi_endproc
 1884              	.LFE24:
 1886              		.section	.bss.pxCurrentTimerList,"aw",%nobits
 1887              		.align	2
 1888              		.set	.LANCHOR0,. + 0
 1891              	pxCurrentTimerList:
 1892 0000 00000000 		.space	4
 1893              		.section	.bss.pxOverflowTimerList,"aw",%nobits
 1894              		.align	2
 1895              		.set	.LANCHOR1,. + 0
 1898              	pxOverflowTimerList:
 1899 0000 00000000 		.space	4
 1900              		.section	.bss.xActiveTimerList1,"aw",%nobits
 1901              		.align	2
 1902              		.set	.LANCHOR3,. + 0
 1905              	xActiveTimerList1:
 1906 0000 00000000 		.space	20
 1906      00000000 
 1906      00000000 
 1906      00000000 
 1906      00000000 
 1907              		.section	.bss.xActiveTimerList2,"aw",%nobits
 1908              		.align	2
 1909              		.set	.LANCHOR4,. + 0
 1912              	xActiveTimerList2:
 1913 0000 00000000 		.space	20
 1913      00000000 
 1913      00000000 
 1913      00000000 
 1913      00000000 
 1914              		.section	.bss.xLastTime.6811,"aw",%nobits
 1915              		.align	2
 1916              		.set	.LANCHOR6,. + 0
 1919              	xLastTime.6811:
 1920 0000 00000000 		.space	4
 1921              		.section	.bss.xTimerQueue,"aw",%nobits
 1922              		.align	2
 1923              		.set	.LANCHOR2,. + 0
 1926              	xTimerQueue:
 1927 0000 00000000 		.space	4
 1928              		.section	.bss.xTimerTaskHandle,"aw",%nobits
 1929              		.align	2
 1930              		.set	.LANCHOR5,. + 0
 1933              	xTimerTaskHandle:
 1934 0000 00000000 		.space	4
 1935              		.section	.rodata.prvCheckForValidListAndQueue.str1.4,"aMS",%progbits,1
 1936              		.align	2
 1937              	.LC0:
 1938 0000 546D7251 		.ascii	"TmrQ\000"
 1938      00
 1939              		.section	.rodata.xTimerCreateTimerTask.str1.4,"aMS",%progbits,1
 1940              		.align	2
 1941              	.LC1:
 1942 0000 546D7220 		.ascii	"Tmr Svc\000"
ARM GAS  C:\Users\yvesk\AppData\Local\Temp\ccsb6O8c.s 			page 62


 1942      53766300 
 1943              		.text
 1944              	.Letext0:
 1945              		.file 3 "c:\\program files (x86)\\gnu tools arm embedded\\8 2019-q3-update\\lib\\gcc\\arm-none-eab
 1946              		.file 4 "c:\\program files (x86)\\gnu tools arm embedded\\8 2019-q3-update\\arm-none-eabi\\include
 1947              		.file 5 "c:\\program files (x86)\\gnu tools arm embedded\\8 2019-q3-update\\arm-none-eabi\\include
 1948              		.file 6 "c:\\program files (x86)\\gnu tools arm embedded\\8 2019-q3-update\\arm-none-eabi\\include
 1949              		.file 7 "c:\\program files (x86)\\gnu tools arm embedded\\8 2019-q3-update\\arm-none-eabi\\include
 1950              		.file 8 "c:\\program files (x86)\\gnu tools arm embedded\\8 2019-q3-update\\arm-none-eabi\\include
 1951              		.file 9 "c:\\program files (x86)\\gnu tools arm embedded\\8 2019-q3-update\\arm-none-eabi\\include
 1952              		.file 10 "../../core/platform/octa/inc/FreeRTOSConfig.h"
 1953              		.file 11 "../../core/ST/Middlewares/Third_Party/FreeRTOS/Source/include/list.h"
 1954              		.file 12 "../../core/ST/Middlewares/Third_Party/FreeRTOS/Source/include/task.h"
 1955              		.file 13 "../../core/ST/Middlewares/Third_Party/FreeRTOS/Source/include/queue.h"
 1956              		.file 14 "../../core/ST/Middlewares/Third_Party/FreeRTOS/Source/include/timers.h"
 1957              		.file 15 "../../core/ST/Middlewares/Third_Party/FreeRTOS/Source/include/portable.h"
ARM GAS  C:\Users\yvesk\AppData\Local\Temp\ccsb6O8c.s 			page 63


DEFINED SYMBOLS
                            *ABS*:00000000 timers.c
C:\Users\yvesk\AppData\Local\Temp\ccsb6O8c.s:18     .text.prvGetNextExpireTime:00000000 $t
C:\Users\yvesk\AppData\Local\Temp\ccsb6O8c.s:25     .text.prvGetNextExpireTime:00000000 prvGetNextExpireTime
C:\Users\yvesk\AppData\Local\Temp\ccsb6O8c.s:66     .text.prvGetNextExpireTime:0000001c $d
C:\Users\yvesk\AppData\Local\Temp\ccsb6O8c.s:71     .text.prvInsertTimerInActiveList:00000000 $t
C:\Users\yvesk\AppData\Local\Temp\ccsb6O8c.s:77     .text.prvInsertTimerInActiveList:00000000 prvInsertTimerInActiveList
C:\Users\yvesk\AppData\Local\Temp\ccsb6O8c.s:167    .text.prvInsertTimerInActiveList:00000040 $d
C:\Users\yvesk\AppData\Local\Temp\ccsb6O8c.s:173    .text.prvCheckForValidListAndQueue:00000000 $t
C:\Users\yvesk\AppData\Local\Temp\ccsb6O8c.s:179    .text.prvCheckForValidListAndQueue:00000000 prvCheckForValidListAndQueue
C:\Users\yvesk\AppData\Local\Temp\ccsb6O8c.s:249    .text.prvCheckForValidListAndQueue:00000044 $d
C:\Users\yvesk\AppData\Local\Temp\ccsb6O8c.s:259    .text.prvInitialiseNewTimer:00000000 $t
C:\Users\yvesk\AppData\Local\Temp\ccsb6O8c.s:265    .text.prvInitialiseNewTimer:00000000 prvInitialiseNewTimer
C:\Users\yvesk\AppData\Local\Temp\ccsb6O8c.s:355    .text.xTimerCreateTimerTask:00000000 $t
C:\Users\yvesk\AppData\Local\Temp\ccsb6O8c.s:362    .text.xTimerCreateTimerTask:00000000 xTimerCreateTimerTask
C:\Users\yvesk\AppData\Local\Temp\ccsb6O8c.s:439    .text.xTimerCreateTimerTask:00000040 $d
C:\Users\yvesk\AppData\Local\Temp\ccsb6O8c.s:1398   .text.prvTimerTask:00000000 prvTimerTask
C:\Users\yvesk\AppData\Local\Temp\ccsb6O8c.s:447    .text.xTimerCreate:00000000 $t
C:\Users\yvesk\AppData\Local\Temp\ccsb6O8c.s:454    .text.xTimerCreate:00000000 xTimerCreate
C:\Users\yvesk\AppData\Local\Temp\ccsb6O8c.s:516    .text.xTimerGenericCommand:00000000 $t
C:\Users\yvesk\AppData\Local\Temp\ccsb6O8c.s:523    .text.xTimerGenericCommand:00000000 xTimerGenericCommand
C:\Users\yvesk\AppData\Local\Temp\ccsb6O8c.s:669    .text.xTimerGenericCommand:00000068 $d
C:\Users\yvesk\AppData\Local\Temp\ccsb6O8c.s:674    .text.prvSwitchTimerLists:00000000 $t
C:\Users\yvesk\AppData\Local\Temp\ccsb6O8c.s:680    .text.prvSwitchTimerLists:00000000 prvSwitchTimerLists
C:\Users\yvesk\AppData\Local\Temp\ccsb6O8c.s:825    .text.prvSwitchTimerLists:00000070 $d
C:\Users\yvesk\AppData\Local\Temp\ccsb6O8c.s:831    .text.prvSampleTimeNow:00000000 $t
C:\Users\yvesk\AppData\Local\Temp\ccsb6O8c.s:837    .text.prvSampleTimeNow:00000000 prvSampleTimeNow
C:\Users\yvesk\AppData\Local\Temp\ccsb6O8c.s:896    .text.prvSampleTimeNow:00000028 $d
C:\Users\yvesk\AppData\Local\Temp\ccsb6O8c.s:901    .text.prvProcessExpiredTimer:00000000 $t
C:\Users\yvesk\AppData\Local\Temp\ccsb6O8c.s:907    .text.prvProcessExpiredTimer:00000000 prvProcessExpiredTimer
C:\Users\yvesk\AppData\Local\Temp\ccsb6O8c.s:1023   .text.prvProcessExpiredTimer:0000005c $d
C:\Users\yvesk\AppData\Local\Temp\ccsb6O8c.s:1028   .text.prvProcessTimerOrBlockTask:00000000 $t
C:\Users\yvesk\AppData\Local\Temp\ccsb6O8c.s:1034   .text.prvProcessTimerOrBlockTask:00000000 prvProcessTimerOrBlockTask
C:\Users\yvesk\AppData\Local\Temp\ccsb6O8c.s:1153   .text.prvProcessTimerOrBlockTask:00000068 $d
C:\Users\yvesk\AppData\Local\Temp\ccsb6O8c.s:1160   .text.prvProcessReceivedCommands:00000000 $t
C:\Users\yvesk\AppData\Local\Temp\ccsb6O8c.s:1166   .text.prvProcessReceivedCommands:00000000 prvProcessReceivedCommands
C:\Users\yvesk\AppData\Local\Temp\ccsb6O8c.s:1235   .text.prvProcessReceivedCommands:00000038 $d
C:\Users\yvesk\AppData\Local\Temp\ccsb6O8c.s:1245   .text.prvProcessReceivedCommands:00000060 $t
C:\Users\yvesk\AppData\Local\Temp\ccsb6O8c.s:1387   .text.prvProcessReceivedCommands:000000dc $d
C:\Users\yvesk\AppData\Local\Temp\ccsb6O8c.s:1392   .text.prvTimerTask:00000000 $t
C:\Users\yvesk\AppData\Local\Temp\ccsb6O8c.s:1436   .text.xTimerGetTimerDaemonTaskHandle:00000000 $t
C:\Users\yvesk\AppData\Local\Temp\ccsb6O8c.s:1443   .text.xTimerGetTimerDaemonTaskHandle:00000000 xTimerGetTimerDaemonTaskHandle
C:\Users\yvesk\AppData\Local\Temp\ccsb6O8c.s:1485   .text.xTimerGetTimerDaemonTaskHandle:0000001c $d
C:\Users\yvesk\AppData\Local\Temp\ccsb6O8c.s:1490   .text.xTimerGetPeriod:00000000 $t
C:\Users\yvesk\AppData\Local\Temp\ccsb6O8c.s:1497   .text.xTimerGetPeriod:00000000 xTimerGetPeriod
C:\Users\yvesk\AppData\Local\Temp\ccsb6O8c.s:1546   .text.xTimerGetExpiryTime:00000000 $t
C:\Users\yvesk\AppData\Local\Temp\ccsb6O8c.s:1553   .text.xTimerGetExpiryTime:00000000 xTimerGetExpiryTime
C:\Users\yvesk\AppData\Local\Temp\ccsb6O8c.s:1605   .text.pcTimerGetName:00000000 $t
C:\Users\yvesk\AppData\Local\Temp\ccsb6O8c.s:1612   .text.pcTimerGetName:00000000 pcTimerGetName
C:\Users\yvesk\AppData\Local\Temp\ccsb6O8c.s:1661   .text.xTimerIsTimerActive:00000000 $t
C:\Users\yvesk\AppData\Local\Temp\ccsb6O8c.s:1668   .text.xTimerIsTimerActive:00000000 xTimerIsTimerActive
C:\Users\yvesk\AppData\Local\Temp\ccsb6O8c.s:1741   .text.pvTimerGetTimerID:00000000 $t
C:\Users\yvesk\AppData\Local\Temp\ccsb6O8c.s:1748   .text.pvTimerGetTimerID:00000000 pvTimerGetTimerID
C:\Users\yvesk\AppData\Local\Temp\ccsb6O8c.s:1816   .text.vTimerSetTimerID:00000000 $t
C:\Users\yvesk\AppData\Local\Temp\ccsb6O8c.s:1823   .text.vTimerSetTimerID:00000000 vTimerSetTimerID
C:\Users\yvesk\AppData\Local\Temp\ccsb6O8c.s:1887   .bss.pxCurrentTimerList:00000000 $d
C:\Users\yvesk\AppData\Local\Temp\ccsb6O8c.s:1891   .bss.pxCurrentTimerList:00000000 pxCurrentTimerList
ARM GAS  C:\Users\yvesk\AppData\Local\Temp\ccsb6O8c.s 			page 64


C:\Users\yvesk\AppData\Local\Temp\ccsb6O8c.s:1894   .bss.pxOverflowTimerList:00000000 $d
C:\Users\yvesk\AppData\Local\Temp\ccsb6O8c.s:1898   .bss.pxOverflowTimerList:00000000 pxOverflowTimerList
C:\Users\yvesk\AppData\Local\Temp\ccsb6O8c.s:1901   .bss.xActiveTimerList1:00000000 $d
C:\Users\yvesk\AppData\Local\Temp\ccsb6O8c.s:1905   .bss.xActiveTimerList1:00000000 xActiveTimerList1
C:\Users\yvesk\AppData\Local\Temp\ccsb6O8c.s:1908   .bss.xActiveTimerList2:00000000 $d
C:\Users\yvesk\AppData\Local\Temp\ccsb6O8c.s:1912   .bss.xActiveTimerList2:00000000 xActiveTimerList2
C:\Users\yvesk\AppData\Local\Temp\ccsb6O8c.s:1915   .bss.xLastTime.6811:00000000 $d
C:\Users\yvesk\AppData\Local\Temp\ccsb6O8c.s:1919   .bss.xLastTime.6811:00000000 xLastTime.6811
C:\Users\yvesk\AppData\Local\Temp\ccsb6O8c.s:1922   .bss.xTimerQueue:00000000 $d
C:\Users\yvesk\AppData\Local\Temp\ccsb6O8c.s:1926   .bss.xTimerQueue:00000000 xTimerQueue
C:\Users\yvesk\AppData\Local\Temp\ccsb6O8c.s:1929   .bss.xTimerTaskHandle:00000000 $d
C:\Users\yvesk\AppData\Local\Temp\ccsb6O8c.s:1933   .bss.xTimerTaskHandle:00000000 xTimerTaskHandle
C:\Users\yvesk\AppData\Local\Temp\ccsb6O8c.s:1936   .rodata.prvCheckForValidListAndQueue.str1.4:00000000 $d
C:\Users\yvesk\AppData\Local\Temp\ccsb6O8c.s:1940   .rodata.xTimerCreateTimerTask.str1.4:00000000 $d

UNDEFINED SYMBOLS
vListInsert
vPortEnterCritical
vPortExitCritical
vListInitialise
xQueueGenericCreate
vQueueAddToRegistry
vListInitialiseItem
xTaskCreate
pvPortMalloc
xTaskGetSchedulerState
xQueueGenericSend
xQueueGenericSendFromISR
uxListRemove
xTaskGetTickCount
vTaskSuspendAll
vQueueWaitForMessageRestricted
xTaskResumeAll
xQueueReceive
vPortFree
