ARM GAS  C:\Users\yvesk\AppData\Local\Temp\ccjjCeU4.s 			page 1


   1              		.cpu cortex-m4
   2              		.eabi_attribute 27, 1
   3              		.eabi_attribute 28, 1
   4              		.eabi_attribute 20, 1
   5              		.eabi_attribute 21, 1
   6              		.eabi_attribute 23, 3
   7              		.eabi_attribute 24, 1
   8              		.eabi_attribute 25, 1
   9              		.eabi_attribute 26, 1
  10              		.eabi_attribute 30, 1
  11              		.eabi_attribute 34, 1
  12              		.eabi_attribute 18, 4
  13              		.file	"no-scheduler-example.c"
  14              		.text
  15              	.Ltext0:
  16              		.cfi_sections	.debug_frame
  17              		.section	.text.printWelcome,"ax",%progbits
  18              		.align	1
  19              		.global	printWelcome
  20              		.arch armv7e-m
  21              		.syntax unified
  22              		.thumb
  23              		.thumb_func
  24              		.fpu fpv4-sp-d16
  26              	printWelcome:
  27              	.LFB133:
  28              		.file 1 "../../applications/no-scheduler-example/src/no-scheduler-example.c"
   1:../../applications/no-scheduler-example/src/no-scheduler-example.c **** /* USER CODE BEGIN Header */
   2:../../applications/no-scheduler-example/src/no-scheduler-example.c **** /**
   3:../../applications/no-scheduler-example/src/no-scheduler-example.c ****   ******************************************************************************
   4:../../applications/no-scheduler-example/src/no-scheduler-example.c ****   * @file           : main.c
   5:../../applications/no-scheduler-example/src/no-scheduler-example.c ****   * @brief          : Main program body
   6:../../applications/no-scheduler-example/src/no-scheduler-example.c ****   ******************************************************************************
   7:../../applications/no-scheduler-example/src/no-scheduler-example.c ****   * This notice applies to any and all portions of this file
   8:../../applications/no-scheduler-example/src/no-scheduler-example.c ****   * that are not between comment pairs USER CODE BEGIN and
   9:../../applications/no-scheduler-example/src/no-scheduler-example.c ****   * USER CODE END. Other portions of this file, whether 
  10:../../applications/no-scheduler-example/src/no-scheduler-example.c ****   * inserted by the user or by software development tools
  11:../../applications/no-scheduler-example/src/no-scheduler-example.c ****   * are owned by their respective copyright owners.
  12:../../applications/no-scheduler-example/src/no-scheduler-example.c ****   *
  13:../../applications/no-scheduler-example/src/no-scheduler-example.c ****   * Copyright (c) 2019 STMicroelectronics International N.V. 
  14:../../applications/no-scheduler-example/src/no-scheduler-example.c ****   * All rights reserved.
  15:../../applications/no-scheduler-example/src/no-scheduler-example.c ****   *
  16:../../applications/no-scheduler-example/src/no-scheduler-example.c ****   * Redistribution and use in source and binary forms, with or without 
  17:../../applications/no-scheduler-example/src/no-scheduler-example.c ****   * modification, are permitted, provided that the following conditions are met:
  18:../../applications/no-scheduler-example/src/no-scheduler-example.c ****   *
  19:../../applications/no-scheduler-example/src/no-scheduler-example.c ****   * 1. Redistribution of source code must retain the above copyright notice, 
  20:../../applications/no-scheduler-example/src/no-scheduler-example.c ****   *    this list of conditions and the following disclaimer.
  21:../../applications/no-scheduler-example/src/no-scheduler-example.c ****   * 2. Redistributions in binary form must reproduce the above copyright notice,
  22:../../applications/no-scheduler-example/src/no-scheduler-example.c ****   *    this list of conditions and the following disclaimer in the documentation
  23:../../applications/no-scheduler-example/src/no-scheduler-example.c ****   *    and/or other materials provided with the distribution.
  24:../../applications/no-scheduler-example/src/no-scheduler-example.c ****   * 3. Neither the name of STMicroelectronics nor the names of other 
  25:../../applications/no-scheduler-example/src/no-scheduler-example.c ****   *    contributors to this software may be used to endorse or promote products 
  26:../../applications/no-scheduler-example/src/no-scheduler-example.c ****   *    derived from this software without specific written permission.
  27:../../applications/no-scheduler-example/src/no-scheduler-example.c ****   * 4. This software, including modifications and/or derivative works of this 
  28:../../applications/no-scheduler-example/src/no-scheduler-example.c ****   *    software, must execute solely and exclusively on microcontroller or
  29:../../applications/no-scheduler-example/src/no-scheduler-example.c ****   *    microprocessor devices manufactured by or for STMicroelectronics.
  30:../../applications/no-scheduler-example/src/no-scheduler-example.c ****   * 5. Redistribution and use of this software other than as permitted under 
ARM GAS  C:\Users\yvesk\AppData\Local\Temp\ccjjCeU4.s 			page 2


  31:../../applications/no-scheduler-example/src/no-scheduler-example.c ****   *    this license is void and will automatically terminate your rights under 
  32:../../applications/no-scheduler-example/src/no-scheduler-example.c ****   *    this license. 
  33:../../applications/no-scheduler-example/src/no-scheduler-example.c ****   *
  34:../../applications/no-scheduler-example/src/no-scheduler-example.c ****   * THIS SOFTWARE IS PROVIDED BY STMICROELECTRONICS AND CONTRIBUTORS "AS IS" 
  35:../../applications/no-scheduler-example/src/no-scheduler-example.c ****   * AND ANY EXPRESS, IMPLIED OR STATUTORY WARRANTIES, INCLUDING, BUT NOT 
  36:../../applications/no-scheduler-example/src/no-scheduler-example.c ****   * LIMITED TO, THE IMPLIED WARRANTIES OF MERCHANTABILITY, FITNESS FOR A 
  37:../../applications/no-scheduler-example/src/no-scheduler-example.c ****   * PARTICULAR PURPOSE AND NON-INFRINGEMENT OF THIRD PARTY INTELLECTUAL PROPERTY
  38:../../applications/no-scheduler-example/src/no-scheduler-example.c ****   * RIGHTS ARE DISCLAIMED TO THE FULLEST EXTENT PERMITTED BY LAW. IN NO EVENT 
  39:../../applications/no-scheduler-example/src/no-scheduler-example.c ****   * SHALL STMICROELECTRONICS OR CONTRIBUTORS BE LIABLE FOR ANY DIRECT, INDIRECT,
  40:../../applications/no-scheduler-example/src/no-scheduler-example.c ****   * INCIDENTAL, SPECIAL, EXEMPLARY, OR CONSEQUENTIAL DAMAGES (INCLUDING, BUT NOT
  41:../../applications/no-scheduler-example/src/no-scheduler-example.c ****   * LIMITED TO, PROCUREMENT OF SUBSTITUTE GOODS OR SERVICES; LOSS OF USE, DATA, 
  42:../../applications/no-scheduler-example/src/no-scheduler-example.c ****   * OR PROFITS; OR BUSINESS INTERRUPTION) HOWEVER CAUSED AND ON ANY THEORY OF 
  43:../../applications/no-scheduler-example/src/no-scheduler-example.c ****   * LIABILITY, WHETHER IN CONTRACT, STRICT LIABILITY, OR TORT (INCLUDING 
  44:../../applications/no-scheduler-example/src/no-scheduler-example.c ****   * NEGLIGENCE OR OTHERWISE) ARISING IN ANY WAY OUT OF THE USE OF THIS SOFTWARE,
  45:../../applications/no-scheduler-example/src/no-scheduler-example.c ****   * EVEN IF ADVISED OF THE POSSIBILITY OF SUCH DAMAGE.
  46:../../applications/no-scheduler-example/src/no-scheduler-example.c ****   *
  47:../../applications/no-scheduler-example/src/no-scheduler-example.c ****   ******************************************************************************
  48:../../applications/no-scheduler-example/src/no-scheduler-example.c ****   */
  49:../../applications/no-scheduler-example/src/no-scheduler-example.c **** /* USER CODE END Header */
  50:../../applications/no-scheduler-example/src/no-scheduler-example.c **** 
  51:../../applications/no-scheduler-example/src/no-scheduler-example.c **** /* Includes ------------------------------------------------------------------*/
  52:../../applications/no-scheduler-example/src/no-scheduler-example.c **** #include "no-scheduler-example.h"
  53:../../applications/no-scheduler-example/src/no-scheduler-example.c **** #include "C:\Users\yvesk\Documents\Academiejaar 2019-2020\IOT\Practicum\octa-stack-students-master\
  54:../../applications/no-scheduler-example/src/no-scheduler-example.c **** #include <stdio.h>
  55:../../applications/no-scheduler-example/src/no-scheduler-example.c **** #include "C:\Users\yvesk\Documents\Academiejaar 2019-2020\IOT\Practicum\octa-stack-students-master\
  56:../../applications/no-scheduler-example/src/no-scheduler-example.c **** #include "murata.h"
  57:../../applications/no-scheduler-example/src/no-scheduler-example.c **** //#include "C:\Users\yvesk\Documents\Academiejaar 2019-2020\IOT\Practicum\octa-stack-students-maste
  58:../../applications/no-scheduler-example/src/no-scheduler-example.c **** //#include "C:\Users\yvesk\Documents\Academiejaar 2019-2020\IOT\Practicum\octa-stack-students-maste
  59:../../applications/no-scheduler-example/src/no-scheduler-example.c **** /* Private includes ----------------------------------------------------------*/
  60:../../applications/no-scheduler-example/src/no-scheduler-example.c **** /* USER CODE BEGIN Includes */
  61:../../applications/no-scheduler-example/src/no-scheduler-example.c **** 
  62:../../applications/no-scheduler-example/src/no-scheduler-example.c **** 
  63:../../applications/no-scheduler-example/src/no-scheduler-example.c **** /* USER CODE END Includes */
  64:../../applications/no-scheduler-example/src/no-scheduler-example.c **** 
  65:../../applications/no-scheduler-example/src/no-scheduler-example.c **** /* Private typedef -----------------------------------------------------------*/
  66:../../applications/no-scheduler-example/src/no-scheduler-example.c **** /* USER CODE BEGIN PTD */
  67:../../applications/no-scheduler-example/src/no-scheduler-example.c **** 
  68:../../applications/no-scheduler-example/src/no-scheduler-example.c **** /* USER CODE END PTD */
  69:../../applications/no-scheduler-example/src/no-scheduler-example.c **** 
  70:../../applications/no-scheduler-example/src/no-scheduler-example.c **** /* Private define ------------------------------------------------------------*/
  71:../../applications/no-scheduler-example/src/no-scheduler-example.c **** /* USER CODE BEGIN PD */
  72:../../applications/no-scheduler-example/src/no-scheduler-example.c **** #define HAL_EXTI_MODULE_ENABLED
  73:../../applications/no-scheduler-example/src/no-scheduler-example.c **** #define temp_hum_timer    3
  74:../../applications/no-scheduler-example/src/no-scheduler-example.c **** /* USER CODE END PD */
  75:../../applications/no-scheduler-example/src/no-scheduler-example.c **** 
  76:../../applications/no-scheduler-example/src/no-scheduler-example.c **** /* Private macro -------------------------------------------------------------*/
  77:../../applications/no-scheduler-example/src/no-scheduler-example.c **** /* USER CODE BEGIN PM */
  78:../../applications/no-scheduler-example/src/no-scheduler-example.c **** 
  79:../../applications/no-scheduler-example/src/no-scheduler-example.c **** /* USER CODE END PM */
  80:../../applications/no-scheduler-example/src/no-scheduler-example.c **** 
  81:../../applications/no-scheduler-example/src/no-scheduler-example.c **** /* Private user code ---------------------------------------------------------*/
  82:../../applications/no-scheduler-example/src/no-scheduler-example.c **** /* USER CODE BEGIN 0 */
  83:../../applications/no-scheduler-example/src/no-scheduler-example.c **** osTimerId temp_hum_timer_id;
  84:../../applications/no-scheduler-example/src/no-scheduler-example.c **** float SHTData[2];
  85:../../applications/no-scheduler-example/src/no-scheduler-example.c **** volatile _Bool temperatureflag=0; 
  86:../../applications/no-scheduler-example/src/no-scheduler-example.c **** uint16_t LoRaWAN_Counter = 0;
  87:../../applications/no-scheduler-example/src/no-scheduler-example.c **** uint8_t lora_init = 0;
ARM GAS  C:\Users\yvesk\AppData\Local\Temp\ccjjCeU4.s 			page 3


  88:../../applications/no-scheduler-example/src/no-scheduler-example.c **** uint64_t short_UID;
  89:../../applications/no-scheduler-example/src/no-scheduler-example.c **** uint16_t rep_counter = 0; 
  90:../../applications/no-scheduler-example/src/no-scheduler-example.c **** /* USER CODE END 0 */
  91:../../applications/no-scheduler-example/src/no-scheduler-example.c **** 
  92:../../applications/no-scheduler-example/src/no-scheduler-example.c **** /**
  93:../../applications/no-scheduler-example/src/no-scheduler-example.c ****   * @brief  The application entry point.
  94:../../applications/no-scheduler-example/src/no-scheduler-example.c ****   * @retval int
  95:../../applications/no-scheduler-example/src/no-scheduler-example.c ****   */
  96:../../applications/no-scheduler-example/src/no-scheduler-example.c **** int main(void)
  97:../../applications/no-scheduler-example/src/no-scheduler-example.c **** {
  98:../../applications/no-scheduler-example/src/no-scheduler-example.c ****   /* USER CODE BEGIN 1 */
  99:../../applications/no-scheduler-example/src/no-scheduler-example.c **** #if USE_BOOTLOADER
 100:../../applications/no-scheduler-example/src/no-scheduler-example.c ****   bootloader_SetVTOR();
 101:../../applications/no-scheduler-example/src/no-scheduler-example.c **** #endif
 102:../../applications/no-scheduler-example/src/no-scheduler-example.c **** 
 103:../../applications/no-scheduler-example/src/no-scheduler-example.c ****   /* USER CODE END 1 */
 104:../../applications/no-scheduler-example/src/no-scheduler-example.c **** 
 105:../../applications/no-scheduler-example/src/no-scheduler-example.c ****   /* MCU Configuration--------------------------------------------------------*/
 106:../../applications/no-scheduler-example/src/no-scheduler-example.c **** 
 107:../../applications/no-scheduler-example/src/no-scheduler-example.c ****   /* Reset of all peripherals, Initializes the Flash interface and the Systick. */
 108:../../applications/no-scheduler-example/src/no-scheduler-example.c ****   HAL_Init();
 109:../../applications/no-scheduler-example/src/no-scheduler-example.c ****  
 110:../../applications/no-scheduler-example/src/no-scheduler-example.c ****   /* USER CODE BEGIN Init */
 111:../../applications/no-scheduler-example/src/no-scheduler-example.c **** 
 112:../../applications/no-scheduler-example/src/no-scheduler-example.c ****   /* USER CODE END Init */
 113:../../applications/no-scheduler-example/src/no-scheduler-example.c **** 
 114:../../applications/no-scheduler-example/src/no-scheduler-example.c ****   /* Configure the system clock */
 115:../../applications/no-scheduler-example/src/no-scheduler-example.c ****   SystemClock_Config();
 116:../../applications/no-scheduler-example/src/no-scheduler-example.c **** 
 117:../../applications/no-scheduler-example/src/no-scheduler-example.c ****   /* USER CODE BEGIN SysInit */
 118:../../applications/no-scheduler-example/src/no-scheduler-example.c **** 
 119:../../applications/no-scheduler-example/src/no-scheduler-example.c ****   /* USER CODE END SysInit */
 120:../../applications/no-scheduler-example/src/no-scheduler-example.c **** 
 121:../../applications/no-scheduler-example/src/no-scheduler-example.c ****   /* Initialize theplatform */
 122:../../applications/no-scheduler-example/src/no-scheduler-example.c ****   Initialize_Platform();
 123:../../applications/no-scheduler-example/src/no-scheduler-example.c ****   /* USER CODE BEGIN 2 */
 124:../../applications/no-scheduler-example/src/no-scheduler-example.c **** 
 125:../../applications/no-scheduler-example/src/no-scheduler-example.c ****   // get Unique ID of Octa
 126:../../applications/no-scheduler-example/src/no-scheduler-example.c ****   short_UID = get_UID(); 
 127:../../applications/no-scheduler-example/src/no-scheduler-example.c **** 
 128:../../applications/no-scheduler-example/src/no-scheduler-example.c ****   //LORAWAN
 129:../../applications/no-scheduler-example/src/no-scheduler-example.c ****   lora_init=Murata_Initialize(short_UID);
 130:../../applications/no-scheduler-example/src/no-scheduler-example.c **** 
 131:../../applications/no-scheduler-example/src/no-scheduler-example.c ****   if (lora_init) {
 132:../../applications/no-scheduler-example/src/no-scheduler-example.c ****     printf("Lorawan module init ok\r\n\r\n");
 133:../../applications/no-scheduler-example/src/no-scheduler-example.c ****   }
 134:../../applications/no-scheduler-example/src/no-scheduler-example.c ****   
 135:../../applications/no-scheduler-example/src/no-scheduler-example.c ****   LSM303AGR_setI2CInterface(&common_I2C);
 136:../../applications/no-scheduler-example/src/no-scheduler-example.c ****   setI2CInterface_SHT31(&common_I2C);
 137:../../applications/no-scheduler-example/src/no-scheduler-example.c ****   SHT31_begin(); 
 138:../../applications/no-scheduler-example/src/no-scheduler-example.c ****   LSM303AGR_init();
 139:../../applications/no-scheduler-example/src/no-scheduler-example.c ****   printWelcome();
 140:../../applications/no-scheduler-example/src/no-scheduler-example.c ****   uint8_t data; 
 141:../../applications/no-scheduler-example/src/no-scheduler-example.c **** 
 142:../../applications/no-scheduler-example/src/no-scheduler-example.c **** // // TX MUTEX ensuring no transmits are happening at the same time
 143:../../applications/no-scheduler-example/src/no-scheduler-example.c **** //   osMutexDef(txMutex);
 144:../../applications/no-scheduler-example/src/no-scheduler-example.c **** //   txMutexId = osMutexCreate(osMutex(txMutex));
ARM GAS  C:\Users\yvesk\AppData\Local\Temp\ccjjCeU4.s 			page 4


 145:../../applications/no-scheduler-example/src/no-scheduler-example.c ****     
 146:../../applications/no-scheduler-example/src/no-scheduler-example.c **** //     // pass processing thread handle to murata driver
 147:../../applications/no-scheduler-example/src/no-scheduler-example.c **** //   Murata_SetProcessingThread(murata_rx_processing_handle);
 148:../../applications/no-scheduler-example/src/no-scheduler-example.c ****   /* USER CODE END 2 */
 149:../../applications/no-scheduler-example/src/no-scheduler-example.c **** 
 150:../../applications/no-scheduler-example/src/no-scheduler-example.c ****   /* We should never get here as control is now taken by the scheduler */
 151:../../applications/no-scheduler-example/src/no-scheduler-example.c **** 
 152:../../applications/no-scheduler-example/src/no-scheduler-example.c ****   /* Infinite loop */
 153:../../applications/no-scheduler-example/src/no-scheduler-example.c ****   /* USER CODE BEGIN WHILE */
 154:../../applications/no-scheduler-example/src/no-scheduler-example.c **** 
 155:../../applications/no-scheduler-example/src/no-scheduler-example.c **** 
 156:../../applications/no-scheduler-example/src/no-scheduler-example.c ****    
 157:../../applications/no-scheduler-example/src/no-scheduler-example.c **** 
 158:../../applications/no-scheduler-example/src/no-scheduler-example.c ****   while (1)
 159:../../applications/no-scheduler-example/src/no-scheduler-example.c ****   {
 160:../../applications/no-scheduler-example/src/no-scheduler-example.c **** 
 161:../../applications/no-scheduler-example/src/no-scheduler-example.c ****     uint8_t payload=5;
 162:../../applications/no-scheduler-example/src/no-scheduler-example.c ****     IWDG_feed(NULL); 
 163:../../applications/no-scheduler-example/src/no-scheduler-example.c ****     /* USER CODE END WHILE */
 164:../../applications/no-scheduler-example/src/no-scheduler-example.c ****     //LSM303AGR_readRegister(0x31, data, 0);
 165:../../applications/no-scheduler-example/src/no-scheduler-example.c **** 
 166:../../applications/no-scheduler-example/src/no-scheduler-example.c ****     //de interrupt zal zorgen dat de flag op 1 staat, dan doen we een measurement van temp
 167:../../applications/no-scheduler-example/src/no-scheduler-example.c ****     if (temperatureflag==1) {
 168:../../applications/no-scheduler-example/src/no-scheduler-example.c ****       // Request to enter SLEEP mode
 169:../../applications/no-scheduler-example/src/no-scheduler-example.c **** 
 170:../../applications/no-scheduler-example/src/no-scheduler-example.c ****       rep_counter++; 
 171:../../applications/no-scheduler-example/src/no-scheduler-example.c ****       printf("%d,\r\n\r\n",rep_counter);
 172:../../applications/no-scheduler-example/src/no-scheduler-example.c **** 
 173:../../applications/no-scheduler-example/src/no-scheduler-example.c **** 
 174:../../applications/no-scheduler-example/src/no-scheduler-example.c ****       if (rep_counter==4) {
 175:../../applications/no-scheduler-example/src/no-scheduler-example.c ****         printf("going into sleepmode\r\n"); 
 176:../../applications/no-scheduler-example/src/no-scheduler-example.c ****       //HAL_PWR_EnterSLEEPMode(PWR_MAINREGULATOR_ON, PWR_SLEEPENTRY_WFI);
 177:../../applications/no-scheduler-example/src/no-scheduler-example.c ****       printf(" into sleepmode gegaan\r\n"); 
 178:../../applications/no-scheduler-example/src/no-scheduler-example.c ****       }
 179:../../applications/no-scheduler-example/src/no-scheduler-example.c **** 
 180:../../applications/no-scheduler-example/src/no-scheduler-example.c ****   lora_init=Murata_Initialize(short_UID);
 181:../../applications/no-scheduler-example/src/no-scheduler-example.c **** 
 182:../../applications/no-scheduler-example/src/no-scheduler-example.c ****   if (lora_init) {
 183:../../applications/no-scheduler-example/src/no-scheduler-example.c ****     printf("Lorawan module init ok\r\n\r\n");
 184:../../applications/no-scheduler-example/src/no-scheduler-example.c ****   
 185:../../applications/no-scheduler-example/src/no-scheduler-example.c ****       temp_hum_measurement();
 186:../../applications/no-scheduler-example/src/no-scheduler-example.c ****       //LoRaWAN_send(&payload);
 187:../../applications/no-scheduler-example/src/no-scheduler-example.c ****     //LoRaWAN_send_self();
 188:../../applications/no-scheduler-example/src/no-scheduler-example.c ****   }
 189:../../applications/no-scheduler-example/src/no-scheduler-example.c ****   
 190:../../applications/no-scheduler-example/src/no-scheduler-example.c ****     
 191:../../applications/no-scheduler-example/src/no-scheduler-example.c ****     //murata_process_rx_response();
 192:../../applications/no-scheduler-example/src/no-scheduler-example.c ****       temperatureflag=0; 
 193:../../applications/no-scheduler-example/src/no-scheduler-example.c ****  //     lora_init=Murata_Initialize(short_UID);
 194:../../applications/no-scheduler-example/src/no-scheduler-example.c ****     }
 195:../../applications/no-scheduler-example/src/no-scheduler-example.c ****  
 196:../../applications/no-scheduler-example/src/no-scheduler-example.c **** 
 197:../../applications/no-scheduler-example/src/no-scheduler-example.c ****     /* HAL_GPIO_TogglePin(OCTA_RLED_GPIO_Port, OCTA_RLED_Pin);
 198:../../applications/no-scheduler-example/src/no-scheduler-example.c ****     HAL_Delay(1000);
 199:../../applications/no-scheduler-example/src/no-scheduler-example.c ****     HAL_GPIO_TogglePin(OCTA_RLED_GPIO_Port, OCTA_RLED_Pin);
 200:../../applications/no-scheduler-example/src/no-scheduler-example.c ****     HAL_GPIO_TogglePin(OCTA_GLED_GPIO_Port, OCTA_GLED_Pin);
 201:../../applications/no-scheduler-example/src/no-scheduler-example.c ****     HAL_Delay(1000);
ARM GAS  C:\Users\yvesk\AppData\Local\Temp\ccjjCeU4.s 			page 5


 202:../../applications/no-scheduler-example/src/no-scheduler-example.c ****     HAL_GPIO_TogglePin(OCTA_GLED_GPIO_Port, OCTA_GLED_Pin);
 203:../../applications/no-scheduler-example/src/no-scheduler-example.c ****     HAL_GPIO_TogglePin(OCTA_BLED_GPIO_Port, OCTA_BLED_Pin);
 204:../../applications/no-scheduler-example/src/no-scheduler-example.c ****     HAL_Delay(1000);
 205:../../applications/no-scheduler-example/src/no-scheduler-example.c ****     HAL_GPIO_TogglePin(OCTA_BLED_GPIO_Port, OCTA_BLED_Pin); */
 206:../../applications/no-scheduler-example/src/no-scheduler-example.c **** 
 207:../../applications/no-scheduler-example/src/no-scheduler-example.c ****     /* USER CODE BEGIN 3 */
 208:../../applications/no-scheduler-example/src/no-scheduler-example.c ****   }
 209:../../applications/no-scheduler-example/src/no-scheduler-example.c ****   /* USER CODE END 3 */
 210:../../applications/no-scheduler-example/src/no-scheduler-example.c **** }
 211:../../applications/no-scheduler-example/src/no-scheduler-example.c **** 
 212:../../applications/no-scheduler-example/src/no-scheduler-example.c **** void printWelcome(void)
 213:../../applications/no-scheduler-example/src/no-scheduler-example.c **** {
  29              		.loc 1 213 1 view -0
  30              		.cfi_startproc
  31              		@ args = 0, pretend = 0, frame = 0
  32              		@ frame_needed = 0, uses_anonymous_args = 0
  33 0000 38B5     		push	{r3, r4, r5, lr}
  34              	.LCFI0:
  35              		.cfi_def_cfa_offset 16
  36              		.cfi_offset 3, -16
  37              		.cfi_offset 4, -12
  38              		.cfi_offset 5, -8
  39              		.cfi_offset 14, -4
 214:../../applications/no-scheduler-example/src/no-scheduler-example.c ****   printf("\r\n");
  40              		.loc 1 214 3 view .LVU1
  41 0002 104C     		ldr	r4, .L3
  42 0004 2046     		mov	r0, r4
  43 0006 FFF7FEFF 		bl	puts
  44              	.LVL0:
 215:../../applications/no-scheduler-example/src/no-scheduler-example.c ****   printf("*****************************************\r\n");
  45              		.loc 1 215 3 view .LVU2
  46 000a 0F4D     		ldr	r5, .L3+4
  47 000c 2846     		mov	r0, r5
  48 000e FFF7FEFF 		bl	puts
  49              	.LVL1:
 216:../../applications/no-scheduler-example/src/no-scheduler-example.c ****   printf("no scheduler example\r\n");
  50              		.loc 1 216 3 view .LVU3
  51 0012 0E48     		ldr	r0, .L3+8
  52 0014 FFF7FEFF 		bl	puts
  53              	.LVL2:
 217:../../applications/no-scheduler-example/src/no-scheduler-example.c ****   printf("*****************************************\r\n");
  54              		.loc 1 217 3 view .LVU4
  55 0018 2846     		mov	r0, r5
  56 001a FFF7FEFF 		bl	puts
  57              	.LVL3:
 218:../../applications/no-scheduler-example/src/no-scheduler-example.c ****   printf("\r\n");
  58              		.loc 1 218 3 view .LVU5
  59 001e 2046     		mov	r0, r4
  60 0020 FFF7FEFF 		bl	puts
  61              	.LVL4:
 219:../../applications/no-scheduler-example/src/no-scheduler-example.c ****   HAL_GPIO_TogglePin(OCTA_BLED_GPIO_Port, OCTA_BLED_Pin);
  62              		.loc 1 219 3 view .LVU6
  63 0024 0A4C     		ldr	r4, .L3+12
  64 0026 4FF40041 		mov	r1, #32768
  65 002a 2046     		mov	r0, r4
  66 002c FFF7FEFF 		bl	HAL_GPIO_TogglePin
  67              	.LVL5:
ARM GAS  C:\Users\yvesk\AppData\Local\Temp\ccjjCeU4.s 			page 6


 220:../../applications/no-scheduler-example/src/no-scheduler-example.c ****   HAL_Delay(2000);
  68              		.loc 1 220 3 view .LVU7
  69 0030 4FF4FA60 		mov	r0, #2000
  70 0034 FFF7FEFF 		bl	HAL_Delay
  71              	.LVL6:
 221:../../applications/no-scheduler-example/src/no-scheduler-example.c ****   HAL_GPIO_TogglePin(OCTA_BLED_GPIO_Port, OCTA_BLED_Pin);
  72              		.loc 1 221 3 view .LVU8
  73 0038 4FF40041 		mov	r1, #32768
  74 003c 2046     		mov	r0, r4
  75 003e FFF7FEFF 		bl	HAL_GPIO_TogglePin
  76              	.LVL7:
 222:../../applications/no-scheduler-example/src/no-scheduler-example.c **** }
  77              		.loc 1 222 1 is_stmt 0 view .LVU9
  78 0042 38BD     		pop	{r3, r4, r5, pc}
  79              	.L4:
  80              		.align	2
  81              	.L3:
  82 0044 00000000 		.word	.LC0
  83 0048 04000000 		.word	.LC1
  84 004c 30000000 		.word	.LC2
  85 0050 000C0048 		.word	1207962624
  86              		.cfi_endproc
  87              	.LFE133:
  89              		.section	.text.HAL_TIM_PeriodElapsedCallback,"ax",%progbits
  90              		.align	1
  91              		.global	HAL_TIM_PeriodElapsedCallback
  92              		.syntax unified
  93              		.thumb
  94              		.thumb_func
  95              		.fpu fpv4-sp-d16
  97              	HAL_TIM_PeriodElapsedCallback:
  98              	.LVL8:
  99              	.LFB134:
 223:../../applications/no-scheduler-example/src/no-scheduler-example.c **** 
 224:../../applications/no-scheduler-example/src/no-scheduler-example.c **** 
 225:../../applications/no-scheduler-example/src/no-scheduler-example.c **** 
 226:../../applications/no-scheduler-example/src/no-scheduler-example.c **** void HAL_TIM_PeriodElapsedCallback(TIM_HandleTypeDef *htim)
 227:../../applications/no-scheduler-example/src/no-scheduler-example.c **** {
 100              		.loc 1 227 1 is_stmt 1 view -0
 101              		.cfi_startproc
 102              		@ args = 0, pretend = 0, frame = 0
 103              		@ frame_needed = 0, uses_anonymous_args = 0
 104              		.loc 1 227 1 is_stmt 0 view .LVU11
 105 0000 08B5     		push	{r3, lr}
 106              	.LCFI1:
 107              		.cfi_def_cfa_offset 8
 108              		.cfi_offset 3, -8
 109              		.cfi_offset 14, -4
 228:../../applications/no-scheduler-example/src/no-scheduler-example.c ****   /* USER CODE BEGIN Callback 0 */
 229:../../applications/no-scheduler-example/src/no-scheduler-example.c **** 
 230:../../applications/no-scheduler-example/src/no-scheduler-example.c ****   /* USER CODE END Callback 0 */
 231:../../applications/no-scheduler-example/src/no-scheduler-example.c ****   if (htim->Instance == TIM1)
 110              		.loc 1 231 3 is_stmt 1 view .LVU12
 111              		.loc 1 231 11 is_stmt 0 view .LVU13
 112 0002 0268     		ldr	r2, [r0]
 113              		.loc 1 231 6 view .LVU14
 114 0004 034B     		ldr	r3, .L9
ARM GAS  C:\Users\yvesk\AppData\Local\Temp\ccjjCeU4.s 			page 7


 115 0006 9A42     		cmp	r2, r3
 116 0008 00D0     		beq	.L8
 117              	.LVL9:
 118              	.L5:
 232:../../applications/no-scheduler-example/src/no-scheduler-example.c ****   {
 233:../../applications/no-scheduler-example/src/no-scheduler-example.c ****     HAL_IncTick();
 234:../../applications/no-scheduler-example/src/no-scheduler-example.c ****   }
 235:../../applications/no-scheduler-example/src/no-scheduler-example.c ****   /* USER CODE BEGIN Callback 1 */
 236:../../applications/no-scheduler-example/src/no-scheduler-example.c **** 
 237:../../applications/no-scheduler-example/src/no-scheduler-example.c ****   /* USER CODE END Callback 1 */
 238:../../applications/no-scheduler-example/src/no-scheduler-example.c **** }
 119              		.loc 1 238 1 view .LVU15
 120 000a 08BD     		pop	{r3, pc}
 121              	.LVL10:
 122              	.L8:
 233:../../applications/no-scheduler-example/src/no-scheduler-example.c ****   }
 123              		.loc 1 233 5 is_stmt 1 view .LVU16
 124 000c FFF7FEFF 		bl	HAL_IncTick
 125              	.LVL11:
 126              		.loc 1 238 1 is_stmt 0 view .LVU17
 127 0010 FBE7     		b	.L5
 128              	.L10:
 129 0012 00BF     		.align	2
 130              	.L9:
 131 0014 002C0140 		.word	1073818624
 132              		.cfi_endproc
 133              	.LFE134:
 135              		.global	__aeabi_f2d
 136              		.section	.text.print_temp_hum,"ax",%progbits
 137              		.align	1
 138              		.global	print_temp_hum
 139              		.syntax unified
 140              		.thumb
 141              		.thumb_func
 142              		.fpu fpv4-sp-d16
 144              	print_temp_hum:
 145              	.LFB135:
 239:../../applications/no-scheduler-example/src/no-scheduler-example.c **** 
 240:../../applications/no-scheduler-example/src/no-scheduler-example.c **** void print_temp_hum(void){
 146              		.loc 1 240 26 is_stmt 1 view -0
 147              		.cfi_startproc
 148              		@ args = 0, pretend = 0, frame = 0
 149              		@ frame_needed = 0, uses_anonymous_args = 0
 150 0000 38B5     		push	{r3, r4, r5, lr}
 151              	.LCFI2:
 152              		.cfi_def_cfa_offset 16
 153              		.cfi_offset 3, -16
 154              		.cfi_offset 4, -12
 155              		.cfi_offset 5, -8
 156              		.cfi_offset 14, -4
 241:../../applications/no-scheduler-example/src/no-scheduler-example.c ****   printf("\r\n");
 157              		.loc 1 241 3 view .LVU19
 158 0002 0C4C     		ldr	r4, .L13
 159 0004 2046     		mov	r0, r4
 160 0006 FFF7FEFF 		bl	puts
 161              	.LVL12:
 242:../../applications/no-scheduler-example/src/no-scheduler-example.c ****   printf("Temperature: %.2f °C  \r\n", SHTData[0]);
ARM GAS  C:\Users\yvesk\AppData\Local\Temp\ccjjCeU4.s 			page 8


 162              		.loc 1 242 3 view .LVU20
 163              		.loc 1 242 48 is_stmt 0 view .LVU21
 164 000a 0B4D     		ldr	r5, .L13+4
 165              		.loc 1 242 3 view .LVU22
 166 000c 2868     		ldr	r0, [r5]	@ float
 167 000e FFF7FEFF 		bl	__aeabi_f2d
 168              	.LVL13:
 169 0012 0246     		mov	r2, r0
 170 0014 0B46     		mov	r3, r1
 171 0016 0948     		ldr	r0, .L13+8
 172 0018 FFF7FEFF 		bl	printf
 173              	.LVL14:
 243:../../applications/no-scheduler-example/src/no-scheduler-example.c ****   printf("Humidity: %.2f %% \r\n", SHTData[1]);
 174              		.loc 1 243 3 is_stmt 1 view .LVU23
 175 001c 6868     		ldr	r0, [r5, #4]	@ float
 176 001e FFF7FEFF 		bl	__aeabi_f2d
 177              	.LVL15:
 178 0022 0246     		mov	r2, r0
 179 0024 0B46     		mov	r3, r1
 180 0026 0648     		ldr	r0, .L13+12
 181 0028 FFF7FEFF 		bl	printf
 182              	.LVL16:
 244:../../applications/no-scheduler-example/src/no-scheduler-example.c ****   printf("\r\n");
 183              		.loc 1 244 3 view .LVU24
 184 002c 2046     		mov	r0, r4
 185 002e FFF7FEFF 		bl	puts
 186              	.LVL17:
 245:../../applications/no-scheduler-example/src/no-scheduler-example.c **** }
 187              		.loc 1 245 1 is_stmt 0 view .LVU25
 188 0032 38BD     		pop	{r3, r4, r5, pc}
 189              	.L14:
 190              		.align	2
 191              	.L13:
 192 0034 00000000 		.word	.LC0
 193 0038 00000000 		.word	SHTData
 194 003c 00000000 		.word	.LC3
 195 0040 1C000000 		.word	.LC4
 196              		.cfi_endproc
 197              	.LFE135:
 199              		.section	.text.temp_hum_measurement,"ax",%progbits
 200              		.align	1
 201              		.global	temp_hum_measurement
 202              		.syntax unified
 203              		.thumb
 204              		.thumb_func
 205              		.fpu fpv4-sp-d16
 207              	temp_hum_measurement:
 208              	.LFB136:
 246:../../applications/no-scheduler-example/src/no-scheduler-example.c **** 
 247:../../applications/no-scheduler-example/src/no-scheduler-example.c **** void temp_hum_measurement(void){
 209              		.loc 1 247 32 is_stmt 1 view -0
 210              		.cfi_startproc
 211              		@ args = 0, pretend = 0, frame = 0
 212              		@ frame_needed = 0, uses_anonymous_args = 0
 213 0000 08B5     		push	{r3, lr}
 214              	.LCFI3:
 215              		.cfi_def_cfa_offset 8
ARM GAS  C:\Users\yvesk\AppData\Local\Temp\ccjjCeU4.s 			page 9


 216              		.cfi_offset 3, -8
 217              		.cfi_offset 14, -4
 248:../../applications/no-scheduler-example/src/no-scheduler-example.c **** 
 249:../../applications/no-scheduler-example/src/no-scheduler-example.c ****   SHT31_get_temp_hum(SHTData);
 218              		.loc 1 249 3 view .LVU27
 219 0002 0348     		ldr	r0, .L17
 220 0004 FFF7FEFF 		bl	SHT31_get_temp_hum
 221              	.LVL18:
 250:../../applications/no-scheduler-example/src/no-scheduler-example.c ****   print_temp_hum();
 222              		.loc 1 250 3 view .LVU28
 223 0008 FFF7FEFF 		bl	print_temp_hum
 224              	.LVL19:
 251:../../applications/no-scheduler-example/src/no-scheduler-example.c **** }
 225              		.loc 1 251 1 is_stmt 0 view .LVU29
 226 000c 08BD     		pop	{r3, pc}
 227              	.L18:
 228 000e 00BF     		.align	2
 229              	.L17:
 230 0010 00000000 		.word	SHTData
 231              		.cfi_endproc
 232              	.LFE136:
 234              		.section	.text.main,"ax",%progbits
 235              		.align	1
 236              		.global	main
 237              		.syntax unified
 238              		.thumb
 239              		.thumb_func
 240              		.fpu fpv4-sp-d16
 242              	main:
 243              	.LFB132:
  97:../../applications/no-scheduler-example/src/no-scheduler-example.c ****   /* USER CODE BEGIN 1 */
 244              		.loc 1 97 1 is_stmt 1 view -0
 245              		.cfi_startproc
 246              		@ args = 0, pretend = 0, frame = 0
 247              		@ frame_needed = 0, uses_anonymous_args = 0
 248 0000 10B5     		push	{r4, lr}
 249              	.LCFI4:
 250              		.cfi_def_cfa_offset 8
 251              		.cfi_offset 4, -8
 252              		.cfi_offset 14, -4
 108:../../applications/no-scheduler-example/src/no-scheduler-example.c ****  
 253              		.loc 1 108 3 view .LVU31
 254 0002 FFF7FEFF 		bl	HAL_Init
 255              	.LVL20:
 115:../../applications/no-scheduler-example/src/no-scheduler-example.c **** 
 256              		.loc 1 115 3 view .LVU32
 257 0006 FFF7FEFF 		bl	SystemClock_Config
 258              	.LVL21:
 122:../../applications/no-scheduler-example/src/no-scheduler-example.c ****   /* USER CODE BEGIN 2 */
 259              		.loc 1 122 3 view .LVU33
 260 000a FFF7FEFF 		bl	Initialize_Platform
 261              	.LVL22:
 126:../../applications/no-scheduler-example/src/no-scheduler-example.c **** 
 262              		.loc 1 126 3 view .LVU34
 126:../../applications/no-scheduler-example/src/no-scheduler-example.c **** 
 263              		.loc 1 126 15 is_stmt 0 view .LVU35
 264 000e FFF7FEFF 		bl	get_UID
ARM GAS  C:\Users\yvesk\AppData\Local\Temp\ccjjCeU4.s 			page 10


 265              	.LVL23:
 126:../../applications/no-scheduler-example/src/no-scheduler-example.c **** 
 266              		.loc 1 126 13 view .LVU36
 267 0012 224B     		ldr	r3, .L28
 268 0014 C3E90001 		strd	r0, [r3]
 129:../../applications/no-scheduler-example/src/no-scheduler-example.c **** 
 269              		.loc 1 129 3 is_stmt 1 view .LVU37
 129:../../applications/no-scheduler-example/src/no-scheduler-example.c **** 
 270              		.loc 1 129 13 is_stmt 0 view .LVU38
 271 0018 FFF7FEFF 		bl	Murata_Initialize
 272              	.LVL24:
 129:../../applications/no-scheduler-example/src/no-scheduler-example.c **** 
 273              		.loc 1 129 12 view .LVU39
 274 001c 204B     		ldr	r3, .L28+4
 275 001e 1870     		strb	r0, [r3]
 131:../../applications/no-scheduler-example/src/no-scheduler-example.c ****     printf("Lorawan module init ok\r\n\r\n");
 276              		.loc 1 131 3 is_stmt 1 view .LVU40
 131:../../applications/no-scheduler-example/src/no-scheduler-example.c ****     printf("Lorawan module init ok\r\n\r\n");
 277              		.loc 1 131 6 is_stmt 0 view .LVU41
 278 0020 68B9     		cbnz	r0, .L26
 279              	.L20:
 135:../../applications/no-scheduler-example/src/no-scheduler-example.c ****   setI2CInterface_SHT31(&common_I2C);
 280              		.loc 1 135 3 is_stmt 1 view .LVU42
 281 0022 204C     		ldr	r4, .L28+8
 282 0024 2046     		mov	r0, r4
 283 0026 FFF7FEFF 		bl	LSM303AGR_setI2CInterface
 284              	.LVL25:
 136:../../applications/no-scheduler-example/src/no-scheduler-example.c ****   SHT31_begin(); 
 285              		.loc 1 136 3 view .LVU43
 286 002a 2046     		mov	r0, r4
 287 002c FFF7FEFF 		bl	setI2CInterface_SHT31
 288              	.LVL26:
 137:../../applications/no-scheduler-example/src/no-scheduler-example.c ****   LSM303AGR_init();
 289              		.loc 1 137 3 view .LVU44
 290 0030 FFF7FEFF 		bl	SHT31_begin
 291              	.LVL27:
 138:../../applications/no-scheduler-example/src/no-scheduler-example.c ****   printWelcome();
 292              		.loc 1 138 3 view .LVU45
 293 0034 FFF7FEFF 		bl	LSM303AGR_init
 294              	.LVL28:
 139:../../applications/no-scheduler-example/src/no-scheduler-example.c ****   uint8_t data; 
 295              		.loc 1 139 3 view .LVU46
 296 0038 FFF7FEFF 		bl	printWelcome
 297              	.LVL29:
 298 003c 0DE0     		b	.L21
 299              	.L26:
 132:../../applications/no-scheduler-example/src/no-scheduler-example.c ****   }
 300              		.loc 1 132 5 view .LVU47
 301 003e 1A48     		ldr	r0, .L28+12
 302 0040 FFF7FEFF 		bl	puts
 303              	.LVL30:
 304 0044 EDE7     		b	.L20
 305              	.LVL31:
 306              	.L27:
 307              	.LBB2:
 175:../../applications/no-scheduler-example/src/no-scheduler-example.c ****       //HAL_PWR_EnterSLEEPMode(PWR_MAINREGULATOR_ON, PWR_SLEEPENTRY_WFI);
 308              		.loc 1 175 9 view .LVU48
ARM GAS  C:\Users\yvesk\AppData\Local\Temp\ccjjCeU4.s 			page 11


 309 0046 1948     		ldr	r0, .L28+16
 310 0048 FFF7FEFF 		bl	puts
 311              	.LVL32:
 177:../../applications/no-scheduler-example/src/no-scheduler-example.c ****       }
 312              		.loc 1 177 7 view .LVU49
 313 004c 1848     		ldr	r0, .L28+20
 314 004e FFF7FEFF 		bl	puts
 315              	.LVL33:
 316 0052 14E0     		b	.L22
 317              	.L23:
 192:../../applications/no-scheduler-example/src/no-scheduler-example.c ****  //     lora_init=Murata_Initialize(short_UID);
 318              		.loc 1 192 7 view .LVU50
 192:../../applications/no-scheduler-example/src/no-scheduler-example.c ****  //     lora_init=Murata_Initialize(short_UID);
 319              		.loc 1 192 22 is_stmt 0 view .LVU51
 320 0054 174B     		ldr	r3, .L28+24
 321 0056 0022     		movs	r2, #0
 322 0058 1A70     		strb	r2, [r3]
 323              	.LVL34:
 324              	.L21:
 192:../../applications/no-scheduler-example/src/no-scheduler-example.c ****  //     lora_init=Murata_Initialize(short_UID);
 325              		.loc 1 192 22 view .LVU52
 326              	.LBE2:
 140:../../applications/no-scheduler-example/src/no-scheduler-example.c **** 
 327              		.loc 1 140 3 is_stmt 1 view .LVU53
 158:../../applications/no-scheduler-example/src/no-scheduler-example.c ****   {
 328              		.loc 1 158 3 view .LVU54
 329              	.LBB3:
 161:../../applications/no-scheduler-example/src/no-scheduler-example.c ****     IWDG_feed(NULL); 
 330              		.loc 1 161 5 view .LVU55
 162:../../applications/no-scheduler-example/src/no-scheduler-example.c ****     /* USER CODE END WHILE */
 331              		.loc 1 162 5 view .LVU56
 332 005a 0020     		movs	r0, #0
 333 005c FFF7FEFF 		bl	IWDG_feed
 334              	.LVL35:
 167:../../applications/no-scheduler-example/src/no-scheduler-example.c ****       // Request to enter SLEEP mode
 335              		.loc 1 167 5 view .LVU57
 167:../../applications/no-scheduler-example/src/no-scheduler-example.c ****       // Request to enter SLEEP mode
 336              		.loc 1 167 24 is_stmt 0 view .LVU58
 337 0060 144B     		ldr	r3, .L28+24
 338 0062 1B78     		ldrb	r3, [r3]	@ zero_extendqisi2
 167:../../applications/no-scheduler-example/src/no-scheduler-example.c ****       // Request to enter SLEEP mode
 339              		.loc 1 167 8 view .LVU59
 340 0064 002B     		cmp	r3, #0
 341 0066 F8D0     		beq	.L21
 170:../../applications/no-scheduler-example/src/no-scheduler-example.c ****       printf("%d,\r\n\r\n",rep_counter);
 342              		.loc 1 170 7 is_stmt 1 view .LVU60
 170:../../applications/no-scheduler-example/src/no-scheduler-example.c ****       printf("%d,\r\n\r\n",rep_counter);
 343              		.loc 1 170 18 is_stmt 0 view .LVU61
 344 0068 134C     		ldr	r4, .L28+28
 345 006a 2188     		ldrh	r1, [r4]
 346 006c 0131     		adds	r1, r1, #1
 347 006e 89B2     		uxth	r1, r1
 348 0070 2180     		strh	r1, [r4]	@ movhi
 171:../../applications/no-scheduler-example/src/no-scheduler-example.c **** 
 349              		.loc 1 171 7 is_stmt 1 view .LVU62
 350 0072 1248     		ldr	r0, .L28+32
 351 0074 FFF7FEFF 		bl	printf
ARM GAS  C:\Users\yvesk\AppData\Local\Temp\ccjjCeU4.s 			page 12


 352              	.LVL36:
 174:../../applications/no-scheduler-example/src/no-scheduler-example.c ****         printf("going into sleepmode\r\n"); 
 353              		.loc 1 174 7 view .LVU63
 174:../../applications/no-scheduler-example/src/no-scheduler-example.c ****         printf("going into sleepmode\r\n"); 
 354              		.loc 1 174 22 is_stmt 0 view .LVU64
 355 0078 2388     		ldrh	r3, [r4]
 174:../../applications/no-scheduler-example/src/no-scheduler-example.c ****         printf("going into sleepmode\r\n"); 
 356              		.loc 1 174 10 view .LVU65
 357 007a 042B     		cmp	r3, #4
 358 007c E3D0     		beq	.L27
 359              	.L22:
 180:../../applications/no-scheduler-example/src/no-scheduler-example.c **** 
 360              		.loc 1 180 3 is_stmt 1 view .LVU66
 180:../../applications/no-scheduler-example/src/no-scheduler-example.c **** 
 361              		.loc 1 180 13 is_stmt 0 view .LVU67
 362 007e 074B     		ldr	r3, .L28
 363 0080 D3E90001 		ldrd	r0, [r3]
 364 0084 FFF7FEFF 		bl	Murata_Initialize
 365              	.LVL37:
 180:../../applications/no-scheduler-example/src/no-scheduler-example.c **** 
 366              		.loc 1 180 12 view .LVU68
 367 0088 054B     		ldr	r3, .L28+4
 368 008a 1870     		strb	r0, [r3]
 182:../../applications/no-scheduler-example/src/no-scheduler-example.c ****     printf("Lorawan module init ok\r\n\r\n");
 369              		.loc 1 182 3 is_stmt 1 view .LVU69
 182:../../applications/no-scheduler-example/src/no-scheduler-example.c ****     printf("Lorawan module init ok\r\n\r\n");
 370              		.loc 1 182 6 is_stmt 0 view .LVU70
 371 008c 0028     		cmp	r0, #0
 372 008e E1D0     		beq	.L23
 183:../../applications/no-scheduler-example/src/no-scheduler-example.c ****   
 373              		.loc 1 183 5 is_stmt 1 view .LVU71
 374 0090 0548     		ldr	r0, .L28+12
 375 0092 FFF7FEFF 		bl	puts
 376              	.LVL38:
 185:../../applications/no-scheduler-example/src/no-scheduler-example.c ****       //LoRaWAN_send(&payload);
 377              		.loc 1 185 7 view .LVU72
 378 0096 FFF7FEFF 		bl	temp_hum_measurement
 379              	.LVL39:
 380 009a DBE7     		b	.L23
 381              	.L29:
 382              		.align	2
 383              	.L28:
 384 009c 00000000 		.word	short_UID
 385 00a0 00000000 		.word	.LANCHOR0
 386 00a4 00000000 		.word	common_I2C
 387 00a8 00000000 		.word	.LC5
 388 00ac 24000000 		.word	.LC7
 389 00b0 3C000000 		.word	.LC8
 390 00b4 00000000 		.word	.LANCHOR1
 391 00b8 00000000 		.word	.LANCHOR2
 392 00bc 1C000000 		.word	.LC6
 393              	.LBE3:
 394              		.cfi_endproc
 395              	.LFE132:
 397              		.section	.text.HAL_UART_RxCpltCallback,"ax",%progbits
 398              		.align	1
 399              		.global	HAL_UART_RxCpltCallback
ARM GAS  C:\Users\yvesk\AppData\Local\Temp\ccjjCeU4.s 			page 13


 400              		.syntax unified
 401              		.thumb
 402              		.thumb_func
 403              		.fpu fpv4-sp-d16
 405              	HAL_UART_RxCpltCallback:
 406              	.LVL40:
 407              	.LFB137:
 252:../../applications/no-scheduler-example/src/no-scheduler-example.c **** 
 253:../../applications/no-scheduler-example/src/no-scheduler-example.c **** 
 254:../../applications/no-scheduler-example/src/no-scheduler-example.c **** /* USER CODE END 4 */
 255:../../applications/no-scheduler-example/src/no-scheduler-example.c **** 
 256:../../applications/no-scheduler-example/src/no-scheduler-example.c **** void HAL_UART_RxCpltCallback(UART_HandleTypeDef *huart)
 257:../../applications/no-scheduler-example/src/no-scheduler-example.c **** {
 408              		.loc 1 257 1 view -0
 409              		.cfi_startproc
 410              		@ args = 0, pretend = 0, frame = 0
 411              		@ frame_needed = 0, uses_anonymous_args = 0
 412              		@ link register save eliminated.
 258:../../applications/no-scheduler-example/src/no-scheduler-example.c **** 	#if USE_BOOTLOADER
 259:../../applications/no-scheduler-example/src/no-scheduler-example.c ****     if(huart == &BLE_UART);
 260:../../applications/no-scheduler-example/src/no-scheduler-example.c ****     {
 261:../../applications/no-scheduler-example/src/no-scheduler-example.c ****           printf("BLE UART INTERRUPT\r\n");
 262:../../applications/no-scheduler-example/src/no-scheduler-example.c ****           bootloader_parse_data();        
 263:../../applications/no-scheduler-example/src/no-scheduler-example.c ****     }
 264:../../applications/no-scheduler-example/src/no-scheduler-example.c ****   #endif
 265:../../applications/no-scheduler-example/src/no-scheduler-example.c **** }
 413              		.loc 1 265 1 view .LVU74
 414 0000 7047     		bx	lr
 415              		.cfi_endproc
 416              	.LFE137:
 418              		.section	.text.HAL_GPIO_EXTI_Callback,"ax",%progbits
 419              		.align	1
 420              		.global	HAL_GPIO_EXTI_Callback
 421              		.syntax unified
 422              		.thumb
 423              		.thumb_func
 424              		.fpu fpv4-sp-d16
 426              	HAL_GPIO_EXTI_Callback:
 427              	.LVL41:
 428              	.LFB138:
 266:../../applications/no-scheduler-example/src/no-scheduler-example.c **** 
 267:../../applications/no-scheduler-example/src/no-scheduler-example.c **** //See platform>octa>stm32l4xx_it.c there we placed exti15_10 function to capture interrupts on one 
 268:../../applications/no-scheduler-example/src/no-scheduler-example.c **** // (see slides of Mr weyn for the exact function name). In this function we call the "HAL_GPIO_EXTI
 269:../../applications/no-scheduler-example/src/no-scheduler-example.c **** // file. In this function the "HAL_GPIO_EXTI_Callback" is called, which we define below 
 270:../../applications/no-scheduler-example/src/no-scheduler-example.c **** void HAL_GPIO_EXTI_Callback(uint16_t GPIO_Pin) {
 429              		.loc 1 270 48 view -0
 430              		.cfi_startproc
 431              		@ args = 0, pretend = 0, frame = 0
 432              		@ frame_needed = 0, uses_anonymous_args = 0
 271:../../applications/no-scheduler-example/src/no-scheduler-example.c ****   if (GPIO_Pin==GPIO_Pin_13) {
 433              		.loc 1 271 3 view .LVU76
 434              		.loc 1 271 6 is_stmt 0 view .LVU77
 435 0000 B0F5005F 		cmp	r0, #8192
 436 0004 00D0     		beq	.L37
 437 0006 7047     		bx	lr
 438              	.L37:
 270:../../applications/no-scheduler-example/src/no-scheduler-example.c ****   if (GPIO_Pin==GPIO_Pin_13) {
ARM GAS  C:\Users\yvesk\AppData\Local\Temp\ccjjCeU4.s 			page 14


 439              		.loc 1 270 48 view .LVU78
 440 0008 08B5     		push	{r3, lr}
 441              	.LCFI5:
 442              		.cfi_def_cfa_offset 8
 443              		.cfi_offset 3, -8
 444              		.cfi_offset 14, -4
 272:../../applications/no-scheduler-example/src/no-scheduler-example.c ****   temperatureflag = 1; 
 445              		.loc 1 272 3 is_stmt 1 view .LVU79
 446              		.loc 1 272 19 is_stmt 0 view .LVU80
 447 000a 034B     		ldr	r3, .L38
 448 000c 0122     		movs	r2, #1
 449 000e 1A70     		strb	r2, [r3]
 273:../../applications/no-scheduler-example/src/no-scheduler-example.c ****   printf("interrupt accelerometer! \r\n");
 450              		.loc 1 273 3 is_stmt 1 view .LVU81
 451 0010 0248     		ldr	r0, .L38+4
 452              	.LVL42:
 453              		.loc 1 273 3 is_stmt 0 view .LVU82
 454 0012 FFF7FEFF 		bl	puts
 455              	.LVL43:
 274:../../applications/no-scheduler-example/src/no-scheduler-example.c ****   // we work with a flag so as to make sure that we don't stay in the callback for too long. This w
 275:../../applications/no-scheduler-example/src/no-scheduler-example.c ****   // the flag will call the measurement function in de while loop
 276:../../applications/no-scheduler-example/src/no-scheduler-example.c ****   } 
 277:../../applications/no-scheduler-example/src/no-scheduler-example.c **** }
 456              		.loc 1 277 1 view .LVU83
 457 0016 08BD     		pop	{r3, pc}
 458              	.L39:
 459              		.align	2
 460              	.L38:
 461 0018 00000000 		.word	.LANCHOR1
 462 001c 00000000 		.word	.LC9
 463              		.cfi_endproc
 464              	.LFE138:
 466              		.section	.text.LoRaWAN_send_self,"ax",%progbits
 467              		.align	1
 468              		.global	LoRaWAN_send_self
 469              		.syntax unified
 470              		.thumb
 471              		.thumb_func
 472              		.fpu fpv4-sp-d16
 474              	LoRaWAN_send_self:
 475              	.LFB139:
 278:../../applications/no-scheduler-example/src/no-scheduler-example.c **** 
 279:../../applications/no-scheduler-example/src/no-scheduler-example.c **** 
 280:../../applications/no-scheduler-example/src/no-scheduler-example.c **** void LoRaWAN_send_self()
 281:../../applications/no-scheduler-example/src/no-scheduler-example.c **** {
 476              		.loc 1 281 1 is_stmt 1 view -0
 477              		.cfi_startproc
 478              		@ args = 0, pretend = 0, frame = 8
 479              		@ frame_needed = 0, uses_anonymous_args = 0
 480 0000 00B5     		push	{lr}
 481              	.LCFI6:
 482              		.cfi_def_cfa_offset 4
 483              		.cfi_offset 14, -4
 484 0002 83B0     		sub	sp, sp, #12
 485              	.LCFI7:
 486              		.cfi_def_cfa_offset 16
 282:../../applications/no-scheduler-example/src/no-scheduler-example.c ****   if (lora_init)
ARM GAS  C:\Users\yvesk\AppData\Local\Temp\ccjjCeU4.s 			page 15


 487              		.loc 1 282 3 view .LVU85
 488              		.loc 1 282 7 is_stmt 0 view .LVU86
 489 0004 194B     		ldr	r3, .L47
 490 0006 1B78     		ldrb	r3, [r3]	@ zero_extendqisi2
 491              		.loc 1 282 6 view .LVU87
 492 0008 63B3     		cbz	r3, .L41
 493              	.LBB4:
 283:../../applications/no-scheduler-example/src/no-scheduler-example.c ****   {
 284:../../applications/no-scheduler-example/src/no-scheduler-example.c ****     uint8_t loraMessage[5];
 494              		.loc 1 284 5 is_stmt 1 view .LVU88
 285:../../applications/no-scheduler-example/src/no-scheduler-example.c ****     uint8_t i = 0;
 495              		.loc 1 285 5 view .LVU89
 496              	.LVL44:
 286:../../applications/no-scheduler-example/src/no-scheduler-example.c ****     //uint16 counter to uint8 array (little endian)
 287:../../applications/no-scheduler-example/src/no-scheduler-example.c ****     //counter (large) type byte
 288:../../applications/no-scheduler-example/src/no-scheduler-example.c **** 
 289:../../applications/no-scheduler-example/src/no-scheduler-example.c ****     //first data transfer works, but afterwards it stays in a kind of 'transmitted' loop. Find wher
 290:../../applications/no-scheduler-example/src/no-scheduler-example.c ****     loraMessage[i++] = SHTData[0];
 497              		.loc 1 290 5 view .LVU90
 498              		.loc 1 290 31 is_stmt 0 view .LVU91
 499 000a 194A     		ldr	r2, .L47+4
 500 000c D2ED007A 		vldr.32	s15, [r2]
 501              	.LVL45:
 502              		.loc 1 290 22 view .LVU92
 503 0010 FCEEE77A 		vcvt.u32.f32	s15, s15
 504 0014 17EE903A 		vmov	r3, s15	@ int
 505 0018 8DF80030 		strb	r3, [sp]
 291:../../applications/no-scheduler-example/src/no-scheduler-example.c ****     loraMessage[i++] = SHTData[1];
 506              		.loc 1 291 5 is_stmt 1 view .LVU93
 507              		.loc 1 291 31 is_stmt 0 view .LVU94
 508 001c D2ED017A 		vldr.32	s15, [r2, #4]
 509              	.LVL46:
 510              		.loc 1 291 22 view .LVU95
 511 0020 FCEEE77A 		vcvt.u32.f32	s15, s15
 512 0024 17EE903A 		vmov	r3, s15	@ int
 513 0028 8DF80130 		strb	r3, [sp, #1]
 292:../../applications/no-scheduler-example/src/no-scheduler-example.c ****     loraMessage[i++] = LoRaWAN_Counter >> 8;
 514              		.loc 1 292 5 is_stmt 1 view .LVU96
 515              	.LVL47:
 516              		.loc 1 292 22 is_stmt 0 view .LVU97
 517 002c 114B     		ldr	r3, .L47+8
 518 002e 1B88     		ldrh	r3, [r3]
 519 0030 1B0A     		lsrs	r3, r3, #8
 520 0032 8DF80230 		strb	r3, [sp, #2]
 293:../../applications/no-scheduler-example/src/no-scheduler-example.c ****    // osMutexWait(txMutexId, osWaitForever);
 294:../../applications/no-scheduler-example/src/no-scheduler-example.c ****     if(!Murata_LoRaWAN_Send((uint8_t *)loraMessage, i))
 521              		.loc 1 294 5 is_stmt 1 view .LVU98
 522              		.loc 1 294 9 is_stmt 0 view .LVU99
 523 0036 0321     		movs	r1, #3
 524 0038 6846     		mov	r0, sp
 525 003a FFF7FEFF 		bl	Murata_LoRaWAN_Send
 526              	.LVL48:
 527              		.loc 1 294 7 view .LVU100
 528 003e 48B1     		cbz	r0, .L46
 295:../../applications/no-scheduler-example/src/no-scheduler-example.c ****     {
 296:../../applications/no-scheduler-example/src/no-scheduler-example.c ****       printf("tis ni gelukt :( ");
 297:../../applications/no-scheduler-example/src/no-scheduler-example.c ****       lora_init++;
ARM GAS  C:\Users\yvesk\AppData\Local\Temp\ccjjCeU4.s 			page 16


 298:../../applications/no-scheduler-example/src/no-scheduler-example.c ****       if(lora_init == 10)
 299:../../applications/no-scheduler-example/src/no-scheduler-example.c ****         lora_init == 0;
 300:../../applications/no-scheduler-example/src/no-scheduler-example.c ****     }
 301:../../applications/no-scheduler-example/src/no-scheduler-example.c ****     else
 302:../../applications/no-scheduler-example/src/no-scheduler-example.c ****     {
 303:../../applications/no-scheduler-example/src/no-scheduler-example.c ****       lora_init = 1;
 529              		.loc 1 303 7 is_stmt 1 view .LVU101
 530              		.loc 1 303 17 is_stmt 0 view .LVU102
 531 0040 0A4B     		ldr	r3, .L47
 532 0042 0122     		movs	r2, #1
 533 0044 1A70     		strb	r2, [r3]
 534              	.L43:
 304:../../applications/no-scheduler-example/src/no-scheduler-example.c ****     }
 305:../../applications/no-scheduler-example/src/no-scheduler-example.c ****     //BLOCK TX MUTEX FOR 3s
 306:../../applications/no-scheduler-example/src/no-scheduler-example.c ****     // osDelay(3000);
 307:../../applications/no-scheduler-example/src/no-scheduler-example.c ****     // osMutexRelease(txMutexId);
 308:../../applications/no-scheduler-example/src/no-scheduler-example.c ****     LoRaWAN_Counter++;
 535              		.loc 1 308 5 is_stmt 1 discriminator 1 view .LVU103
 536              		.loc 1 308 20 is_stmt 0 discriminator 1 view .LVU104
 537 0046 0B4A     		ldr	r2, .L47+8
 538 0048 1388     		ldrh	r3, [r2]
 539 004a 0133     		adds	r3, r3, #1
 540 004c 1380     		strh	r3, [r2]	@ movhi
 541              	.LVL49:
 542              	.L40:
 543              		.loc 1 308 20 discriminator 1 view .LVU105
 544              	.LBE4:
 309:../../applications/no-scheduler-example/src/no-scheduler-example.c ****   }
 310:../../applications/no-scheduler-example/src/no-scheduler-example.c ****   else{
 311:../../applications/no-scheduler-example/src/no-scheduler-example.c ****     printf("murata not initialized, not sending\r\n");
 312:../../applications/no-scheduler-example/src/no-scheduler-example.c ****   }
 313:../../applications/no-scheduler-example/src/no-scheduler-example.c **** }
 545              		.loc 1 313 1 view .LVU106
 546 004e 03B0     		add	sp, sp, #12
 547              	.LCFI8:
 548              		.cfi_remember_state
 549              		.cfi_def_cfa_offset 4
 550              		@ sp needed
 551 0050 5DF804FB 		ldr	pc, [sp], #4
 552              	.LVL50:
 553              	.L46:
 554              	.LCFI9:
 555              		.cfi_restore_state
 556              	.LBB5:
 296:../../applications/no-scheduler-example/src/no-scheduler-example.c ****       lora_init++;
 557              		.loc 1 296 7 is_stmt 1 view .LVU107
 558 0054 0848     		ldr	r0, .L47+12
 559 0056 FFF7FEFF 		bl	printf
 560              	.LVL51:
 297:../../applications/no-scheduler-example/src/no-scheduler-example.c ****       if(lora_init == 10)
 561              		.loc 1 297 7 view .LVU108
 297:../../applications/no-scheduler-example/src/no-scheduler-example.c ****       if(lora_init == 10)
 562              		.loc 1 297 16 is_stmt 0 view .LVU109
 563 005a 044A     		ldr	r2, .L47
 564 005c 1378     		ldrb	r3, [r2]	@ zero_extendqisi2
 565 005e 0133     		adds	r3, r3, #1
 566 0060 1370     		strb	r3, [r2]
ARM GAS  C:\Users\yvesk\AppData\Local\Temp\ccjjCeU4.s 			page 17


 298:../../applications/no-scheduler-example/src/no-scheduler-example.c ****         lora_init == 0;
 567              		.loc 1 298 7 is_stmt 1 view .LVU110
 568 0062 F0E7     		b	.L43
 569              	.LVL52:
 570              	.L41:
 298:../../applications/no-scheduler-example/src/no-scheduler-example.c ****         lora_init == 0;
 571              		.loc 1 298 7 is_stmt 0 view .LVU111
 572              	.LBE5:
 311:../../applications/no-scheduler-example/src/no-scheduler-example.c ****   }
 573              		.loc 1 311 5 is_stmt 1 view .LVU112
 574 0064 0548     		ldr	r0, .L47+16
 575 0066 FFF7FEFF 		bl	puts
 576              	.LVL53:
 577              		.loc 1 313 1 is_stmt 0 view .LVU113
 578 006a F0E7     		b	.L40
 579              	.L48:
 580              		.align	2
 581              	.L47:
 582 006c 00000000 		.word	.LANCHOR0
 583 0070 00000000 		.word	SHTData
 584 0074 00000000 		.word	.LANCHOR3
 585 0078 00000000 		.word	.LC10
 586 007c 14000000 		.word	.LC11
 587              		.cfi_endproc
 588              	.LFE139:
 590              		.section	.text.Error_Handler,"ax",%progbits
 591              		.align	1
 592              		.global	Error_Handler
 593              		.syntax unified
 594              		.thumb
 595              		.thumb_func
 596              		.fpu fpv4-sp-d16
 598              	Error_Handler:
 599              	.LFB140:
 314:../../applications/no-scheduler-example/src/no-scheduler-example.c **** 
 315:../../applications/no-scheduler-example/src/no-scheduler-example.c **** 
 316:../../applications/no-scheduler-example/src/no-scheduler-example.c **** 
 317:../../applications/no-scheduler-example/src/no-scheduler-example.c **** /**
 318:../../applications/no-scheduler-example/src/no-scheduler-example.c ****   * @brief  This function is executed in case of error occurrence.
 319:../../applications/no-scheduler-example/src/no-scheduler-example.c ****   * @retval None
 320:../../applications/no-scheduler-example/src/no-scheduler-example.c ****   */
 321:../../applications/no-scheduler-example/src/no-scheduler-example.c **** void Error_Handler(void)
 322:../../applications/no-scheduler-example/src/no-scheduler-example.c **** {
 600              		.loc 1 322 1 is_stmt 1 view -0
 601              		.cfi_startproc
 602              		@ args = 0, pretend = 0, frame = 0
 603              		@ frame_needed = 0, uses_anonymous_args = 0
 604              		@ link register save eliminated.
 323:../../applications/no-scheduler-example/src/no-scheduler-example.c ****   /* USER CODE BEGIN Error_Handler_Debug */
 324:../../applications/no-scheduler-example/src/no-scheduler-example.c ****   /* User can add his own implementation to report the HAL error return state */
 325:../../applications/no-scheduler-example/src/no-scheduler-example.c **** 
 326:../../applications/no-scheduler-example/src/no-scheduler-example.c ****   /* USER CODE END Error_Handler_Debug */
 327:../../applications/no-scheduler-example/src/no-scheduler-example.c **** }
 605              		.loc 1 327 1 view .LVU115
 606 0000 7047     		bx	lr
 607              		.cfi_endproc
 608              	.LFE140:
ARM GAS  C:\Users\yvesk\AppData\Local\Temp\ccjjCeU4.s 			page 18


 610              		.section	.text.murata_process_rx_response,"ax",%progbits
 611              		.align	1
 612              		.global	murata_process_rx_response
 613              		.syntax unified
 614              		.thumb
 615              		.thumb_func
 616              		.fpu fpv4-sp-d16
 618              	murata_process_rx_response:
 619              	.LFB141:
 328:../../applications/no-scheduler-example/src/no-scheduler-example.c **** 
 329:../../applications/no-scheduler-example/src/no-scheduler-example.c **** void murata_process_rx_response(void)
 330:../../applications/no-scheduler-example/src/no-scheduler-example.c **** {
 620              		.loc 1 330 1 view -0
 621              		.cfi_startproc
 622              		@ args = 0, pretend = 0, frame = 0
 623              		@ frame_needed = 0, uses_anonymous_args = 0
 624 0000 08B5     		push	{r3, lr}
 625              	.LCFI10:
 626              		.cfi_def_cfa_offset 8
 627              		.cfi_offset 3, -8
 628              		.cfi_offset 14, -4
 629 0002 02E0     		b	.L52
 630              	.LVL54:
 631              	.L51:
 331:../../applications/no-scheduler-example/src/no-scheduler-example.c ****   uint32_t startProcessing;
 332:../../applications/no-scheduler-example/src/no-scheduler-example.c ****   while (1)
 333:../../applications/no-scheduler-example/src/no-scheduler-example.c ****   {
 334:../../applications/no-scheduler-example/src/no-scheduler-example.c ****     // Wait to be notified that the transmission is complete.  Note the first
 335:../../applications/no-scheduler-example/src/no-scheduler-example.c ****     //parameter is pdTRUE, which has the effect of clearing the task's notification
 336:../../applications/no-scheduler-example/src/no-scheduler-example.c ****     //value back to 0, making the notification value act like a binary (rather than
 337:../../applications/no-scheduler-example/src/no-scheduler-example.c ****     //a counting) semaphore.
 338:../../applications/no-scheduler-example/src/no-scheduler-example.c ****     startProcessing = ulTaskNotifyTake(pdTRUE, osWaitForever);
 339:../../applications/no-scheduler-example/src/no-scheduler-example.c ****     if (startProcessing == 1)
 340:../../applications/no-scheduler-example/src/no-scheduler-example.c ****     {
 341:../../applications/no-scheduler-example/src/no-scheduler-example.c ****       // The transmission ended as expected.
 342:../../applications/no-scheduler-example/src/no-scheduler-example.c ****       Murata_process_fifo();
 343:../../applications/no-scheduler-example/src/no-scheduler-example.c ****     }
 344:../../applications/no-scheduler-example/src/no-scheduler-example.c ****     else
 345:../../applications/no-scheduler-example/src/no-scheduler-example.c ****     {
 346:../../applications/no-scheduler-example/src/no-scheduler-example.c ****     }
 632              		.loc 1 346 5 view .LVU117
 347:../../applications/no-scheduler-example/src/no-scheduler-example.c ****     osDelay(1);
 633              		.loc 1 347 5 view .LVU118
 634 0004 0120     		movs	r0, #1
 635 0006 FFF7FEFF 		bl	osDelay
 636              	.LVL55:
 637              	.L52:
 331:../../applications/no-scheduler-example/src/no-scheduler-example.c ****   uint32_t startProcessing;
 638              		.loc 1 331 3 view .LVU119
 332:../../applications/no-scheduler-example/src/no-scheduler-example.c ****   {
 639              		.loc 1 332 3 view .LVU120
 338:../../applications/no-scheduler-example/src/no-scheduler-example.c ****     if (startProcessing == 1)
 640              		.loc 1 338 5 view .LVU121
 338:../../applications/no-scheduler-example/src/no-scheduler-example.c ****     if (startProcessing == 1)
 641              		.loc 1 338 23 is_stmt 0 view .LVU122
 642 000a 4FF0FF31 		mov	r1, #-1
 643 000e 0120     		movs	r0, #1
ARM GAS  C:\Users\yvesk\AppData\Local\Temp\ccjjCeU4.s 			page 19


 644 0010 FFF7FEFF 		bl	ulTaskNotifyTake
 645              	.LVL56:
 339:../../applications/no-scheduler-example/src/no-scheduler-example.c ****     {
 646              		.loc 1 339 5 is_stmt 1 view .LVU123
 339:../../applications/no-scheduler-example/src/no-scheduler-example.c ****     {
 647              		.loc 1 339 8 is_stmt 0 view .LVU124
 648 0014 0128     		cmp	r0, #1
 649 0016 F5D1     		bne	.L51
 342:../../applications/no-scheduler-example/src/no-scheduler-example.c ****     }
 650              		.loc 1 342 7 is_stmt 1 view .LVU125
 651 0018 FFF7FEFF 		bl	Murata_process_fifo
 652              	.LVL57:
 342:../../applications/no-scheduler-example/src/no-scheduler-example.c ****     }
 653              		.loc 1 342 7 is_stmt 0 view .LVU126
 654 001c F2E7     		b	.L51
 655              		.cfi_endproc
 656              	.LFE141:
 658              		.global	rep_counter
 659              		.comm	short_UID,8,8
 660              		.global	lora_init
 661              		.global	LoRaWAN_Counter
 662              		.global	temperatureflag
 663              		.comm	SHTData,8,4
 664              		.comm	temp_hum_timer_id,4,4
 665              		.comm	threadToNotify,4,4
 666              		.comm	murata_reset_pin,4,4
 667              		.comm	murata_wakeup_pin,4,4
 668              		.comm	temp,4,4
 669              		.comm	humidity,4,4
 670              		.comm	_i2caddr,1,1
 671              		.comm	SHThi2cLib,4,4
 672              		.comm	magRawData,6,4
 673              		.comm	magRegisterData,6,4
 674              		.comm	accRawData,6,4
 675              		.comm	accRegisterData,6,4
 676              		.comm	LSM303AGR_hi2c,4,4
 677              		.comm	LSM303AGR_setting,1,1
 678              		.comm	murata_rx_process_mutex_id,4,4
 679              		.comm	txMutexId,4,4
 680              		.comm	moduleCheckTimId,4,4
 681              		.comm	loraWANTimId,4,4
 682              		.comm	murata_rx_processing_handle,4,4
 683              		.comm	defaultTaskHandle,4,4
 684              		.comm	iwdgTimId,4,4
 685              		.comm	P3_header,44,4
 686              		.comm	P2_header,44,4
 687              		.comm	P1_header,44,4
 688              		.comm	FLASH_SPI,100,4
 689              		.comm	P3_SPI,100,4
 690              		.comm	P2_SPI,100,4
 691              		.comm	P1_SPI,100,4
 692              		.comm	P3_I2C,76,4
 693              		.comm	P2_I2C,76,4
 694              		.comm	P1_I2C,76,4
 695              		.comm	common_I2C,76,4
 696              		.comm	P3_UART,120,4
 697              		.comm	P2_UART,120,4
ARM GAS  C:\Users\yvesk\AppData\Local\Temp\ccjjCeU4.s 			page 20


 698              		.comm	P1_UART,120,4
 699              		.comm	BLE_UART,120,4
 700              		.comm	USB_UART,120,4
 701              		.comm	hiwdg,16,4
 702              		.comm	P3_DIO6,8,4
 703              		.comm	P3_DIO5,8,4
 704              		.comm	P3_DIO4,8,4
 705              		.comm	P3_DIO3,8,4
 706              		.comm	P3_DIO2,8,4
 707              		.comm	P3_DIO1,8,4
 708              		.comm	P2_DIO6,8,4
 709              		.comm	P2_DIO5,8,4
 710              		.comm	P2_DIO4,8,4
 711              		.comm	P2_DIO3,8,4
 712              		.comm	P2_DIO2,8,4
 713              		.comm	P2_DIO1,8,4
 714              		.comm	P1_DIO6,8,4
 715              		.comm	P1_DIO5,8,4
 716              		.comm	P1_DIO4,8,4
 717              		.comm	P1_DIO3,8,4
 718              		.comm	P1_DIO2,8,4
 719              		.comm	P1_DIO1,8,4
 720              		.section	.bss.LoRaWAN_Counter,"aw",%nobits
 721              		.align	1
 722              		.set	.LANCHOR3,. + 0
 725              	LoRaWAN_Counter:
 726 0000 0000     		.space	2
 727              		.section	.bss.lora_init,"aw",%nobits
 728              		.set	.LANCHOR0,. + 0
 731              	lora_init:
 732 0000 00       		.space	1
 733              		.section	.bss.rep_counter,"aw",%nobits
 734              		.align	1
 735              		.set	.LANCHOR2,. + 0
 738              	rep_counter:
 739 0000 0000     		.space	2
 740              		.section	.bss.temperatureflag,"aw",%nobits
 741              		.set	.LANCHOR1,. + 0
 744              	temperatureflag:
 745 0000 00       		.space	1
 746              		.section	.rodata.HAL_GPIO_EXTI_Callback.str1.4,"aMS",%progbits,1
 747              		.align	2
 748              	.LC9:
 749 0000 696E7465 		.ascii	"interrupt accelerometer! \015\000"
 749      72727570 
 749      74206163 
 749      63656C65 
 749      726F6D65 
 750              		.section	.rodata.LoRaWAN_send_self.str1.4,"aMS",%progbits,1
 751              		.align	2
 752              	.LC10:
 753 0000 74697320 		.ascii	"tis ni gelukt :( \000"
 753      6E692067 
 753      656C756B 
 753      74203A28 
 753      2000
 754 0012 0000     		.space	2
ARM GAS  C:\Users\yvesk\AppData\Local\Temp\ccjjCeU4.s 			page 21


 755              	.LC11:
 756 0014 6D757261 		.ascii	"murata not initialized, not sending\015\000"
 756      7461206E 
 756      6F742069 
 756      6E697469 
 756      616C697A 
 757              		.section	.rodata.main.str1.4,"aMS",%progbits,1
 758              		.align	2
 759              	.LC5:
 760 0000 4C6F7261 		.ascii	"Lorawan module init ok\015\012\015\000"
 760      77616E20 
 760      6D6F6475 
 760      6C652069 
 760      6E697420 
 761 001a 0000     		.space	2
 762              	.LC6:
 763 001c 25642C0D 		.ascii	"%d,\015\012\015\012\000"
 763      0A0D0A00 
 764              	.LC7:
 765 0024 676F696E 		.ascii	"going into sleepmode\015\000"
 765      6720696E 
 765      746F2073 
 765      6C656570 
 765      6D6F6465 
 766 003a 0000     		.space	2
 767              	.LC8:
 768 003c 20696E74 		.ascii	" into sleepmode gegaan\015\000"
 768      6F20736C 
 768      6565706D 
 768      6F646520 
 768      67656761 
 769              		.section	.rodata.printWelcome.str1.4,"aMS",%progbits,1
 770              		.align	2
 771              	.LC0:
 772 0000 0D00     		.ascii	"\015\000"
 773 0002 0000     		.space	2
 774              	.LC1:
 775 0004 2A2A2A2A 		.ascii	"*****************************************\015\000"
 775      2A2A2A2A 
 775      2A2A2A2A 
 775      2A2A2A2A 
 775      2A2A2A2A 
 776 002f 00       		.space	1
 777              	.LC2:
 778 0030 6E6F2073 		.ascii	"no scheduler example\015\000"
 778      63686564 
 778      756C6572 
 778      20657861 
 778      6D706C65 
 779              		.section	.rodata.print_temp_hum.str1.4,"aMS",%progbits,1
 780              		.align	2
 781              	.LC3:
 782 0000 54656D70 		.ascii	"Temperature: %.2f \302\260C  \015\012\000"
 782      65726174 
 782      7572653A 
 782      20252E32 
 782      6620C2B0 
ARM GAS  C:\Users\yvesk\AppData\Local\Temp\ccjjCeU4.s 			page 22


 783 001a 0000     		.space	2
 784              	.LC4:
 785 001c 48756D69 		.ascii	"Humidity: %.2f %% \015\012\000"
 785      64697479 
 785      3A20252E 
 785      32662025 
 785      25200D0A 
 786              		.weak	SystemClock_Config
 787              		.text
 788              	.Letext0:
 789              		.file 2 "c:\\program files (x86)\\gnu tools arm embedded\\8 2019-q3-update\\arm-none-eabi\\include
 790              		.file 3 "c:\\program files (x86)\\gnu tools arm embedded\\8 2019-q3-update\\arm-none-eabi\\include
 791              		.file 4 "../../core/ST/CMSIS/Include/core_cm4.h"
 792              		.file 5 "../../core/ST/CMSIS/Device/ST/STM32L4xx/Include/system_stm32l4xx.h"
 793              		.file 6 "../../core/ST/CMSIS/Device/ST/STM32L4xx/Include/stm32l496xx.h"
 794              		.file 7 "../../core/ST/STM32L4xx_HAL_Driver/Inc/stm32l4xx_hal_def.h"
 795              		.file 8 "../../core/ST/STM32L4xx_HAL_Driver/Inc/stm32l4xx_hal_dma.h"
 796              		.file 9 "../../core/ST/STM32L4xx_HAL_Driver/Inc/stm32l4xx_hal_i2c.h"
 797              		.file 10 "../../core/ST/STM32L4xx_HAL_Driver/Inc/stm32l4xx_hal_iwdg.h"
 798              		.file 11 "../../core/ST/STM32L4xx_HAL_Driver/Inc/stm32l4xx_hal_spi.h"
 799              		.file 12 "../../core/ST/STM32L4xx_HAL_Driver/Inc/stm32l4xx_hal_tim.h"
 800              		.file 13 "../../core/ST/STM32L4xx_HAL_Driver/Inc/stm32l4xx_hal_uart.h"
 801              		.file 14 "../../core/ST/STM32L4xx_HAL_Driver/Inc/stm32l4xx_hal.h"
 802              		.file 15 "../../core/ST/Middlewares/Third_Party/FreeRTOS/Source/portable/GCC/ARM_CM4F/portmacro.h"
 803              		.file 16 "../../core/ST/Middlewares/Third_Party/FreeRTOS/Source/include/task.h"
 804              		.file 17 "../../core/ST/Middlewares/Third_Party/FreeRTOS/Source/include/timers.h"
 805              		.file 18 "../../core/ST/Middlewares/Third_Party/FreeRTOS/Source/include/queue.h"
 806              		.file 19 "../../core/ST/Middlewares/Third_Party/FreeRTOS/Source/include/semphr.h"
 807              		.file 20 "../../core/ST/Middlewares/Third_Party/FreeRTOS/Source/CMSIS_RTOS/cmsis_os.h"
 808              		.file 21 "../../core/platform/octa/inc/gpio.h"
 809              		.file 22 "../../core/platform/octa/inc/iwdg.h"
 810              		.file 23 "../../core/platform/octa/inc/uart.h"
 811              		.file 24 "../../core/platform/octa/inc/i2c.h"
 812              		.file 25 "../../core/platform/octa/inc/spi.h"
 813              		.file 26 "../../core/platform/octa/inc/octa.h"
 814              		.file 27 "../../applications/no-scheduler-example/inc/no-scheduler-example.h"
 815              		.file 28 "C:\\Users\\yvesk\\Documents\\Academiejaar 2019-2020\\IOT\\Practicum\\octa-stack-students
 816              		.file 29 "c:\\program files (x86)\\gnu tools arm embedded\\8 2019-q3-update\\lib\\gcc\\arm-none-ea
 817              		.file 30 "c:\\program files (x86)\\gnu tools arm embedded\\8 2019-q3-update\\arm-none-eabi\\includ
 818              		.file 31 "c:\\program files (x86)\\gnu tools arm embedded\\8 2019-q3-update\\arm-none-eabi\\includ
 819              		.file 32 "c:\\program files (x86)\\gnu tools arm embedded\\8 2019-q3-update\\arm-none-eabi\\includ
 820              		.file 33 "C:\\Users\\yvesk\\Documents\\Academiejaar 2019-2020\\IOT\\Practicum\\octa-stack-students
 821              		.file 34 "../../shields/Murata/inc/murata.h"
 822              		.file 35 "c:\\program files (x86)\\gnu tools arm embedded\\8 2019-q3-update\\arm-none-eabi\\includ
 823              		.file 36 "../../core/ST/STM32L4xx_HAL_Driver/Inc/stm32l4xx_hal_gpio.h"
 824              		.file 37 "../../core/platform/octa/inc/sysclock.h"
 825              		.file 38 "../../core/platform/common/inc/platform.h"
 826              		.file 39 "<built-in>"
ARM GAS  C:\Users\yvesk\AppData\Local\Temp\ccjjCeU4.s 			page 23

