ARM GAS  C:\Users\RUBENJ~1\AppData\Local\Temp\ccJ3OEkh.s 			page 1


   1              		.cpu cortex-m4
   2              		.eabi_attribute 27, 1
   3              		.eabi_attribute 28, 1
   4              		.eabi_attribute 20, 1
   5              		.eabi_attribute 21, 1
   6              		.eabi_attribute 23, 3
   7              		.eabi_attribute 24, 1
   8              		.eabi_attribute 25, 1
   9              		.eabi_attribute 26, 1
  10              		.eabi_attribute 30, 1
  11              		.eabi_attribute 34, 1
  12              		.eabi_attribute 18, 4
  13              		.file	"S25FL256.c"
  14              		.text
  15              	.Ltext0:
  16              		.cfi_sections	.debug_frame
  17              		.section	.text.S25FL256_Initialize,"ax",%progbits
  18              		.align	1
  19              		.global	S25FL256_Initialize
  20              		.arch armv7e-m
  21              		.syntax unified
  22              		.thumb
  23              		.thumb_func
  24              		.fpu fpv4-sp-d16
  26              	S25FL256_Initialize:
  27              	.LVL0:
  28              	.LFB126:
  29              		.file 1 "../../core/drivers/S25FL256/src/S25FL256.c"
   1:../../core/drivers/S25FL256/src/S25FL256.c **** /**
   2:../../core/drivers/S25FL256/src/S25FL256.c ****  * \file        S25FL256.c
   3:../../core/drivers/S25FL256/src/S25FL256.c ****  *
   4:../../core/drivers/S25FL256/src/S25FL256.c ****  * \details     128 Mbit (16 Mbyte)/256 Mbit (32 Mbyte) 3.0V
   5:../../core/drivers/S25FL256/src/S25FL256.c ****  *                 SPI Flash Memory
   6:../../core/drivers/S25FL256/src/S25FL256.c ****  *
   7:../../core/drivers/S25FL256/src/S25FL256.c ****  * \author      Mats De Meyer 
   8:../../core/drivers/S25FL256/src/S25FL256.c ****  * \date        09-2018
   9:../../core/drivers/S25FL256/src/S25FL256.c ****  */
  10:../../core/drivers/S25FL256/src/S25FL256.c **** #include "S25FL256.h"
  11:../../core/drivers/S25FL256/src/S25FL256.c **** 
  12:../../core/drivers/S25FL256/src/S25FL256.c **** #include <stdio.h>
  13:../../core/drivers/S25FL256/src/S25FL256.c **** #include <stdint.h>
  14:../../core/drivers/S25FL256/src/S25FL256.c **** #include <assert.h>
  15:../../core/drivers/S25FL256/src/S25FL256.c **** #include "string.h" // for memcpy.
  16:../../core/drivers/S25FL256/src/S25FL256.c **** 
  17:../../core/drivers/S25FL256/src/S25FL256.c **** #define SPI_WRDI_CMD 0x04 // Write disable
  18:../../core/drivers/S25FL256/src/S25FL256.c **** #define SPI_RDSR_CMD 0x05 // Read Status Register
  19:../../core/drivers/S25FL256/src/S25FL256.c **** #define SPI_WREN_CMD 0x06 // Write enable
  20:../../core/drivers/S25FL256/src/S25FL256.c **** 
  21:../../core/drivers/S25FL256/src/S25FL256.c **** #define SPI_PP_4B_CMD 0x12   //Page Program (4-byte address). Enables writing
  22:../../core/drivers/S25FL256/src/S25FL256.c **** #define SPI_READ_4B_CMD 0x13 //Read (4-byte Address)
  23:../../core/drivers/S25FL256/src/S25FL256.c **** 
  24:../../core/drivers/S25FL256/src/S25FL256.c **** #define SPI_BE_CMD 0x60 //Bulk erase
  25:../../core/drivers/S25FL256/src/S25FL256.c **** #define SPI_SE_CMD 0xDC //Bulk erase
  26:../../core/drivers/S25FL256/src/S25FL256.c **** 
  27:../../core/drivers/S25FL256/src/S25FL256.c **** #define WRITE_IN_PROGRESS_MASK 0x01 //Bit 0 of RDSR is "Write in Progress"
  28:../../core/drivers/S25FL256/src/S25FL256.c **** 
  29:../../core/drivers/S25FL256/src/S25FL256.c **** #define SPI_WAIT 50
ARM GAS  C:\Users\RUBENJ~1\AppData\Local\Temp\ccJ3OEkh.s 			page 2


  30:../../core/drivers/S25FL256/src/S25FL256.c **** 
  31:../../core/drivers/S25FL256/src/S25FL256.c **** //One because it's only used to read a register
  32:../../core/drivers/S25FL256/src/S25FL256.c **** uint8_t rxData[1];
  33:../../core/drivers/S25FL256/src/S25FL256.c **** //Five, because the max amount of bytes is 5, in send4BCommand
  34:../../core/drivers/S25FL256/src/S25FL256.c **** uint8_t txData[5];
  35:../../core/drivers/S25FL256/src/S25FL256.c **** 
  36:../../core/drivers/S25FL256/src/S25FL256.c **** SPI_HandleTypeDef *flashSPI;
  37:../../core/drivers/S25FL256/src/S25FL256.c **** 
  38:../../core/drivers/S25FL256/src/S25FL256.c **** /**
  39:../../core/drivers/S25FL256/src/S25FL256.c ****     * \brief   Initializes the S25FL256 driver.
  40:../../core/drivers/S25FL256/src/S25FL256.c ****     * \returns 0 if init is successful
  41:../../core/drivers/S25FL256/src/S25FL256.c ****     * \returns E_INIT_FAILED if SPI could not be configured.
  42:../../core/drivers/S25FL256/src/S25FL256.c ****     */
  43:../../core/drivers/S25FL256/src/S25FL256.c **** uint8_t S25FL256_Initialize(SPI_HandleTypeDef *hspi)
  44:../../core/drivers/S25FL256/src/S25FL256.c **** {
  30              		.loc 1 44 1 view -0
  31              		.cfi_startproc
  32              		@ args = 0, pretend = 0, frame = 0
  33              		@ frame_needed = 0, uses_anonymous_args = 0
  34              		.loc 1 44 1 is_stmt 0 view .LVU1
  35 0000 70B5     		push	{r4, r5, r6, lr}
  36              	.LCFI0:
  37              		.cfi_def_cfa_offset 16
  38              		.cfi_offset 4, -16
  39              		.cfi_offset 5, -12
  40              		.cfi_offset 6, -8
  41              		.cfi_offset 14, -4
  42 0002 0646     		mov	r6, r0
  45:../../core/drivers/S25FL256/src/S25FL256.c **** 
  46:../../core/drivers/S25FL256/src/S25FL256.c ****     mMemBlockIndex = 0;
  43              		.loc 1 46 5 is_stmt 1 view .LVU2
  44              		.loc 1 46 20 is_stmt 0 view .LVU3
  45 0004 0024     		movs	r4, #0
  46 0006 134B     		ldr	r3, .L3
  47 0008 1C80     		strh	r4, [r3]	@ movhi
  47:../../core/drivers/S25FL256/src/S25FL256.c ****     memset(mMemBlock, 0, FLASH_BLOCK_SIZE);
  48              		.loc 1 47 5 is_stmt 1 view .LVU4
  49 000a 4FF48072 		mov	r2, #256
  50 000e 2146     		mov	r1, r4
  51 0010 1148     		ldr	r0, .L3+4
  52              	.LVL1:
  53              		.loc 1 47 5 is_stmt 0 view .LVU5
  54 0012 FFF7FEFF 		bl	memset
  55              	.LVL2:
  48:../../core/drivers/S25FL256/src/S25FL256.c ****     mCurrentReadAddress = FIRST_FLASH_ADDRESS;
  56              		.loc 1 48 5 is_stmt 1 view .LVU6
  57              		.loc 1 48 25 is_stmt 0 view .LVU7
  58 0016 4FF44013 		mov	r3, #3145728
  59 001a 104A     		ldr	r2, .L3+8
  60 001c 1360     		str	r3, [r2]
  49:../../core/drivers/S25FL256/src/S25FL256.c ****     mCurrentWriteAddress = FIRST_FLASH_ADDRESS;
  61              		.loc 1 49 5 is_stmt 1 view .LVU8
  62              		.loc 1 49 26 is_stmt 0 view .LVU9
  63 001e 104A     		ldr	r2, .L3+12
  64 0020 1360     		str	r3, [r2]
  50:../../core/drivers/S25FL256/src/S25FL256.c ****     _initialised = 0;
  65              		.loc 1 50 5 is_stmt 1 view .LVU10
ARM GAS  C:\Users\RUBENJ~1\AppData\Local\Temp\ccJ3OEkh.s 			page 3


  66              		.loc 1 50 18 is_stmt 0 view .LVU11
  67 0022 104D     		ldr	r5, .L3+16
  68 0024 2C70     		strb	r4, [r5]
  51:../../core/drivers/S25FL256/src/S25FL256.c **** 
  52:../../core/drivers/S25FL256/src/S25FL256.c ****     flashSPI = hspi;
  69              		.loc 1 52 5 is_stmt 1 view .LVU12
  70              		.loc 1 52 14 is_stmt 0 view .LVU13
  71 0026 104B     		ldr	r3, .L3+20
  72 0028 1E60     		str	r6, [r3]
  53:../../core/drivers/S25FL256/src/S25FL256.c ****     //set CS pin to High
  54:../../core/drivers/S25FL256/src/S25FL256.c ****     HAL_GPIO_WritePin(GPIOF, GPIO_PIN_13, GPIO_PIN_SET);
  73              		.loc 1 54 5 is_stmt 1 view .LVU14
  74 002a 0122     		movs	r2, #1
  75 002c 4FF40051 		mov	r1, #8192
  76 0030 0E48     		ldr	r0, .L3+24
  77 0032 FFF7FEFF 		bl	HAL_GPIO_WritePin
  78              	.LVL3:
  55:../../core/drivers/S25FL256/src/S25FL256.c **** 
  56:../../core/drivers/S25FL256/src/S25FL256.c ****     //disable HOLD & WP
  57:../../core/drivers/S25FL256/src/S25FL256.c ****     //set WP pin high
  58:../../core/drivers/S25FL256/src/S25FL256.c ****     HAL_GPIO_WritePin(GPIOE, GPIO_PIN_11, GPIO_PIN_SET);
  79              		.loc 1 58 5 view .LVU15
  80 0036 0E4C     		ldr	r4, .L3+28
  81 0038 0122     		movs	r2, #1
  82 003a 4FF40061 		mov	r1, #2048
  83 003e 2046     		mov	r0, r4
  84 0040 FFF7FEFF 		bl	HAL_GPIO_WritePin
  85              	.LVL4:
  59:../../core/drivers/S25FL256/src/S25FL256.c ****     //set HOLD pin high
  60:../../core/drivers/S25FL256/src/S25FL256.c ****     HAL_GPIO_WritePin(GPIOE, GPIO_PIN_0, GPIO_PIN_SET);
  86              		.loc 1 60 5 view .LVU16
  87 0044 0122     		movs	r2, #1
  88 0046 1146     		mov	r1, r2
  89 0048 2046     		mov	r0, r4
  90 004a FFF7FEFF 		bl	HAL_GPIO_WritePin
  91              	.LVL5:
  61:../../core/drivers/S25FL256/src/S25FL256.c ****     
  62:../../core/drivers/S25FL256/src/S25FL256.c ****     _initialised = 1;
  92              		.loc 1 62 5 view .LVU17
  93              		.loc 1 62 18 is_stmt 0 view .LVU18
  94 004e 0120     		movs	r0, #1
  95 0050 2870     		strb	r0, [r5]
  63:../../core/drivers/S25FL256/src/S25FL256.c **** 
  64:../../core/drivers/S25FL256/src/S25FL256.c ****     return _initialised;
  96              		.loc 1 64 5 is_stmt 1 view .LVU19
  65:../../core/drivers/S25FL256/src/S25FL256.c **** }
  97              		.loc 1 65 1 is_stmt 0 view .LVU20
  98 0052 70BD     		pop	{r4, r5, r6, pc}
  99              	.LVL6:
 100              	.L4:
 101              		.loc 1 65 1 view .LVU21
 102              		.align	2
 103              	.L3:
 104 0054 00000000 		.word	mMemBlockIndex
 105 0058 00000000 		.word	mMemBlock
 106 005c 00000000 		.word	mCurrentReadAddress
 107 0060 00000000 		.word	mCurrentWriteAddress
ARM GAS  C:\Users\RUBENJ~1\AppData\Local\Temp\ccJ3OEkh.s 			page 4


 108 0064 00000000 		.word	_initialised
 109 0068 00000000 		.word	flashSPI
 110 006c 00140048 		.word	1207964672
 111 0070 00100048 		.word	1207963648
 112              		.cfi_endproc
 113              	.LFE126:
 115              		.section	.text.S25FL256_Enable,"ax",%progbits
 116              		.align	1
 117              		.global	S25FL256_Enable
 118              		.syntax unified
 119              		.thumb
 120              		.thumb_func
 121              		.fpu fpv4-sp-d16
 123              	S25FL256_Enable:
 124              	.LFB137:
  66:../../core/drivers/S25FL256/src/S25FL256.c **** 
  67:../../core/drivers/S25FL256/src/S25FL256.c **** /**
  68:../../core/drivers/S25FL256/src/S25FL256.c ****     * \brief    Sets the read and write address to the start of this block. The max value is define
  69:../../core/drivers/S25FL256/src/S25FL256.c ****     * \param    aBlockNr      The 256 byte block you want to start reading or writing from.
  70:../../core/drivers/S25FL256/src/S25FL256.c ****     * \returns  0 if successful
  71:../../core/drivers/S25FL256/src/S25FL256.c ****     * \returns  E_WRITE_IN_PROGRESS if the flash is performing a write action.
  72:../../core/drivers/S25FL256/src/S25FL256.c ****     * \returns  E_INVALID_BLOCK_NR if aBlockNr is invalid.
  73:../../core/drivers/S25FL256/src/S25FL256.c ****     */
  74:../../core/drivers/S25FL256/src/S25FL256.c **** int S25FL256_open(const uint32_t aBlockNr)
  75:../../core/drivers/S25FL256/src/S25FL256.c **** {
  76:../../core/drivers/S25FL256/src/S25FL256.c ****     HAL_Delay(SPI_WAIT);
  77:../../core/drivers/S25FL256/src/S25FL256.c **** 
  78:../../core/drivers/S25FL256/src/S25FL256.c ****     if (S25FL256_isWriteInProgress())
  79:../../core/drivers/S25FL256/src/S25FL256.c ****     {
  80:../../core/drivers/S25FL256/src/S25FL256.c ****         return E_WRITE_IN_PROGRESS;
  81:../../core/drivers/S25FL256/src/S25FL256.c ****     }
  82:../../core/drivers/S25FL256/src/S25FL256.c **** 
  83:../../core/drivers/S25FL256/src/S25FL256.c ****     if (aBlockNr > MAX_BLOCK_NUMBER)
  84:../../core/drivers/S25FL256/src/S25FL256.c ****     {
  85:../../core/drivers/S25FL256/src/S25FL256.c ****         return E_INVALID_BLOCK_NR;
  86:../../core/drivers/S25FL256/src/S25FL256.c ****     }
  87:../../core/drivers/S25FL256/src/S25FL256.c **** 
  88:../../core/drivers/S25FL256/src/S25FL256.c ****     uint32_t newAddress = FIRST_FLASH_ADDRESS + aBlockNr * (FLASH_BLOCK_SIZE);
  89:../../core/drivers/S25FL256/src/S25FL256.c ****     mCurrentReadAddress = newAddress;
  90:../../core/drivers/S25FL256/src/S25FL256.c ****     mCurrentWriteAddress = newAddress;
  91:../../core/drivers/S25FL256/src/S25FL256.c **** 
  92:../../core/drivers/S25FL256/src/S25FL256.c ****     return 0;
  93:../../core/drivers/S25FL256/src/S25FL256.c **** }
  94:../../core/drivers/S25FL256/src/S25FL256.c **** 
  95:../../core/drivers/S25FL256/src/S25FL256.c **** /**
  96:../../core/drivers/S25FL256/src/S25FL256.c ****     * \brief    Reads the given number of bytes from flash.
  97:../../core/drivers/S25FL256/src/S25FL256.c ****     * \param    apData     Pointer to the uint8_t array to fill.
  98:../../core/drivers/S25FL256/src/S25FL256.c ****     * \param    aSize      The number of bytes to be read.
  99:../../core/drivers/S25FL256/src/S25FL256.c ****     * \returns  the number of bytes read if successful
 100:../../core/drivers/S25FL256/src/S25FL256.c ****     * \returns  E_WRITE_IN_PROGRESS if the flash is performing a write action.
 101:../../core/drivers/S25FL256/src/S25FL256.c ****     * \returns  E_SPI_ERROR if something went wrong during SPI communication.
 102:../../core/drivers/S25FL256/src/S25FL256.c ****     */
 103:../../core/drivers/S25FL256/src/S25FL256.c **** int S25FL256_read(uint8_t *apData, const uint32_t aSize)
 104:../../core/drivers/S25FL256/src/S25FL256.c **** {
 105:../../core/drivers/S25FL256/src/S25FL256.c **** 
 106:../../core/drivers/S25FL256/src/S25FL256.c ****     HAL_Delay(SPI_WAIT);
 107:../../core/drivers/S25FL256/src/S25FL256.c **** 
ARM GAS  C:\Users\RUBENJ~1\AppData\Local\Temp\ccJ3OEkh.s 			page 5


 108:../../core/drivers/S25FL256/src/S25FL256.c ****     if (S25FL256_isWriteInProgress())
 109:../../core/drivers/S25FL256/src/S25FL256.c ****     {
 110:../../core/drivers/S25FL256/src/S25FL256.c ****         return E_WRITE_IN_PROGRESS;
 111:../../core/drivers/S25FL256/src/S25FL256.c ****     }
 112:../../core/drivers/S25FL256/src/S25FL256.c **** 
 113:../../core/drivers/S25FL256/src/S25FL256.c ****     //Starting the read.
 114:../../core/drivers/S25FL256/src/S25FL256.c ****     if (S25FL256_send4BCommand(SPI_READ_4B_CMD, mCurrentReadAddress) == E_SPI_ERROR)
 115:../../core/drivers/S25FL256/src/S25FL256.c ****     {
 116:../../core/drivers/S25FL256/src/S25FL256.c ****         return E_SPI_ERROR;
 117:../../core/drivers/S25FL256/src/S25FL256.c ****     }
 118:../../core/drivers/S25FL256/src/S25FL256.c **** 
 119:../../core/drivers/S25FL256/src/S25FL256.c ****     HAL_SPI_Receive(flashSPI, apData, (uint16_t)aSize, HAL_MAX_DELAY);
 120:../../core/drivers/S25FL256/src/S25FL256.c **** 
 121:../../core/drivers/S25FL256/src/S25FL256.c ****     //__HAL_SPI_DISABLE(flashSPI);
 122:../../core/drivers/S25FL256/src/S25FL256.c ****     S25FL256_Disable();
 123:../../core/drivers/S25FL256/src/S25FL256.c **** 
 124:../../core/drivers/S25FL256/src/S25FL256.c ****     return aSize;
 125:../../core/drivers/S25FL256/src/S25FL256.c **** }
 126:../../core/drivers/S25FL256/src/S25FL256.c **** 
 127:../../core/drivers/S25FL256/src/S25FL256.c **** /**
 128:../../core/drivers/S25FL256/src/S25FL256.c ****     * \brief    Buffers the given array. Once 256 bytes are cached, the data is flushed to flash.
 129:../../core/drivers/S25FL256/src/S25FL256.c ****     * \param    apData     Pointer to the uint8_t array with data to write.
 130:../../core/drivers/S25FL256/src/S25FL256.c ****     * \param    aSize      The number of bytes to be written.
 131:../../core/drivers/S25FL256/src/S25FL256.c ****     * \returns  The number of written bytes.
 132:../../core/drivers/S25FL256/src/S25FL256.c ****     * \returns  E_WRITE_IN_PROGRESS if the flash is performing a write action.
 133:../../core/drivers/S25FL256/src/S25FL256.c ****     * \returns  E_SPI_ERROR if something went wrong during SPI communication.
 134:../../core/drivers/S25FL256/src/S25FL256.c ****     * \returns  E_LAST_BLOCK_WRITTEN if the last block was written and no more data can be buffered
 135:../../core/drivers/S25FL256/src/S25FL256.c ****     */
 136:../../core/drivers/S25FL256/src/S25FL256.c **** int S25FL256_write(const uint8_t *apData, const uint32_t aSize)
 137:../../core/drivers/S25FL256/src/S25FL256.c **** {
 138:../../core/drivers/S25FL256/src/S25FL256.c **** 
 139:../../core/drivers/S25FL256/src/S25FL256.c ****     HAL_Delay(SPI_WAIT);
 140:../../core/drivers/S25FL256/src/S25FL256.c **** 
 141:../../core/drivers/S25FL256/src/S25FL256.c ****     if (S25FL256_isWriteInProgress())
 142:../../core/drivers/S25FL256/src/S25FL256.c ****     {
 143:../../core/drivers/S25FL256/src/S25FL256.c ****         return E_WRITE_IN_PROGRESS;
 144:../../core/drivers/S25FL256/src/S25FL256.c ****     }
 145:../../core/drivers/S25FL256/src/S25FL256.c **** 
 146:../../core/drivers/S25FL256/src/S25FL256.c ****     if (mCurrentWriteAddress > LAST_FLASH_ADDRESS)
 147:../../core/drivers/S25FL256/src/S25FL256.c ****     {
 148:../../core/drivers/S25FL256/src/S25FL256.c ****         return E_LAST_BLOCK_WRITTEN;
 149:../../core/drivers/S25FL256/src/S25FL256.c ****     }
 150:../../core/drivers/S25FL256/src/S25FL256.c **** 
 151:../../core/drivers/S25FL256/src/S25FL256.c ****     uint32_t bytesLeftToWrite = aSize;
 152:../../core/drivers/S25FL256/src/S25FL256.c **** 
 153:../../core/drivers/S25FL256/src/S25FL256.c ****     while (mMemBlockIndex + bytesLeftToWrite >= FLASH_BLOCK_SIZE)
 154:../../core/drivers/S25FL256/src/S25FL256.c ****     {
 155:../../core/drivers/S25FL256/src/S25FL256.c **** 
 156:../../core/drivers/S25FL256/src/S25FL256.c ****         //The number of bytes we will add to mMemBlock in this loop
 157:../../core/drivers/S25FL256/src/S25FL256.c ****         uint32_t bytesToWrite = FLASH_BLOCK_SIZE - mMemBlockIndex;
 158:../../core/drivers/S25FL256/src/S25FL256.c **** 
 159:../../core/drivers/S25FL256/src/S25FL256.c ****         //Filling the remainder of the buffer
 160:../../core/drivers/S25FL256/src/S25FL256.c ****         memcpy(&mMemBlock[mMemBlockIndex], apData, FLASH_BLOCK_SIZE);
 161:../../core/drivers/S25FL256/src/S25FL256.c **** 
 162:../../core/drivers/S25FL256/src/S25FL256.c ****         int flushedBytes = S25FL256_flush();
 163:../../core/drivers/S25FL256/src/S25FL256.c **** 
 164:../../core/drivers/S25FL256/src/S25FL256.c ****         //And writing the block of FLASH_BLOCK_SIZE bytes. This also clears mMemBlock and mMemBlock
ARM GAS  C:\Users\RUBENJ~1\AppData\Local\Temp\ccJ3OEkh.s 			page 6


 165:../../core/drivers/S25FL256/src/S25FL256.c ****         if (flushedBytes < 0)
 166:../../core/drivers/S25FL256/src/S25FL256.c ****         {
 167:../../core/drivers/S25FL256/src/S25FL256.c ****             //Flush failed
 168:../../core/drivers/S25FL256/src/S25FL256.c ****             return flushedBytes;
 169:../../core/drivers/S25FL256/src/S25FL256.c ****         }
 170:../../core/drivers/S25FL256/src/S25FL256.c **** 
 171:../../core/drivers/S25FL256/src/S25FL256.c ****         //Moving the pointer
 172:../../core/drivers/S25FL256/src/S25FL256.c ****         apData += bytesToWrite;
 173:../../core/drivers/S25FL256/src/S25FL256.c ****         bytesLeftToWrite -= bytesToWrite;
 174:../../core/drivers/S25FL256/src/S25FL256.c ****     }
 175:../../core/drivers/S25FL256/src/S25FL256.c **** 
 176:../../core/drivers/S25FL256/src/S25FL256.c ****     if (mCurrentWriteAddress > LAST_FLASH_ADDRESS)
 177:../../core/drivers/S25FL256/src/S25FL256.c ****     {
 178:../../core/drivers/S25FL256/src/S25FL256.c ****         //Flash is full, no more buffering.
 179:../../core/drivers/S25FL256/src/S25FL256.c ****         return E_LAST_BLOCK_WRITTEN;
 180:../../core/drivers/S25FL256/src/S25FL256.c ****     }
 181:../../core/drivers/S25FL256/src/S25FL256.c ****     else if (bytesLeftToWrite > 0)
 182:../../core/drivers/S25FL256/src/S25FL256.c ****     {
 183:../../core/drivers/S25FL256/src/S25FL256.c ****         //We still have some bytes left to cache.
 184:../../core/drivers/S25FL256/src/S25FL256.c ****         memcpy(&mMemBlock[mMemBlockIndex], apData, bytesLeftToWrite);
 185:../../core/drivers/S25FL256/src/S25FL256.c ****         bytesLeftToWrite = 0;
 186:../../core/drivers/S25FL256/src/S25FL256.c ****     }
 187:../../core/drivers/S25FL256/src/S25FL256.c **** 
 188:../../core/drivers/S25FL256/src/S25FL256.c ****     return aSize - bytesLeftToWrite;
 189:../../core/drivers/S25FL256/src/S25FL256.c **** }
 190:../../core/drivers/S25FL256/src/S25FL256.c **** 
 191:../../core/drivers/S25FL256/src/S25FL256.c **** /**
 192:../../core/drivers/S25FL256/src/S25FL256.c ****     * \brief    Returns the state of the write in process status bit.
 193:../../core/drivers/S25FL256/src/S25FL256.c ****     * \returns  true is the flash is performing a write action.
 194:../../core/drivers/S25FL256/src/S25FL256.c ****     */
 195:../../core/drivers/S25FL256/src/S25FL256.c **** uint8_t S25FL256_isWriteInProgress(void)
 196:../../core/drivers/S25FL256/src/S25FL256.c **** {
 197:../../core/drivers/S25FL256/src/S25FL256.c ****     HAL_Delay(SPI_WAIT);
 198:../../core/drivers/S25FL256/src/S25FL256.c ****     uint8_t status;
 199:../../core/drivers/S25FL256/src/S25FL256.c ****     if (S25FL256_readReg(SPI_RDSR_CMD, status) == 0)
 200:../../core/drivers/S25FL256/src/S25FL256.c ****     {
 201:../../core/drivers/S25FL256/src/S25FL256.c ****         return (uint8_t)(status & WRITE_IN_PROGRESS_MASK);
 202:../../core/drivers/S25FL256/src/S25FL256.c ****     }
 203:../../core/drivers/S25FL256/src/S25FL256.c **** 
 204:../../core/drivers/S25FL256/src/S25FL256.c ****     return 0;
 205:../../core/drivers/S25FL256/src/S25FL256.c **** }
 206:../../core/drivers/S25FL256/src/S25FL256.c **** 
 207:../../core/drivers/S25FL256/src/S25FL256.c **** /**
 208:../../core/drivers/S25FL256/src/S25FL256.c ****     * \brief    Erases the entire flash.
 209:../../core/drivers/S25FL256/src/S25FL256.c ****                 This method is a write action. Poll with isWriteInProgress()
 210:../../core/drivers/S25FL256/src/S25FL256.c ****     * \returns  0 if successful
 211:../../core/drivers/S25FL256/src/S25FL256.c ****     * \returns  E_WRITE_IN_PROGRESS if the flash is performing a write action.
 212:../../core/drivers/S25FL256/src/S25FL256.c ****     * \returns  E_SPI_ERROR if something went wrong during SPI communication.
 213:../../core/drivers/S25FL256/src/S25FL256.c ****     */
 214:../../core/drivers/S25FL256/src/S25FL256.c **** int S25FL256_eraseFullFlash(void)
 215:../../core/drivers/S25FL256/src/S25FL256.c **** {
 216:../../core/drivers/S25FL256/src/S25FL256.c **** 
 217:../../core/drivers/S25FL256/src/S25FL256.c ****     HAL_Delay(SPI_WAIT);
 218:../../core/drivers/S25FL256/src/S25FL256.c **** 
 219:../../core/drivers/S25FL256/src/S25FL256.c ****     if (S25FL256_isWriteInProgress())
 220:../../core/drivers/S25FL256/src/S25FL256.c ****     {
 221:../../core/drivers/S25FL256/src/S25FL256.c ****         return E_WRITE_IN_PROGRESS;        
ARM GAS  C:\Users\RUBENJ~1\AppData\Local\Temp\ccJ3OEkh.s 			page 7


 222:../../core/drivers/S25FL256/src/S25FL256.c ****     }
 223:../../core/drivers/S25FL256/src/S25FL256.c **** 
 224:../../core/drivers/S25FL256/src/S25FL256.c ****     //Setting write enable
 225:../../core/drivers/S25FL256/src/S25FL256.c ****     if (S25FL256_sendCommand(SPI_WREN_CMD) == E_SPI_ERROR)
 226:../../core/drivers/S25FL256/src/S25FL256.c ****     {
 227:../../core/drivers/S25FL256/src/S25FL256.c ****         return E_SPI_ERROR;
 228:../../core/drivers/S25FL256/src/S25FL256.c ****     }
 229:../../core/drivers/S25FL256/src/S25FL256.c **** 
 230:../../core/drivers/S25FL256/src/S25FL256.c ****     //The actual bulk erase
 231:../../core/drivers/S25FL256/src/S25FL256.c ****     if (S25FL256_sendCommand(SPI_BE_CMD) == E_SPI_ERROR)
 232:../../core/drivers/S25FL256/src/S25FL256.c ****     {
 233:../../core/drivers/S25FL256/src/S25FL256.c ****         return E_SPI_ERROR;
 234:../../core/drivers/S25FL256/src/S25FL256.c ****     }
 235:../../core/drivers/S25FL256/src/S25FL256.c **** 
 236:../../core/drivers/S25FL256/src/S25FL256.c ****     //And disabling write again.
 237:../../core/drivers/S25FL256/src/S25FL256.c ****     if (S25FL256_sendCommand(SPI_WRDI_CMD) == E_SPI_ERROR)
 238:../../core/drivers/S25FL256/src/S25FL256.c ****     {
 239:../../core/drivers/S25FL256/src/S25FL256.c ****         return E_SPI_ERROR;
 240:../../core/drivers/S25FL256/src/S25FL256.c ****     }
 241:../../core/drivers/S25FL256/src/S25FL256.c **** 
 242:../../core/drivers/S25FL256/src/S25FL256.c ****     return 0;
 243:../../core/drivers/S25FL256/src/S25FL256.c **** }
 244:../../core/drivers/S25FL256/src/S25FL256.c **** 
 245:../../core/drivers/S25FL256/src/S25FL256.c **** /**
 246:../../core/drivers/S25FL256/src/S25FL256.c ****     * \brief    Erases 256kb of data, starting from the given block.
 247:../../core/drivers/S25FL256/src/S25FL256.c ****                 This method is a write action. Poll with isWriteInProgress()
 248:../../core/drivers/S25FL256/src/S25FL256.c ****     * \param    aBlockNr   The block you want to start erasing from.
 249:../../core/drivers/S25FL256/src/S25FL256.c ****     * \returns  0 if successful
 250:../../core/drivers/S25FL256/src/S25FL256.c ****     * \returns  E_WRITE_IN_PROGRESS if the flash is performing a write action.
 251:../../core/drivers/S25FL256/src/S25FL256.c ****     * \returns  E_INVALID_BLOCK_NR if aBlockNr is invalid.
 252:../../core/drivers/S25FL256/src/S25FL256.c ****     * \returns  E_SPI_ERROR if something went wrong during SPI communication.
 253:../../core/drivers/S25FL256/src/S25FL256.c ****     */
 254:../../core/drivers/S25FL256/src/S25FL256.c **** int S25FL256_eraseSectorFromBlock(const uint32_t aBlockNr)
 255:../../core/drivers/S25FL256/src/S25FL256.c **** {
 256:../../core/drivers/S25FL256/src/S25FL256.c **** 
 257:../../core/drivers/S25FL256/src/S25FL256.c ****     HAL_Delay(SPI_WAIT);
 258:../../core/drivers/S25FL256/src/S25FL256.c **** 
 259:../../core/drivers/S25FL256/src/S25FL256.c ****     if (S25FL256_isWriteInProgress())
 260:../../core/drivers/S25FL256/src/S25FL256.c ****     {
 261:../../core/drivers/S25FL256/src/S25FL256.c ****         return E_WRITE_IN_PROGRESS;
 262:../../core/drivers/S25FL256/src/S25FL256.c ****     }
 263:../../core/drivers/S25FL256/src/S25FL256.c **** 
 264:../../core/drivers/S25FL256/src/S25FL256.c ****     if (aBlockNr > MAX_BLOCK_NUMBER)
 265:../../core/drivers/S25FL256/src/S25FL256.c ****     {
 266:../../core/drivers/S25FL256/src/S25FL256.c ****         return E_INVALID_BLOCK_NR;
 267:../../core/drivers/S25FL256/src/S25FL256.c ****     }
 268:../../core/drivers/S25FL256/src/S25FL256.c **** 
 269:../../core/drivers/S25FL256/src/S25FL256.c ****     //Setting write enable
 270:../../core/drivers/S25FL256/src/S25FL256.c ****     if (S25FL256_sendCommand(SPI_WREN_CMD) == E_SPI_ERROR)
 271:../../core/drivers/S25FL256/src/S25FL256.c ****     {
 272:../../core/drivers/S25FL256/src/S25FL256.c ****         return E_SPI_ERROR;
 273:../../core/drivers/S25FL256/src/S25FL256.c ****     }
 274:../../core/drivers/S25FL256/src/S25FL256.c **** 
 275:../../core/drivers/S25FL256/src/S25FL256.c ****     //The actual sector erase
 276:../../core/drivers/S25FL256/src/S25FL256.c ****     if (S25FL256_send4BCommand(SPI_SE_CMD, (FIRST_FLASH_ADDRESS + aBlockNr * (FLASH_BLOCK_SIZE))) =
 277:../../core/drivers/S25FL256/src/S25FL256.c ****     {
 278:../../core/drivers/S25FL256/src/S25FL256.c ****         return E_SPI_ERROR;
ARM GAS  C:\Users\RUBENJ~1\AppData\Local\Temp\ccJ3OEkh.s 			page 8


 279:../../core/drivers/S25FL256/src/S25FL256.c ****     }
 280:../../core/drivers/S25FL256/src/S25FL256.c **** 
 281:../../core/drivers/S25FL256/src/S25FL256.c ****     __HAL_SPI_DISABLE(flashSPI);
 282:../../core/drivers/S25FL256/src/S25FL256.c ****     S25FL256_Disable();
 283:../../core/drivers/S25FL256/src/S25FL256.c **** 
 284:../../core/drivers/S25FL256/src/S25FL256.c ****     //Disabling write.
 285:../../core/drivers/S25FL256/src/S25FL256.c ****     if (S25FL256_sendCommand(SPI_WRDI_CMD) == E_SPI_ERROR)
 286:../../core/drivers/S25FL256/src/S25FL256.c ****     {
 287:../../core/drivers/S25FL256/src/S25FL256.c ****         return E_SPI_ERROR;
 288:../../core/drivers/S25FL256/src/S25FL256.c ****     }
 289:../../core/drivers/S25FL256/src/S25FL256.c **** 
 290:../../core/drivers/S25FL256/src/S25FL256.c ****     return 0;
 291:../../core/drivers/S25FL256/src/S25FL256.c **** }
 292:../../core/drivers/S25FL256/src/S25FL256.c **** 
 293:../../core/drivers/S25FL256/src/S25FL256.c **** /************************************************************************/
 294:../../core/drivers/S25FL256/src/S25FL256.c **** /* Private Methods                                                       */
 295:../../core/drivers/S25FL256/src/S25FL256.c **** /************************************************************************/
 296:../../core/drivers/S25FL256/src/S25FL256.c **** 
 297:../../core/drivers/S25FL256/src/S25FL256.c **** /**
 298:../../core/drivers/S25FL256/src/S25FL256.c ****     * \brief    Reads the value of a register.
 299:../../core/drivers/S25FL256/src/S25FL256.c ****     * \param    aReg      The register ytou want to read
 300:../../core/drivers/S25FL256/src/S25FL256.c ****     * \param    aData     Pointer to the data location.
 301:../../core/drivers/S25FL256/src/S25FL256.c ****     * \returns  0 if successful
 302:../../core/drivers/S25FL256/src/S25FL256.c ****     * \returns E_SPI_ERROR if something went wrong during SPI communication.
 303:../../core/drivers/S25FL256/src/S25FL256.c ****     */
 304:../../core/drivers/S25FL256/src/S25FL256.c **** int S25FL256_readReg(uint8_t aReg, uint8_t aData)
 305:../../core/drivers/S25FL256/src/S25FL256.c **** {
 306:../../core/drivers/S25FL256/src/S25FL256.c ****     txData[0] = aReg;
 307:../../core/drivers/S25FL256/src/S25FL256.c ****     aData = 0x00;
 308:../../core/drivers/S25FL256/src/S25FL256.c **** 
 309:../../core/drivers/S25FL256/src/S25FL256.c ****     __HAL_SPI_ENABLE(flashSPI);
 310:../../core/drivers/S25FL256/src/S25FL256.c ****     S25FL256_Enable();
 311:../../core/drivers/S25FL256/src/S25FL256.c **** 
 312:../../core/drivers/S25FL256/src/S25FL256.c ****     HAL_SPI_Transmit(flashSPI, (const uint8_t *)txData, 1, HAL_MAX_DELAY);
 313:../../core/drivers/S25FL256/src/S25FL256.c **** 
 314:../../core/drivers/S25FL256/src/S25FL256.c ****     HAL_SPI_Receive(flashSPI, (const uint8_t *)rxData, 1, HAL_MAX_DELAY);
 315:../../core/drivers/S25FL256/src/S25FL256.c **** 
 316:../../core/drivers/S25FL256/src/S25FL256.c ****     __HAL_SPI_DISABLE(flashSPI);
 317:../../core/drivers/S25FL256/src/S25FL256.c ****     S25FL256_Disable();
 318:../../core/drivers/S25FL256/src/S25FL256.c ****     aData = rxData[0];
 319:../../core/drivers/S25FL256/src/S25FL256.c **** 
 320:../../core/drivers/S25FL256/src/S25FL256.c ****     return 0;
 321:../../core/drivers/S25FL256/src/S25FL256.c **** }
 322:../../core/drivers/S25FL256/src/S25FL256.c **** 
 323:../../core/drivers/S25FL256/src/S25FL256.c **** /**
 324:../../core/drivers/S25FL256/src/S25FL256.c ****     * \brief   Flushes the internal buffer and writes it to flash.
 325:../../core/drivers/S25FL256/src/S25FL256.c ****        This method should only be called when mMemBlock is full.
 326:../../core/drivers/S25FL256/src/S25FL256.c ****     * \returns 0 if successful
 327:../../core/drivers/S25FL256/src/S25FL256.c ****     * \returns  E_WRITE_IN_PROGRESS if the flash is performing a write action.
 328:../../core/drivers/S25FL256/src/S25FL256.c ****     * \returns  E_SPI_ERROR if something went wrong during SPI communication.
 329:../../core/drivers/S25FL256/src/S25FL256.c ****     */
 330:../../core/drivers/S25FL256/src/S25FL256.c **** int S25FL256_flush(void)
 331:../../core/drivers/S25FL256/src/S25FL256.c **** {
 332:../../core/drivers/S25FL256/src/S25FL256.c **** 
 333:../../core/drivers/S25FL256/src/S25FL256.c ****     if (S25FL256_isWriteInProgress())
 334:../../core/drivers/S25FL256/src/S25FL256.c ****     {
 335:../../core/drivers/S25FL256/src/S25FL256.c ****         return E_WRITE_IN_PROGRESS;
ARM GAS  C:\Users\RUBENJ~1\AppData\Local\Temp\ccJ3OEkh.s 			page 9


 336:../../core/drivers/S25FL256/src/S25FL256.c ****     }
 337:../../core/drivers/S25FL256/src/S25FL256.c **** 
 338:../../core/drivers/S25FL256/src/S25FL256.c ****     //Setting write enable
 339:../../core/drivers/S25FL256/src/S25FL256.c ****     if (S25FL256_sendCommand(SPI_WREN_CMD) == E_SPI_ERROR)
 340:../../core/drivers/S25FL256/src/S25FL256.c ****     {
 341:../../core/drivers/S25FL256/src/S25FL256.c ****         return E_SPI_ERROR;
 342:../../core/drivers/S25FL256/src/S25FL256.c ****     }
 343:../../core/drivers/S25FL256/src/S25FL256.c **** 
 344:../../core/drivers/S25FL256/src/S25FL256.c ****     // write command and address adress
 345:../../core/drivers/S25FL256/src/S25FL256.c ****     if (S25FL256_send4BCommand(SPI_PP_4B_CMD, mCurrentWriteAddress) == E_SPI_ERROR)
 346:../../core/drivers/S25FL256/src/S25FL256.c ****     {
 347:../../core/drivers/S25FL256/src/S25FL256.c ****         return E_SPI_ERROR;
 348:../../core/drivers/S25FL256/src/S25FL256.c ****     }
 349:../../core/drivers/S25FL256/src/S25FL256.c **** 
 350:../../core/drivers/S25FL256/src/S25FL256.c ****     HAL_SPI_Transmit(flashSPI, (const uint8_t *)mMemBlock, FLASH_BLOCK_SIZE, HAL_MAX_DELAY);
 351:../../core/drivers/S25FL256/src/S25FL256.c **** 
 352:../../core/drivers/S25FL256/src/S25FL256.c ****     //__HAL_SPI_DISABLE(flashSPI);
 353:../../core/drivers/S25FL256/src/S25FL256.c ****     S25FL256_Disable();
 354:../../core/drivers/S25FL256/src/S25FL256.c **** 
 355:../../core/drivers/S25FL256/src/S25FL256.c ****     //Setting write disable
 356:../../core/drivers/S25FL256/src/S25FL256.c ****     if (S25FL256_sendCommand(SPI_WRDI_CMD) == E_SPI_ERROR)
 357:../../core/drivers/S25FL256/src/S25FL256.c ****     {
 358:../../core/drivers/S25FL256/src/S25FL256.c ****         return E_SPI_ERROR;
 359:../../core/drivers/S25FL256/src/S25FL256.c ****     }
 360:../../core/drivers/S25FL256/src/S25FL256.c **** 
 361:../../core/drivers/S25FL256/src/S25FL256.c ****     //It's possible that we pass LAST_FLASH_ADDRESS here, but the write method checks for that.
 362:../../core/drivers/S25FL256/src/S25FL256.c ****     mCurrentWriteAddress += FLASH_BLOCK_SIZE;
 363:../../core/drivers/S25FL256/src/S25FL256.c **** 
 364:../../core/drivers/S25FL256/src/S25FL256.c ****     // Clearing mMemBlock and mMemBlockIndex
 365:../../core/drivers/S25FL256/src/S25FL256.c ****     memset(mMemBlock, 0, FLASH_BLOCK_SIZE);
 366:../../core/drivers/S25FL256/src/S25FL256.c ****     mMemBlockIndex = 0;
 367:../../core/drivers/S25FL256/src/S25FL256.c **** 
 368:../../core/drivers/S25FL256/src/S25FL256.c ****     return 0;
 369:../../core/drivers/S25FL256/src/S25FL256.c **** }
 370:../../core/drivers/S25FL256/src/S25FL256.c **** 
 371:../../core/drivers/S25FL256/src/S25FL256.c **** /**
 372:../../core/drivers/S25FL256/src/S25FL256.c ****     * \brief    Sends a single command to the flash
 373:../../core/drivers/S25FL256/src/S25FL256.c ****     * \param    command The command to be sent.
 374:../../core/drivers/S25FL256/src/S25FL256.c ****     * \returns  0 if successful
 375:../../core/drivers/S25FL256/src/S25FL256.c ****     * \returns  E_WRITE_IN_PROGRESS if the flash is performing a write action.
 376:../../core/drivers/S25FL256/src/S25FL256.c ****     * \returns  E_SPI_ERROR if something went wrong during SPI communication.
 377:../../core/drivers/S25FL256/src/S25FL256.c ****     */
 378:../../core/drivers/S25FL256/src/S25FL256.c **** int S25FL256_sendCommand(const uint8_t command)
 379:../../core/drivers/S25FL256/src/S25FL256.c **** {
 380:../../core/drivers/S25FL256/src/S25FL256.c **** 
 381:../../core/drivers/S25FL256/src/S25FL256.c ****     if (S25FL256_isWriteInProgress())
 382:../../core/drivers/S25FL256/src/S25FL256.c ****     {
 383:../../core/drivers/S25FL256/src/S25FL256.c ****         return E_WRITE_IN_PROGRESS;
 384:../../core/drivers/S25FL256/src/S25FL256.c ****     }
 385:../../core/drivers/S25FL256/src/S25FL256.c **** 
 386:../../core/drivers/S25FL256/src/S25FL256.c ****     txData[0] = command;
 387:../../core/drivers/S25FL256/src/S25FL256.c **** 
 388:../../core/drivers/S25FL256/src/S25FL256.c ****     __HAL_SPI_ENABLE(flashSPI);
 389:../../core/drivers/S25FL256/src/S25FL256.c ****     S25FL256_Enable();
 390:../../core/drivers/S25FL256/src/S25FL256.c **** 
 391:../../core/drivers/S25FL256/src/S25FL256.c ****     HAL_SPI_Transmit(flashSPI, (const uint8_t *)txData, 1, HAL_MAX_DELAY);
 392:../../core/drivers/S25FL256/src/S25FL256.c **** 
ARM GAS  C:\Users\RUBENJ~1\AppData\Local\Temp\ccJ3OEkh.s 			page 10


 393:../../core/drivers/S25FL256/src/S25FL256.c ****     __HAL_SPI_DISABLE(flashSPI);
 394:../../core/drivers/S25FL256/src/S25FL256.c ****     S25FL256_Disable();
 395:../../core/drivers/S25FL256/src/S25FL256.c **** 
 396:../../core/drivers/S25FL256/src/S25FL256.c ****     return 0;
 397:../../core/drivers/S25FL256/src/S25FL256.c **** }
 398:../../core/drivers/S25FL256/src/S25FL256.c **** 
 399:../../core/drivers/S25FL256/src/S25FL256.c **** /**
 400:../../core/drivers/S25FL256/src/S25FL256.c ****     * \brief    Sends a 4 byte address command
 401:../../core/drivers/S25FL256/src/S25FL256.c ****     * \param    command   The command to be sent.
 402:../../core/drivers/S25FL256/src/S25FL256.c ****     * \param    aBlockNr  The 4 byte address
 403:../../core/drivers/S25FL256/src/S25FL256.c ****     * \returns  0 if successful
 404:../../core/drivers/S25FL256/src/S25FL256.c ****     * \returns  E_WRITE_IN_PROGRESS if the flash is performing a write action.
 405:../../core/drivers/S25FL256/src/S25FL256.c ****     * \returns  E_SPI_ERROR if something went wrong during SPI communication.
 406:../../core/drivers/S25FL256/src/S25FL256.c ****     */
 407:../../core/drivers/S25FL256/src/S25FL256.c **** int S25FL256_send4BCommand(const uint8_t command, const uint32_t address)
 408:../../core/drivers/S25FL256/src/S25FL256.c **** {
 409:../../core/drivers/S25FL256/src/S25FL256.c **** 
 410:../../core/drivers/S25FL256/src/S25FL256.c ****     if (S25FL256_isWriteInProgress())
 411:../../core/drivers/S25FL256/src/S25FL256.c ****     {
 412:../../core/drivers/S25FL256/src/S25FL256.c ****         return E_WRITE_IN_PROGRESS;
 413:../../core/drivers/S25FL256/src/S25FL256.c ****     }
 414:../../core/drivers/S25FL256/src/S25FL256.c **** 
 415:../../core/drivers/S25FL256/src/S25FL256.c ****     uint8_t index = 0;
 416:../../core/drivers/S25FL256/src/S25FL256.c ****     txData[index++] = command;
 417:../../core/drivers/S25FL256/src/S25FL256.c **** 
 418:../../core/drivers/S25FL256/src/S25FL256.c ****     //Writing 4 byte address.
 419:../../core/drivers/S25FL256/src/S25FL256.c ****     txData[index++] = (uint8_t)((address >> 24) & 0x000000FF);
 420:../../core/drivers/S25FL256/src/S25FL256.c ****     txData[index++] = (uint8_t)((address >> 16) & 0x000000FF);
 421:../../core/drivers/S25FL256/src/S25FL256.c ****     txData[index++] = (uint8_t)((address >> 8) & 0x000000FF);
 422:../../core/drivers/S25FL256/src/S25FL256.c ****     txData[index++] = (uint8_t)(address & 0x000000FF);
 423:../../core/drivers/S25FL256/src/S25FL256.c **** 
 424:../../core/drivers/S25FL256/src/S25FL256.c ****     //We have to enable SPI here, because isWriteInProgress disables it.
 425:../../core/drivers/S25FL256/src/S25FL256.c ****     //We don't disable it here, because CS has to stay high after this command.
 426:../../core/drivers/S25FL256/src/S25FL256.c ****     __HAL_SPI_ENABLE(flashSPI);
 427:../../core/drivers/S25FL256/src/S25FL256.c ****     S25FL256_Enable();
 428:../../core/drivers/S25FL256/src/S25FL256.c **** 
 429:../../core/drivers/S25FL256/src/S25FL256.c ****     //send the command over SPI
 430:../../core/drivers/S25FL256/src/S25FL256.c ****     HAL_SPI_Transmit(flashSPI, (const uint8_t *)txData, index, HAL_MAX_DELAY);
 431:../../core/drivers/S25FL256/src/S25FL256.c **** 
 432:../../core/drivers/S25FL256/src/S25FL256.c ****     return 0;
 433:../../core/drivers/S25FL256/src/S25FL256.c **** }
 434:../../core/drivers/S25FL256/src/S25FL256.c **** 
 435:../../core/drivers/S25FL256/src/S25FL256.c **** /* Manually toggle enable pin, due to it not being a default SPI pin */
 436:../../core/drivers/S25FL256/src/S25FL256.c **** void S25FL256_Enable()
 437:../../core/drivers/S25FL256/src/S25FL256.c **** {
 125              		.loc 1 437 1 is_stmt 1 view -0
 126              		.cfi_startproc
 127              		@ args = 0, pretend = 0, frame = 0
 128              		@ frame_needed = 0, uses_anonymous_args = 0
 129 0000 08B5     		push	{r3, lr}
 130              	.LCFI1:
 131              		.cfi_def_cfa_offset 8
 132              		.cfi_offset 3, -8
 133              		.cfi_offset 14, -4
 438:../../core/drivers/S25FL256/src/S25FL256.c ****     //set CS pin to low
 439:../../core/drivers/S25FL256/src/S25FL256.c ****     HAL_GPIO_WritePin(GPIOF, GPIO_PIN_13, GPIO_PIN_RESET);
 134              		.loc 1 439 5 view .LVU23
ARM GAS  C:\Users\RUBENJ~1\AppData\Local\Temp\ccJ3OEkh.s 			page 11


 135 0002 0022     		movs	r2, #0
 136 0004 4FF40051 		mov	r1, #8192
 137 0008 0148     		ldr	r0, .L7
 138 000a FFF7FEFF 		bl	HAL_GPIO_WritePin
 139              	.LVL7:
 440:../../core/drivers/S25FL256/src/S25FL256.c **** }
 140              		.loc 1 440 1 is_stmt 0 view .LVU24
 141 000e 08BD     		pop	{r3, pc}
 142              	.L8:
 143              		.align	2
 144              	.L7:
 145 0010 00140048 		.word	1207964672
 146              		.cfi_endproc
 147              	.LFE137:
 149              		.section	.text.S25FL256_Disable,"ax",%progbits
 150              		.align	1
 151              		.global	S25FL256_Disable
 152              		.syntax unified
 153              		.thumb
 154              		.thumb_func
 155              		.fpu fpv4-sp-d16
 157              	S25FL256_Disable:
 158              	.LFB138:
 441:../../core/drivers/S25FL256/src/S25FL256.c **** 
 442:../../core/drivers/S25FL256/src/S25FL256.c **** /* Manually toggle enable pin, due to it not being a default SPI pin */
 443:../../core/drivers/S25FL256/src/S25FL256.c **** void S25FL256_Disable()
 444:../../core/drivers/S25FL256/src/S25FL256.c **** {
 159              		.loc 1 444 1 is_stmt 1 view -0
 160              		.cfi_startproc
 161              		@ args = 0, pretend = 0, frame = 0
 162              		@ frame_needed = 0, uses_anonymous_args = 0
 163 0000 08B5     		push	{r3, lr}
 164              	.LCFI2:
 165              		.cfi_def_cfa_offset 8
 166              		.cfi_offset 3, -8
 167              		.cfi_offset 14, -4
 445:../../core/drivers/S25FL256/src/S25FL256.c ****     //set CS pin to high
 446:../../core/drivers/S25FL256/src/S25FL256.c ****     HAL_GPIO_WritePin(GPIOF, GPIO_PIN_13, GPIO_PIN_SET);
 168              		.loc 1 446 5 view .LVU26
 169 0002 0122     		movs	r2, #1
 170 0004 4FF40051 		mov	r1, #8192
 171 0008 0148     		ldr	r0, .L11
 172 000a FFF7FEFF 		bl	HAL_GPIO_WritePin
 173              	.LVL8:
 447:../../core/drivers/S25FL256/src/S25FL256.c **** }
 174              		.loc 1 447 1 is_stmt 0 view .LVU27
 175 000e 08BD     		pop	{r3, pc}
 176              	.L12:
 177              		.align	2
 178              	.L11:
 179 0010 00140048 		.word	1207964672
 180              		.cfi_endproc
 181              	.LFE138:
 183              		.section	.text.S25FL256_readReg,"ax",%progbits
 184              		.align	1
 185              		.global	S25FL256_readReg
 186              		.syntax unified
ARM GAS  C:\Users\RUBENJ~1\AppData\Local\Temp\ccJ3OEkh.s 			page 12


 187              		.thumb
 188              		.thumb_func
 189              		.fpu fpv4-sp-d16
 191              	S25FL256_readReg:
 192              	.LVL9:
 193              	.LFB133:
 305:../../core/drivers/S25FL256/src/S25FL256.c ****     txData[0] = aReg;
 194              		.loc 1 305 1 is_stmt 1 view -0
 195              		.cfi_startproc
 196              		@ args = 0, pretend = 0, frame = 0
 197              		@ frame_needed = 0, uses_anonymous_args = 0
 305:../../core/drivers/S25FL256/src/S25FL256.c ****     txData[0] = aReg;
 198              		.loc 1 305 1 is_stmt 0 view .LVU29
 199 0000 38B5     		push	{r3, r4, r5, lr}
 200              	.LCFI3:
 201              		.cfi_def_cfa_offset 16
 202              		.cfi_offset 3, -16
 203              		.cfi_offset 4, -12
 204              		.cfi_offset 5, -8
 205              		.cfi_offset 14, -4
 306:../../core/drivers/S25FL256/src/S25FL256.c ****     aData = 0x00;
 206              		.loc 1 306 5 is_stmt 1 view .LVU30
 306:../../core/drivers/S25FL256/src/S25FL256.c ****     aData = 0x00;
 207              		.loc 1 306 15 is_stmt 0 view .LVU31
 208 0002 114D     		ldr	r5, .L15
 209 0004 2870     		strb	r0, [r5]
 307:../../core/drivers/S25FL256/src/S25FL256.c **** 
 210              		.loc 1 307 5 is_stmt 1 view .LVU32
 211              	.LVL10:
 309:../../core/drivers/S25FL256/src/S25FL256.c ****     S25FL256_Enable();
 212              		.loc 1 309 5 view .LVU33
 213 0006 114C     		ldr	r4, .L15+4
 214 0008 2368     		ldr	r3, [r4]
 215 000a 1A68     		ldr	r2, [r3]
 216 000c 1368     		ldr	r3, [r2]
 217 000e 43F04003 		orr	r3, r3, #64
 218 0012 1360     		str	r3, [r2]
 310:../../core/drivers/S25FL256/src/S25FL256.c **** 
 219              		.loc 1 310 5 view .LVU34
 220 0014 FFF7FEFF 		bl	S25FL256_Enable
 221              	.LVL11:
 312:../../core/drivers/S25FL256/src/S25FL256.c **** 
 222              		.loc 1 312 5 view .LVU35
 223 0018 4FF0FF33 		mov	r3, #-1
 224 001c 0122     		movs	r2, #1
 225 001e 2946     		mov	r1, r5
 226 0020 2068     		ldr	r0, [r4]
 227 0022 FFF7FEFF 		bl	HAL_SPI_Transmit
 228              	.LVL12:
 314:../../core/drivers/S25FL256/src/S25FL256.c **** 
 229              		.loc 1 314 5 view .LVU36
 230 0026 4FF0FF33 		mov	r3, #-1
 231 002a 0122     		movs	r2, #1
 232 002c 0849     		ldr	r1, .L15+8
 233 002e 2068     		ldr	r0, [r4]
 234 0030 FFF7FEFF 		bl	HAL_SPI_Receive
 235              	.LVL13:
ARM GAS  C:\Users\RUBENJ~1\AppData\Local\Temp\ccJ3OEkh.s 			page 13


 316:../../core/drivers/S25FL256/src/S25FL256.c ****     S25FL256_Disable();
 236              		.loc 1 316 5 view .LVU37
 237 0034 2368     		ldr	r3, [r4]
 238 0036 1A68     		ldr	r2, [r3]
 239 0038 1368     		ldr	r3, [r2]
 240 003a 23F04003 		bic	r3, r3, #64
 241 003e 1360     		str	r3, [r2]
 317:../../core/drivers/S25FL256/src/S25FL256.c ****     aData = rxData[0];
 242              		.loc 1 317 5 view .LVU38
 243 0040 FFF7FEFF 		bl	S25FL256_Disable
 244              	.LVL14:
 318:../../core/drivers/S25FL256/src/S25FL256.c **** 
 245              		.loc 1 318 5 view .LVU39
 320:../../core/drivers/S25FL256/src/S25FL256.c **** }
 246              		.loc 1 320 5 view .LVU40
 321:../../core/drivers/S25FL256/src/S25FL256.c **** 
 247              		.loc 1 321 1 is_stmt 0 view .LVU41
 248 0044 0020     		movs	r0, #0
 249 0046 38BD     		pop	{r3, r4, r5, pc}
 250              	.L16:
 251              		.align	2
 252              	.L15:
 253 0048 00000000 		.word	txData
 254 004c 00000000 		.word	flashSPI
 255 0050 00000000 		.word	rxData
 256              		.cfi_endproc
 257              	.LFE133:
 259              		.section	.text.S25FL256_isWriteInProgress,"ax",%progbits
 260              		.align	1
 261              		.global	S25FL256_isWriteInProgress
 262              		.syntax unified
 263              		.thumb
 264              		.thumb_func
 265              		.fpu fpv4-sp-d16
 267              	S25FL256_isWriteInProgress:
 268              	.LFB130:
 196:../../core/drivers/S25FL256/src/S25FL256.c ****     HAL_Delay(SPI_WAIT);
 269              		.loc 1 196 1 is_stmt 1 view -0
 270              		.cfi_startproc
 271              		@ args = 0, pretend = 0, frame = 0
 272              		@ frame_needed = 0, uses_anonymous_args = 0
 273 0000 08B5     		push	{r3, lr}
 274              	.LCFI4:
 275              		.cfi_def_cfa_offset 8
 276              		.cfi_offset 3, -8
 277              		.cfi_offset 14, -4
 197:../../core/drivers/S25FL256/src/S25FL256.c ****     uint8_t status;
 278              		.loc 1 197 5 view .LVU43
 279 0002 3220     		movs	r0, #50
 280 0004 FFF7FEFF 		bl	HAL_Delay
 281              	.LVL15:
 198:../../core/drivers/S25FL256/src/S25FL256.c ****     if (S25FL256_readReg(SPI_RDSR_CMD, status) == 0)
 282              		.loc 1 198 5 view .LVU44
 199:../../core/drivers/S25FL256/src/S25FL256.c ****     {
 283              		.loc 1 199 5 view .LVU45
 199:../../core/drivers/S25FL256/src/S25FL256.c ****     {
 284              		.loc 1 199 9 is_stmt 0 view .LVU46
ARM GAS  C:\Users\RUBENJ~1\AppData\Local\Temp\ccJ3OEkh.s 			page 14


 285 0008 0021     		movs	r1, #0
 286 000a 0520     		movs	r0, #5
 287 000c FFF7FEFF 		bl	S25FL256_readReg
 288              	.LVL16:
 199:../../core/drivers/S25FL256/src/S25FL256.c ****     {
 289              		.loc 1 199 8 view .LVU47
 290 0010 00B1     		cbz	r0, .L18
 204:../../core/drivers/S25FL256/src/S25FL256.c **** }
 291              		.loc 1 204 12 view .LVU48
 292 0012 0020     		movs	r0, #0
 293              	.L18:
 205:../../core/drivers/S25FL256/src/S25FL256.c **** 
 294              		.loc 1 205 1 view .LVU49
 295 0014 08BD     		pop	{r3, pc}
 296              		.cfi_endproc
 297              	.LFE130:
 299              		.section	.text.S25FL256_open,"ax",%progbits
 300              		.align	1
 301              		.global	S25FL256_open
 302              		.syntax unified
 303              		.thumb
 304              		.thumb_func
 305              		.fpu fpv4-sp-d16
 307              	S25FL256_open:
 308              	.LVL17:
 309              	.LFB127:
  75:../../core/drivers/S25FL256/src/S25FL256.c ****     HAL_Delay(SPI_WAIT);
 310              		.loc 1 75 1 is_stmt 1 view -0
 311              		.cfi_startproc
 312              		@ args = 0, pretend = 0, frame = 0
 313              		@ frame_needed = 0, uses_anonymous_args = 0
  75:../../core/drivers/S25FL256/src/S25FL256.c ****     HAL_Delay(SPI_WAIT);
 314              		.loc 1 75 1 is_stmt 0 view .LVU51
 315 0000 10B5     		push	{r4, lr}
 316              	.LCFI5:
 317              		.cfi_def_cfa_offset 8
 318              		.cfi_offset 4, -8
 319              		.cfi_offset 14, -4
 320 0002 0446     		mov	r4, r0
  76:../../core/drivers/S25FL256/src/S25FL256.c **** 
 321              		.loc 1 76 5 is_stmt 1 view .LVU52
 322 0004 3220     		movs	r0, #50
 323              	.LVL18:
  76:../../core/drivers/S25FL256/src/S25FL256.c **** 
 324              		.loc 1 76 5 is_stmt 0 view .LVU53
 325 0006 FFF7FEFF 		bl	HAL_Delay
 326              	.LVL19:
  78:../../core/drivers/S25FL256/src/S25FL256.c ****     {
 327              		.loc 1 78 5 is_stmt 1 view .LVU54
  78:../../core/drivers/S25FL256/src/S25FL256.c ****     {
 328              		.loc 1 78 9 is_stmt 0 view .LVU55
 329 000a FFF7FEFF 		bl	S25FL256_isWriteInProgress
 330              	.LVL20:
  78:../../core/drivers/S25FL256/src/S25FL256.c ****     {
 331              		.loc 1 78 8 view .LVU56
 332 000e 50B9     		cbnz	r0, .L23
  83:../../core/drivers/S25FL256/src/S25FL256.c ****     {
ARM GAS  C:\Users\RUBENJ~1\AppData\Local\Temp\ccJ3OEkh.s 			page 15


 333              		.loc 1 83 5 is_stmt 1 view .LVU57
  83:../../core/drivers/S25FL256/src/S25FL256.c ****     {
 334              		.loc 1 83 8 is_stmt 0 view .LVU58
 335 0010 084B     		ldr	r3, .L26
 336 0012 9C42     		cmp	r4, r3
 337 0014 0AD8     		bhi	.L24
  88:../../core/drivers/S25FL256/src/S25FL256.c ****     mCurrentReadAddress = newAddress;
 338              		.loc 1 88 5 is_stmt 1 view .LVU59
  88:../../core/drivers/S25FL256/src/S25FL256.c ****     mCurrentReadAddress = newAddress;
 339              		.loc 1 88 47 is_stmt 0 view .LVU60
 340 0016 04F54054 		add	r4, r4, #12288
 341              	.LVL21:
  88:../../core/drivers/S25FL256/src/S25FL256.c ****     mCurrentReadAddress = newAddress;
 342              		.loc 1 88 14 view .LVU61
 343 001a 2402     		lsls	r4, r4, #8
 344              	.LVL22:
  89:../../core/drivers/S25FL256/src/S25FL256.c ****     mCurrentWriteAddress = newAddress;
 345              		.loc 1 89 5 is_stmt 1 view .LVU62
  89:../../core/drivers/S25FL256/src/S25FL256.c ****     mCurrentWriteAddress = newAddress;
 346              		.loc 1 89 25 is_stmt 0 view .LVU63
 347 001c 064B     		ldr	r3, .L26+4
 348 001e 1C60     		str	r4, [r3]
  90:../../core/drivers/S25FL256/src/S25FL256.c **** 
 349              		.loc 1 90 5 is_stmt 1 view .LVU64
  90:../../core/drivers/S25FL256/src/S25FL256.c **** 
 350              		.loc 1 90 26 is_stmt 0 view .LVU65
 351 0020 064B     		ldr	r3, .L26+8
 352 0022 1C60     		str	r4, [r3]
  92:../../core/drivers/S25FL256/src/S25FL256.c **** }
 353              		.loc 1 92 5 is_stmt 1 view .LVU66
 354              	.LVL23:
 355              	.L21:
  93:../../core/drivers/S25FL256/src/S25FL256.c **** 
 356              		.loc 1 93 1 is_stmt 0 view .LVU67
 357 0024 10BD     		pop	{r4, pc}
 358              	.LVL24:
 359              	.L23:
  80:../../core/drivers/S25FL256/src/S25FL256.c ****     }
 360              		.loc 1 80 16 view .LVU68
 361 0026 6FF00100 		mvn	r0, #1
 362 002a FBE7     		b	.L21
 363              	.L24:
  85:../../core/drivers/S25FL256/src/S25FL256.c ****     }
 364              		.loc 1 85 16 view .LVU69
 365 002c 6FF00300 		mvn	r0, #3
 366 0030 F8E7     		b	.L21
 367              	.L27:
 368 0032 00BF     		.align	2
 369              	.L26:
 370 0034 47B80100 		.word	112711
 371 0038 00000000 		.word	mCurrentReadAddress
 372 003c 00000000 		.word	mCurrentWriteAddress
 373              		.cfi_endproc
 374              	.LFE127:
 376              		.section	.text.S25FL256_send4BCommand,"ax",%progbits
 377              		.align	1
 378              		.global	S25FL256_send4BCommand
ARM GAS  C:\Users\RUBENJ~1\AppData\Local\Temp\ccJ3OEkh.s 			page 16


 379              		.syntax unified
 380              		.thumb
 381              		.thumb_func
 382              		.fpu fpv4-sp-d16
 384              	S25FL256_send4BCommand:
 385              	.LVL25:
 386              	.LFB136:
 408:../../core/drivers/S25FL256/src/S25FL256.c **** 
 387              		.loc 1 408 1 is_stmt 1 view -0
 388              		.cfi_startproc
 389              		@ args = 0, pretend = 0, frame = 0
 390              		@ frame_needed = 0, uses_anonymous_args = 0
 408:../../core/drivers/S25FL256/src/S25FL256.c **** 
 391              		.loc 1 408 1 is_stmt 0 view .LVU71
 392 0000 70B5     		push	{r4, r5, r6, lr}
 393              	.LCFI6:
 394              		.cfi_def_cfa_offset 16
 395              		.cfi_offset 4, -16
 396              		.cfi_offset 5, -12
 397              		.cfi_offset 6, -8
 398              		.cfi_offset 14, -4
 399 0002 0646     		mov	r6, r0
 400 0004 0D46     		mov	r5, r1
 410:../../core/drivers/S25FL256/src/S25FL256.c ****     {
 401              		.loc 1 410 5 is_stmt 1 view .LVU72
 410:../../core/drivers/S25FL256/src/S25FL256.c ****     {
 402              		.loc 1 410 9 is_stmt 0 view .LVU73
 403 0006 FFF7FEFF 		bl	S25FL256_isWriteInProgress
 404              	.LVL26:
 410:../../core/drivers/S25FL256/src/S25FL256.c ****     {
 405              		.loc 1 410 8 view .LVU74
 406 000a E0B9     		cbnz	r0, .L30
 415:../../core/drivers/S25FL256/src/S25FL256.c ****     txData[index++] = command;
 407              		.loc 1 415 5 is_stmt 1 view .LVU75
 408              	.LVL27:
 416:../../core/drivers/S25FL256/src/S25FL256.c **** 
 409              		.loc 1 416 5 view .LVU76
 416:../../core/drivers/S25FL256/src/S25FL256.c **** 
 410              		.loc 1 416 21 is_stmt 0 view .LVU77
 411 000c 0F4C     		ldr	r4, .L32
 412 000e 2670     		strb	r6, [r4]
 419:../../core/drivers/S25FL256/src/S25FL256.c ****     txData[index++] = (uint8_t)((address >> 16) & 0x000000FF);
 413              		.loc 1 419 5 is_stmt 1 view .LVU78
 414              	.LVL28:
 419:../../core/drivers/S25FL256/src/S25FL256.c ****     txData[index++] = (uint8_t)((address >> 16) & 0x000000FF);
 415              		.loc 1 419 23 is_stmt 0 view .LVU79
 416 0010 2B0E     		lsrs	r3, r5, #24
 419:../../core/drivers/S25FL256/src/S25FL256.c ****     txData[index++] = (uint8_t)((address >> 16) & 0x000000FF);
 417              		.loc 1 419 21 view .LVU80
 418 0012 6370     		strb	r3, [r4, #1]
 420:../../core/drivers/S25FL256/src/S25FL256.c ****     txData[index++] = (uint8_t)((address >> 8) & 0x000000FF);
 419              		.loc 1 420 5 is_stmt 1 view .LVU81
 420              	.LVL29:
 420:../../core/drivers/S25FL256/src/S25FL256.c ****     txData[index++] = (uint8_t)((address >> 8) & 0x000000FF);
 421              		.loc 1 420 23 is_stmt 0 view .LVU82
 422 0014 C5F30743 		ubfx	r3, r5, #16, #8
 420:../../core/drivers/S25FL256/src/S25FL256.c ****     txData[index++] = (uint8_t)((address >> 8) & 0x000000FF);
ARM GAS  C:\Users\RUBENJ~1\AppData\Local\Temp\ccJ3OEkh.s 			page 17


 423              		.loc 1 420 21 view .LVU83
 424 0018 A370     		strb	r3, [r4, #2]
 421:../../core/drivers/S25FL256/src/S25FL256.c ****     txData[index++] = (uint8_t)(address & 0x000000FF);
 425              		.loc 1 421 5 is_stmt 1 view .LVU84
 426              	.LVL30:
 421:../../core/drivers/S25FL256/src/S25FL256.c ****     txData[index++] = (uint8_t)(address & 0x000000FF);
 427              		.loc 1 421 23 is_stmt 0 view .LVU85
 428 001a C5F30723 		ubfx	r3, r5, #8, #8
 421:../../core/drivers/S25FL256/src/S25FL256.c ****     txData[index++] = (uint8_t)(address & 0x000000FF);
 429              		.loc 1 421 21 view .LVU86
 430 001e E370     		strb	r3, [r4, #3]
 422:../../core/drivers/S25FL256/src/S25FL256.c **** 
 431              		.loc 1 422 5 is_stmt 1 view .LVU87
 432              	.LVL31:
 422:../../core/drivers/S25FL256/src/S25FL256.c **** 
 433              		.loc 1 422 21 is_stmt 0 view .LVU88
 434 0020 2571     		strb	r5, [r4, #4]
 426:../../core/drivers/S25FL256/src/S25FL256.c ****     S25FL256_Enable();
 435              		.loc 1 426 5 is_stmt 1 view .LVU89
 436 0022 0B4D     		ldr	r5, .L32+4
 437              	.LVL32:
 426:../../core/drivers/S25FL256/src/S25FL256.c ****     S25FL256_Enable();
 438              		.loc 1 426 5 is_stmt 0 view .LVU90
 439 0024 2B68     		ldr	r3, [r5]
 440 0026 1A68     		ldr	r2, [r3]
 441 0028 1368     		ldr	r3, [r2]
 442 002a 43F04003 		orr	r3, r3, #64
 443 002e 1360     		str	r3, [r2]
 427:../../core/drivers/S25FL256/src/S25FL256.c **** 
 444              		.loc 1 427 5 is_stmt 1 view .LVU91
 445 0030 FFF7FEFF 		bl	S25FL256_Enable
 446              	.LVL33:
 430:../../core/drivers/S25FL256/src/S25FL256.c **** 
 447              		.loc 1 430 5 view .LVU92
 448 0034 4FF0FF33 		mov	r3, #-1
 449 0038 0522     		movs	r2, #5
 450 003a 2146     		mov	r1, r4
 451 003c 2868     		ldr	r0, [r5]
 452 003e FFF7FEFF 		bl	HAL_SPI_Transmit
 453              	.LVL34:
 432:../../core/drivers/S25FL256/src/S25FL256.c **** }
 454              		.loc 1 432 5 view .LVU93
 432:../../core/drivers/S25FL256/src/S25FL256.c **** }
 455              		.loc 1 432 12 is_stmt 0 view .LVU94
 456 0042 0020     		movs	r0, #0
 457              	.LVL35:
 458              	.L28:
 433:../../core/drivers/S25FL256/src/S25FL256.c **** 
 459              		.loc 1 433 1 view .LVU95
 460 0044 70BD     		pop	{r4, r5, r6, pc}
 461              	.LVL36:
 462              	.L30:
 412:../../core/drivers/S25FL256/src/S25FL256.c ****     }
 463              		.loc 1 412 16 view .LVU96
 464 0046 6FF00100 		mvn	r0, #1
 465 004a FBE7     		b	.L28
 466              	.L33:
ARM GAS  C:\Users\RUBENJ~1\AppData\Local\Temp\ccJ3OEkh.s 			page 18


 467              		.align	2
 468              	.L32:
 469 004c 00000000 		.word	txData
 470 0050 00000000 		.word	flashSPI
 471              		.cfi_endproc
 472              	.LFE136:
 474              		.section	.text.S25FL256_read,"ax",%progbits
 475              		.align	1
 476              		.global	S25FL256_read
 477              		.syntax unified
 478              		.thumb
 479              		.thumb_func
 480              		.fpu fpv4-sp-d16
 482              	S25FL256_read:
 483              	.LVL37:
 484              	.LFB128:
 104:../../core/drivers/S25FL256/src/S25FL256.c **** 
 485              		.loc 1 104 1 is_stmt 1 view -0
 486              		.cfi_startproc
 487              		@ args = 0, pretend = 0, frame = 0
 488              		@ frame_needed = 0, uses_anonymous_args = 0
 104:../../core/drivers/S25FL256/src/S25FL256.c **** 
 489              		.loc 1 104 1 is_stmt 0 view .LVU98
 490 0000 38B5     		push	{r3, r4, r5, lr}
 491              	.LCFI7:
 492              		.cfi_def_cfa_offset 16
 493              		.cfi_offset 3, -16
 494              		.cfi_offset 4, -12
 495              		.cfi_offset 5, -8
 496              		.cfi_offset 14, -4
 497 0002 0546     		mov	r5, r0
 498 0004 0C46     		mov	r4, r1
 106:../../core/drivers/S25FL256/src/S25FL256.c **** 
 499              		.loc 1 106 5 is_stmt 1 view .LVU99
 500 0006 3220     		movs	r0, #50
 501              	.LVL38:
 106:../../core/drivers/S25FL256/src/S25FL256.c **** 
 502              		.loc 1 106 5 is_stmt 0 view .LVU100
 503 0008 FFF7FEFF 		bl	HAL_Delay
 504              	.LVL39:
 108:../../core/drivers/S25FL256/src/S25FL256.c ****     {
 505              		.loc 1 108 5 is_stmt 1 view .LVU101
 108:../../core/drivers/S25FL256/src/S25FL256.c ****     {
 506              		.loc 1 108 9 is_stmt 0 view .LVU102
 507 000c FFF7FEFF 		bl	S25FL256_isWriteInProgress
 508              	.LVL40:
 108:../../core/drivers/S25FL256/src/S25FL256.c ****     {
 509              		.loc 1 108 8 view .LVU103
 510 0010 98B9     		cbnz	r0, .L36
 114:../../core/drivers/S25FL256/src/S25FL256.c ****     {
 511              		.loc 1 114 5 is_stmt 1 view .LVU104
 114:../../core/drivers/S25FL256/src/S25FL256.c ****     {
 512              		.loc 1 114 9 is_stmt 0 view .LVU105
 513 0012 0B4B     		ldr	r3, .L38
 514 0014 1968     		ldr	r1, [r3]
 515 0016 1320     		movs	r0, #19
 516 0018 FFF7FEFF 		bl	S25FL256_send4BCommand
ARM GAS  C:\Users\RUBENJ~1\AppData\Local\Temp\ccJ3OEkh.s 			page 19


 517              	.LVL41:
 114:../../core/drivers/S25FL256/src/S25FL256.c ****     {
 518              		.loc 1 114 8 view .LVU106
 519 001c 10F1030F 		cmn	r0, #3
 520 0020 0AD0     		beq	.L34
 119:../../core/drivers/S25FL256/src/S25FL256.c **** 
 521              		.loc 1 119 5 is_stmt 1 view .LVU107
 522 0022 4FF0FF33 		mov	r3, #-1
 523 0026 A2B2     		uxth	r2, r4
 524 0028 2946     		mov	r1, r5
 525 002a 0648     		ldr	r0, .L38+4
 526 002c 0068     		ldr	r0, [r0]
 527 002e FFF7FEFF 		bl	HAL_SPI_Receive
 528              	.LVL42:
 122:../../core/drivers/S25FL256/src/S25FL256.c **** 
 529              		.loc 1 122 5 view .LVU108
 530 0032 FFF7FEFF 		bl	S25FL256_Disable
 531              	.LVL43:
 124:../../core/drivers/S25FL256/src/S25FL256.c **** }
 532              		.loc 1 124 5 view .LVU109
 124:../../core/drivers/S25FL256/src/S25FL256.c **** }
 533              		.loc 1 124 12 is_stmt 0 view .LVU110
 534 0036 2046     		mov	r0, r4
 535              	.L34:
 125:../../core/drivers/S25FL256/src/S25FL256.c **** 
 536              		.loc 1 125 1 view .LVU111
 537 0038 38BD     		pop	{r3, r4, r5, pc}
 538              	.LVL44:
 539              	.L36:
 110:../../core/drivers/S25FL256/src/S25FL256.c ****     }
 540              		.loc 1 110 16 view .LVU112
 541 003a 6FF00100 		mvn	r0, #1
 542 003e FBE7     		b	.L34
 543              	.L39:
 544              		.align	2
 545              	.L38:
 546 0040 00000000 		.word	mCurrentReadAddress
 547 0044 00000000 		.word	flashSPI
 548              		.cfi_endproc
 549              	.LFE128:
 551              		.section	.text.S25FL256_sendCommand,"ax",%progbits
 552              		.align	1
 553              		.global	S25FL256_sendCommand
 554              		.syntax unified
 555              		.thumb
 556              		.thumb_func
 557              		.fpu fpv4-sp-d16
 559              	S25FL256_sendCommand:
 560              	.LVL45:
 561              	.LFB135:
 379:../../core/drivers/S25FL256/src/S25FL256.c **** 
 562              		.loc 1 379 1 is_stmt 1 view -0
 563              		.cfi_startproc
 564              		@ args = 0, pretend = 0, frame = 0
 565              		@ frame_needed = 0, uses_anonymous_args = 0
 379:../../core/drivers/S25FL256/src/S25FL256.c **** 
 566              		.loc 1 379 1 is_stmt 0 view .LVU114
ARM GAS  C:\Users\RUBENJ~1\AppData\Local\Temp\ccJ3OEkh.s 			page 20


 567 0000 38B5     		push	{r3, r4, r5, lr}
 568              	.LCFI8:
 569              		.cfi_def_cfa_offset 16
 570              		.cfi_offset 3, -16
 571              		.cfi_offset 4, -12
 572              		.cfi_offset 5, -8
 573              		.cfi_offset 14, -4
 574 0002 0446     		mov	r4, r0
 381:../../core/drivers/S25FL256/src/S25FL256.c ****     {
 575              		.loc 1 381 5 is_stmt 1 view .LVU115
 381:../../core/drivers/S25FL256/src/S25FL256.c ****     {
 576              		.loc 1 381 9 is_stmt 0 view .LVU116
 577 0004 FFF7FEFF 		bl	S25FL256_isWriteInProgress
 578              	.LVL46:
 381:../../core/drivers/S25FL256/src/S25FL256.c ****     {
 579              		.loc 1 381 8 view .LVU117
 580 0008 D8B9     		cbnz	r0, .L42
 386:../../core/drivers/S25FL256/src/S25FL256.c **** 
 581              		.loc 1 386 5 is_stmt 1 view .LVU118
 386:../../core/drivers/S25FL256/src/S25FL256.c **** 
 582              		.loc 1 386 15 is_stmt 0 view .LVU119
 583 000a 0F4D     		ldr	r5, .L44
 584 000c 2C70     		strb	r4, [r5]
 388:../../core/drivers/S25FL256/src/S25FL256.c ****     S25FL256_Enable();
 585              		.loc 1 388 5 is_stmt 1 view .LVU120
 586 000e 0F4C     		ldr	r4, .L44+4
 587 0010 2368     		ldr	r3, [r4]
 588 0012 1A68     		ldr	r2, [r3]
 589 0014 1368     		ldr	r3, [r2]
 590 0016 43F04003 		orr	r3, r3, #64
 591 001a 1360     		str	r3, [r2]
 389:../../core/drivers/S25FL256/src/S25FL256.c **** 
 592              		.loc 1 389 5 view .LVU121
 593 001c FFF7FEFF 		bl	S25FL256_Enable
 594              	.LVL47:
 391:../../core/drivers/S25FL256/src/S25FL256.c **** 
 595              		.loc 1 391 5 view .LVU122
 596 0020 4FF0FF33 		mov	r3, #-1
 597 0024 0122     		movs	r2, #1
 598 0026 2946     		mov	r1, r5
 599 0028 2068     		ldr	r0, [r4]
 600 002a FFF7FEFF 		bl	HAL_SPI_Transmit
 601              	.LVL48:
 393:../../core/drivers/S25FL256/src/S25FL256.c ****     S25FL256_Disable();
 602              		.loc 1 393 5 view .LVU123
 603 002e 2368     		ldr	r3, [r4]
 604 0030 1A68     		ldr	r2, [r3]
 605 0032 1368     		ldr	r3, [r2]
 606 0034 23F04003 		bic	r3, r3, #64
 607 0038 1360     		str	r3, [r2]
 394:../../core/drivers/S25FL256/src/S25FL256.c **** 
 608              		.loc 1 394 5 view .LVU124
 609 003a FFF7FEFF 		bl	S25FL256_Disable
 610              	.LVL49:
 396:../../core/drivers/S25FL256/src/S25FL256.c **** }
 611              		.loc 1 396 5 view .LVU125
 396:../../core/drivers/S25FL256/src/S25FL256.c **** }
ARM GAS  C:\Users\RUBENJ~1\AppData\Local\Temp\ccJ3OEkh.s 			page 21


 612              		.loc 1 396 12 is_stmt 0 view .LVU126
 613 003e 0020     		movs	r0, #0
 614              	.L40:
 397:../../core/drivers/S25FL256/src/S25FL256.c **** 
 615              		.loc 1 397 1 view .LVU127
 616 0040 38BD     		pop	{r3, r4, r5, pc}
 617              	.L42:
 383:../../core/drivers/S25FL256/src/S25FL256.c ****     }
 618              		.loc 1 383 16 view .LVU128
 619 0042 6FF00100 		mvn	r0, #1
 620 0046 FBE7     		b	.L40
 621              	.L45:
 622              		.align	2
 623              	.L44:
 624 0048 00000000 		.word	txData
 625 004c 00000000 		.word	flashSPI
 626              		.cfi_endproc
 627              	.LFE135:
 629              		.section	.text.S25FL256_eraseFullFlash,"ax",%progbits
 630              		.align	1
 631              		.global	S25FL256_eraseFullFlash
 632              		.syntax unified
 633              		.thumb
 634              		.thumb_func
 635              		.fpu fpv4-sp-d16
 637              	S25FL256_eraseFullFlash:
 638              	.LFB131:
 215:../../core/drivers/S25FL256/src/S25FL256.c **** 
 639              		.loc 1 215 1 is_stmt 1 view -0
 640              		.cfi_startproc
 641              		@ args = 0, pretend = 0, frame = 0
 642              		@ frame_needed = 0, uses_anonymous_args = 0
 643 0000 08B5     		push	{r3, lr}
 644              	.LCFI9:
 645              		.cfi_def_cfa_offset 8
 646              		.cfi_offset 3, -8
 647              		.cfi_offset 14, -4
 217:../../core/drivers/S25FL256/src/S25FL256.c **** 
 648              		.loc 1 217 5 view .LVU130
 649 0002 3220     		movs	r0, #50
 650 0004 FFF7FEFF 		bl	HAL_Delay
 651              	.LVL50:
 219:../../core/drivers/S25FL256/src/S25FL256.c ****     {
 652              		.loc 1 219 5 view .LVU131
 219:../../core/drivers/S25FL256/src/S25FL256.c ****     {
 653              		.loc 1 219 9 is_stmt 0 view .LVU132
 654 0008 FFF7FEFF 		bl	S25FL256_isWriteInProgress
 655              	.LVL51:
 219:../../core/drivers/S25FL256/src/S25FL256.c ****     {
 656              		.loc 1 219 8 view .LVU133
 657 000c 98B9     		cbnz	r0, .L48
 225:../../core/drivers/S25FL256/src/S25FL256.c ****     {
 658              		.loc 1 225 5 is_stmt 1 view .LVU134
 225:../../core/drivers/S25FL256/src/S25FL256.c ****     {
 659              		.loc 1 225 9 is_stmt 0 view .LVU135
 660 000e 0620     		movs	r0, #6
 661 0010 FFF7FEFF 		bl	S25FL256_sendCommand
ARM GAS  C:\Users\RUBENJ~1\AppData\Local\Temp\ccJ3OEkh.s 			page 22


 662              	.LVL52:
 225:../../core/drivers/S25FL256/src/S25FL256.c ****     {
 663              		.loc 1 225 8 view .LVU136
 664 0014 10F1030F 		cmn	r0, #3
 665 0018 0CD0     		beq	.L46
 231:../../core/drivers/S25FL256/src/S25FL256.c ****     {
 666              		.loc 1 231 5 is_stmt 1 view .LVU137
 231:../../core/drivers/S25FL256/src/S25FL256.c ****     {
 667              		.loc 1 231 9 is_stmt 0 view .LVU138
 668 001a 6020     		movs	r0, #96
 669 001c FFF7FEFF 		bl	S25FL256_sendCommand
 670              	.LVL53:
 231:../../core/drivers/S25FL256/src/S25FL256.c ****     {
 671              		.loc 1 231 8 view .LVU139
 672 0020 10F1030F 		cmn	r0, #3
 673 0024 06D0     		beq	.L46
 237:../../core/drivers/S25FL256/src/S25FL256.c ****     {
 674              		.loc 1 237 5 is_stmt 1 view .LVU140
 237:../../core/drivers/S25FL256/src/S25FL256.c ****     {
 675              		.loc 1 237 9 is_stmt 0 view .LVU141
 676 0026 0420     		movs	r0, #4
 677 0028 FFF7FEFF 		bl	S25FL256_sendCommand
 678              	.LVL54:
 237:../../core/drivers/S25FL256/src/S25FL256.c ****     {
 679              		.loc 1 237 8 view .LVU142
 680 002c 10F1030F 		cmn	r0, #3
 681 0030 00D0     		beq	.L46
 242:../../core/drivers/S25FL256/src/S25FL256.c **** }
 682              		.loc 1 242 12 view .LVU143
 683 0032 0020     		movs	r0, #0
 684              	.L46:
 243:../../core/drivers/S25FL256/src/S25FL256.c **** 
 685              		.loc 1 243 1 view .LVU144
 686 0034 08BD     		pop	{r3, pc}
 687              	.L48:
 221:../../core/drivers/S25FL256/src/S25FL256.c ****     }
 688              		.loc 1 221 16 view .LVU145
 689 0036 6FF00100 		mvn	r0, #1
 690 003a FBE7     		b	.L46
 691              		.cfi_endproc
 692              	.LFE131:
 694              		.section	.text.S25FL256_eraseSectorFromBlock,"ax",%progbits
 695              		.align	1
 696              		.global	S25FL256_eraseSectorFromBlock
 697              		.syntax unified
 698              		.thumb
 699              		.thumb_func
 700              		.fpu fpv4-sp-d16
 702              	S25FL256_eraseSectorFromBlock:
 703              	.LVL55:
 704              	.LFB132:
 255:../../core/drivers/S25FL256/src/S25FL256.c **** 
 705              		.loc 1 255 1 is_stmt 1 view -0
 706              		.cfi_startproc
 707              		@ args = 0, pretend = 0, frame = 0
 708              		@ frame_needed = 0, uses_anonymous_args = 0
 255:../../core/drivers/S25FL256/src/S25FL256.c **** 
ARM GAS  C:\Users\RUBENJ~1\AppData\Local\Temp\ccJ3OEkh.s 			page 23


 709              		.loc 1 255 1 is_stmt 0 view .LVU147
 710 0000 10B5     		push	{r4, lr}
 711              	.LCFI10:
 712              		.cfi_def_cfa_offset 8
 713              		.cfi_offset 4, -8
 714              		.cfi_offset 14, -4
 715 0002 0446     		mov	r4, r0
 257:../../core/drivers/S25FL256/src/S25FL256.c **** 
 716              		.loc 1 257 5 is_stmt 1 view .LVU148
 717 0004 3220     		movs	r0, #50
 718              	.LVL56:
 257:../../core/drivers/S25FL256/src/S25FL256.c **** 
 719              		.loc 1 257 5 is_stmt 0 view .LVU149
 720 0006 FFF7FEFF 		bl	HAL_Delay
 721              	.LVL57:
 259:../../core/drivers/S25FL256/src/S25FL256.c ****     {
 722              		.loc 1 259 5 is_stmt 1 view .LVU150
 259:../../core/drivers/S25FL256/src/S25FL256.c ****     {
 723              		.loc 1 259 9 is_stmt 0 view .LVU151
 724 000a FFF7FEFF 		bl	S25FL256_isWriteInProgress
 725              	.LVL58:
 259:../../core/drivers/S25FL256/src/S25FL256.c ****     {
 726              		.loc 1 259 8 view .LVU152
 727 000e 10BB     		cbnz	r0, .L52
 264:../../core/drivers/S25FL256/src/S25FL256.c ****     {
 728              		.loc 1 264 5 is_stmt 1 view .LVU153
 264:../../core/drivers/S25FL256/src/S25FL256.c ****     {
 729              		.loc 1 264 8 is_stmt 0 view .LVU154
 730 0010 144B     		ldr	r3, .L55
 731 0012 9C42     		cmp	r4, r3
 732 0014 22D8     		bhi	.L53
 270:../../core/drivers/S25FL256/src/S25FL256.c ****     {
 733              		.loc 1 270 5 is_stmt 1 view .LVU155
 270:../../core/drivers/S25FL256/src/S25FL256.c ****     {
 734              		.loc 1 270 9 is_stmt 0 view .LVU156
 735 0016 0620     		movs	r0, #6
 736 0018 FFF7FEFF 		bl	S25FL256_sendCommand
 737              	.LVL59:
 270:../../core/drivers/S25FL256/src/S25FL256.c ****     {
 738              		.loc 1 270 8 view .LVU157
 739 001c 10F1030F 		cmn	r0, #3
 740 0020 18D0     		beq	.L50
 276:../../core/drivers/S25FL256/src/S25FL256.c ****     {
 741              		.loc 1 276 5 is_stmt 1 view .LVU158
 276:../../core/drivers/S25FL256/src/S25FL256.c ****     {
 742              		.loc 1 276 9 is_stmt 0 view .LVU159
 743 0022 04F54051 		add	r1, r4, #12288
 744 0026 0902     		lsls	r1, r1, #8
 745 0028 DC20     		movs	r0, #220
 746 002a FFF7FEFF 		bl	S25FL256_send4BCommand
 747              	.LVL60:
 276:../../core/drivers/S25FL256/src/S25FL256.c ****     {
 748              		.loc 1 276 8 view .LVU160
 749 002e 10F1030F 		cmn	r0, #3
 750 0032 0FD0     		beq	.L50
 281:../../core/drivers/S25FL256/src/S25FL256.c ****     S25FL256_Disable();
 751              		.loc 1 281 5 is_stmt 1 view .LVU161
ARM GAS  C:\Users\RUBENJ~1\AppData\Local\Temp\ccJ3OEkh.s 			page 24


 752 0034 0C4B     		ldr	r3, .L55+4
 753 0036 1B68     		ldr	r3, [r3]
 754 0038 1A68     		ldr	r2, [r3]
 755 003a 1368     		ldr	r3, [r2]
 756 003c 23F04003 		bic	r3, r3, #64
 757 0040 1360     		str	r3, [r2]
 282:../../core/drivers/S25FL256/src/S25FL256.c **** 
 758              		.loc 1 282 5 view .LVU162
 759 0042 FFF7FEFF 		bl	S25FL256_Disable
 760              	.LVL61:
 285:../../core/drivers/S25FL256/src/S25FL256.c ****     {
 761              		.loc 1 285 5 view .LVU163
 285:../../core/drivers/S25FL256/src/S25FL256.c ****     {
 762              		.loc 1 285 9 is_stmt 0 view .LVU164
 763 0046 0420     		movs	r0, #4
 764 0048 FFF7FEFF 		bl	S25FL256_sendCommand
 765              	.LVL62:
 285:../../core/drivers/S25FL256/src/S25FL256.c ****     {
 766              		.loc 1 285 8 view .LVU165
 767 004c 10F1030F 		cmn	r0, #3
 768 0050 00D0     		beq	.L50
 290:../../core/drivers/S25FL256/src/S25FL256.c **** }
 769              		.loc 1 290 12 view .LVU166
 770 0052 0020     		movs	r0, #0
 771              	.L50:
 291:../../core/drivers/S25FL256/src/S25FL256.c **** 
 772              		.loc 1 291 1 view .LVU167
 773 0054 10BD     		pop	{r4, pc}
 774              	.LVL63:
 775              	.L52:
 261:../../core/drivers/S25FL256/src/S25FL256.c ****     }
 776              		.loc 1 261 16 view .LVU168
 777 0056 6FF00100 		mvn	r0, #1
 778 005a FBE7     		b	.L50
 779              	.L53:
 266:../../core/drivers/S25FL256/src/S25FL256.c ****     }
 780              		.loc 1 266 16 view .LVU169
 781 005c 6FF00300 		mvn	r0, #3
 782 0060 F8E7     		b	.L50
 783              	.L56:
 784 0062 00BF     		.align	2
 785              	.L55:
 786 0064 47B80100 		.word	112711
 787 0068 00000000 		.word	flashSPI
 788              		.cfi_endproc
 789              	.LFE132:
 791              		.section	.text.S25FL256_flush,"ax",%progbits
 792              		.align	1
 793              		.global	S25FL256_flush
 794              		.syntax unified
 795              		.thumb
 796              		.thumb_func
 797              		.fpu fpv4-sp-d16
 799              	S25FL256_flush:
 800              	.LFB134:
 331:../../core/drivers/S25FL256/src/S25FL256.c **** 
 801              		.loc 1 331 1 is_stmt 1 view -0
ARM GAS  C:\Users\RUBENJ~1\AppData\Local\Temp\ccJ3OEkh.s 			page 25


 802              		.cfi_startproc
 803              		@ args = 0, pretend = 0, frame = 0
 804              		@ frame_needed = 0, uses_anonymous_args = 0
 805 0000 08B5     		push	{r3, lr}
 806              	.LCFI11:
 807              		.cfi_def_cfa_offset 8
 808              		.cfi_offset 3, -8
 809              		.cfi_offset 14, -4
 333:../../core/drivers/S25FL256/src/S25FL256.c ****     {
 810              		.loc 1 333 5 view .LVU171
 333:../../core/drivers/S25FL256/src/S25FL256.c ****     {
 811              		.loc 1 333 9 is_stmt 0 view .LVU172
 812 0002 FFF7FEFF 		bl	S25FL256_isWriteInProgress
 813              	.LVL64:
 333:../../core/drivers/S25FL256/src/S25FL256.c ****     {
 814              		.loc 1 333 8 view .LVU173
 815 0006 68BB     		cbnz	r0, .L59
 339:../../core/drivers/S25FL256/src/S25FL256.c ****     {
 816              		.loc 1 339 5 is_stmt 1 view .LVU174
 339:../../core/drivers/S25FL256/src/S25FL256.c ****     {
 817              		.loc 1 339 9 is_stmt 0 view .LVU175
 818 0008 0620     		movs	r0, #6
 819 000a FFF7FEFF 		bl	S25FL256_sendCommand
 820              	.LVL65:
 339:../../core/drivers/S25FL256/src/S25FL256.c ****     {
 821              		.loc 1 339 8 view .LVU176
 822 000e 10F1030F 		cmn	r0, #3
 823 0012 26D0     		beq	.L57
 345:../../core/drivers/S25FL256/src/S25FL256.c ****     {
 824              		.loc 1 345 5 is_stmt 1 view .LVU177
 345:../../core/drivers/S25FL256/src/S25FL256.c ****     {
 825              		.loc 1 345 9 is_stmt 0 view .LVU178
 826 0014 154B     		ldr	r3, .L61
 827 0016 1968     		ldr	r1, [r3]
 828 0018 1220     		movs	r0, #18
 829 001a FFF7FEFF 		bl	S25FL256_send4BCommand
 830              	.LVL66:
 345:../../core/drivers/S25FL256/src/S25FL256.c ****     {
 831              		.loc 1 345 8 view .LVU179
 832 001e 10F1030F 		cmn	r0, #3
 833 0022 1ED0     		beq	.L57
 350:../../core/drivers/S25FL256/src/S25FL256.c **** 
 834              		.loc 1 350 5 is_stmt 1 view .LVU180
 835 0024 4FF0FF33 		mov	r3, #-1
 836 0028 4FF48072 		mov	r2, #256
 837 002c 1049     		ldr	r1, .L61+4
 838 002e 1148     		ldr	r0, .L61+8
 839 0030 0068     		ldr	r0, [r0]
 840 0032 FFF7FEFF 		bl	HAL_SPI_Transmit
 841              	.LVL67:
 353:../../core/drivers/S25FL256/src/S25FL256.c **** 
 842              		.loc 1 353 5 view .LVU181
 843 0036 FFF7FEFF 		bl	S25FL256_Disable
 844              	.LVL68:
 356:../../core/drivers/S25FL256/src/S25FL256.c ****     {
 845              		.loc 1 356 5 view .LVU182
 356:../../core/drivers/S25FL256/src/S25FL256.c ****     {
ARM GAS  C:\Users\RUBENJ~1\AppData\Local\Temp\ccJ3OEkh.s 			page 26


 846              		.loc 1 356 9 is_stmt 0 view .LVU183
 847 003a 0420     		movs	r0, #4
 848 003c FFF7FEFF 		bl	S25FL256_sendCommand
 849              	.LVL69:
 356:../../core/drivers/S25FL256/src/S25FL256.c ****     {
 850              		.loc 1 356 8 view .LVU184
 851 0040 10F1030F 		cmn	r0, #3
 852 0044 0DD0     		beq	.L57
 362:../../core/drivers/S25FL256/src/S25FL256.c **** 
 853              		.loc 1 362 5 is_stmt 1 view .LVU185
 362:../../core/drivers/S25FL256/src/S25FL256.c **** 
 854              		.loc 1 362 26 is_stmt 0 view .LVU186
 855 0046 094A     		ldr	r2, .L61
 856 0048 1368     		ldr	r3, [r2]
 857 004a 03F58073 		add	r3, r3, #256
 858 004e 1360     		str	r3, [r2]
 365:../../core/drivers/S25FL256/src/S25FL256.c ****     mMemBlockIndex = 0;
 859              		.loc 1 365 5 is_stmt 1 view .LVU187
 860 0050 4FF48072 		mov	r2, #256
 861 0054 0021     		movs	r1, #0
 862 0056 0648     		ldr	r0, .L61+4
 863 0058 FFF7FEFF 		bl	memset
 864              	.LVL70:
 366:../../core/drivers/S25FL256/src/S25FL256.c **** 
 865              		.loc 1 366 5 view .LVU188
 366:../../core/drivers/S25FL256/src/S25FL256.c **** 
 866              		.loc 1 366 20 is_stmt 0 view .LVU189
 867 005c 0020     		movs	r0, #0
 868 005e 064B     		ldr	r3, .L61+12
 869 0060 1880     		strh	r0, [r3]	@ movhi
 368:../../core/drivers/S25FL256/src/S25FL256.c **** }
 870              		.loc 1 368 5 is_stmt 1 view .LVU190
 871              	.L57:
 369:../../core/drivers/S25FL256/src/S25FL256.c **** 
 872              		.loc 1 369 1 is_stmt 0 view .LVU191
 873 0062 08BD     		pop	{r3, pc}
 874              	.L59:
 335:../../core/drivers/S25FL256/src/S25FL256.c ****     }
 875              		.loc 1 335 16 view .LVU192
 876 0064 6FF00100 		mvn	r0, #1
 877 0068 FBE7     		b	.L57
 878              	.L62:
 879 006a 00BF     		.align	2
 880              	.L61:
 881 006c 00000000 		.word	mCurrentWriteAddress
 882 0070 00000000 		.word	mMemBlock
 883 0074 00000000 		.word	flashSPI
 884 0078 00000000 		.word	mMemBlockIndex
 885              		.cfi_endproc
 886              	.LFE134:
 888              		.section	.text.S25FL256_write,"ax",%progbits
 889              		.align	1
 890              		.global	S25FL256_write
 891              		.syntax unified
 892              		.thumb
 893              		.thumb_func
 894              		.fpu fpv4-sp-d16
ARM GAS  C:\Users\RUBENJ~1\AppData\Local\Temp\ccJ3OEkh.s 			page 27


 896              	S25FL256_write:
 897              	.LVL71:
 898              	.LFB129:
 137:../../core/drivers/S25FL256/src/S25FL256.c **** 
 899              		.loc 1 137 1 is_stmt 1 view -0
 900              		.cfi_startproc
 901              		@ args = 0, pretend = 0, frame = 0
 902              		@ frame_needed = 0, uses_anonymous_args = 0
 137:../../core/drivers/S25FL256/src/S25FL256.c **** 
 903              		.loc 1 137 1 is_stmt 0 view .LVU194
 904 0000 F8B5     		push	{r3, r4, r5, r6, r7, lr}
 905              	.LCFI12:
 906              		.cfi_def_cfa_offset 24
 907              		.cfi_offset 3, -24
 908              		.cfi_offset 4, -20
 909              		.cfi_offset 5, -16
 910              		.cfi_offset 6, -12
 911              		.cfi_offset 7, -8
 912              		.cfi_offset 14, -4
 913 0002 0546     		mov	r5, r0
 914 0004 0F46     		mov	r7, r1
 139:../../core/drivers/S25FL256/src/S25FL256.c **** 
 915              		.loc 1 139 5 is_stmt 1 view .LVU195
 916 0006 3220     		movs	r0, #50
 917              	.LVL72:
 139:../../core/drivers/S25FL256/src/S25FL256.c **** 
 918              		.loc 1 139 5 is_stmt 0 view .LVU196
 919 0008 FFF7FEFF 		bl	HAL_Delay
 920              	.LVL73:
 141:../../core/drivers/S25FL256/src/S25FL256.c ****     {
 921              		.loc 1 141 5 is_stmt 1 view .LVU197
 141:../../core/drivers/S25FL256/src/S25FL256.c ****     {
 922              		.loc 1 141 9 is_stmt 0 view .LVU198
 923 000c FFF7FEFF 		bl	S25FL256_isWriteInProgress
 924              	.LVL74:
 141:../../core/drivers/S25FL256/src/S25FL256.c ****     {
 925              		.loc 1 141 8 view .LVU199
 926 0010 50BB     		cbnz	r0, .L68
 146:../../core/drivers/S25FL256/src/S25FL256.c ****     {
 927              		.loc 1 146 5 is_stmt 1 view .LVU200
 146:../../core/drivers/S25FL256/src/S25FL256.c ****     {
 928              		.loc 1 146 30 is_stmt 0 view .LVU201
 929 0012 1A4B     		ldr	r3, .L74
 930 0014 1A68     		ldr	r2, [r3]
 146:../../core/drivers/S25FL256/src/S25FL256.c ****     {
 931              		.loc 1 146 8 view .LVU202
 932 0016 1A4B     		ldr	r3, .L74+4
 933 0018 9A42     		cmp	r2, r3
 934 001a 28D8     		bhi	.L69
 151:../../core/drivers/S25FL256/src/S25FL256.c **** 
 935              		.loc 1 151 14 view .LVU203
 936 001c 3C46     		mov	r4, r7
 937              	.L65:
 938              	.LVL75:
 153:../../core/drivers/S25FL256/src/S25FL256.c ****     {
 939              		.loc 1 153 27 view .LVU204
 940 001e 194B     		ldr	r3, .L74+8
ARM GAS  C:\Users\RUBENJ~1\AppData\Local\Temp\ccJ3OEkh.s 			page 28


 941 0020 1B88     		ldrh	r3, [r3]
 942 0022 1A19     		adds	r2, r3, r4
 153:../../core/drivers/S25FL256/src/S25FL256.c ****     {
 943              		.loc 1 153 11 view .LVU205
 944 0024 FF2A     		cmp	r2, #255
 945 0026 0FD9     		bls	.L72
 946              	.LBB2:
 157:../../core/drivers/S25FL256/src/S25FL256.c **** 
 947              		.loc 1 157 9 is_stmt 1 view .LVU206
 157:../../core/drivers/S25FL256/src/S25FL256.c **** 
 948              		.loc 1 157 50 is_stmt 0 view .LVU207
 949 0028 C3F58076 		rsb	r6, r3, #256
 950              	.LVL76:
 160:../../core/drivers/S25FL256/src/S25FL256.c **** 
 951              		.loc 1 160 9 is_stmt 1 view .LVU208
 952 002c 4FF48072 		mov	r2, #256
 953 0030 2946     		mov	r1, r5
 954 0032 1548     		ldr	r0, .L74+12
 955 0034 1844     		add	r0, r0, r3
 956 0036 FFF7FEFF 		bl	memcpy
 957              	.LVL77:
 162:../../core/drivers/S25FL256/src/S25FL256.c **** 
 958              		.loc 1 162 9 view .LVU209
 162:../../core/drivers/S25FL256/src/S25FL256.c **** 
 959              		.loc 1 162 28 is_stmt 0 view .LVU210
 960 003a FFF7FEFF 		bl	S25FL256_flush
 961              	.LVL78:
 165:../../core/drivers/S25FL256/src/S25FL256.c ****         {
 962              		.loc 1 165 9 is_stmt 1 view .LVU211
 165:../../core/drivers/S25FL256/src/S25FL256.c ****         {
 963              		.loc 1 165 12 is_stmt 0 view .LVU212
 964 003e 0028     		cmp	r0, #0
 165:../../core/drivers/S25FL256/src/S25FL256.c ****         {
 965              		.loc 1 165 12 view .LVU213
 966 0040 09DB     		blt	.L63
 172:../../core/drivers/S25FL256/src/S25FL256.c ****         bytesLeftToWrite -= bytesToWrite;
 967              		.loc 1 172 9 is_stmt 1 view .LVU214
 172:../../core/drivers/S25FL256/src/S25FL256.c ****         bytesLeftToWrite -= bytesToWrite;
 968              		.loc 1 172 16 is_stmt 0 view .LVU215
 969 0042 3544     		add	r5, r5, r6
 970              	.LVL79:
 173:../../core/drivers/S25FL256/src/S25FL256.c ****     }
 971              		.loc 1 173 9 is_stmt 1 view .LVU216
 173:../../core/drivers/S25FL256/src/S25FL256.c ****     }
 972              		.loc 1 173 26 is_stmt 0 view .LVU217
 973 0044 A41B     		subs	r4, r4, r6
 974              	.LVL80:
 173:../../core/drivers/S25FL256/src/S25FL256.c ****     }
 975              		.loc 1 173 26 view .LVU218
 976 0046 EAE7     		b	.L65
 977              	.LVL81:
 978              	.L72:
 173:../../core/drivers/S25FL256/src/S25FL256.c ****     }
 979              		.loc 1 173 26 view .LVU219
 980              	.LBE2:
 176:../../core/drivers/S25FL256/src/S25FL256.c ****     {
 981              		.loc 1 176 5 is_stmt 1 view .LVU220
ARM GAS  C:\Users\RUBENJ~1\AppData\Local\Temp\ccJ3OEkh.s 			page 29


 176:../../core/drivers/S25FL256/src/S25FL256.c ****     {
 982              		.loc 1 176 30 is_stmt 0 view .LVU221
 983 0048 0C4A     		ldr	r2, .L74
 984 004a 1168     		ldr	r1, [r2]
 176:../../core/drivers/S25FL256/src/S25FL256.c ****     {
 985              		.loc 1 176 8 view .LVU222
 986 004c 0C4A     		ldr	r2, .L74+4
 987 004e 9142     		cmp	r1, r2
 988 0050 10D8     		bhi	.L70
 181:../../core/drivers/S25FL256/src/S25FL256.c ****     {
 989              		.loc 1 181 10 is_stmt 1 view .LVU223
 181:../../core/drivers/S25FL256/src/S25FL256.c ****     {
 990              		.loc 1 181 13 is_stmt 0 view .LVU224
 991 0052 0CB9     		cbnz	r4, .L73
 992              	.LVL82:
 993              	.L67:
 188:../../core/drivers/S25FL256/src/S25FL256.c **** }
 994              		.loc 1 188 5 is_stmt 1 view .LVU225
 188:../../core/drivers/S25FL256/src/S25FL256.c **** }
 995              		.loc 1 188 18 is_stmt 0 view .LVU226
 996 0054 381B     		subs	r0, r7, r4
 997              	.LVL83:
 998              	.L63:
 189:../../core/drivers/S25FL256/src/S25FL256.c **** 
 999              		.loc 1 189 1 view .LVU227
 1000 0056 F8BD     		pop	{r3, r4, r5, r6, r7, pc}
 1001              	.LVL84:
 1002              	.L73:
 184:../../core/drivers/S25FL256/src/S25FL256.c ****         bytesLeftToWrite = 0;
 1003              		.loc 1 184 9 is_stmt 1 view .LVU228
 1004 0058 2246     		mov	r2, r4
 1005 005a 2946     		mov	r1, r5
 1006 005c 0A48     		ldr	r0, .L74+12
 1007 005e 1844     		add	r0, r0, r3
 1008 0060 FFF7FEFF 		bl	memcpy
 1009              	.LVL85:
 185:../../core/drivers/S25FL256/src/S25FL256.c ****     }
 1010              		.loc 1 185 9 view .LVU229
 185:../../core/drivers/S25FL256/src/S25FL256.c ****     }
 1011              		.loc 1 185 26 is_stmt 0 view .LVU230
 1012 0064 0024     		movs	r4, #0
 1013 0066 F5E7     		b	.L67
 1014              	.LVL86:
 1015              	.L68:
 143:../../core/drivers/S25FL256/src/S25FL256.c ****     }
 1016              		.loc 1 143 16 view .LVU231
 1017 0068 6FF00100 		mvn	r0, #1
 1018 006c F3E7     		b	.L63
 1019              	.L69:
 148:../../core/drivers/S25FL256/src/S25FL256.c ****     }
 1020              		.loc 1 148 16 view .LVU232
 1021 006e 6FF00400 		mvn	r0, #4
 1022 0072 F0E7     		b	.L63
 1023              	.LVL87:
 1024              	.L70:
 179:../../core/drivers/S25FL256/src/S25FL256.c ****     }
 1025              		.loc 1 179 16 view .LVU233
ARM GAS  C:\Users\RUBENJ~1\AppData\Local\Temp\ccJ3OEkh.s 			page 30


 1026 0074 6FF00400 		mvn	r0, #4
 1027 0078 EDE7     		b	.L63
 1028              	.L75:
 1029 007a 00BF     		.align	2
 1030              	.L74:
 1031 007c 00000000 		.word	mCurrentWriteAddress
 1032 0080 0048E801 		.word	32000000
 1033 0084 00000000 		.word	mMemBlockIndex
 1034 0088 00000000 		.word	mMemBlock
 1035              		.cfi_endproc
 1036              	.LFE129:
 1038              		.section	.text.S25FL256_TestRW,"ax",%progbits
 1039              		.align	1
 1040              		.global	S25FL256_TestRW
 1041              		.syntax unified
 1042              		.thumb
 1043              		.thumb_func
 1044              		.fpu fpv4-sp-d16
 1046              	S25FL256_TestRW:
 1047              	.LFB139:
 448:../../core/drivers/S25FL256/src/S25FL256.c **** 
 449:../../core/drivers/S25FL256/src/S25FL256.c **** /* READ WRITE TEST 
 450:../../core/drivers/S25FL256/src/S25FL256.c **** *writes 1 block en reads it
 451:../../core/drivers/S25FL256/src/S25FL256.c **** * returns 1 if equal (success), 0 if not equal (fail)
 452:../../core/drivers/S25FL256/src/S25FL256.c **** */
 453:../../core/drivers/S25FL256/src/S25FL256.c **** uint8_t S25FL256_TestRW()
 454:../../core/drivers/S25FL256/src/S25FL256.c **** {
 1048              		.loc 1 454 1 is_stmt 1 view -0
 1049              		.cfi_startproc
 1050              		@ args = 0, pretend = 0, frame = 0
 1051              		@ frame_needed = 0, uses_anonymous_args = 0
 1052 0000 70B5     		push	{r4, r5, r6, lr}
 1053              	.LCFI13:
 1054              		.cfi_def_cfa_offset 16
 1055              		.cfi_offset 4, -16
 1056              		.cfi_offset 5, -12
 1057              		.cfi_offset 6, -8
 1058              		.cfi_offset 14, -4
 455:../../core/drivers/S25FL256/src/S25FL256.c ****     //test flash RW
 456:../../core/drivers/S25FL256/src/S25FL256.c ****     #define SIZE 256
 457:../../core/drivers/S25FL256/src/S25FL256.c ****     #define BLOCK_ID 0
 458:../../core/drivers/S25FL256/src/S25FL256.c **** 
 459:../../core/drivers/S25FL256/src/S25FL256.c ****     uint8_t block1 = 1;
 1059              		.loc 1 459 5 view .LVU235
 1060              	.LVL88:
 460:../../core/drivers/S25FL256/src/S25FL256.c ****     uint8_t block2 = 1;
 1061              		.loc 1 460 5 view .LVU236
 461:../../core/drivers/S25FL256/src/S25FL256.c ****     uint8_t block3 = 1;
 1062              		.loc 1 461 5 view .LVU237
 462:../../core/drivers/S25FL256/src/S25FL256.c ****     
 463:../../core/drivers/S25FL256/src/S25FL256.c **** 
 464:../../core/drivers/S25FL256/src/S25FL256.c ****     static uint8_t tx[SIZE];
 1063              		.loc 1 464 5 view .LVU238
 465:../../core/drivers/S25FL256/src/S25FL256.c ****     static uint8_t rx[SIZE];
 1064              		.loc 1 465 5 view .LVU239
 466:../../core/drivers/S25FL256/src/S25FL256.c **** 
 467:../../core/drivers/S25FL256/src/S25FL256.c ****     //fill tx array
ARM GAS  C:\Users\RUBENJ~1\AppData\Local\Temp\ccJ3OEkh.s 			page 31


 468:../../core/drivers/S25FL256/src/S25FL256.c ****     for (int n = 0; n < SIZE; n++)
 1065              		.loc 1 468 5 view .LVU240
 1066              	.LBB3:
 1067              		.loc 1 468 10 view .LVU241
 1068              		.loc 1 468 14 is_stmt 0 view .LVU242
 1069 0002 0023     		movs	r3, #0
 1070              	.LVL89:
 1071              	.L77:
 1072              		.loc 1 468 5 discriminator 1 view .LVU243
 1073 0004 FF2B     		cmp	r3, #255
 1074 0006 03DC     		bgt	.L104
 469:../../core/drivers/S25FL256/src/S25FL256.c ****     {
 470:../../core/drivers/S25FL256/src/S25FL256.c ****         tx[n] = n;
 1075              		.loc 1 470 9 is_stmt 1 discriminator 3 view .LVU244
 1076              		.loc 1 470 15 is_stmt 0 discriminator 3 view .LVU245
 1077 0008 434A     		ldr	r2, .L110
 1078 000a D354     		strb	r3, [r2, r3]
 468:../../core/drivers/S25FL256/src/S25FL256.c ****     {
 1079              		.loc 1 468 32 discriminator 3 view .LVU246
 1080 000c 0133     		adds	r3, r3, #1
 1081              	.LVL90:
 468:../../core/drivers/S25FL256/src/S25FL256.c ****     {
 1082              		.loc 1 468 32 discriminator 3 view .LVU247
 1083 000e F9E7     		b	.L77
 1084              	.L104:
 468:../../core/drivers/S25FL256/src/S25FL256.c ****     {
 1085              		.loc 1 468 32 discriminator 3 view .LVU248
 1086              	.LBE3:
 471:../../core/drivers/S25FL256/src/S25FL256.c ****     }
 472:../../core/drivers/S25FL256/src/S25FL256.c **** 
 473:../../core/drivers/S25FL256/src/S25FL256.c ****     S25FL256_open(BLOCK_ID);
 1087              		.loc 1 473 5 is_stmt 1 view .LVU249
 1088 0010 0020     		movs	r0, #0
 1089 0012 FFF7FEFF 		bl	S25FL256_open
 1090              	.LVL91:
 474:../../core/drivers/S25FL256/src/S25FL256.c **** 
 475:../../core/drivers/S25FL256/src/S25FL256.c ****     S25FL256_write((uint8_t *)tx, SIZE);
 1091              		.loc 1 475 5 view .LVU250
 1092 0016 4FF48071 		mov	r1, #256
 1093 001a 3F48     		ldr	r0, .L110
 1094 001c FFF7FEFF 		bl	S25FL256_write
 1095              	.LVL92:
 476:../../core/drivers/S25FL256/src/S25FL256.c **** 
 477:../../core/drivers/S25FL256/src/S25FL256.c ****     while (S25FL256_isWriteInProgress())
 1096              		.loc 1 477 5 view .LVU251
 1097              		.loc 1 477 11 is_stmt 0 view .LVU252
 1098 0020 02E0     		b	.L79
 1099              	.L80:
 478:../../core/drivers/S25FL256/src/S25FL256.c ****     {
 479:../../core/drivers/S25FL256/src/S25FL256.c ****         HAL_Delay(SPI_WAIT);
 1100              		.loc 1 479 9 is_stmt 1 view .LVU253
 1101 0022 3220     		movs	r0, #50
 1102 0024 FFF7FEFF 		bl	HAL_Delay
 1103              	.LVL93:
 1104              	.L79:
 477:../../core/drivers/S25FL256/src/S25FL256.c ****     {
 1105              		.loc 1 477 12 is_stmt 0 view .LVU254
ARM GAS  C:\Users\RUBENJ~1\AppData\Local\Temp\ccJ3OEkh.s 			page 32


 1106 0028 FFF7FEFF 		bl	S25FL256_isWriteInProgress
 1107              	.LVL94:
 477:../../core/drivers/S25FL256/src/S25FL256.c ****     {
 1108              		.loc 1 477 11 view .LVU255
 1109 002c 0546     		mov	r5, r0
 1110 002e 0028     		cmp	r0, #0
 1111 0030 F7D1     		bne	.L80
 480:../../core/drivers/S25FL256/src/S25FL256.c ****     }
 481:../../core/drivers/S25FL256/src/S25FL256.c **** 
 482:../../core/drivers/S25FL256/src/S25FL256.c ****     S25FL256_read((uint8_t *)rx, SIZE);
 1112              		.loc 1 482 5 is_stmt 1 view .LVU256
 1113 0032 4FF48071 		mov	r1, #256
 1114 0036 3948     		ldr	r0, .L110+4
 1115 0038 FFF7FEFF 		bl	S25FL256_read
 1116              	.LVL95:
 483:../../core/drivers/S25FL256/src/S25FL256.c ****     
 484:../../core/drivers/S25FL256/src/S25FL256.c ****     for(int i = 0; i < SIZE; i++)
 1117              		.loc 1 484 5 view .LVU257
 1118              	.LBB4:
 1119              		.loc 1 484 9 view .LVU258
 1120              		.loc 1 484 13 is_stmt 0 view .LVU259
 1121 003c 0023     		movs	r3, #0
 1122              	.LBE4:
 459:../../core/drivers/S25FL256/src/S25FL256.c ****     uint8_t block2 = 1;
 1123              		.loc 1 459 13 view .LVU260
 1124 003e 0124     		movs	r4, #1
 1125              	.LBB5:
 1126              		.loc 1 484 5 view .LVU261
 1127 0040 00E0     		b	.L81
 1128              	.LVL96:
 1129              	.L82:
 1130              		.loc 1 484 31 discriminator 2 view .LVU262
 1131 0042 0133     		adds	r3, r3, #1
 1132              	.LVL97:
 1133              	.L81:
 1134              		.loc 1 484 5 discriminator 1 view .LVU263
 1135 0044 FF2B     		cmp	r3, #255
 1136 0046 07DC     		bgt	.L105
 485:../../core/drivers/S25FL256/src/S25FL256.c ****     {
 486:../../core/drivers/S25FL256/src/S25FL256.c ****         if(tx[i] != rx[i])
 1137              		.loc 1 486 9 is_stmt 1 view .LVU264
 1138              		.loc 1 486 14 is_stmt 0 view .LVU265
 1139 0048 334A     		ldr	r2, .L110
 1140 004a D15C     		ldrb	r1, [r2, r3]	@ zero_extendqisi2
 1141              		.loc 1 486 23 view .LVU266
 1142 004c 334A     		ldr	r2, .L110+4
 1143 004e D25C     		ldrb	r2, [r2, r3]	@ zero_extendqisi2
 1144              		.loc 1 486 11 view .LVU267
 1145 0050 9142     		cmp	r1, r2
 1146 0052 F6D0     		beq	.L82
 487:../../core/drivers/S25FL256/src/S25FL256.c ****         {
 488:../../core/drivers/S25FL256/src/S25FL256.c ****             block1 =0;
 1147              		.loc 1 488 20 view .LVU268
 1148 0054 2C46     		mov	r4, r5
 1149              	.LVL98:
 1150              		.loc 1 488 20 view .LVU269
 1151 0056 F4E7     		b	.L82
ARM GAS  C:\Users\RUBENJ~1\AppData\Local\Temp\ccJ3OEkh.s 			page 33


 1152              	.LVL99:
 1153              	.L105:
 1154              		.loc 1 488 20 view .LVU270
 1155              	.LBE5:
 1156              	.LBB6:
 489:../../core/drivers/S25FL256/src/S25FL256.c ****         }
 490:../../core/drivers/S25FL256/src/S25FL256.c ****     }
 491:../../core/drivers/S25FL256/src/S25FL256.c **** 
 492:../../core/drivers/S25FL256/src/S25FL256.c ****     for (int n = 0; n < SIZE; n++)
 1157              		.loc 1 492 14 view .LVU271
 1158 0058 0023     		movs	r3, #0
 1159              	.LVL100:
 1160              	.L84:
 1161              		.loc 1 492 5 discriminator 1 view .LVU272
 1162 005a FF2B     		cmp	r3, #255
 1163 005c 04DC     		bgt	.L106
 493:../../core/drivers/S25FL256/src/S25FL256.c ****     {
 494:../../core/drivers/S25FL256/src/S25FL256.c ****         tx[n] = 255-n;
 1164              		.loc 1 494 9 is_stmt 1 discriminator 3 view .LVU273
 1165              		.loc 1 494 20 is_stmt 0 discriminator 3 view .LVU274
 1166 005e D943     		mvns	r1, r3
 1167              		.loc 1 494 15 discriminator 3 view .LVU275
 1168 0060 2D4A     		ldr	r2, .L110
 1169 0062 D154     		strb	r1, [r2, r3]
 492:../../core/drivers/S25FL256/src/S25FL256.c ****     {
 1170              		.loc 1 492 32 discriminator 3 view .LVU276
 1171 0064 0133     		adds	r3, r3, #1
 1172              	.LVL101:
 492:../../core/drivers/S25FL256/src/S25FL256.c ****     {
 1173              		.loc 1 492 32 discriminator 3 view .LVU277
 1174 0066 F8E7     		b	.L84
 1175              	.L106:
 492:../../core/drivers/S25FL256/src/S25FL256.c ****     {
 1176              		.loc 1 492 32 discriminator 3 view .LVU278
 1177              	.LBE6:
 495:../../core/drivers/S25FL256/src/S25FL256.c ****     }
 496:../../core/drivers/S25FL256/src/S25FL256.c ****     S25FL256_open(BLOCK_ID+1);
 1178              		.loc 1 496 5 is_stmt 1 view .LVU279
 1179 0068 0120     		movs	r0, #1
 1180 006a FFF7FEFF 		bl	S25FL256_open
 1181              	.LVL102:
 497:../../core/drivers/S25FL256/src/S25FL256.c **** 
 498:../../core/drivers/S25FL256/src/S25FL256.c ****     S25FL256_write((uint8_t *)tx, SIZE);
 1182              		.loc 1 498 5 view .LVU280
 1183 006e 4FF48071 		mov	r1, #256
 1184 0072 2948     		ldr	r0, .L110
 1185 0074 FFF7FEFF 		bl	S25FL256_write
 1186              	.LVL103:
 499:../../core/drivers/S25FL256/src/S25FL256.c **** 
 500:../../core/drivers/S25FL256/src/S25FL256.c ****     while (S25FL256_isWriteInProgress())
 1187              		.loc 1 500 5 view .LVU281
 1188              		.loc 1 500 11 is_stmt 0 view .LVU282
 1189 0078 02E0     		b	.L86
 1190              	.L87:
 501:../../core/drivers/S25FL256/src/S25FL256.c ****     {
 502:../../core/drivers/S25FL256/src/S25FL256.c ****         HAL_Delay(SPI_WAIT);
 1191              		.loc 1 502 9 is_stmt 1 view .LVU283
ARM GAS  C:\Users\RUBENJ~1\AppData\Local\Temp\ccJ3OEkh.s 			page 34


 1192 007a 3220     		movs	r0, #50
 1193 007c FFF7FEFF 		bl	HAL_Delay
 1194              	.LVL104:
 1195              	.L86:
 500:../../core/drivers/S25FL256/src/S25FL256.c ****     {
 1196              		.loc 1 500 12 is_stmt 0 view .LVU284
 1197 0080 FFF7FEFF 		bl	S25FL256_isWriteInProgress
 1198              	.LVL105:
 500:../../core/drivers/S25FL256/src/S25FL256.c ****     {
 1199              		.loc 1 500 11 view .LVU285
 1200 0084 0646     		mov	r6, r0
 1201 0086 0028     		cmp	r0, #0
 1202 0088 F7D1     		bne	.L87
 503:../../core/drivers/S25FL256/src/S25FL256.c ****     }
 504:../../core/drivers/S25FL256/src/S25FL256.c **** 
 505:../../core/drivers/S25FL256/src/S25FL256.c ****     S25FL256_read((uint8_t *)rx, SIZE);
 1203              		.loc 1 505 5 is_stmt 1 view .LVU286
 1204 008a 4FF48071 		mov	r1, #256
 1205 008e 2348     		ldr	r0, .L110+4
 1206 0090 FFF7FEFF 		bl	S25FL256_read
 1207              	.LVL106:
 506:../../core/drivers/S25FL256/src/S25FL256.c ****     
 507:../../core/drivers/S25FL256/src/S25FL256.c ****     for(int i = 0; i < SIZE; i++)
 1208              		.loc 1 507 5 view .LVU287
 1209              	.LBB7:
 1210              		.loc 1 507 9 view .LVU288
 1211              		.loc 1 507 13 is_stmt 0 view .LVU289
 1212 0094 0023     		movs	r3, #0
 1213              	.LBE7:
 460:../../core/drivers/S25FL256/src/S25FL256.c ****     uint8_t block3 = 1;
 1214              		.loc 1 460 13 view .LVU290
 1215 0096 0125     		movs	r5, #1
 1216              	.LBB8:
 1217              		.loc 1 507 5 view .LVU291
 1218 0098 00E0     		b	.L88
 1219              	.LVL107:
 1220              	.L89:
 1221              		.loc 1 507 31 discriminator 2 view .LVU292
 1222 009a 0133     		adds	r3, r3, #1
 1223              	.LVL108:
 1224              	.L88:
 1225              		.loc 1 507 5 discriminator 1 view .LVU293
 1226 009c FF2B     		cmp	r3, #255
 1227 009e 07DC     		bgt	.L107
 508:../../core/drivers/S25FL256/src/S25FL256.c ****     {
 509:../../core/drivers/S25FL256/src/S25FL256.c ****         if(tx[i] != rx[i])
 1228              		.loc 1 509 9 is_stmt 1 view .LVU294
 1229              		.loc 1 509 14 is_stmt 0 view .LVU295
 1230 00a0 1D4A     		ldr	r2, .L110
 1231 00a2 D15C     		ldrb	r1, [r2, r3]	@ zero_extendqisi2
 1232              		.loc 1 509 23 view .LVU296
 1233 00a4 1D4A     		ldr	r2, .L110+4
 1234 00a6 D25C     		ldrb	r2, [r2, r3]	@ zero_extendqisi2
 1235              		.loc 1 509 11 view .LVU297
 1236 00a8 9142     		cmp	r1, r2
 1237 00aa F6D0     		beq	.L89
 510:../../core/drivers/S25FL256/src/S25FL256.c ****         {
ARM GAS  C:\Users\RUBENJ~1\AppData\Local\Temp\ccJ3OEkh.s 			page 35


 511:../../core/drivers/S25FL256/src/S25FL256.c ****             block2 = 0;
 1238              		.loc 1 511 20 view .LVU298
 1239 00ac 3546     		mov	r5, r6
 1240              	.LVL109:
 1241              		.loc 1 511 20 view .LVU299
 1242 00ae F4E7     		b	.L89
 1243              	.LVL110:
 1244              	.L107:
 1245              		.loc 1 511 20 view .LVU300
 1246              	.LBE8:
 1247              	.LBB9:
 512:../../core/drivers/S25FL256/src/S25FL256.c ****         }
 513:../../core/drivers/S25FL256/src/S25FL256.c ****     }
 514:../../core/drivers/S25FL256/src/S25FL256.c ****     for (int n = 0; n < SIZE; n++)
 1248              		.loc 1 514 14 view .LVU301
 1249 00b0 0023     		movs	r3, #0
 1250              	.LVL111:
 1251              	.L91:
 1252              		.loc 1 514 5 discriminator 1 view .LVU302
 1253 00b2 FF2B     		cmp	r3, #255
 1254 00b4 06DC     		bgt	.L108
 515:../../core/drivers/S25FL256/src/S25FL256.c ****     {
 516:../../core/drivers/S25FL256/src/S25FL256.c ****         tx[n] = n/2;
 1255              		.loc 1 516 9 is_stmt 1 discriminator 3 view .LVU303
 1256              		.loc 1 516 18 is_stmt 0 discriminator 3 view .LVU304
 1257 00b6 03EBD372 		add	r2, r3, r3, lsr #31
 1258 00ba 5210     		asrs	r2, r2, #1
 1259              		.loc 1 516 15 discriminator 3 view .LVU305
 1260 00bc 1649     		ldr	r1, .L110
 1261 00be CA54     		strb	r2, [r1, r3]
 514:../../core/drivers/S25FL256/src/S25FL256.c ****     {
 1262              		.loc 1 514 32 discriminator 3 view .LVU306
 1263 00c0 0133     		adds	r3, r3, #1
 1264              	.LVL112:
 514:../../core/drivers/S25FL256/src/S25FL256.c ****     {
 1265              		.loc 1 514 32 discriminator 3 view .LVU307
 1266 00c2 F6E7     		b	.L91
 1267              	.L108:
 514:../../core/drivers/S25FL256/src/S25FL256.c ****     {
 1268              		.loc 1 514 32 discriminator 3 view .LVU308
 1269              	.LBE9:
 517:../../core/drivers/S25FL256/src/S25FL256.c ****     }
 518:../../core/drivers/S25FL256/src/S25FL256.c ****     S25FL256_open(BLOCK_ID+2);
 1270              		.loc 1 518 5 is_stmt 1 view .LVU309
 1271 00c4 0220     		movs	r0, #2
 1272 00c6 FFF7FEFF 		bl	S25FL256_open
 1273              	.LVL113:
 519:../../core/drivers/S25FL256/src/S25FL256.c **** 
 520:../../core/drivers/S25FL256/src/S25FL256.c ****     S25FL256_write((uint8_t *)tx, SIZE);
 1274              		.loc 1 520 5 view .LVU310
 1275 00ca 4FF48071 		mov	r1, #256
 1276 00ce 1248     		ldr	r0, .L110
 1277 00d0 FFF7FEFF 		bl	S25FL256_write
 1278              	.LVL114:
 521:../../core/drivers/S25FL256/src/S25FL256.c **** 
 522:../../core/drivers/S25FL256/src/S25FL256.c ****     while (S25FL256_isWriteInProgress())
 1279              		.loc 1 522 5 view .LVU311
ARM GAS  C:\Users\RUBENJ~1\AppData\Local\Temp\ccJ3OEkh.s 			page 36


 1280              		.loc 1 522 11 is_stmt 0 view .LVU312
 1281 00d4 02E0     		b	.L93
 1282              	.L94:
 523:../../core/drivers/S25FL256/src/S25FL256.c ****     {
 524:../../core/drivers/S25FL256/src/S25FL256.c ****         HAL_Delay(SPI_WAIT);
 1283              		.loc 1 524 9 is_stmt 1 view .LVU313
 1284 00d6 3220     		movs	r0, #50
 1285 00d8 FFF7FEFF 		bl	HAL_Delay
 1286              	.LVL115:
 1287              	.L93:
 522:../../core/drivers/S25FL256/src/S25FL256.c ****     {
 1288              		.loc 1 522 12 is_stmt 0 view .LVU314
 1289 00dc FFF7FEFF 		bl	S25FL256_isWriteInProgress
 1290              	.LVL116:
 522:../../core/drivers/S25FL256/src/S25FL256.c ****     {
 1291              		.loc 1 522 11 view .LVU315
 1292 00e0 0646     		mov	r6, r0
 1293 00e2 0028     		cmp	r0, #0
 1294 00e4 F7D1     		bne	.L94
 525:../../core/drivers/S25FL256/src/S25FL256.c ****     }
 526:../../core/drivers/S25FL256/src/S25FL256.c **** 
 527:../../core/drivers/S25FL256/src/S25FL256.c ****     S25FL256_read((uint8_t *)rx, SIZE);
 1295              		.loc 1 527 5 is_stmt 1 view .LVU316
 1296 00e6 4FF48071 		mov	r1, #256
 1297 00ea 0C48     		ldr	r0, .L110+4
 1298 00ec FFF7FEFF 		bl	S25FL256_read
 1299              	.LVL117:
 528:../../core/drivers/S25FL256/src/S25FL256.c ****     
 529:../../core/drivers/S25FL256/src/S25FL256.c ****     for(int i = 0; i < SIZE; i++)
 1300              		.loc 1 529 5 view .LVU317
 1301              	.LBB10:
 1302              		.loc 1 529 9 view .LVU318
 1303              		.loc 1 529 13 is_stmt 0 view .LVU319
 1304 00f0 0023     		movs	r3, #0
 1305              	.LBE10:
 461:../../core/drivers/S25FL256/src/S25FL256.c ****     
 1306              		.loc 1 461 13 view .LVU320
 1307 00f2 0120     		movs	r0, #1
 1308              	.LBB11:
 1309              		.loc 1 529 5 view .LVU321
 1310 00f4 00E0     		b	.L95
 1311              	.LVL118:
 1312              	.L96:
 1313              		.loc 1 529 31 discriminator 2 view .LVU322
 1314 00f6 0133     		adds	r3, r3, #1
 1315              	.LVL119:
 1316              	.L95:
 1317              		.loc 1 529 5 discriminator 1 view .LVU323
 1318 00f8 FF2B     		cmp	r3, #255
 1319 00fa 07DC     		bgt	.L109
 530:../../core/drivers/S25FL256/src/S25FL256.c ****     {
 531:../../core/drivers/S25FL256/src/S25FL256.c ****         if(tx[i] != rx[i])
 1320              		.loc 1 531 9 is_stmt 1 view .LVU324
 1321              		.loc 1 531 14 is_stmt 0 view .LVU325
 1322 00fc 064A     		ldr	r2, .L110
 1323 00fe D15C     		ldrb	r1, [r2, r3]	@ zero_extendqisi2
 1324              		.loc 1 531 23 view .LVU326
ARM GAS  C:\Users\RUBENJ~1\AppData\Local\Temp\ccJ3OEkh.s 			page 37


 1325 0100 064A     		ldr	r2, .L110+4
 1326 0102 D25C     		ldrb	r2, [r2, r3]	@ zero_extendqisi2
 1327              		.loc 1 531 11 view .LVU327
 1328 0104 9142     		cmp	r1, r2
 1329 0106 F6D0     		beq	.L96
 532:../../core/drivers/S25FL256/src/S25FL256.c ****         {
 533:../../core/drivers/S25FL256/src/S25FL256.c ****             block3 = 0;
 1330              		.loc 1 533 20 view .LVU328
 1331 0108 3046     		mov	r0, r6
 1332              	.LVL120:
 1333              		.loc 1 533 20 view .LVU329
 1334 010a F4E7     		b	.L96
 1335              	.LVL121:
 1336              	.L109:
 1337              		.loc 1 533 20 view .LVU330
 1338              	.LBE11:
 534:../../core/drivers/S25FL256/src/S25FL256.c ****         }
 535:../../core/drivers/S25FL256/src/S25FL256.c ****     }
 536:../../core/drivers/S25FL256/src/S25FL256.c ****     if(block1 && block2 && block3)
 1339              		.loc 1 536 5 is_stmt 1 view .LVU331
 1340              		.loc 1 536 7 is_stmt 0 view .LVU332
 1341 010c 14B1     		cbz	r4, .L98
 1342              		.loc 1 536 15 discriminator 1 view .LVU333
 1343 010e 0DB1     		cbz	r5, .L98
 1344              		.loc 1 536 25 discriminator 2 view .LVU334
 1345 0110 00B1     		cbz	r0, .L98
 537:../../core/drivers/S25FL256/src/S25FL256.c ****         return 1;
 1346              		.loc 1 537 16 view .LVU335
 1347 0112 0646     		mov	r6, r0
 1348              	.L98:
 538:../../core/drivers/S25FL256/src/S25FL256.c ****     else
 539:../../core/drivers/S25FL256/src/S25FL256.c ****         return 0;
 540:../../core/drivers/S25FL256/src/S25FL256.c **** }...
 1349              		.loc 1 540 1 view .LVU336
 1350 0114 3046     		mov	r0, r6
 1351              	.LVL122:
 1352              		.loc 1 540 1 view .LVU337
 1353 0116 70BD     		pop	{r4, r5, r6, pc}
 1354              	.LVL123:
 1355              	.L111:
 1356              		.loc 1 540 1 view .LVU338
 1357              		.align	2
 1358              	.L110:
 1359 0118 00000000 		.word	.LANCHOR0
 1360 011c 00000000 		.word	.LANCHOR1
 1361              		.cfi_endproc
 1362              	.LFE139:
 1364              		.comm	flashSPI,4,4
 1365              		.comm	txData,5,4
 1366              		.comm	rxData,1,4
 1367              		.comm	_initialised,1,1
 1368              		.comm	mMemBlockIndex,2,2
 1369              		.comm	mMemBlock,256,4
 1370              		.comm	mCurrentWriteAddress,4,4
 1371              		.comm	mCurrentReadAddress,4,4
 1372              		.section	.bss.rx.10374,"aw",%nobits
 1373              		.align	2
ARM GAS  C:\Users\RUBENJ~1\AppData\Local\Temp\ccJ3OEkh.s 			page 38


 1374              		.set	.LANCHOR1,. + 0
 1377              	rx.10374:
 1378 0000 00000000 		.space	256
 1378      00000000 
 1378      00000000 
 1378      00000000 
 1378      00000000 
 1379              		.section	.bss.tx.10373,"aw",%nobits
 1380              		.align	2
 1381              		.set	.LANCHOR0,. + 0
 1384              	tx.10373:
 1385 0000 00000000 		.space	256
 1385      00000000 
 1385      00000000 
 1385      00000000 
 1385      00000000 
 1386              		.text
 1387              	.Letext0:
 1388              		.file 2 "c:\\program files (x86)\\gnu tools arm embedded\\8 2019-q3-update\\arm-none-eabi\\include
 1389              		.file 3 "c:\\program files (x86)\\gnu tools arm embedded\\8 2019-q3-update\\arm-none-eabi\\include
 1390              		.file 4 "../../core/ST/CMSIS/Include/core_cm4.h"
 1391              		.file 5 "../../core/ST/CMSIS/Device/ST/STM32L4xx/Include/system_stm32l4xx.h"
 1392              		.file 6 "../../core/ST/CMSIS/Device/ST/STM32L4xx/Include/stm32l496xx.h"
 1393              		.file 7 "../../core/ST/STM32L4xx_HAL_Driver/Inc/stm32l4xx_hal_def.h"
 1394              		.file 8 "../../core/ST/STM32L4xx_HAL_Driver/Inc/stm32l4xx_hal_gpio.h"
 1395              		.file 9 "../../core/ST/STM32L4xx_HAL_Driver/Inc/stm32l4xx_hal_dma.h"
 1396              		.file 10 "../../core/ST/STM32L4xx_HAL_Driver/Inc/stm32l4xx_hal_spi.h"
 1397              		.file 11 "../../core/ST/STM32L4xx_HAL_Driver/Inc/stm32l4xx_hal.h"
 1398              		.file 12 "../../core/drivers/S25FL256/inc/S25FL256.h"
 1399              		.file 13 "c:\\program files (x86)\\gnu tools arm embedded\\8 2019-q3-update\\lib\\gcc\\arm-none-ea
 1400              		.file 14 "c:\\program files (x86)\\gnu tools arm embedded\\8 2019-q3-update\\arm-none-eabi\\includ
 1401              		.file 15 "c:\\program files (x86)\\gnu tools arm embedded\\8 2019-q3-update\\arm-none-eabi\\includ
 1402              		.file 16 "c:\\program files (x86)\\gnu tools arm embedded\\8 2019-q3-update\\arm-none-eabi\\includ
 1403              		.file 17 "<built-in>"
ARM GAS  C:\Users\RUBENJ~1\AppData\Local\Temp\ccJ3OEkh.s 			page 39

